
/home/tenebris/Documents/RootCauseAnalysisPruning/evaluation//test_bin/22-ezXML/ezxml_trace:     file format elf64-x86-64


Disassembly of section .init:

0000000000001000 <_init>:
_init():
    1000:	f3 0f 1e fa          	endbr64 
    1004:	48 83 ec 08          	sub    $0x8,%rsp
    1008:	48 8b 05 d9 7f 00 00 	mov    0x7fd9(%rip),%rax        # 8fe8 <__gmon_start__@Base>
    100f:	48 85 c0             	test   %rax,%rax
    1012:	74 02                	je     1016 <_init+0x16>
    1014:	ff d0                	call   *%rax
    1016:	48 83 c4 08          	add    $0x8,%rsp
    101a:	c3                   	ret    

Disassembly of section .plt:

0000000000001020 <.plt>:
    1020:	ff 35 9a 7e 00 00    	push   0x7e9a(%rip)        # 8ec0 <_GLOBAL_OFFSET_TABLE_+0x8>
    1026:	f2 ff 25 9b 7e 00 00 	bnd jmp *0x7e9b(%rip)        # 8ec8 <_GLOBAL_OFFSET_TABLE_+0x10>
    102d:	0f 1f 00             	nopl   (%rax)
    1030:	f3 0f 1e fa          	endbr64 
    1034:	68 00 00 00 00       	push   $0x0
    1039:	f2 e9 e1 ff ff ff    	bnd jmp 1020 <_init+0x20>
    103f:	90                   	nop
    1040:	f3 0f 1e fa          	endbr64 
    1044:	68 01 00 00 00       	push   $0x1
    1049:	f2 e9 d1 ff ff ff    	bnd jmp 1020 <_init+0x20>
    104f:	90                   	nop
    1050:	f3 0f 1e fa          	endbr64 
    1054:	68 02 00 00 00       	push   $0x2
    1059:	f2 e9 c1 ff ff ff    	bnd jmp 1020 <_init+0x20>
    105f:	90                   	nop
    1060:	f3 0f 1e fa          	endbr64 
    1064:	68 03 00 00 00       	push   $0x3
    1069:	f2 e9 b1 ff ff ff    	bnd jmp 1020 <_init+0x20>
    106f:	90                   	nop
    1070:	f3 0f 1e fa          	endbr64 
    1074:	68 04 00 00 00       	push   $0x4
    1079:	f2 e9 a1 ff ff ff    	bnd jmp 1020 <_init+0x20>
    107f:	90                   	nop
    1080:	f3 0f 1e fa          	endbr64 
    1084:	68 05 00 00 00       	push   $0x5
    1089:	f2 e9 91 ff ff ff    	bnd jmp 1020 <_init+0x20>
    108f:	90                   	nop
    1090:	f3 0f 1e fa          	endbr64 
    1094:	68 06 00 00 00       	push   $0x6
    1099:	f2 e9 81 ff ff ff    	bnd jmp 1020 <_init+0x20>
    109f:	90                   	nop
    10a0:	f3 0f 1e fa          	endbr64 
    10a4:	68 07 00 00 00       	push   $0x7
    10a9:	f2 e9 71 ff ff ff    	bnd jmp 1020 <_init+0x20>
    10af:	90                   	nop
    10b0:	f3 0f 1e fa          	endbr64 
    10b4:	68 08 00 00 00       	push   $0x8
    10b9:	f2 e9 61 ff ff ff    	bnd jmp 1020 <_init+0x20>
    10bf:	90                   	nop
    10c0:	f3 0f 1e fa          	endbr64 
    10c4:	68 09 00 00 00       	push   $0x9
    10c9:	f2 e9 51 ff ff ff    	bnd jmp 1020 <_init+0x20>
    10cf:	90                   	nop
    10d0:	f3 0f 1e fa          	endbr64 
    10d4:	68 0a 00 00 00       	push   $0xa
    10d9:	f2 e9 41 ff ff ff    	bnd jmp 1020 <_init+0x20>
    10df:	90                   	nop
    10e0:	f3 0f 1e fa          	endbr64 
    10e4:	68 0b 00 00 00       	push   $0xb
    10e9:	f2 e9 31 ff ff ff    	bnd jmp 1020 <_init+0x20>
    10ef:	90                   	nop
    10f0:	f3 0f 1e fa          	endbr64 
    10f4:	68 0c 00 00 00       	push   $0xc
    10f9:	f2 e9 21 ff ff ff    	bnd jmp 1020 <_init+0x20>
    10ff:	90                   	nop
    1100:	f3 0f 1e fa          	endbr64 
    1104:	68 0d 00 00 00       	push   $0xd
    1109:	f2 e9 11 ff ff ff    	bnd jmp 1020 <_init+0x20>
    110f:	90                   	nop
    1110:	f3 0f 1e fa          	endbr64 
    1114:	68 0e 00 00 00       	push   $0xe
    1119:	f2 e9 01 ff ff ff    	bnd jmp 1020 <_init+0x20>
    111f:	90                   	nop
    1120:	f3 0f 1e fa          	endbr64 
    1124:	68 0f 00 00 00       	push   $0xf
    1129:	f2 e9 f1 fe ff ff    	bnd jmp 1020 <_init+0x20>
    112f:	90                   	nop
    1130:	f3 0f 1e fa          	endbr64 
    1134:	68 10 00 00 00       	push   $0x10
    1139:	f2 e9 e1 fe ff ff    	bnd jmp 1020 <_init+0x20>
    113f:	90                   	nop
    1140:	f3 0f 1e fa          	endbr64 
    1144:	68 11 00 00 00       	push   $0x11
    1149:	f2 e9 d1 fe ff ff    	bnd jmp 1020 <_init+0x20>
    114f:	90                   	nop
    1150:	f3 0f 1e fa          	endbr64 
    1154:	68 12 00 00 00       	push   $0x12
    1159:	f2 e9 c1 fe ff ff    	bnd jmp 1020 <_init+0x20>
    115f:	90                   	nop
    1160:	f3 0f 1e fa          	endbr64 
    1164:	68 13 00 00 00       	push   $0x13
    1169:	f2 e9 b1 fe ff ff    	bnd jmp 1020 <_init+0x20>
    116f:	90                   	nop
    1170:	f3 0f 1e fa          	endbr64 
    1174:	68 14 00 00 00       	push   $0x14
    1179:	f2 e9 a1 fe ff ff    	bnd jmp 1020 <_init+0x20>
    117f:	90                   	nop
    1180:	f3 0f 1e fa          	endbr64 
    1184:	68 15 00 00 00       	push   $0x15
    1189:	f2 e9 91 fe ff ff    	bnd jmp 1020 <_init+0x20>
    118f:	90                   	nop
    1190:	f3 0f 1e fa          	endbr64 
    1194:	68 16 00 00 00       	push   $0x16
    1199:	f2 e9 81 fe ff ff    	bnd jmp 1020 <_init+0x20>
    119f:	90                   	nop
    11a0:	f3 0f 1e fa          	endbr64 
    11a4:	68 17 00 00 00       	push   $0x17
    11a9:	f2 e9 71 fe ff ff    	bnd jmp 1020 <_init+0x20>
    11af:	90                   	nop
    11b0:	f3 0f 1e fa          	endbr64 
    11b4:	68 18 00 00 00       	push   $0x18
    11b9:	f2 e9 61 fe ff ff    	bnd jmp 1020 <_init+0x20>
    11bf:	90                   	nop
    11c0:	f3 0f 1e fa          	endbr64 
    11c4:	68 19 00 00 00       	push   $0x19
    11c9:	f2 e9 51 fe ff ff    	bnd jmp 1020 <_init+0x20>
    11cf:	90                   	nop
    11d0:	f3 0f 1e fa          	endbr64 
    11d4:	68 1a 00 00 00       	push   $0x1a
    11d9:	f2 e9 41 fe ff ff    	bnd jmp 1020 <_init+0x20>
    11df:	90                   	nop
    11e0:	f3 0f 1e fa          	endbr64 
    11e4:	68 1b 00 00 00       	push   $0x1b
    11e9:	f2 e9 31 fe ff ff    	bnd jmp 1020 <_init+0x20>
    11ef:	90                   	nop
    11f0:	f3 0f 1e fa          	endbr64 
    11f4:	68 1c 00 00 00       	push   $0x1c
    11f9:	f2 e9 21 fe ff ff    	bnd jmp 1020 <_init+0x20>
    11ff:	90                   	nop
    1200:	f3 0f 1e fa          	endbr64 
    1204:	68 1d 00 00 00       	push   $0x1d
    1209:	f2 e9 11 fe ff ff    	bnd jmp 1020 <_init+0x20>
    120f:	90                   	nop
    1210:	f3 0f 1e fa          	endbr64 
    1214:	68 1e 00 00 00       	push   $0x1e
    1219:	f2 e9 01 fe ff ff    	bnd jmp 1020 <_init+0x20>
    121f:	90                   	nop
    1220:	f3 0f 1e fa          	endbr64 
    1224:	68 1f 00 00 00       	push   $0x1f
    1229:	f2 e9 f1 fd ff ff    	bnd jmp 1020 <_init+0x20>
    122f:	90                   	nop
    1230:	f3 0f 1e fa          	endbr64 
    1234:	68 20 00 00 00       	push   $0x20
    1239:	f2 e9 e1 fd ff ff    	bnd jmp 1020 <_init+0x20>
    123f:	90                   	nop

Disassembly of section .plt.got:

0000000000001240 <__cxa_finalize@plt>:
    1240:	f3 0f 1e fa          	endbr64 
    1244:	f2 ff 25 ad 7d 00 00 	bnd jmp *0x7dad(%rip)        # 8ff8 <__cxa_finalize@GLIBC_2.2.5>
    124b:	0f 1f 44 00 00       	nopl   0x0(%rax,%rax,1)

Disassembly of section .plt.sec:

0000000000001250 <free@plt>:
    1250:	f3 0f 1e fa          	endbr64 
    1254:	f2 ff 25 75 7c 00 00 	bnd jmp *0x7c75(%rip)        # 8ed0 <free@GLIBC_2.2.5>
    125b:	0f 1f 44 00 00       	nopl   0x0(%rax,%rax,1)

0000000000001260 <strncpy@plt>:
    1260:	f3 0f 1e fa          	endbr64 
    1264:	f2 ff 25 6d 7c 00 00 	bnd jmp *0x7c6d(%rip)        # 8ed8 <strncpy@GLIBC_2.2.5>
    126b:	0f 1f 44 00 00       	nopl   0x0(%rax,%rax,1)

0000000000001270 <strncmp@plt>:
    1270:	f3 0f 1e fa          	endbr64 
    1274:	f2 ff 25 65 7c 00 00 	bnd jmp *0x7c65(%rip)        # 8ee0 <strncmp@GLIBC_2.2.5>
    127b:	0f 1f 44 00 00       	nopl   0x0(%rax,%rax,1)

0000000000001280 <strcpy@plt>:
    1280:	f3 0f 1e fa          	endbr64 
    1284:	f2 ff 25 5d 7c 00 00 	bnd jmp *0x7c5d(%rip)        # 8ee8 <strcpy@GLIBC_2.2.5>
    128b:	0f 1f 44 00 00       	nopl   0x0(%rax,%rax,1)

0000000000001290 <puts@plt>:
    1290:	f3 0f 1e fa          	endbr64 
    1294:	f2 ff 25 55 7c 00 00 	bnd jmp *0x7c55(%rip)        # 8ef0 <puts@GLIBC_2.2.5>
    129b:	0f 1f 44 00 00       	nopl   0x0(%rax,%rax,1)

00000000000012a0 <fread@plt>:
    12a0:	f3 0f 1e fa          	endbr64 
    12a4:	f2 ff 25 4d 7c 00 00 	bnd jmp *0x7c4d(%rip)        # 8ef8 <fread@GLIBC_2.2.5>
    12ab:	0f 1f 44 00 00       	nopl   0x0(%rax,%rax,1)

00000000000012b0 <vsnprintf@plt>:
    12b0:	f3 0f 1e fa          	endbr64 
    12b4:	f2 ff 25 45 7c 00 00 	bnd jmp *0x7c45(%rip)        # 8f00 <vsnprintf@GLIBC_2.2.5>
    12bb:	0f 1f 44 00 00       	nopl   0x0(%rax,%rax,1)

00000000000012c0 <strlen@plt>:
    12c0:	f3 0f 1e fa          	endbr64 
    12c4:	f2 ff 25 3d 7c 00 00 	bnd jmp *0x7c3d(%rip)        # 8f08 <strlen@GLIBC_2.2.5>
    12cb:	0f 1f 44 00 00       	nopl   0x0(%rax,%rax,1)

00000000000012d0 <__stack_chk_fail@plt>:
    12d0:	f3 0f 1e fa          	endbr64 
    12d4:	f2 ff 25 35 7c 00 00 	bnd jmp *0x7c35(%rip)        # 8f10 <__stack_chk_fail@GLIBC_2.4>
    12db:	0f 1f 44 00 00       	nopl   0x0(%rax,%rax,1)

00000000000012e0 <mmap@plt>:
    12e0:	f3 0f 1e fa          	endbr64 
    12e4:	f2 ff 25 2d 7c 00 00 	bnd jmp *0x7c2d(%rip)        # 8f18 <mmap@GLIBC_2.2.5>
    12eb:	0f 1f 44 00 00       	nopl   0x0(%rax,%rax,1)

00000000000012f0 <strchr@plt>:
    12f0:	f3 0f 1e fa          	endbr64 
    12f4:	f2 ff 25 25 7c 00 00 	bnd jmp *0x7c25(%rip)        # 8f20 <strchr@GLIBC_2.2.5>
    12fb:	0f 1f 44 00 00       	nopl   0x0(%rax,%rax,1)

0000000000001300 <snprintf@plt>:
    1300:	f3 0f 1e fa          	endbr64 
    1304:	f2 ff 25 1d 7c 00 00 	bnd jmp *0x7c1d(%rip)        # 8f28 <snprintf@GLIBC_2.2.5>
    130b:	0f 1f 44 00 00       	nopl   0x0(%rax,%rax,1)

0000000000001310 <memset@plt>:
    1310:	f3 0f 1e fa          	endbr64 
    1314:	f2 ff 25 15 7c 00 00 	bnd jmp *0x7c15(%rip)        # 8f30 <memset@GLIBC_2.2.5>
    131b:	0f 1f 44 00 00       	nopl   0x0(%rax,%rax,1)

0000000000001320 <close@plt>:
    1320:	f3 0f 1e fa          	endbr64 
    1324:	f2 ff 25 0d 7c 00 00 	bnd jmp *0x7c0d(%rip)        # 8f38 <close@GLIBC_2.2.5>
    132b:	0f 1f 44 00 00       	nopl   0x0(%rax,%rax,1)

0000000000001330 <strspn@plt>:
    1330:	f3 0f 1e fa          	endbr64 
    1334:	f2 ff 25 05 7c 00 00 	bnd jmp *0x7c05(%rip)        # 8f40 <strspn@GLIBC_2.2.5>
    133b:	0f 1f 44 00 00       	nopl   0x0(%rax,%rax,1)

0000000000001340 <strcspn@plt>:
    1340:	f3 0f 1e fa          	endbr64 
    1344:	f2 ff 25 fd 7b 00 00 	bnd jmp *0x7bfd(%rip)        # 8f48 <strcspn@GLIBC_2.2.5>
    134b:	0f 1f 44 00 00       	nopl   0x0(%rax,%rax,1)

0000000000001350 <read@plt>:
    1350:	f3 0f 1e fa          	endbr64 
    1354:	f2 ff 25 f5 7b 00 00 	bnd jmp *0x7bf5(%rip)        # 8f50 <read@GLIBC_2.2.5>
    135b:	0f 1f 44 00 00       	nopl   0x0(%rax,%rax,1)

0000000000001360 <strcmp@plt>:
    1360:	f3 0f 1e fa          	endbr64 
    1364:	f2 ff 25 ed 7b 00 00 	bnd jmp *0x7bed(%rip)        # 8f58 <strcmp@GLIBC_2.2.5>
    136b:	0f 1f 44 00 00       	nopl   0x0(%rax,%rax,1)

0000000000001370 <fprintf@plt>:
    1370:	f3 0f 1e fa          	endbr64 
    1374:	f2 ff 25 e5 7b 00 00 	bnd jmp *0x7be5(%rip)        # 8f60 <fprintf@GLIBC_2.2.5>
    137b:	0f 1f 44 00 00       	nopl   0x0(%rax,%rax,1)

0000000000001380 <strtol@plt>:
    1380:	f3 0f 1e fa          	endbr64 
    1384:	f2 ff 25 dd 7b 00 00 	bnd jmp *0x7bdd(%rip)        # 8f68 <strtol@GLIBC_2.2.5>
    138b:	0f 1f 44 00 00       	nopl   0x0(%rax,%rax,1)

0000000000001390 <memcpy@plt>:
    1390:	f3 0f 1e fa          	endbr64 
    1394:	f2 ff 25 d5 7b 00 00 	bnd jmp *0x7bd5(%rip)        # 8f70 <memcpy@GLIBC_2.14>
    139b:	0f 1f 44 00 00       	nopl   0x0(%rax,%rax,1)

00000000000013a0 <malloc@plt>:
    13a0:	f3 0f 1e fa          	endbr64 
    13a4:	f2 ff 25 cd 7b 00 00 	bnd jmp *0x7bcd(%rip)        # 8f78 <malloc@GLIBC_2.2.5>
    13ab:	0f 1f 44 00 00       	nopl   0x0(%rax,%rax,1)

00000000000013b0 <realloc@plt>:
    13b0:	f3 0f 1e fa          	endbr64 
    13b4:	f2 ff 25 c5 7b 00 00 	bnd jmp *0x7bc5(%rip)        # 8f80 <realloc@GLIBC_2.2.5>
    13bb:	0f 1f 44 00 00       	nopl   0x0(%rax,%rax,1)

00000000000013c0 <munmap@plt>:
    13c0:	f3 0f 1e fa          	endbr64 
    13c4:	f2 ff 25 bd 7b 00 00 	bnd jmp *0x7bbd(%rip)        # 8f88 <munmap@GLIBC_2.2.5>
    13cb:	0f 1f 44 00 00       	nopl   0x0(%rax,%rax,1)

00000000000013d0 <madvise@plt>:
    13d0:	f3 0f 1e fa          	endbr64 
    13d4:	f2 ff 25 b5 7b 00 00 	bnd jmp *0x7bb5(%rip)        # 8f90 <madvise@GLIBC_2.2.5>
    13db:	0f 1f 44 00 00       	nopl   0x0(%rax,%rax,1)

00000000000013e0 <memmove@plt>:
    13e0:	f3 0f 1e fa          	endbr64 
    13e4:	f2 ff 25 ad 7b 00 00 	bnd jmp *0x7bad(%rip)        # 8f98 <memmove@GLIBC_2.2.5>
    13eb:	0f 1f 44 00 00       	nopl   0x0(%rax,%rax,1)

00000000000013f0 <open@plt>:
    13f0:	f3 0f 1e fa          	endbr64 
    13f4:	f2 ff 25 a5 7b 00 00 	bnd jmp *0x7ba5(%rip)        # 8fa0 <open@GLIBC_2.2.5>
    13fb:	0f 1f 44 00 00       	nopl   0x0(%rax,%rax,1)

0000000000001400 <sysconf@plt>:
    1400:	f3 0f 1e fa          	endbr64 
    1404:	f2 ff 25 9d 7b 00 00 	bnd jmp *0x7b9d(%rip)        # 8fa8 <sysconf@GLIBC_2.2.5>
    140b:	0f 1f 44 00 00       	nopl   0x0(%rax,%rax,1)

0000000000001410 <sprintf@plt>:
    1410:	f3 0f 1e fa          	endbr64 
    1414:	f2 ff 25 95 7b 00 00 	bnd jmp *0x7b95(%rip)        # 8fb0 <sprintf@GLIBC_2.2.5>
    141b:	0f 1f 44 00 00       	nopl   0x0(%rax,%rax,1)

0000000000001420 <strdup@plt>:
    1420:	f3 0f 1e fa          	endbr64 
    1424:	f2 ff 25 8d 7b 00 00 	bnd jmp *0x7b8d(%rip)        # 8fb8 <strdup@GLIBC_2.2.5>
    142b:	0f 1f 44 00 00       	nopl   0x0(%rax,%rax,1)

0000000000001430 <fstat@plt>:
    1430:	f3 0f 1e fa          	endbr64 
    1434:	f2 ff 25 85 7b 00 00 	bnd jmp *0x7b85(%rip)        # 8fc0 <fstat@GLIBC_2.33>
    143b:	0f 1f 44 00 00       	nopl   0x0(%rax,%rax,1)

0000000000001440 <strstr@plt>:
    1440:	f3 0f 1e fa          	endbr64 
    1444:	f2 ff 25 7d 7b 00 00 	bnd jmp *0x7b7d(%rip)        # 8fc8 <strstr@GLIBC_2.2.5>
    144b:	0f 1f 44 00 00       	nopl   0x0(%rax,%rax,1)

0000000000001450 <__ctype_b_loc@plt>:
    1450:	f3 0f 1e fa          	endbr64 
    1454:	f2 ff 25 75 7b 00 00 	bnd jmp *0x7b75(%rip)        # 8fd0 <__ctype_b_loc@GLIBC_2.3>
    145b:	0f 1f 44 00 00       	nopl   0x0(%rax,%rax,1)

Disassembly of section .text:

0000000000001460 <_start>:
_start():
    1460:	f3 0f 1e fa          	endbr64 
    1464:	31 ed                	xor    %ebp,%ebp
    1466:	49 89 d1             	mov    %rdx,%r9
    1469:	5e                   	pop    %rsi
    146a:	48 89 e2             	mov    %rsp,%rdx
    146d:	48 83 e4 f0          	and    $0xfffffffffffffff0,%rsp
    1471:	50                   	push   %rax
    1472:	54                   	push   %rsp
    1473:	45 31 c0             	xor    %r8d,%r8d
    1476:	31 c9                	xor    %ecx,%ecx
    1478:	48 8d 3d fa 54 00 00 	lea    0x54fa(%rip),%rdi        # 6979 <main>
    147f:	ff 15 53 7b 00 00    	call   *0x7b53(%rip)        # 8fd8 <__libc_start_main@GLIBC_2.34>
    1485:	f4                   	hlt    
    1486:	66 2e 0f 1f 84 00 00 	cs nopw 0x0(%rax,%rax,1)
    148d:	00 00 00 

0000000000001490 <deregister_tm_clones>:
deregister_tm_clones():
    1490:	48 8d 3d e1 7b 00 00 	lea    0x7be1(%rip),%rdi        # 9078 <__TMC_END__>
    1497:	48 8d 05 da 7b 00 00 	lea    0x7bda(%rip),%rax        # 9078 <__TMC_END__>
    149e:	48 39 f8             	cmp    %rdi,%rax
    14a1:	74 15                	je     14b8 <deregister_tm_clones+0x28>
    14a3:	48 8b 05 36 7b 00 00 	mov    0x7b36(%rip),%rax        # 8fe0 <_ITM_deregisterTMCloneTable@Base>
    14aa:	48 85 c0             	test   %rax,%rax
    14ad:	74 09                	je     14b8 <deregister_tm_clones+0x28>
    14af:	ff e0                	jmp    *%rax
    14b1:	0f 1f 80 00 00 00 00 	nopl   0x0(%rax)
    14b8:	c3                   	ret    
    14b9:	0f 1f 80 00 00 00 00 	nopl   0x0(%rax)

00000000000014c0 <register_tm_clones>:
register_tm_clones():
    14c0:	48 8d 3d b1 7b 00 00 	lea    0x7bb1(%rip),%rdi        # 9078 <__TMC_END__>
    14c7:	48 8d 35 aa 7b 00 00 	lea    0x7baa(%rip),%rsi        # 9078 <__TMC_END__>
    14ce:	48 29 fe             	sub    %rdi,%rsi
    14d1:	48 89 f0             	mov    %rsi,%rax
    14d4:	48 c1 ee 3f          	shr    $0x3f,%rsi
    14d8:	48 c1 f8 03          	sar    $0x3,%rax
    14dc:	48 01 c6             	add    %rax,%rsi
    14df:	48 d1 fe             	sar    %rsi
    14e2:	74 14                	je     14f8 <register_tm_clones+0x38>
    14e4:	48 8b 05 05 7b 00 00 	mov    0x7b05(%rip),%rax        # 8ff0 <_ITM_registerTMCloneTable@Base>
    14eb:	48 85 c0             	test   %rax,%rax
    14ee:	74 08                	je     14f8 <register_tm_clones+0x38>
    14f0:	ff e0                	jmp    *%rax
    14f2:	66 0f 1f 44 00 00    	nopw   0x0(%rax,%rax,1)
    14f8:	c3                   	ret    
    14f9:	0f 1f 80 00 00 00 00 	nopl   0x0(%rax)

0000000000001500 <__do_global_dtors_aux>:
__do_global_dtors_aux():
    1500:	f3 0f 1e fa          	endbr64 
    1504:	80 3d 7d 7b 00 00 00 	cmpb   $0x0,0x7b7d(%rip)        # 9088 <completed.0>
    150b:	75 2b                	jne    1538 <__do_global_dtors_aux+0x38>
    150d:	55                   	push   %rbp
    150e:	48 83 3d e2 7a 00 00 	cmpq   $0x0,0x7ae2(%rip)        # 8ff8 <__cxa_finalize@GLIBC_2.2.5>
    1515:	00 
    1516:	48 89 e5             	mov    %rsp,%rbp
    1519:	74 0c                	je     1527 <__do_global_dtors_aux+0x27>
    151b:	48 8b 3d e6 7a 00 00 	mov    0x7ae6(%rip),%rdi        # 9008 <__dso_handle>
    1522:	e8 19 fd ff ff       	call   1240 <__cxa_finalize@plt>
    1527:	e8 64 ff ff ff       	call   1490 <deregister_tm_clones>
    152c:	c6 05 55 7b 00 00 01 	movb   $0x1,0x7b55(%rip)        # 9088 <completed.0>
    1533:	5d                   	pop    %rbp
    1534:	c3                   	ret    
    1535:	0f 1f 00             	nopl   (%rax)
    1538:	c3                   	ret    
    1539:	0f 1f 80 00 00 00 00 	nopl   0x0(%rax)

0000000000001540 <frame_dummy>:
frame_dummy():
    1540:	f3 0f 1e fa          	endbr64 
    1544:	e9 77 ff ff ff       	jmp    14c0 <register_tm_clones>

0000000000001549 <ezxml_child>:
ezxml_child():
/media/ssd-partition/Documents/RootCauseAnalysisPruning/evaluation/test_bin/22-ezXML/ezxml/ezxml.c:61

char *EZXML_NIL[] = { NULL }; // empty, null terminated array of strings

// returns the first child tag with the given name or NULL if not found
ezxml_t ezxml_child(ezxml_t xml, const char *name)
{
    1549:	f3 0f 1e fa          	endbr64 
    154d:	55                   	push   %rbp
    154e:	48 89 e5             	mov    %rsp,%rbp
    1551:	48 83 ec 10          	sub    $0x10,%rsp
    1555:	48 89 7d f8          	mov    %rdi,-0x8(%rbp)
    1559:	48 89 75 f0          	mov    %rsi,-0x10(%rbp)
/media/ssd-partition/Documents/RootCauseAnalysisPruning/evaluation/test_bin/22-ezXML/ezxml/ezxml.c:62
    xml = (xml) ? xml->child : NULL;
    155d:	48 83 7d f8 00       	cmpq   $0x0,-0x8(%rbp)
    1562:	74 0a                	je     156e <ezxml_child+0x25>
/media/ssd-partition/Documents/RootCauseAnalysisPruning/evaluation/test_bin/22-ezXML/ezxml/ezxml.c:62 (discriminator 1)
    1564:	48 8b 45 f8          	mov    -0x8(%rbp),%rax
    1568:	48 8b 40 38          	mov    0x38(%rax),%rax
    156c:	eb 05                	jmp    1573 <ezxml_child+0x2a>
/media/ssd-partition/Documents/RootCauseAnalysisPruning/evaluation/test_bin/22-ezXML/ezxml/ezxml.c:62 (discriminator 2)
    156e:	b8 00 00 00 00       	mov    $0x0,%eax
/media/ssd-partition/Documents/RootCauseAnalysisPruning/evaluation/test_bin/22-ezXML/ezxml/ezxml.c:62 (discriminator 4)
    1573:	48 89 45 f8          	mov    %rax,-0x8(%rbp)
/media/ssd-partition/Documents/RootCauseAnalysisPruning/evaluation/test_bin/22-ezXML/ezxml/ezxml.c:63 (discriminator 4)
    while (xml && strcmp(name, xml->name)) xml = xml->sibling;
    1577:	eb 0c                	jmp    1585 <ezxml_child+0x3c>
/media/ssd-partition/Documents/RootCauseAnalysisPruning/evaluation/test_bin/22-ezXML/ezxml/ezxml.c:63 (discriminator 3)
    1579:	48 8b 45 f8          	mov    -0x8(%rbp),%rax
    157d:	48 8b 40 28          	mov    0x28(%rax),%rax
    1581:	48 89 45 f8          	mov    %rax,-0x8(%rbp)
/media/ssd-partition/Documents/RootCauseAnalysisPruning/evaluation/test_bin/22-ezXML/ezxml/ezxml.c:63 (discriminator 1)
    1585:	48 83 7d f8 00       	cmpq   $0x0,-0x8(%rbp)
    158a:	74 1a                	je     15a6 <ezxml_child+0x5d>
/media/ssd-partition/Documents/RootCauseAnalysisPruning/evaluation/test_bin/22-ezXML/ezxml/ezxml.c:63 (discriminator 2)
    158c:	48 8b 45 f8          	mov    -0x8(%rbp),%rax
    1590:	48 8b 10             	mov    (%rax),%rdx
    1593:	48 8b 45 f0          	mov    -0x10(%rbp),%rax
    1597:	48 89 d6             	mov    %rdx,%rsi
    159a:	48 89 c7             	mov    %rax,%rdi
    159d:	e8 be fd ff ff       	call   1360 <strcmp@plt>
    15a2:	85 c0                	test   %eax,%eax
    15a4:	75 d3                	jne    1579 <ezxml_child+0x30>
/media/ssd-partition/Documents/RootCauseAnalysisPruning/evaluation/test_bin/22-ezXML/ezxml/ezxml.c:64
    return xml;
    15a6:	48 8b 45 f8          	mov    -0x8(%rbp),%rax
/media/ssd-partition/Documents/RootCauseAnalysisPruning/evaluation/test_bin/22-ezXML/ezxml/ezxml.c:65
}
    15aa:	c9                   	leave  
    15ab:	c3                   	ret    

00000000000015ac <ezxml_idx>:
ezxml_idx():
/media/ssd-partition/Documents/RootCauseAnalysisPruning/evaluation/test_bin/22-ezXML/ezxml/ezxml.c:70

// returns the Nth tag with the same name in the same subsection or NULL if not
// found
ezxml_t ezxml_idx(ezxml_t xml, int idx)
{
    15ac:	f3 0f 1e fa          	endbr64 
    15b0:	55                   	push   %rbp
    15b1:	48 89 e5             	mov    %rsp,%rbp
    15b4:	48 89 7d f8          	mov    %rdi,-0x8(%rbp)
    15b8:	89 75 f4             	mov    %esi,-0xc(%rbp)
/media/ssd-partition/Documents/RootCauseAnalysisPruning/evaluation/test_bin/22-ezXML/ezxml/ezxml.c:71
    for (; xml && idx; idx--) xml = xml->next;
    15bb:	eb 10                	jmp    15cd <ezxml_idx+0x21>
/media/ssd-partition/Documents/RootCauseAnalysisPruning/evaluation/test_bin/22-ezXML/ezxml/ezxml.c:71 (discriminator 3)
    15bd:	48 8b 45 f8          	mov    -0x8(%rbp),%rax
    15c1:	48 8b 40 20          	mov    0x20(%rax),%rax
    15c5:	48 89 45 f8          	mov    %rax,-0x8(%rbp)
    15c9:	83 6d f4 01          	subl   $0x1,-0xc(%rbp)
/media/ssd-partition/Documents/RootCauseAnalysisPruning/evaluation/test_bin/22-ezXML/ezxml/ezxml.c:71 (discriminator 1)
    15cd:	48 83 7d f8 00       	cmpq   $0x0,-0x8(%rbp)
    15d2:	74 06                	je     15da <ezxml_idx+0x2e>
/media/ssd-partition/Documents/RootCauseAnalysisPruning/evaluation/test_bin/22-ezXML/ezxml/ezxml.c:71 (discriminator 2)
    15d4:	83 7d f4 00          	cmpl   $0x0,-0xc(%rbp)
    15d8:	75 e3                	jne    15bd <ezxml_idx+0x11>
/media/ssd-partition/Documents/RootCauseAnalysisPruning/evaluation/test_bin/22-ezXML/ezxml/ezxml.c:72
    return xml;
    15da:	48 8b 45 f8          	mov    -0x8(%rbp),%rax
/media/ssd-partition/Documents/RootCauseAnalysisPruning/evaluation/test_bin/22-ezXML/ezxml/ezxml.c:73
}
    15de:	5d                   	pop    %rbp
    15df:	c3                   	ret    

00000000000015e0 <ezxml_attr>:
ezxml_attr():
/media/ssd-partition/Documents/RootCauseAnalysisPruning/evaluation/test_bin/22-ezXML/ezxml/ezxml.c:77

// returns the value of the requested tag attribute or NULL if not found
const char *ezxml_attr(ezxml_t xml, const char *attr)
{
    15e0:	f3 0f 1e fa          	endbr64 
    15e4:	55                   	push   %rbp
    15e5:	48 89 e5             	mov    %rsp,%rbp
    15e8:	48 83 ec 20          	sub    $0x20,%rsp
    15ec:	48 89 7d e8          	mov    %rdi,-0x18(%rbp)
    15f0:	48 89 75 e0          	mov    %rsi,-0x20(%rbp)
/media/ssd-partition/Documents/RootCauseAnalysisPruning/evaluation/test_bin/22-ezXML/ezxml/ezxml.c:78
    int i = 0, j = 1;
    15f4:	c7 45 f0 00 00 00 00 	movl   $0x0,-0x10(%rbp)
    15fb:	c7 45 f4 01 00 00 00 	movl   $0x1,-0xc(%rbp)
/media/ssd-partition/Documents/RootCauseAnalysisPruning/evaluation/test_bin/22-ezXML/ezxml/ezxml.c:79
    ezxml_root_t root = (ezxml_root_t)xml;
    1602:	48 8b 45 e8          	mov    -0x18(%rbp),%rax
    1606:	48 89 45 f8          	mov    %rax,-0x8(%rbp)
/media/ssd-partition/Documents/RootCauseAnalysisPruning/evaluation/test_bin/22-ezXML/ezxml/ezxml.c:81

    if (! xml || ! xml->attr) return NULL;
    160a:	48 83 7d e8 00       	cmpq   $0x0,-0x18(%rbp)
    160f:	74 0d                	je     161e <ezxml_attr+0x3e>
/media/ssd-partition/Documents/RootCauseAnalysisPruning/evaluation/test_bin/22-ezXML/ezxml/ezxml.c:81 (discriminator 2)
    1611:	48 8b 45 e8          	mov    -0x18(%rbp),%rax
    1615:	48 8b 40 08          	mov    0x8(%rax),%rax
    1619:	48 85 c0             	test   %rax,%rax
    161c:	75 0e                	jne    162c <ezxml_attr+0x4c>
/media/ssd-partition/Documents/RootCauseAnalysisPruning/evaluation/test_bin/22-ezXML/ezxml/ezxml.c:81 (discriminator 3)
    161e:	b8 00 00 00 00       	mov    $0x0,%eax
    1623:	e9 f7 01 00 00       	jmp    181f <ezxml_attr+0x23f>
/media/ssd-partition/Documents/RootCauseAnalysisPruning/evaluation/test_bin/22-ezXML/ezxml/ezxml.c:82 (discriminator 3)
    while (xml->attr[i] && strcmp(attr, xml->attr[i])) i += 2;
    1628:	83 45 f0 02          	addl   $0x2,-0x10(%rbp)
/media/ssd-partition/Documents/RootCauseAnalysisPruning/evaluation/test_bin/22-ezXML/ezxml/ezxml.c:82 (discriminator 1)
    162c:	48 8b 45 e8          	mov    -0x18(%rbp),%rax
    1630:	48 8b 50 08          	mov    0x8(%rax),%rdx
    1634:	8b 45 f0             	mov    -0x10(%rbp),%eax
    1637:	48 98                	cltq   
    1639:	48 c1 e0 03          	shl    $0x3,%rax
    163d:	48 01 d0             	add    %rdx,%rax
    1640:	48 8b 00             	mov    (%rax),%rax
    1643:	48 85 c0             	test   %rax,%rax
    1646:	74 2a                	je     1672 <ezxml_attr+0x92>
/media/ssd-partition/Documents/RootCauseAnalysisPruning/evaluation/test_bin/22-ezXML/ezxml/ezxml.c:82 (discriminator 2)
    1648:	48 8b 45 e8          	mov    -0x18(%rbp),%rax
    164c:	48 8b 50 08          	mov    0x8(%rax),%rdx
    1650:	8b 45 f0             	mov    -0x10(%rbp),%eax
    1653:	48 98                	cltq   
    1655:	48 c1 e0 03          	shl    $0x3,%rax
    1659:	48 01 d0             	add    %rdx,%rax
    165c:	48 8b 10             	mov    (%rax),%rdx
    165f:	48 8b 45 e0          	mov    -0x20(%rbp),%rax
    1663:	48 89 d6             	mov    %rdx,%rsi
    1666:	48 89 c7             	mov    %rax,%rdi
    1669:	e8 f2 fc ff ff       	call   1360 <strcmp@plt>
    166e:	85 c0                	test   %eax,%eax
    1670:	75 b6                	jne    1628 <ezxml_attr+0x48>
/media/ssd-partition/Documents/RootCauseAnalysisPruning/evaluation/test_bin/22-ezXML/ezxml/ezxml.c:83
    if (xml->attr[i]) return xml->attr[i + 1]; // found attribute
    1672:	48 8b 45 e8          	mov    -0x18(%rbp),%rax
    1676:	48 8b 50 08          	mov    0x8(%rax),%rdx
    167a:	8b 45 f0             	mov    -0x10(%rbp),%eax
    167d:	48 98                	cltq   
    167f:	48 c1 e0 03          	shl    $0x3,%rax
    1683:	48 01 d0             	add    %rdx,%rax
    1686:	48 8b 00             	mov    (%rax),%rax
    1689:	48 85 c0             	test   %rax,%rax
    168c:	74 2c                	je     16ba <ezxml_attr+0xda>
/media/ssd-partition/Documents/RootCauseAnalysisPruning/evaluation/test_bin/22-ezXML/ezxml/ezxml.c:83 (discriminator 1)
    168e:	48 8b 45 e8          	mov    -0x18(%rbp),%rax
    1692:	48 8b 50 08          	mov    0x8(%rax),%rdx
    1696:	8b 45 f0             	mov    -0x10(%rbp),%eax
    1699:	48 98                	cltq   
    169b:	48 83 c0 01          	add    $0x1,%rax
    169f:	48 c1 e0 03          	shl    $0x3,%rax
    16a3:	48 01 d0             	add    %rdx,%rax
    16a6:	48 8b 00             	mov    (%rax),%rax
    16a9:	e9 71 01 00 00       	jmp    181f <ezxml_attr+0x23f>
/media/ssd-partition/Documents/RootCauseAnalysisPruning/evaluation/test_bin/22-ezXML/ezxml/ezxml.c:85 (discriminator 2)

    while (root->xml.parent) root = (ezxml_root_t)root->xml.parent; // root tag
    16ae:	48 8b 45 f8          	mov    -0x8(%rbp),%rax
    16b2:	48 8b 40 40          	mov    0x40(%rax),%rax
    16b6:	48 89 45 f8          	mov    %rax,-0x8(%rbp)
/media/ssd-partition/Documents/RootCauseAnalysisPruning/evaluation/test_bin/22-ezXML/ezxml/ezxml.c:85 (discriminator 1)
    16ba:	48 8b 45 f8          	mov    -0x8(%rbp),%rax
    16be:	48 8b 40 40          	mov    0x40(%rax),%rax
    16c2:	48 85 c0             	test   %rax,%rax
    16c5:	75 e7                	jne    16ae <ezxml_attr+0xce>
/media/ssd-partition/Documents/RootCauseAnalysisPruning/evaluation/test_bin/22-ezXML/ezxml/ezxml.c:86
    for (i = 0; root->attr[i] && strcmp(xml->name, root->attr[i][0]); i++);
    16c7:	c7 45 f0 00 00 00 00 	movl   $0x0,-0x10(%rbp)
    16ce:	eb 04                	jmp    16d4 <ezxml_attr+0xf4>
/media/ssd-partition/Documents/RootCauseAnalysisPruning/evaluation/test_bin/22-ezXML/ezxml/ezxml.c:86 (discriminator 4)
    16d0:	83 45 f0 01          	addl   $0x1,-0x10(%rbp)
/media/ssd-partition/Documents/RootCauseAnalysisPruning/evaluation/test_bin/22-ezXML/ezxml/ezxml.c:86 (discriminator 1)
    16d4:	48 8b 45 f8          	mov    -0x8(%rbp),%rax
    16d8:	48 8b 90 88 00 00 00 	mov    0x88(%rax),%rdx
    16df:	8b 45 f0             	mov    -0x10(%rbp),%eax
    16e2:	48 98                	cltq   
    16e4:	48 c1 e0 03          	shl    $0x3,%rax
    16e8:	48 01 d0             	add    %rdx,%rax
    16eb:	48 8b 00             	mov    (%rax),%rax
    16ee:	48 85 c0             	test   %rax,%rax
    16f1:	74 33                	je     1726 <ezxml_attr+0x146>
/media/ssd-partition/Documents/RootCauseAnalysisPruning/evaluation/test_bin/22-ezXML/ezxml/ezxml.c:86 (discriminator 3)
    16f3:	48 8b 45 f8          	mov    -0x8(%rbp),%rax
    16f7:	48 8b 90 88 00 00 00 	mov    0x88(%rax),%rdx
    16fe:	8b 45 f0             	mov    -0x10(%rbp),%eax
    1701:	48 98                	cltq   
    1703:	48 c1 e0 03          	shl    $0x3,%rax
    1707:	48 01 d0             	add    %rdx,%rax
    170a:	48 8b 00             	mov    (%rax),%rax
    170d:	48 8b 10             	mov    (%rax),%rdx
    1710:	48 8b 45 e8          	mov    -0x18(%rbp),%rax
    1714:	48 8b 00             	mov    (%rax),%rax
    1717:	48 89 d6             	mov    %rdx,%rsi
    171a:	48 89 c7             	mov    %rax,%rdi
    171d:	e8 3e fc ff ff       	call   1360 <strcmp@plt>
    1722:	85 c0                	test   %eax,%eax
    1724:	75 aa                	jne    16d0 <ezxml_attr+0xf0>
/media/ssd-partition/Documents/RootCauseAnalysisPruning/evaluation/test_bin/22-ezXML/ezxml/ezxml.c:87
    if (! root->attr[i]) return NULL; // no matching default attributes
    1726:	48 8b 45 f8          	mov    -0x8(%rbp),%rax
    172a:	48 8b 90 88 00 00 00 	mov    0x88(%rax),%rdx
    1731:	8b 45 f0             	mov    -0x10(%rbp),%eax
    1734:	48 98                	cltq   
    1736:	48 c1 e0 03          	shl    $0x3,%rax
    173a:	48 01 d0             	add    %rdx,%rax
    173d:	48 8b 00             	mov    (%rax),%rax
    1740:	48 85 c0             	test   %rax,%rax
    1743:	75 0e                	jne    1753 <ezxml_attr+0x173>
/media/ssd-partition/Documents/RootCauseAnalysisPruning/evaluation/test_bin/22-ezXML/ezxml/ezxml.c:87 (discriminator 1)
    1745:	b8 00 00 00 00       	mov    $0x0,%eax
    174a:	e9 d0 00 00 00       	jmp    181f <ezxml_attr+0x23f>
/media/ssd-partition/Documents/RootCauseAnalysisPruning/evaluation/test_bin/22-ezXML/ezxml/ezxml.c:88 (discriminator 3)
    while (root->attr[i][j] && strcmp(attr, root->attr[i][j])) j += 3;
    174f:	83 45 f4 03          	addl   $0x3,-0xc(%rbp)
/media/ssd-partition/Documents/RootCauseAnalysisPruning/evaluation/test_bin/22-ezXML/ezxml/ezxml.c:88 (discriminator 1)
    1753:	48 8b 45 f8          	mov    -0x8(%rbp),%rax
    1757:	48 8b 90 88 00 00 00 	mov    0x88(%rax),%rdx
    175e:	8b 45 f0             	mov    -0x10(%rbp),%eax
    1761:	48 98                	cltq   
    1763:	48 c1 e0 03          	shl    $0x3,%rax
    1767:	48 01 d0             	add    %rdx,%rax
    176a:	48 8b 10             	mov    (%rax),%rdx
    176d:	8b 45 f4             	mov    -0xc(%rbp),%eax
    1770:	48 98                	cltq   
    1772:	48 c1 e0 03          	shl    $0x3,%rax
    1776:	48 01 d0             	add    %rdx,%rax
    1779:	48 8b 00             	mov    (%rax),%rax
    177c:	48 85 c0             	test   %rax,%rax
    177f:	74 3c                	je     17bd <ezxml_attr+0x1dd>
/media/ssd-partition/Documents/RootCauseAnalysisPruning/evaluation/test_bin/22-ezXML/ezxml/ezxml.c:88 (discriminator 2)
    1781:	48 8b 45 f8          	mov    -0x8(%rbp),%rax
    1785:	48 8b 90 88 00 00 00 	mov    0x88(%rax),%rdx
    178c:	8b 45 f0             	mov    -0x10(%rbp),%eax
    178f:	48 98                	cltq   
    1791:	48 c1 e0 03          	shl    $0x3,%rax
    1795:	48 01 d0             	add    %rdx,%rax
    1798:	48 8b 10             	mov    (%rax),%rdx
    179b:	8b 45 f4             	mov    -0xc(%rbp),%eax
    179e:	48 98                	cltq   
    17a0:	48 c1 e0 03          	shl    $0x3,%rax
    17a4:	48 01 d0             	add    %rdx,%rax
    17a7:	48 8b 10             	mov    (%rax),%rdx
    17aa:	48 8b 45 e0          	mov    -0x20(%rbp),%rax
    17ae:	48 89 d6             	mov    %rdx,%rsi
    17b1:	48 89 c7             	mov    %rax,%rdi
    17b4:	e8 a7 fb ff ff       	call   1360 <strcmp@plt>
    17b9:	85 c0                	test   %eax,%eax
    17bb:	75 92                	jne    174f <ezxml_attr+0x16f>
/media/ssd-partition/Documents/RootCauseAnalysisPruning/evaluation/test_bin/22-ezXML/ezxml/ezxml.c:89
    return (root->attr[i][j]) ? root->attr[i][j + 1] : NULL; // found default
    17bd:	48 8b 45 f8          	mov    -0x8(%rbp),%rax
    17c1:	48 8b 90 88 00 00 00 	mov    0x88(%rax),%rdx
    17c8:	8b 45 f0             	mov    -0x10(%rbp),%eax
    17cb:	48 98                	cltq   
    17cd:	48 c1 e0 03          	shl    $0x3,%rax
    17d1:	48 01 d0             	add    %rdx,%rax
    17d4:	48 8b 10             	mov    (%rax),%rdx
    17d7:	8b 45 f4             	mov    -0xc(%rbp),%eax
    17da:	48 98                	cltq   
    17dc:	48 c1 e0 03          	shl    $0x3,%rax
    17e0:	48 01 d0             	add    %rdx,%rax
    17e3:	48 8b 00             	mov    (%rax),%rax
    17e6:	48 85 c0             	test   %rax,%rax
    17e9:	74 2f                	je     181a <ezxml_attr+0x23a>
/media/ssd-partition/Documents/RootCauseAnalysisPruning/evaluation/test_bin/22-ezXML/ezxml/ezxml.c:89 (discriminator 1)
    17eb:	48 8b 45 f8          	mov    -0x8(%rbp),%rax
    17ef:	48 8b 90 88 00 00 00 	mov    0x88(%rax),%rdx
    17f6:	8b 45 f0             	mov    -0x10(%rbp),%eax
    17f9:	48 98                	cltq   
    17fb:	48 c1 e0 03          	shl    $0x3,%rax
    17ff:	48 01 d0             	add    %rdx,%rax
    1802:	48 8b 10             	mov    (%rax),%rdx
    1805:	8b 45 f4             	mov    -0xc(%rbp),%eax
    1808:	48 98                	cltq   
    180a:	48 83 c0 01          	add    $0x1,%rax
    180e:	48 c1 e0 03          	shl    $0x3,%rax
    1812:	48 01 d0             	add    %rdx,%rax
    1815:	48 8b 00             	mov    (%rax),%rax
    1818:	eb 05                	jmp    181f <ezxml_attr+0x23f>
/media/ssd-partition/Documents/RootCauseAnalysisPruning/evaluation/test_bin/22-ezXML/ezxml/ezxml.c:89 (discriminator 2)
    181a:	b8 00 00 00 00       	mov    $0x0,%eax
/media/ssd-partition/Documents/RootCauseAnalysisPruning/evaluation/test_bin/22-ezXML/ezxml/ezxml.c:90
}
    181f:	c9                   	leave  
    1820:	c3                   	ret    

0000000000001821 <ezxml_vget>:
ezxml_vget():
/media/ssd-partition/Documents/RootCauseAnalysisPruning/evaluation/test_bin/22-ezXML/ezxml/ezxml.c:94

// same as ezxml_get but takes an already initialized va_list
ezxml_t ezxml_vget(ezxml_t xml, va_list ap)
{
    1821:	f3 0f 1e fa          	endbr64 
    1825:	55                   	push   %rbp
    1826:	48 89 e5             	mov    %rsp,%rbp
    1829:	48 83 ec 20          	sub    $0x20,%rsp
    182d:	48 89 7d e8          	mov    %rdi,-0x18(%rbp)
    1831:	48 89 75 e0          	mov    %rsi,-0x20(%rbp)
/media/ssd-partition/Documents/RootCauseAnalysisPruning/evaluation/test_bin/22-ezXML/ezxml/ezxml.c:95
    char *name = va_arg(ap, char *);
    1835:	48 8b 45 e0          	mov    -0x20(%rbp),%rax
    1839:	8b 00                	mov    (%rax),%eax
    183b:	83 f8 2f             	cmp    $0x2f,%eax
    183e:	77 24                	ja     1864 <ezxml_vget+0x43>
    1840:	48 8b 45 e0          	mov    -0x20(%rbp),%rax
    1844:	48 8b 50 10          	mov    0x10(%rax),%rdx
    1848:	48 8b 45 e0          	mov    -0x20(%rbp),%rax
    184c:	8b 00                	mov    (%rax),%eax
    184e:	89 c0                	mov    %eax,%eax
    1850:	48 01 d0             	add    %rdx,%rax
    1853:	48 8b 55 e0          	mov    -0x20(%rbp),%rdx
    1857:	8b 12                	mov    (%rdx),%edx
    1859:	8d 4a 08             	lea    0x8(%rdx),%ecx
    185c:	48 8b 55 e0          	mov    -0x20(%rbp),%rdx
    1860:	89 0a                	mov    %ecx,(%rdx)
    1862:	eb 14                	jmp    1878 <ezxml_vget+0x57>
    1864:	48 8b 45 e0          	mov    -0x20(%rbp),%rax
    1868:	48 8b 40 08          	mov    0x8(%rax),%rax
    186c:	48 8d 48 08          	lea    0x8(%rax),%rcx
    1870:	48 8b 55 e0          	mov    -0x20(%rbp),%rdx
    1874:	48 89 4a 08          	mov    %rcx,0x8(%rdx)
    1878:	48 8b 00             	mov    (%rax),%rax
    187b:	48 89 45 f8          	mov    %rax,-0x8(%rbp)
/media/ssd-partition/Documents/RootCauseAnalysisPruning/evaluation/test_bin/22-ezXML/ezxml/ezxml.c:96
    int idx = -1;
    187f:	c7 45 f4 ff ff ff ff 	movl   $0xffffffff,-0xc(%rbp)
/media/ssd-partition/Documents/RootCauseAnalysisPruning/evaluation/test_bin/22-ezXML/ezxml/ezxml.c:98

    if (name && *name) {
    1886:	48 83 7d f8 00       	cmpq   $0x0,-0x8(%rbp)
    188b:	74 6a                	je     18f7 <ezxml_vget+0xd6>
/media/ssd-partition/Documents/RootCauseAnalysisPruning/evaluation/test_bin/22-ezXML/ezxml/ezxml.c:98 (discriminator 1)
    188d:	48 8b 45 f8          	mov    -0x8(%rbp),%rax
    1891:	0f b6 00             	movzbl (%rax),%eax
    1894:	84 c0                	test   %al,%al
    1896:	74 5f                	je     18f7 <ezxml_vget+0xd6>
/media/ssd-partition/Documents/RootCauseAnalysisPruning/evaluation/test_bin/22-ezXML/ezxml/ezxml.c:99
        idx = va_arg(ap, int);    
    1898:	48 8b 45 e0          	mov    -0x20(%rbp),%rax
    189c:	8b 00                	mov    (%rax),%eax
    189e:	83 f8 2f             	cmp    $0x2f,%eax
    18a1:	77 24                	ja     18c7 <ezxml_vget+0xa6>
    18a3:	48 8b 45 e0          	mov    -0x20(%rbp),%rax
    18a7:	48 8b 50 10          	mov    0x10(%rax),%rdx
    18ab:	48 8b 45 e0          	mov    -0x20(%rbp),%rax
    18af:	8b 00                	mov    (%rax),%eax
    18b1:	89 c0                	mov    %eax,%eax
    18b3:	48 01 d0             	add    %rdx,%rax
    18b6:	48 8b 55 e0          	mov    -0x20(%rbp),%rdx
    18ba:	8b 12                	mov    (%rdx),%edx
    18bc:	8d 4a 08             	lea    0x8(%rdx),%ecx
    18bf:	48 8b 55 e0          	mov    -0x20(%rbp),%rdx
    18c3:	89 0a                	mov    %ecx,(%rdx)
    18c5:	eb 14                	jmp    18db <ezxml_vget+0xba>
    18c7:	48 8b 45 e0          	mov    -0x20(%rbp),%rax
    18cb:	48 8b 40 08          	mov    0x8(%rax),%rax
    18cf:	48 8d 48 08          	lea    0x8(%rax),%rcx
    18d3:	48 8b 55 e0          	mov    -0x20(%rbp),%rdx
    18d7:	48 89 4a 08          	mov    %rcx,0x8(%rdx)
    18db:	8b 00                	mov    (%rax),%eax
    18dd:	89 45 f4             	mov    %eax,-0xc(%rbp)
/media/ssd-partition/Documents/RootCauseAnalysisPruning/evaluation/test_bin/22-ezXML/ezxml/ezxml.c:100
        xml = ezxml_child(xml, name);
    18e0:	48 8b 55 f8          	mov    -0x8(%rbp),%rdx
    18e4:	48 8b 45 e8          	mov    -0x18(%rbp),%rax
    18e8:	48 89 d6             	mov    %rdx,%rsi
    18eb:	48 89 c7             	mov    %rax,%rdi
    18ee:	e8 56 fc ff ff       	call   1549 <ezxml_child>
    18f3:	48 89 45 e8          	mov    %rax,-0x18(%rbp)
/media/ssd-partition/Documents/RootCauseAnalysisPruning/evaluation/test_bin/22-ezXML/ezxml/ezxml.c:102
    }
    return (idx < 0) ? xml : ezxml_vget(ezxml_idx(xml, idx), ap);
    18f7:	83 7d f4 00          	cmpl   $0x0,-0xc(%rbp)
    18fb:	78 25                	js     1922 <ezxml_vget+0x101>
/media/ssd-partition/Documents/RootCauseAnalysisPruning/evaluation/test_bin/22-ezXML/ezxml/ezxml.c:102 (discriminator 1)
    18fd:	8b 55 f4             	mov    -0xc(%rbp),%edx
    1900:	48 8b 45 e8          	mov    -0x18(%rbp),%rax
    1904:	89 d6                	mov    %edx,%esi
    1906:	48 89 c7             	mov    %rax,%rdi
    1909:	e8 9e fc ff ff       	call   15ac <ezxml_idx>
    190e:	48 89 c2             	mov    %rax,%rdx
    1911:	48 8b 45 e0          	mov    -0x20(%rbp),%rax
    1915:	48 89 c6             	mov    %rax,%rsi
    1918:	48 89 d7             	mov    %rdx,%rdi
    191b:	e8 01 ff ff ff       	call   1821 <ezxml_vget>
    1920:	eb 04                	jmp    1926 <ezxml_vget+0x105>
/media/ssd-partition/Documents/RootCauseAnalysisPruning/evaluation/test_bin/22-ezXML/ezxml/ezxml.c:102 (discriminator 2)
    1922:	48 8b 45 e8          	mov    -0x18(%rbp),%rax
/media/ssd-partition/Documents/RootCauseAnalysisPruning/evaluation/test_bin/22-ezXML/ezxml/ezxml.c:103 (discriminator 5)
}
    1926:	c9                   	leave  
    1927:	c3                   	ret    

0000000000001928 <ezxml_get>:
ezxml_get():
/media/ssd-partition/Documents/RootCauseAnalysisPruning/evaluation/test_bin/22-ezXML/ezxml/ezxml.c:112
// by either an index of -1 or an empty string tag name. Example: 
// title = ezxml_get(library, "shelf", 0, "book", 2, "title", -1);
// This retrieves the title of the 3rd book on the 1st shelf of library.
// Returns NULL if not found.
ezxml_t ezxml_get(ezxml_t xml, ...)
{
    1928:	f3 0f 1e fa          	endbr64 
    192c:	55                   	push   %rbp
    192d:	48 89 e5             	mov    %rsp,%rbp
    1930:	48 81 ec f0 00 00 00 	sub    $0xf0,%rsp
    1937:	48 89 bd 18 ff ff ff 	mov    %rdi,-0xe8(%rbp)
    193e:	48 89 b5 58 ff ff ff 	mov    %rsi,-0xa8(%rbp)
    1945:	48 89 95 60 ff ff ff 	mov    %rdx,-0xa0(%rbp)
    194c:	48 89 8d 68 ff ff ff 	mov    %rcx,-0x98(%rbp)
    1953:	4c 89 85 70 ff ff ff 	mov    %r8,-0x90(%rbp)
    195a:	4c 89 8d 78 ff ff ff 	mov    %r9,-0x88(%rbp)
    1961:	84 c0                	test   %al,%al
    1963:	74 20                	je     1985 <ezxml_get+0x5d>
    1965:	0f 29 45 80          	movaps %xmm0,-0x80(%rbp)
    1969:	0f 29 4d 90          	movaps %xmm1,-0x70(%rbp)
    196d:	0f 29 55 a0          	movaps %xmm2,-0x60(%rbp)
    1971:	0f 29 5d b0          	movaps %xmm3,-0x50(%rbp)
    1975:	0f 29 65 c0          	movaps %xmm4,-0x40(%rbp)
    1979:	0f 29 6d d0          	movaps %xmm5,-0x30(%rbp)
    197d:	0f 29 75 e0          	movaps %xmm6,-0x20(%rbp)
    1981:	0f 29 7d f0          	movaps %xmm7,-0x10(%rbp)
    1985:	64 48 8b 04 25 28 00 	mov    %fs:0x28,%rax
    198c:	00 00 
    198e:	48 89 85 48 ff ff ff 	mov    %rax,-0xb8(%rbp)
    1995:	31 c0                	xor    %eax,%eax
/media/ssd-partition/Documents/RootCauseAnalysisPruning/evaluation/test_bin/22-ezXML/ezxml/ezxml.c:116
    va_list ap;
    ezxml_t r;

    va_start(ap, xml);
    1997:	c7 85 30 ff ff ff 08 	movl   $0x8,-0xd0(%rbp)
    199e:	00 00 00 
    19a1:	c7 85 34 ff ff ff 30 	movl   $0x30,-0xcc(%rbp)
    19a8:	00 00 00 
    19ab:	48 8d 45 10          	lea    0x10(%rbp),%rax
    19af:	48 89 85 38 ff ff ff 	mov    %rax,-0xc8(%rbp)
    19b6:	48 8d 85 50 ff ff ff 	lea    -0xb0(%rbp),%rax
    19bd:	48 89 85 40 ff ff ff 	mov    %rax,-0xc0(%rbp)
/media/ssd-partition/Documents/RootCauseAnalysisPruning/evaluation/test_bin/22-ezXML/ezxml/ezxml.c:117
    r = ezxml_vget(xml, ap);
    19c4:	48 8d 95 30 ff ff ff 	lea    -0xd0(%rbp),%rdx
    19cb:	48 8b 85 18 ff ff ff 	mov    -0xe8(%rbp),%rax
    19d2:	48 89 d6             	mov    %rdx,%rsi
    19d5:	48 89 c7             	mov    %rax,%rdi
    19d8:	e8 44 fe ff ff       	call   1821 <ezxml_vget>
    19dd:	48 89 85 28 ff ff ff 	mov    %rax,-0xd8(%rbp)
/media/ssd-partition/Documents/RootCauseAnalysisPruning/evaluation/test_bin/22-ezXML/ezxml/ezxml.c:119
    va_end(ap);
    return r;
    19e4:	48 8b 85 28 ff ff ff 	mov    -0xd8(%rbp),%rax
/media/ssd-partition/Documents/RootCauseAnalysisPruning/evaluation/test_bin/22-ezXML/ezxml/ezxml.c:120
}
    19eb:	48 8b 95 48 ff ff ff 	mov    -0xb8(%rbp),%rdx
    19f2:	64 48 2b 14 25 28 00 	sub    %fs:0x28,%rdx
    19f9:	00 00 
    19fb:	74 05                	je     1a02 <ezxml_get+0xda>
    19fd:	e8 ce f8 ff ff       	call   12d0 <__stack_chk_fail@plt>
    1a02:	c9                   	leave  
    1a03:	c3                   	ret    

0000000000001a04 <ezxml_pi>:
ezxml_pi():
/media/ssd-partition/Documents/RootCauseAnalysisPruning/evaluation/test_bin/22-ezXML/ezxml/ezxml.c:125

// returns a null terminated array of processing instructions for the given
// target
const char **ezxml_pi(ezxml_t xml, const char *target)
{
    1a04:	f3 0f 1e fa          	endbr64 
    1a08:	55                   	push   %rbp
    1a09:	48 89 e5             	mov    %rsp,%rbp
    1a0c:	48 83 ec 20          	sub    $0x20,%rsp
    1a10:	48 89 7d e8          	mov    %rdi,-0x18(%rbp)
    1a14:	48 89 75 e0          	mov    %rsi,-0x20(%rbp)
/media/ssd-partition/Documents/RootCauseAnalysisPruning/evaluation/test_bin/22-ezXML/ezxml/ezxml.c:126
    ezxml_root_t root = (ezxml_root_t)xml;
    1a18:	48 8b 45 e8          	mov    -0x18(%rbp),%rax
    1a1c:	48 89 45 f8          	mov    %rax,-0x8(%rbp)
/media/ssd-partition/Documents/RootCauseAnalysisPruning/evaluation/test_bin/22-ezXML/ezxml/ezxml.c:127
    int i = 0;
    1a20:	c7 45 f4 00 00 00 00 	movl   $0x0,-0xc(%rbp)
/media/ssd-partition/Documents/RootCauseAnalysisPruning/evaluation/test_bin/22-ezXML/ezxml/ezxml.c:129

    if (! root) return (const char **)EZXML_NIL;
    1a27:	48 83 7d f8 00       	cmpq   $0x0,-0x8(%rbp)
    1a2c:	75 18                	jne    1a46 <ezxml_pi+0x42>
/media/ssd-partition/Documents/RootCauseAnalysisPruning/evaluation/test_bin/22-ezXML/ezxml/ezxml.c:129 (discriminator 1)
    1a2e:	48 8d 05 5b 76 00 00 	lea    0x765b(%rip),%rax        # 9090 <EZXML_NIL>
    1a35:	e9 b4 00 00 00       	jmp    1aee <ezxml_pi+0xea>
/media/ssd-partition/Documents/RootCauseAnalysisPruning/evaluation/test_bin/22-ezXML/ezxml/ezxml.c:130 (discriminator 2)
    while (root->xml.parent) root = (ezxml_root_t)root->xml.parent; // root tag
    1a3a:	48 8b 45 f8          	mov    -0x8(%rbp),%rax
    1a3e:	48 8b 40 40          	mov    0x40(%rax),%rax
    1a42:	48 89 45 f8          	mov    %rax,-0x8(%rbp)
/media/ssd-partition/Documents/RootCauseAnalysisPruning/evaluation/test_bin/22-ezXML/ezxml/ezxml.c:130 (discriminator 1)
    1a46:	48 8b 45 f8          	mov    -0x8(%rbp),%rax
    1a4a:	48 8b 40 40          	mov    0x40(%rax),%rax
    1a4e:	48 85 c0             	test   %rax,%rax
    1a51:	75 e7                	jne    1a3a <ezxml_pi+0x36>
/media/ssd-partition/Documents/RootCauseAnalysisPruning/evaluation/test_bin/22-ezXML/ezxml/ezxml.c:131
    while (root->pi[i] && strcmp(target, root->pi[i][0])) i++; // find target
    1a53:	eb 04                	jmp    1a59 <ezxml_pi+0x55>
/media/ssd-partition/Documents/RootCauseAnalysisPruning/evaluation/test_bin/22-ezXML/ezxml/ezxml.c:131 (discriminator 3)
    1a55:	83 45 f4 01          	addl   $0x1,-0xc(%rbp)
/media/ssd-partition/Documents/RootCauseAnalysisPruning/evaluation/test_bin/22-ezXML/ezxml/ezxml.c:131 (discriminator 1)
    1a59:	48 8b 45 f8          	mov    -0x8(%rbp),%rax
    1a5d:	48 8b 90 90 00 00 00 	mov    0x90(%rax),%rdx
    1a64:	8b 45 f4             	mov    -0xc(%rbp),%eax
    1a67:	48 98                	cltq   
    1a69:	48 c1 e0 03          	shl    $0x3,%rax
    1a6d:	48 01 d0             	add    %rdx,%rax
    1a70:	48 8b 00             	mov    (%rax),%rax
    1a73:	48 85 c0             	test   %rax,%rax
    1a76:	74 30                	je     1aa8 <ezxml_pi+0xa4>
/media/ssd-partition/Documents/RootCauseAnalysisPruning/evaluation/test_bin/22-ezXML/ezxml/ezxml.c:131 (discriminator 2)
    1a78:	48 8b 45 f8          	mov    -0x8(%rbp),%rax
    1a7c:	48 8b 90 90 00 00 00 	mov    0x90(%rax),%rdx
    1a83:	8b 45 f4             	mov    -0xc(%rbp),%eax
    1a86:	48 98                	cltq   
    1a88:	48 c1 e0 03          	shl    $0x3,%rax
    1a8c:	48 01 d0             	add    %rdx,%rax
    1a8f:	48 8b 00             	mov    (%rax),%rax
    1a92:	48 8b 10             	mov    (%rax),%rdx
    1a95:	48 8b 45 e0          	mov    -0x20(%rbp),%rax
    1a99:	48 89 d6             	mov    %rdx,%rsi
    1a9c:	48 89 c7             	mov    %rax,%rdi
    1a9f:	e8 bc f8 ff ff       	call   1360 <strcmp@plt>
    1aa4:	85 c0                	test   %eax,%eax
    1aa6:	75 ad                	jne    1a55 <ezxml_pi+0x51>
/media/ssd-partition/Documents/RootCauseAnalysisPruning/evaluation/test_bin/22-ezXML/ezxml/ezxml.c:132
    return (const char **)((root->pi[i]) ? root->pi[i] + 1 : EZXML_NIL);
    1aa8:	48 8b 45 f8          	mov    -0x8(%rbp),%rax
    1aac:	48 8b 90 90 00 00 00 	mov    0x90(%rax),%rdx
    1ab3:	8b 45 f4             	mov    -0xc(%rbp),%eax
    1ab6:	48 98                	cltq   
    1ab8:	48 c1 e0 03          	shl    $0x3,%rax
    1abc:	48 01 d0             	add    %rdx,%rax
    1abf:	48 8b 00             	mov    (%rax),%rax
    1ac2:	48 85 c0             	test   %rax,%rax
    1ac5:	74 20                	je     1ae7 <ezxml_pi+0xe3>
/media/ssd-partition/Documents/RootCauseAnalysisPruning/evaluation/test_bin/22-ezXML/ezxml/ezxml.c:132 (discriminator 1)
    1ac7:	48 8b 45 f8          	mov    -0x8(%rbp),%rax
    1acb:	48 8b 90 90 00 00 00 	mov    0x90(%rax),%rdx
    1ad2:	8b 45 f4             	mov    -0xc(%rbp),%eax
    1ad5:	48 98                	cltq   
    1ad7:	48 c1 e0 03          	shl    $0x3,%rax
    1adb:	48 01 d0             	add    %rdx,%rax
    1ade:	48 8b 00             	mov    (%rax),%rax
    1ae1:	48 83 c0 08          	add    $0x8,%rax
    1ae5:	eb 07                	jmp    1aee <ezxml_pi+0xea>
/media/ssd-partition/Documents/RootCauseAnalysisPruning/evaluation/test_bin/22-ezXML/ezxml/ezxml.c:132 (discriminator 2)
    1ae7:	48 8d 05 a2 75 00 00 	lea    0x75a2(%rip),%rax        # 9090 <EZXML_NIL>
/media/ssd-partition/Documents/RootCauseAnalysisPruning/evaluation/test_bin/22-ezXML/ezxml/ezxml.c:133
}
    1aee:	c9                   	leave  
    1aef:	c3                   	ret    

0000000000001af0 <ezxml_err>:
ezxml_err():
/media/ssd-partition/Documents/RootCauseAnalysisPruning/evaluation/test_bin/22-ezXML/ezxml/ezxml.c:137

// set an error string and return root
ezxml_t ezxml_err(ezxml_root_t root, char *s, const char *err, ...)
{
    1af0:	f3 0f 1e fa          	endbr64 
    1af4:	55                   	push   %rbp
    1af5:	48 89 e5             	mov    %rsp,%rbp
    1af8:	48 81 ec 90 01 00 00 	sub    $0x190,%rsp
    1aff:	48 89 bd 88 fe ff ff 	mov    %rdi,-0x178(%rbp)
    1b06:	48 89 b5 80 fe ff ff 	mov    %rsi,-0x180(%rbp)
    1b0d:	48 89 95 78 fe ff ff 	mov    %rdx,-0x188(%rbp)
    1b14:	48 89 8d 68 ff ff ff 	mov    %rcx,-0x98(%rbp)
    1b1b:	4c 89 85 70 ff ff ff 	mov    %r8,-0x90(%rbp)
    1b22:	4c 89 8d 78 ff ff ff 	mov    %r9,-0x88(%rbp)
    1b29:	84 c0                	test   %al,%al
    1b2b:	74 20                	je     1b4d <ezxml_err+0x5d>
    1b2d:	0f 29 45 80          	movaps %xmm0,-0x80(%rbp)
    1b31:	0f 29 4d 90          	movaps %xmm1,-0x70(%rbp)
    1b35:	0f 29 55 a0          	movaps %xmm2,-0x60(%rbp)
    1b39:	0f 29 5d b0          	movaps %xmm3,-0x50(%rbp)
    1b3d:	0f 29 65 c0          	movaps %xmm4,-0x40(%rbp)
    1b41:	0f 29 6d d0          	movaps %xmm5,-0x30(%rbp)
    1b45:	0f 29 75 e0          	movaps %xmm6,-0x20(%rbp)
    1b49:	0f 29 7d f0          	movaps %xmm7,-0x10(%rbp)
    1b4d:	64 48 8b 04 25 28 00 	mov    %fs:0x28,%rax
    1b54:	00 00 
    1b56:	48 89 85 48 ff ff ff 	mov    %rax,-0xb8(%rbp)
    1b5d:	31 c0                	xor    %eax,%eax
/media/ssd-partition/Documents/RootCauseAnalysisPruning/evaluation/test_bin/22-ezXML/ezxml/ezxml.c:139
    va_list ap;
    int line = 1;
    1b5f:	c7 85 9c fe ff ff 01 	movl   $0x1,-0x164(%rbp)
    1b66:	00 00 00 
/media/ssd-partition/Documents/RootCauseAnalysisPruning/evaluation/test_bin/22-ezXML/ezxml/ezxml.c:142
    char *t, fmt[EZXML_ERRL];
    
    for (t = root->s; t < s; t++) if (*t == '\n') line++;
    1b69:	48 8b 85 88 fe ff ff 	mov    -0x178(%rbp),%rax
    1b70:	48 8b 40 70          	mov    0x70(%rax),%rax
    1b74:	48 89 85 a0 fe ff ff 	mov    %rax,-0x160(%rbp)
    1b7b:	eb 1d                	jmp    1b9a <ezxml_err+0xaa>
/media/ssd-partition/Documents/RootCauseAnalysisPruning/evaluation/test_bin/22-ezXML/ezxml/ezxml.c:142 (discriminator 6)
    1b7d:	48 8b 85 a0 fe ff ff 	mov    -0x160(%rbp),%rax
    1b84:	0f b6 00             	movzbl (%rax),%eax
    1b87:	3c 0a                	cmp    $0xa,%al
    1b89:	75 07                	jne    1b92 <ezxml_err+0xa2>
/media/ssd-partition/Documents/RootCauseAnalysisPruning/evaluation/test_bin/22-ezXML/ezxml/ezxml.c:142 (discriminator 2)
    1b8b:	83 85 9c fe ff ff 01 	addl   $0x1,-0x164(%rbp)
/media/ssd-partition/Documents/RootCauseAnalysisPruning/evaluation/test_bin/22-ezXML/ezxml/ezxml.c:142 (discriminator 4)
    1b92:	48 83 85 a0 fe ff ff 	addq   $0x1,-0x160(%rbp)
    1b99:	01 
/media/ssd-partition/Documents/RootCauseAnalysisPruning/evaluation/test_bin/22-ezXML/ezxml/ezxml.c:142 (discriminator 5)
    1b9a:	48 8b 85 a0 fe ff ff 	mov    -0x160(%rbp),%rax
    1ba1:	48 3b 85 80 fe ff ff 	cmp    -0x180(%rbp),%rax
    1ba8:	72 d3                	jb     1b7d <ezxml_err+0x8d>
/media/ssd-partition/Documents/RootCauseAnalysisPruning/evaluation/test_bin/22-ezXML/ezxml/ezxml.c:143
    snprintf(fmt, EZXML_ERRL, "[error near line %d]: %s", line, err);
    1baa:	48 8b 8d 78 fe ff ff 	mov    -0x188(%rbp),%rcx
    1bb1:	8b 95 9c fe ff ff    	mov    -0x164(%rbp),%edx
    1bb7:	48 8d 85 c0 fe ff ff 	lea    -0x140(%rbp),%rax
    1bbe:	49 89 c8             	mov    %rcx,%r8
    1bc1:	89 d1                	mov    %edx,%ecx
    1bc3:	48 8d 15 3e 54 00 00 	lea    0x543e(%rip),%rdx        # 7008 <_IO_stdin_used+0x8>
    1bca:	be 80 00 00 00       	mov    $0x80,%esi
    1bcf:	48 89 c7             	mov    %rax,%rdi
    1bd2:	b8 00 00 00 00       	mov    $0x0,%eax
    1bd7:	e8 24 f7 ff ff       	call   1300 <snprintf@plt>
/media/ssd-partition/Documents/RootCauseAnalysisPruning/evaluation/test_bin/22-ezXML/ezxml/ezxml.c:145

    va_start(ap, err);
    1bdc:	c7 85 a8 fe ff ff 18 	movl   $0x18,-0x158(%rbp)
    1be3:	00 00 00 
    1be6:	c7 85 ac fe ff ff 30 	movl   $0x30,-0x154(%rbp)
    1bed:	00 00 00 
    1bf0:	48 8d 45 10          	lea    0x10(%rbp),%rax
    1bf4:	48 89 85 b0 fe ff ff 	mov    %rax,-0x150(%rbp)
    1bfb:	48 8d 85 50 ff ff ff 	lea    -0xb0(%rbp),%rax
    1c02:	48 89 85 b8 fe ff ff 	mov    %rax,-0x148(%rbp)
/media/ssd-partition/Documents/RootCauseAnalysisPruning/evaluation/test_bin/22-ezXML/ezxml/ezxml.c:146
    vsnprintf(root->err, EZXML_ERRL, fmt, ap);
    1c09:	48 8b 85 88 fe ff ff 	mov    -0x178(%rbp),%rax
    1c10:	48 8d b8 9a 00 00 00 	lea    0x9a(%rax),%rdi
    1c17:	48 8d 95 a8 fe ff ff 	lea    -0x158(%rbp),%rdx
    1c1e:	48 8d 85 c0 fe ff ff 	lea    -0x140(%rbp),%rax
    1c25:	48 89 d1             	mov    %rdx,%rcx
    1c28:	48 89 c2             	mov    %rax,%rdx
    1c2b:	be 80 00 00 00       	mov    $0x80,%esi
    1c30:	e8 7b f6 ff ff       	call   12b0 <vsnprintf@plt>
/media/ssd-partition/Documents/RootCauseAnalysisPruning/evaluation/test_bin/22-ezXML/ezxml/ezxml.c:149
    va_end(ap);

    return &root->xml;
    1c35:	48 8b 85 88 fe ff ff 	mov    -0x178(%rbp),%rax
/media/ssd-partition/Documents/RootCauseAnalysisPruning/evaluation/test_bin/22-ezXML/ezxml/ezxml.c:150
}
    1c3c:	48 8b 95 48 ff ff ff 	mov    -0xb8(%rbp),%rdx
    1c43:	64 48 2b 14 25 28 00 	sub    %fs:0x28,%rdx
    1c4a:	00 00 
    1c4c:	74 05                	je     1c53 <ezxml_err+0x163>
    1c4e:	e8 7d f6 ff ff       	call   12d0 <__stack_chk_fail@plt>
    1c53:	c9                   	leave  
    1c54:	c3                   	ret    

0000000000001c55 <ezxml_decode>:
ezxml_decode():
/media/ssd-partition/Documents/RootCauseAnalysisPruning/evaluation/test_bin/22-ezXML/ezxml/ezxml.c:159
// to '&' for general entity decoding, '%' for parameter entity decoding, 'c'
// for cdata sections, ' ' for attribute normalization, or '*' for non-cdata
// attribute normalization. Returns s, or if the decoded string is longer than
// s, returns a malloced string that must be freed.
char *ezxml_decode(char *s, char **ent, char t)
{
    1c55:	f3 0f 1e fa          	endbr64 
    1c59:	55                   	push   %rbp
    1c5a:	48 89 e5             	mov    %rsp,%rbp
    1c5d:	53                   	push   %rbx
    1c5e:	48 83 ec 68          	sub    $0x68,%rsp
    1c62:	48 89 7d a8          	mov    %rdi,-0x58(%rbp)
    1c66:	48 89 75 a0          	mov    %rsi,-0x60(%rbp)
    1c6a:	89 d0                	mov    %edx,%eax
    1c6c:	88 45 9c             	mov    %al,-0x64(%rbp)
    1c6f:	64 48 8b 04 25 28 00 	mov    %fs:0x28,%rax
    1c76:	00 00 
    1c78:	48 89 45 e8          	mov    %rax,-0x18(%rbp)
    1c7c:	31 c0                	xor    %eax,%eax
/media/ssd-partition/Documents/RootCauseAnalysisPruning/evaluation/test_bin/22-ezXML/ezxml/ezxml.c:160
    char *e, *r = s, *m = s;
    1c7e:	48 8b 45 a8          	mov    -0x58(%rbp),%rax
    1c82:	48 89 45 b8          	mov    %rax,-0x48(%rbp)
    1c86:	48 8b 45 a8          	mov    -0x58(%rbp),%rax
    1c8a:	48 89 45 d8          	mov    %rax,-0x28(%rbp)
/media/ssd-partition/Documents/RootCauseAnalysisPruning/evaluation/test_bin/22-ezXML/ezxml/ezxml.c:163
    long b, c, d, l;

    for (; *s; s++) { // normalize line endings
    1c8e:	eb 50                	jmp    1ce0 <ezxml_decode+0x8b>
/media/ssd-partition/Documents/RootCauseAnalysisPruning/evaluation/test_bin/22-ezXML/ezxml/ezxml.c:165
        while (*s == '\r') {
            *(s++) = '\n';
    1c90:	48 8b 45 a8          	mov    -0x58(%rbp),%rax
    1c94:	48 8d 50 01          	lea    0x1(%rax),%rdx
    1c98:	48 89 55 a8          	mov    %rdx,-0x58(%rbp)
    1c9c:	c6 00 0a             	movb   $0xa,(%rax)
/media/ssd-partition/Documents/RootCauseAnalysisPruning/evaluation/test_bin/22-ezXML/ezxml/ezxml.c:166
            if (*s == '\n') memmove(s, (s + 1), strlen(s));
    1c9f:	48 8b 45 a8          	mov    -0x58(%rbp),%rax
    1ca3:	0f b6 00             	movzbl (%rax),%eax
    1ca6:	3c 0a                	cmp    $0xa,%al
    1ca8:	75 26                	jne    1cd0 <ezxml_decode+0x7b>
/media/ssd-partition/Documents/RootCauseAnalysisPruning/evaluation/test_bin/22-ezXML/ezxml/ezxml.c:166 (discriminator 1)
    1caa:	48 8b 45 a8          	mov    -0x58(%rbp),%rax
    1cae:	48 89 c7             	mov    %rax,%rdi
    1cb1:	e8 0a f6 ff ff       	call   12c0 <strlen@plt>
    1cb6:	48 89 c2             	mov    %rax,%rdx
    1cb9:	48 8b 45 a8          	mov    -0x58(%rbp),%rax
    1cbd:	48 8d 48 01          	lea    0x1(%rax),%rcx
    1cc1:	48 8b 45 a8          	mov    -0x58(%rbp),%rax
    1cc5:	48 89 ce             	mov    %rcx,%rsi
    1cc8:	48 89 c7             	mov    %rax,%rdi
    1ccb:	e8 10 f7 ff ff       	call   13e0 <memmove@plt>
/media/ssd-partition/Documents/RootCauseAnalysisPruning/evaluation/test_bin/22-ezXML/ezxml/ezxml.c:164
        while (*s == '\r') {
    1cd0:	48 8b 45 a8          	mov    -0x58(%rbp),%rax
    1cd4:	0f b6 00             	movzbl (%rax),%eax
    1cd7:	3c 0d                	cmp    $0xd,%al
    1cd9:	74 b5                	je     1c90 <ezxml_decode+0x3b>
/media/ssd-partition/Documents/RootCauseAnalysisPruning/evaluation/test_bin/22-ezXML/ezxml/ezxml.c:163
    for (; *s; s++) { // normalize line endings
    1cdb:	48 83 45 a8 01       	addq   $0x1,-0x58(%rbp)
/media/ssd-partition/Documents/RootCauseAnalysisPruning/evaluation/test_bin/22-ezXML/ezxml/ezxml.c:163 (discriminator 1)
    1ce0:	48 8b 45 a8          	mov    -0x58(%rbp),%rax
    1ce4:	0f b6 00             	movzbl (%rax),%eax
    1ce7:	84 c0                	test   %al,%al
    1ce9:	75 e5                	jne    1cd0 <ezxml_decode+0x7b>
/media/ssd-partition/Documents/RootCauseAnalysisPruning/evaluation/test_bin/22-ezXML/ezxml/ezxml.c:170
        }
    }
    
    for (s = r; ; ) {
    1ceb:	48 8b 45 b8          	mov    -0x48(%rbp),%rax
    1cef:	48 89 45 a8          	mov    %rax,-0x58(%rbp)
/media/ssd-partition/Documents/RootCauseAnalysisPruning/evaluation/test_bin/22-ezXML/ezxml/ezxml.c:171
        while (*s && *s != '&' && (*s != '%' || t != '%') && !isspace(*s)) s++;
    1cf3:	eb 05                	jmp    1cfa <ezxml_decode+0xa5>
/media/ssd-partition/Documents/RootCauseAnalysisPruning/evaluation/test_bin/22-ezXML/ezxml/ezxml.c:171 (discriminator 7)
    1cf5:	48 83 45 a8 01       	addq   $0x1,-0x58(%rbp)
/media/ssd-partition/Documents/RootCauseAnalysisPruning/evaluation/test_bin/22-ezXML/ezxml/ezxml.c:171 (discriminator 1)
    1cfa:	48 8b 45 a8          	mov    -0x58(%rbp),%rax
    1cfe:	0f b6 00             	movzbl (%rax),%eax
    1d01:	84 c0                	test   %al,%al
    1d03:	74 44                	je     1d49 <ezxml_decode+0xf4>
/media/ssd-partition/Documents/RootCauseAnalysisPruning/evaluation/test_bin/22-ezXML/ezxml/ezxml.c:171 (discriminator 2)
    1d05:	48 8b 45 a8          	mov    -0x58(%rbp),%rax
    1d09:	0f b6 00             	movzbl (%rax),%eax
    1d0c:	3c 26                	cmp    $0x26,%al
    1d0e:	74 39                	je     1d49 <ezxml_decode+0xf4>
/media/ssd-partition/Documents/RootCauseAnalysisPruning/evaluation/test_bin/22-ezXML/ezxml/ezxml.c:171 (discriminator 3)
    1d10:	48 8b 45 a8          	mov    -0x58(%rbp),%rax
    1d14:	0f b6 00             	movzbl (%rax),%eax
    1d17:	3c 25                	cmp    $0x25,%al
    1d19:	75 06                	jne    1d21 <ezxml_decode+0xcc>
/media/ssd-partition/Documents/RootCauseAnalysisPruning/evaluation/test_bin/22-ezXML/ezxml/ezxml.c:171 (discriminator 5)
    1d1b:	80 7d 9c 25          	cmpb   $0x25,-0x64(%rbp)
    1d1f:	74 28                	je     1d49 <ezxml_decode+0xf4>
/media/ssd-partition/Documents/RootCauseAnalysisPruning/evaluation/test_bin/22-ezXML/ezxml/ezxml.c:171 (discriminator 6)
    1d21:	e8 2a f7 ff ff       	call   1450 <__ctype_b_loc@plt>
    1d26:	48 8b 10             	mov    (%rax),%rdx
    1d29:	48 8b 45 a8          	mov    -0x58(%rbp),%rax
    1d2d:	0f b6 00             	movzbl (%rax),%eax
    1d30:	48 0f be c0          	movsbq %al,%rax
    1d34:	48 01 c0             	add    %rax,%rax
    1d37:	48 01 d0             	add    %rdx,%rax
    1d3a:	0f b7 00             	movzwl (%rax),%eax
    1d3d:	0f b7 c0             	movzwl %ax,%eax
    1d40:	25 00 20 00 00       	and    $0x2000,%eax
    1d45:	85 c0                	test   %eax,%eax
    1d47:	74 ac                	je     1cf5 <ezxml_decode+0xa0>
/media/ssd-partition/Documents/RootCauseAnalysisPruning/evaluation/test_bin/22-ezXML/ezxml/ezxml.c:173

        if (! *s) break;
    1d49:	48 8b 45 a8          	mov    -0x58(%rbp),%rax
    1d4d:	0f b6 00             	movzbl (%rax),%eax
    1d50:	84 c0                	test   %al,%al
    1d52:	0f 84 4a 04 00 00    	je     21a2 <ezxml_decode+0x54d>
/media/ssd-partition/Documents/RootCauseAnalysisPruning/evaluation/test_bin/22-ezXML/ezxml/ezxml.c:174
        else if (t != 'c' && ! strncmp(s, "&#", 2)) { // character reference
    1d58:	80 7d 9c 63          	cmpb   $0x63,-0x64(%rbp)
    1d5c:	0f 84 db 01 00 00    	je     1f3d <ezxml_decode+0x2e8>
/media/ssd-partition/Documents/RootCauseAnalysisPruning/evaluation/test_bin/22-ezXML/ezxml/ezxml.c:174 (discriminator 1)
    1d62:	48 8b 45 a8          	mov    -0x58(%rbp),%rax
    1d66:	ba 02 00 00 00       	mov    $0x2,%edx
    1d6b:	48 8d 0d af 52 00 00 	lea    0x52af(%rip),%rcx        # 7021 <_IO_stdin_used+0x21>
    1d72:	48 89 ce             	mov    %rcx,%rsi
    1d75:	48 89 c7             	mov    %rax,%rdi
    1d78:	e8 f3 f4 ff ff       	call   1270 <strncmp@plt>
    1d7d:	85 c0                	test   %eax,%eax
    1d7f:	0f 85 b8 01 00 00    	jne    1f3d <ezxml_decode+0x2e8>
/media/ssd-partition/Documents/RootCauseAnalysisPruning/evaluation/test_bin/22-ezXML/ezxml/ezxml.c:175
            if (s[2] == 'x') c = strtol(s + 3, &e, 16); // base 16
    1d85:	48 8b 45 a8          	mov    -0x58(%rbp),%rax
    1d89:	48 83 c0 02          	add    $0x2,%rax
    1d8d:	0f b6 00             	movzbl (%rax),%eax
    1d90:	3c 78                	cmp    $0x78,%al
    1d92:	75 22                	jne    1db6 <ezxml_decode+0x161>
/media/ssd-partition/Documents/RootCauseAnalysisPruning/evaluation/test_bin/22-ezXML/ezxml/ezxml.c:175 (discriminator 1)
    1d94:	48 8b 45 a8          	mov    -0x58(%rbp),%rax
    1d98:	48 8d 48 03          	lea    0x3(%rax),%rcx
    1d9c:	48 8d 45 b0          	lea    -0x50(%rbp),%rax
    1da0:	ba 10 00 00 00       	mov    $0x10,%edx
    1da5:	48 89 c6             	mov    %rax,%rsi
    1da8:	48 89 cf             	mov    %rcx,%rdi
    1dab:	e8 d0 f5 ff ff       	call   1380 <strtol@plt>
    1db0:	48 89 45 c8          	mov    %rax,-0x38(%rbp)
    1db4:	eb 20                	jmp    1dd6 <ezxml_decode+0x181>
/media/ssd-partition/Documents/RootCauseAnalysisPruning/evaluation/test_bin/22-ezXML/ezxml/ezxml.c:176
            else c = strtol(s + 2, &e, 10); // base 10
    1db6:	48 8b 45 a8          	mov    -0x58(%rbp),%rax
    1dba:	48 8d 48 02          	lea    0x2(%rax),%rcx
    1dbe:	48 8d 45 b0          	lea    -0x50(%rbp),%rax
    1dc2:	ba 0a 00 00 00       	mov    $0xa,%edx
    1dc7:	48 89 c6             	mov    %rax,%rsi
    1dca:	48 89 cf             	mov    %rcx,%rdi
    1dcd:	e8 ae f5 ff ff       	call   1380 <strtol@plt>
    1dd2:	48 89 45 c8          	mov    %rax,-0x38(%rbp)
/media/ssd-partition/Documents/RootCauseAnalysisPruning/evaluation/test_bin/22-ezXML/ezxml/ezxml.c:177
            if (! c || *e != ';') { s++; continue; } // not a character ref
    1dd6:	48 83 7d c8 00       	cmpq   $0x0,-0x38(%rbp)
    1ddb:	74 0b                	je     1de8 <ezxml_decode+0x193>
/media/ssd-partition/Documents/RootCauseAnalysisPruning/evaluation/test_bin/22-ezXML/ezxml/ezxml.c:177 (discriminator 2)
    1ddd:	48 8b 45 b0          	mov    -0x50(%rbp),%rax
    1de1:	0f b6 00             	movzbl (%rax),%eax
    1de4:	3c 3b                	cmp    $0x3b,%al
    1de6:	74 0a                	je     1df2 <ezxml_decode+0x19d>
/media/ssd-partition/Documents/RootCauseAnalysisPruning/evaluation/test_bin/22-ezXML/ezxml/ezxml.c:177 (discriminator 3)
    1de8:	48 83 45 a8 01       	addq   $0x1,-0x58(%rbp)
    1ded:	e9 ab 03 00 00       	jmp    219d <ezxml_decode+0x548>
/media/ssd-partition/Documents/RootCauseAnalysisPruning/evaluation/test_bin/22-ezXML/ezxml/ezxml.c:179

            if (c < 0x80) *(s++) = c; // US-ASCII subset
    1df2:	48 83 7d c8 7f       	cmpq   $0x7f,-0x38(%rbp)
    1df7:	7f 17                	jg     1e10 <ezxml_decode+0x1bb>
/media/ssd-partition/Documents/RootCauseAnalysisPruning/evaluation/test_bin/22-ezXML/ezxml/ezxml.c:179 (discriminator 1)
    1df9:	48 8b 45 a8          	mov    -0x58(%rbp),%rax
    1dfd:	48 8d 50 01          	lea    0x1(%rax),%rdx
    1e01:	48 89 55 a8          	mov    %rdx,-0x58(%rbp)
    1e05:	48 8b 55 c8          	mov    -0x38(%rbp),%rdx
    1e09:	88 10                	mov    %dl,(%rax)
    1e0b:	e9 e5 00 00 00       	jmp    1ef5 <ezxml_decode+0x2a0>
/media/ssd-partition/Documents/RootCauseAnalysisPruning/evaluation/test_bin/22-ezXML/ezxml/ezxml.c:181
            else { // multi-byte UTF-8 sequence
                for (b = 0, d = c; d; d /= 2) b++; // number of bits in c
    1e10:	48 c7 45 c0 00 00 00 	movq   $0x0,-0x40(%rbp)
    1e17:	00 
    1e18:	48 8b 45 c8          	mov    -0x38(%rbp),%rax
    1e1c:	48 89 45 d0          	mov    %rax,-0x30(%rbp)
    1e20:	eb 1a                	jmp    1e3c <ezxml_decode+0x1e7>
/media/ssd-partition/Documents/RootCauseAnalysisPruning/evaluation/test_bin/22-ezXML/ezxml/ezxml.c:181 (discriminator 3)
    1e22:	48 83 45 c0 01       	addq   $0x1,-0x40(%rbp)
    1e27:	48 8b 45 d0          	mov    -0x30(%rbp),%rax
    1e2b:	48 89 c2             	mov    %rax,%rdx
    1e2e:	48 c1 ea 3f          	shr    $0x3f,%rdx
    1e32:	48 01 d0             	add    %rdx,%rax
    1e35:	48 d1 f8             	sar    %rax
    1e38:	48 89 45 d0          	mov    %rax,-0x30(%rbp)
/media/ssd-partition/Documents/RootCauseAnalysisPruning/evaluation/test_bin/22-ezXML/ezxml/ezxml.c:181 (discriminator 1)
    1e3c:	48 83 7d d0 00       	cmpq   $0x0,-0x30(%rbp)
    1e41:	75 df                	jne    1e22 <ezxml_decode+0x1cd>
/media/ssd-partition/Documents/RootCauseAnalysisPruning/evaluation/test_bin/22-ezXML/ezxml/ezxml.c:182
                b = (b - 2) / 5; // number of bytes in payload
    1e43:	48 8b 45 c0          	mov    -0x40(%rbp),%rax
    1e47:	48 8d 48 fe          	lea    -0x2(%rax),%rcx
    1e4b:	48 ba 67 66 66 66 66 	movabs $0x6666666666666667,%rdx
    1e52:	66 66 66 
    1e55:	48 89 c8             	mov    %rcx,%rax
    1e58:	48 f7 ea             	imul   %rdx
    1e5b:	48 89 d0             	mov    %rdx,%rax
    1e5e:	48 d1 f8             	sar    %rax
    1e61:	48 c1 f9 3f          	sar    $0x3f,%rcx
    1e65:	48 89 ca             	mov    %rcx,%rdx
    1e68:	48 29 d0             	sub    %rdx,%rax
    1e6b:	48 89 45 c0          	mov    %rax,-0x40(%rbp)
/media/ssd-partition/Documents/RootCauseAnalysisPruning/evaluation/test_bin/22-ezXML/ezxml/ezxml.c:183
                *(s++) = (0xFF << (7 - b)) | (c >> (6 * b)); // head
    1e6f:	48 8b 45 c0          	mov    -0x40(%rbp),%rax
    1e73:	89 c2                	mov    %eax,%edx
    1e75:	b8 07 00 00 00       	mov    $0x7,%eax
    1e7a:	29 d0                	sub    %edx,%eax
    1e7c:	ba ff 00 00 00       	mov    $0xff,%edx
    1e81:	89 c1                	mov    %eax,%ecx
    1e83:	d3 e2                	shl    %cl,%edx
    1e85:	89 d0                	mov    %edx,%eax
    1e87:	89 c6                	mov    %eax,%esi
    1e89:	48 8b 45 c0          	mov    -0x40(%rbp),%rax
    1e8d:	89 c2                	mov    %eax,%edx
    1e8f:	89 d0                	mov    %edx,%eax
    1e91:	01 c0                	add    %eax,%eax
    1e93:	01 d0                	add    %edx,%eax
    1e95:	01 c0                	add    %eax,%eax
    1e97:	89 c2                	mov    %eax,%edx
    1e99:	48 8b 45 c8          	mov    -0x38(%rbp),%rax
    1e9d:	89 d1                	mov    %edx,%ecx
    1e9f:	48 d3 f8             	sar    %cl,%rax
    1ea2:	89 c1                	mov    %eax,%ecx
    1ea4:	48 8b 45 a8          	mov    -0x58(%rbp),%rax
    1ea8:	48 8d 50 01          	lea    0x1(%rax),%rdx
    1eac:	48 89 55 a8          	mov    %rdx,-0x58(%rbp)
    1eb0:	09 ce                	or     %ecx,%esi
    1eb2:	89 f2                	mov    %esi,%edx
    1eb4:	88 10                	mov    %dl,(%rax)
/media/ssd-partition/Documents/RootCauseAnalysisPruning/evaluation/test_bin/22-ezXML/ezxml/ezxml.c:184
                while (b) *(s++) = 0x80 | ((c >> (6 * --b)) & 0x3F); // payload
    1eb6:	eb 36                	jmp    1eee <ezxml_decode+0x299>
/media/ssd-partition/Documents/RootCauseAnalysisPruning/evaluation/test_bin/22-ezXML/ezxml/ezxml.c:184 (discriminator 2)
    1eb8:	48 83 6d c0 01       	subq   $0x1,-0x40(%rbp)
    1ebd:	48 8b 45 c0          	mov    -0x40(%rbp),%rax
    1ec1:	89 c2                	mov    %eax,%edx
    1ec3:	89 d0                	mov    %edx,%eax
    1ec5:	01 c0                	add    %eax,%eax
    1ec7:	01 d0                	add    %edx,%eax
    1ec9:	01 c0                	add    %eax,%eax
    1ecb:	89 c2                	mov    %eax,%edx
    1ecd:	48 8b 45 c8          	mov    -0x38(%rbp),%rax
    1ed1:	89 d1                	mov    %edx,%ecx
    1ed3:	48 d3 f8             	sar    %cl,%rax
    1ed6:	83 e0 3f             	and    $0x3f,%eax
    1ed9:	89 c1                	mov    %eax,%ecx
    1edb:	48 8b 45 a8          	mov    -0x58(%rbp),%rax
    1edf:	48 8d 50 01          	lea    0x1(%rax),%rdx
    1ee3:	48 89 55 a8          	mov    %rdx,-0x58(%rbp)
    1ee7:	83 c9 80             	or     $0xffffff80,%ecx
    1eea:	89 ca                	mov    %ecx,%edx
    1eec:	88 10                	mov    %dl,(%rax)
/media/ssd-partition/Documents/RootCauseAnalysisPruning/evaluation/test_bin/22-ezXML/ezxml/ezxml.c:184 (discriminator 1)
    1eee:	48 83 7d c0 00       	cmpq   $0x0,-0x40(%rbp)
    1ef3:	75 c3                	jne    1eb8 <ezxml_decode+0x263>
/media/ssd-partition/Documents/RootCauseAnalysisPruning/evaluation/test_bin/22-ezXML/ezxml/ezxml.c:187
            }

            memmove(s, strchr(s, ';') + 1, strlen(strchr(s, ';')));
    1ef5:	48 8b 45 a8          	mov    -0x58(%rbp),%rax
    1ef9:	be 3b 00 00 00       	mov    $0x3b,%esi
    1efe:	48 89 c7             	mov    %rax,%rdi
    1f01:	e8 ea f3 ff ff       	call   12f0 <strchr@plt>
    1f06:	48 89 c7             	mov    %rax,%rdi
    1f09:	e8 b2 f3 ff ff       	call   12c0 <strlen@plt>
    1f0e:	48 89 c3             	mov    %rax,%rbx
    1f11:	48 8b 45 a8          	mov    -0x58(%rbp),%rax
    1f15:	be 3b 00 00 00       	mov    $0x3b,%esi
    1f1a:	48 89 c7             	mov    %rax,%rdi
    1f1d:	e8 ce f3 ff ff       	call   12f0 <strchr@plt>
    1f22:	48 8d 48 01          	lea    0x1(%rax),%rcx
    1f26:	48 8b 45 a8          	mov    -0x58(%rbp),%rax
    1f2a:	48 89 da             	mov    %rbx,%rdx
    1f2d:	48 89 ce             	mov    %rcx,%rsi
    1f30:	48 89 c7             	mov    %rax,%rdi
    1f33:	e8 a8 f4 ff ff       	call   13e0 <memmove@plt>
    1f38:	e9 60 02 00 00       	jmp    219d <ezxml_decode+0x548>
/media/ssd-partition/Documents/RootCauseAnalysisPruning/evaluation/test_bin/22-ezXML/ezxml/ezxml.c:189
        }
        else if ((*s == '&' && (t == '&' || t == ' ' || t == '*')) ||
    1f3d:	48 8b 45 a8          	mov    -0x58(%rbp),%rax
    1f41:	0f b6 00             	movzbl (%rax),%eax
    1f44:	3c 26                	cmp    $0x26,%al
    1f46:	75 12                	jne    1f5a <ezxml_decode+0x305>
/media/ssd-partition/Documents/RootCauseAnalysisPruning/evaluation/test_bin/22-ezXML/ezxml/ezxml.c:189 (discriminator 1)
    1f48:	80 7d 9c 26          	cmpb   $0x26,-0x64(%rbp)
    1f4c:	74 25                	je     1f73 <ezxml_decode+0x31e>
/media/ssd-partition/Documents/RootCauseAnalysisPruning/evaluation/test_bin/22-ezXML/ezxml/ezxml.c:189 (discriminator 3)
    1f4e:	80 7d 9c 20          	cmpb   $0x20,-0x64(%rbp)
    1f52:	74 1f                	je     1f73 <ezxml_decode+0x31e>
/media/ssd-partition/Documents/RootCauseAnalysisPruning/evaluation/test_bin/22-ezXML/ezxml/ezxml.c:189 (discriminator 4)
    1f54:	80 7d 9c 2a          	cmpb   $0x2a,-0x64(%rbp)
    1f58:	74 19                	je     1f73 <ezxml_decode+0x31e>
/media/ssd-partition/Documents/RootCauseAnalysisPruning/evaluation/test_bin/22-ezXML/ezxml/ezxml.c:190 (discriminator 5)
                 (*s == '%' && t == '%')) { // entity reference
    1f5a:	48 8b 45 a8          	mov    -0x58(%rbp),%rax
    1f5e:	0f b6 00             	movzbl (%rax),%eax
/media/ssd-partition/Documents/RootCauseAnalysisPruning/evaluation/test_bin/22-ezXML/ezxml/ezxml.c:189 (discriminator 5)
        else if ((*s == '&' && (t == '&' || t == ' ' || t == '*')) ||
    1f61:	3c 25                	cmp    $0x25,%al
    1f63:	0f 85 ea 01 00 00    	jne    2153 <ezxml_decode+0x4fe>
/media/ssd-partition/Documents/RootCauseAnalysisPruning/evaluation/test_bin/22-ezXML/ezxml/ezxml.c:190
                 (*s == '%' && t == '%')) { // entity reference
    1f69:	80 7d 9c 25          	cmpb   $0x25,-0x64(%rbp)
    1f6d:	0f 85 e0 01 00 00    	jne    2153 <ezxml_decode+0x4fe>
/media/ssd-partition/Documents/RootCauseAnalysisPruning/evaluation/test_bin/22-ezXML/ezxml/ezxml.c:191
            for (b = 0; ent[b] && strncmp(s + 1, ent[b], strlen(ent[b]));
    1f73:	48 c7 45 c0 00 00 00 	movq   $0x0,-0x40(%rbp)
    1f7a:	00 
    1f7b:	eb 05                	jmp    1f82 <ezxml_decode+0x32d>
/media/ssd-partition/Documents/RootCauseAnalysisPruning/evaluation/test_bin/22-ezXML/ezxml/ezxml.c:192
                 b += 2); // find entity in entity list
    1f7d:	48 83 45 c0 02       	addq   $0x2,-0x40(%rbp)
/media/ssd-partition/Documents/RootCauseAnalysisPruning/evaluation/test_bin/22-ezXML/ezxml/ezxml.c:191 (discriminator 1)
            for (b = 0; ent[b] && strncmp(s + 1, ent[b], strlen(ent[b]));
    1f82:	48 8b 45 c0          	mov    -0x40(%rbp),%rax
    1f86:	48 8d 14 c5 00 00 00 	lea    0x0(,%rax,8),%rdx
    1f8d:	00 
    1f8e:	48 8b 45 a0          	mov    -0x60(%rbp),%rax
    1f92:	48 01 d0             	add    %rdx,%rax
    1f95:	48 8b 00             	mov    (%rax),%rax
    1f98:	48 85 c0             	test   %rax,%rax
    1f9b:	74 4e                	je     1feb <ezxml_decode+0x396>
/media/ssd-partition/Documents/RootCauseAnalysisPruning/evaluation/test_bin/22-ezXML/ezxml/ezxml.c:191 (discriminator 2)
    1f9d:	48 8b 45 c0          	mov    -0x40(%rbp),%rax
    1fa1:	48 8d 14 c5 00 00 00 	lea    0x0(,%rax,8),%rdx
    1fa8:	00 
    1fa9:	48 8b 45 a0          	mov    -0x60(%rbp),%rax
    1fad:	48 01 d0             	add    %rdx,%rax
    1fb0:	48 8b 00             	mov    (%rax),%rax
    1fb3:	48 89 c7             	mov    %rax,%rdi
    1fb6:	e8 05 f3 ff ff       	call   12c0 <strlen@plt>
    1fbb:	48 89 c2             	mov    %rax,%rdx
    1fbe:	48 8b 45 c0          	mov    -0x40(%rbp),%rax
    1fc2:	48 8d 0c c5 00 00 00 	lea    0x0(,%rax,8),%rcx
    1fc9:	00 
    1fca:	48 8b 45 a0          	mov    -0x60(%rbp),%rax
    1fce:	48 01 c8             	add    %rcx,%rax
    1fd1:	48 8b 00             	mov    (%rax),%rax
    1fd4:	48 8b 4d a8          	mov    -0x58(%rbp),%rcx
    1fd8:	48 83 c1 01          	add    $0x1,%rcx
    1fdc:	48 89 c6             	mov    %rax,%rsi
    1fdf:	48 89 cf             	mov    %rcx,%rdi
    1fe2:	e8 89 f2 ff ff       	call   1270 <strncmp@plt>
    1fe7:	85 c0                	test   %eax,%eax
    1fe9:	75 92                	jne    1f7d <ezxml_decode+0x328>
/media/ssd-partition/Documents/RootCauseAnalysisPruning/evaluation/test_bin/22-ezXML/ezxml/ezxml.c:194

            if (ent[b++]) { // found a match
    1feb:	48 8b 45 c0          	mov    -0x40(%rbp),%rax
    1fef:	48 8d 50 01          	lea    0x1(%rax),%rdx
    1ff3:	48 89 55 c0          	mov    %rdx,-0x40(%rbp)
    1ff7:	48 8d 14 c5 00 00 00 	lea    0x0(,%rax,8),%rdx
    1ffe:	00 
    1fff:	48 8b 45 a0          	mov    -0x60(%rbp),%rax
    2003:	48 01 d0             	add    %rdx,%rax
    2006:	48 8b 00             	mov    (%rax),%rax
    2009:	48 85 c0             	test   %rax,%rax
    200c:	0f 84 3a 01 00 00    	je     214c <ezxml_decode+0x4f7>
/media/ssd-partition/Documents/RootCauseAnalysisPruning/evaluation/test_bin/22-ezXML/ezxml/ezxml.c:195
                if ((c = strlen(ent[b])) - 1 > (e = strchr(s, ';')) - s) {
    2012:	48 8b 45 c0          	mov    -0x40(%rbp),%rax
    2016:	48 8d 14 c5 00 00 00 	lea    0x0(,%rax,8),%rdx
    201d:	00 
    201e:	48 8b 45 a0          	mov    -0x60(%rbp),%rax
    2022:	48 01 d0             	add    %rdx,%rax
    2025:	48 8b 00             	mov    (%rax),%rax
    2028:	48 89 c7             	mov    %rax,%rdi
    202b:	e8 90 f2 ff ff       	call   12c0 <strlen@plt>
    2030:	48 89 45 c8          	mov    %rax,-0x38(%rbp)
    2034:	48 8b 45 c8          	mov    -0x38(%rbp),%rax
    2038:	48 8d 58 ff          	lea    -0x1(%rax),%rbx
    203c:	48 8b 45 a8          	mov    -0x58(%rbp),%rax
    2040:	be 3b 00 00 00       	mov    $0x3b,%esi
    2045:	48 89 c7             	mov    %rax,%rdi
    2048:	e8 a3 f2 ff ff       	call   12f0 <strchr@plt>
    204d:	48 89 45 b0          	mov    %rax,-0x50(%rbp)
    2051:	48 8b 45 b0          	mov    -0x50(%rbp),%rax
    2055:	48 2b 45 a8          	sub    -0x58(%rbp),%rax
    2059:	48 39 c3             	cmp    %rax,%rbx
    205c:	0f 8e 92 00 00 00    	jle    20f4 <ezxml_decode+0x49f>
/media/ssd-partition/Documents/RootCauseAnalysisPruning/evaluation/test_bin/22-ezXML/ezxml/ezxml.c:196
                    l = (d = (s - r)) + c + strlen(e); // new length
    2062:	48 8b 45 a8          	mov    -0x58(%rbp),%rax
    2066:	48 2b 45 b8          	sub    -0x48(%rbp),%rax
    206a:	48 89 45 d0          	mov    %rax,-0x30(%rbp)
    206e:	48 8b 55 d0          	mov    -0x30(%rbp),%rdx
    2072:	48 8b 45 c8          	mov    -0x38(%rbp),%rax
    2076:	48 01 d0             	add    %rdx,%rax
    2079:	48 89 c3             	mov    %rax,%rbx
    207c:	48 8b 45 b0          	mov    -0x50(%rbp),%rax
    2080:	48 89 c7             	mov    %rax,%rdi
    2083:	e8 38 f2 ff ff       	call   12c0 <strlen@plt>
    2088:	48 01 d8             	add    %rbx,%rax
    208b:	48 89 45 e0          	mov    %rax,-0x20(%rbp)
/media/ssd-partition/Documents/RootCauseAnalysisPruning/evaluation/test_bin/22-ezXML/ezxml/ezxml.c:197
                    r = (r == m) ? strcpy(malloc(l), r) : realloc(r, l);
    208f:	48 8b 45 b8          	mov    -0x48(%rbp),%rax
    2093:	48 3b 45 d8          	cmp    -0x28(%rbp),%rax
    2097:	75 20                	jne    20b9 <ezxml_decode+0x464>
/media/ssd-partition/Documents/RootCauseAnalysisPruning/evaluation/test_bin/22-ezXML/ezxml/ezxml.c:197 (discriminator 1)
    2099:	48 8b 45 e0          	mov    -0x20(%rbp),%rax
    209d:	48 89 c7             	mov    %rax,%rdi
    20a0:	e8 fb f2 ff ff       	call   13a0 <malloc@plt>
    20a5:	48 89 c2             	mov    %rax,%rdx
    20a8:	48 8b 45 b8          	mov    -0x48(%rbp),%rax
    20ac:	48 89 c6             	mov    %rax,%rsi
    20af:	48 89 d7             	mov    %rdx,%rdi
    20b2:	e8 c9 f1 ff ff       	call   1280 <strcpy@plt>
    20b7:	eb 13                	jmp    20cc <ezxml_decode+0x477>
/media/ssd-partition/Documents/RootCauseAnalysisPruning/evaluation/test_bin/22-ezXML/ezxml/ezxml.c:197 (discriminator 2)
    20b9:	48 8b 55 e0          	mov    -0x20(%rbp),%rdx
    20bd:	48 8b 45 b8          	mov    -0x48(%rbp),%rax
    20c1:	48 89 d6             	mov    %rdx,%rsi
    20c4:	48 89 c7             	mov    %rax,%rdi
    20c7:	e8 e4 f2 ff ff       	call   13b0 <realloc@plt>
/media/ssd-partition/Documents/RootCauseAnalysisPruning/evaluation/test_bin/22-ezXML/ezxml/ezxml.c:197 (discriminator 4)
    20cc:	48 89 45 b8          	mov    %rax,-0x48(%rbp)
/media/ssd-partition/Documents/RootCauseAnalysisPruning/evaluation/test_bin/22-ezXML/ezxml/ezxml.c:198 (discriminator 4)
                    e = strchr((s = r + d), ';'); // fix up pointers
    20d0:	48 8b 55 d0          	mov    -0x30(%rbp),%rdx
    20d4:	48 8b 45 b8          	mov    -0x48(%rbp),%rax
    20d8:	48 01 d0             	add    %rdx,%rax
    20db:	48 89 45 a8          	mov    %rax,-0x58(%rbp)
    20df:	48 8b 45 a8          	mov    -0x58(%rbp),%rax
    20e3:	be 3b 00 00 00       	mov    $0x3b,%esi
    20e8:	48 89 c7             	mov    %rax,%rdi
    20eb:	e8 00 f2 ff ff       	call   12f0 <strchr@plt>
    20f0:	48 89 45 b0          	mov    %rax,-0x50(%rbp)
/media/ssd-partition/Documents/RootCauseAnalysisPruning/evaluation/test_bin/22-ezXML/ezxml/ezxml.c:201
                }

                memmove(s + c, e + 1, strlen(e)); // shift rest of string
    20f4:	48 8b 45 b0          	mov    -0x50(%rbp),%rax
    20f8:	48 89 c7             	mov    %rax,%rdi
    20fb:	e8 c0 f1 ff ff       	call   12c0 <strlen@plt>
    2100:	48 89 c2             	mov    %rax,%rdx
    2103:	48 8b 45 b0          	mov    -0x50(%rbp),%rax
    2107:	48 8d 48 01          	lea    0x1(%rax),%rcx
    210b:	48 8b 75 c8          	mov    -0x38(%rbp),%rsi
    210f:	48 8b 45 a8          	mov    -0x58(%rbp),%rax
    2113:	48 01 f0             	add    %rsi,%rax
    2116:	48 89 ce             	mov    %rcx,%rsi
    2119:	48 89 c7             	mov    %rax,%rdi
    211c:	e8 bf f2 ff ff       	call   13e0 <memmove@plt>
/media/ssd-partition/Documents/RootCauseAnalysisPruning/evaluation/test_bin/22-ezXML/ezxml/ezxml.c:202
                strncpy(s, ent[b], c); // copy in replacement text
    2121:	48 8b 55 c8          	mov    -0x38(%rbp),%rdx
    2125:	48 8b 45 c0          	mov    -0x40(%rbp),%rax
    2129:	48 8d 0c c5 00 00 00 	lea    0x0(,%rax,8),%rcx
    2130:	00 
    2131:	48 8b 45 a0          	mov    -0x60(%rbp),%rax
    2135:	48 01 c8             	add    %rcx,%rax
    2138:	48 8b 08             	mov    (%rax),%rcx
    213b:	48 8b 45 a8          	mov    -0x58(%rbp),%rax
    213f:	48 89 ce             	mov    %rcx,%rsi
    2142:	48 89 c7             	mov    %rax,%rdi
    2145:	e8 16 f1 ff ff       	call   1260 <strncpy@plt>
/media/ssd-partition/Documents/RootCauseAnalysisPruning/evaluation/test_bin/22-ezXML/ezxml/ezxml.c:194
            if (ent[b++]) { // found a match
    214a:	eb 51                	jmp    219d <ezxml_decode+0x548>
/media/ssd-partition/Documents/RootCauseAnalysisPruning/evaluation/test_bin/22-ezXML/ezxml/ezxml.c:204
            }
            else s++; // not a known entity
    214c:	48 83 45 a8 01       	addq   $0x1,-0x58(%rbp)
/media/ssd-partition/Documents/RootCauseAnalysisPruning/evaluation/test_bin/22-ezXML/ezxml/ezxml.c:194
            if (ent[b++]) { // found a match
    2151:	eb 4a                	jmp    219d <ezxml_decode+0x548>
/media/ssd-partition/Documents/RootCauseAnalysisPruning/evaluation/test_bin/22-ezXML/ezxml/ezxml.c:206
        }
        else if ((t == ' ' || t == '*') && isspace(*s)) *(s++) = ' ';
    2153:	80 7d 9c 20          	cmpb   $0x20,-0x64(%rbp)
    2157:	74 06                	je     215f <ezxml_decode+0x50a>
/media/ssd-partition/Documents/RootCauseAnalysisPruning/evaluation/test_bin/22-ezXML/ezxml/ezxml.c:206 (discriminator 2)
    2159:	80 7d 9c 2a          	cmpb   $0x2a,-0x64(%rbp)
    215d:	75 39                	jne    2198 <ezxml_decode+0x543>
/media/ssd-partition/Documents/RootCauseAnalysisPruning/evaluation/test_bin/22-ezXML/ezxml/ezxml.c:206 (discriminator 3)
    215f:	e8 ec f2 ff ff       	call   1450 <__ctype_b_loc@plt>
    2164:	48 8b 10             	mov    (%rax),%rdx
    2167:	48 8b 45 a8          	mov    -0x58(%rbp),%rax
    216b:	0f b6 00             	movzbl (%rax),%eax
    216e:	48 0f be c0          	movsbq %al,%rax
    2172:	48 01 c0             	add    %rax,%rax
    2175:	48 01 d0             	add    %rdx,%rax
    2178:	0f b7 00             	movzwl (%rax),%eax
    217b:	0f b7 c0             	movzwl %ax,%eax
    217e:	25 00 20 00 00       	and    $0x2000,%eax
    2183:	85 c0                	test   %eax,%eax
    2185:	74 11                	je     2198 <ezxml_decode+0x543>
/media/ssd-partition/Documents/RootCauseAnalysisPruning/evaluation/test_bin/22-ezXML/ezxml/ezxml.c:206 (discriminator 4)
    2187:	48 8b 45 a8          	mov    -0x58(%rbp),%rax
    218b:	48 8d 50 01          	lea    0x1(%rax),%rdx
    218f:	48 89 55 a8          	mov    %rdx,-0x58(%rbp)
    2193:	c6 00 20             	movb   $0x20,(%rax)
    2196:	eb 05                	jmp    219d <ezxml_decode+0x548>
/media/ssd-partition/Documents/RootCauseAnalysisPruning/evaluation/test_bin/22-ezXML/ezxml/ezxml.c:207
        else s++; // no decoding needed
    2198:	48 83 45 a8 01       	addq   $0x1,-0x58(%rbp)
/media/ssd-partition/Documents/RootCauseAnalysisPruning/evaluation/test_bin/22-ezXML/ezxml/ezxml.c:171 (discriminator 1)
        while (*s && *s != '&' && (*s != '%' || t != '%') && !isspace(*s)) s++;
    219d:	e9 58 fb ff ff       	jmp    1cfa <ezxml_decode+0xa5>
/media/ssd-partition/Documents/RootCauseAnalysisPruning/evaluation/test_bin/22-ezXML/ezxml/ezxml.c:173
        if (! *s) break;
    21a2:	90                   	nop
/media/ssd-partition/Documents/RootCauseAnalysisPruning/evaluation/test_bin/22-ezXML/ezxml/ezxml.c:210
    }

    if (t == '*') { // normalize spaces for non-cdata attributes
    21a3:	80 7d 9c 2a          	cmpb   $0x2a,-0x64(%rbp)
    21a7:	0f 85 aa 00 00 00    	jne    2257 <ezxml_decode+0x602>
/media/ssd-partition/Documents/RootCauseAnalysisPruning/evaluation/test_bin/22-ezXML/ezxml/ezxml.c:211
        for (s = r; *s; s++) {
    21ad:	48 8b 45 b8          	mov    -0x48(%rbp),%rax
    21b1:	48 89 45 a8          	mov    %rax,-0x58(%rbp)
    21b5:	eb 74                	jmp    222b <ezxml_decode+0x5d6>
/media/ssd-partition/Documents/RootCauseAnalysisPruning/evaluation/test_bin/22-ezXML/ezxml/ezxml.c:212
            if ((l = strspn(s, " "))) memmove(s, s + l, strlen(s + l) + 1);
    21b7:	48 8b 45 a8          	mov    -0x58(%rbp),%rax
    21bb:	48 8d 15 62 4e 00 00 	lea    0x4e62(%rip),%rdx        # 7024 <_IO_stdin_used+0x24>
    21c2:	48 89 d6             	mov    %rdx,%rsi
    21c5:	48 89 c7             	mov    %rax,%rdi
    21c8:	e8 63 f1 ff ff       	call   1330 <strspn@plt>
    21cd:	48 89 45 e0          	mov    %rax,-0x20(%rbp)
    21d1:	48 83 7d e0 00       	cmpq   $0x0,-0x20(%rbp)
    21d6:	74 38                	je     2210 <ezxml_decode+0x5bb>
/media/ssd-partition/Documents/RootCauseAnalysisPruning/evaluation/test_bin/22-ezXML/ezxml/ezxml.c:212 (discriminator 1)
    21d8:	48 8b 55 e0          	mov    -0x20(%rbp),%rdx
    21dc:	48 8b 45 a8          	mov    -0x58(%rbp),%rax
    21e0:	48 01 d0             	add    %rdx,%rax
    21e3:	48 89 c7             	mov    %rax,%rdi
    21e6:	e8 d5 f0 ff ff       	call   12c0 <strlen@plt>
    21eb:	48 8d 50 01          	lea    0x1(%rax),%rdx
    21ef:	48 8b 4d e0          	mov    -0x20(%rbp),%rcx
    21f3:	48 8b 45 a8          	mov    -0x58(%rbp),%rax
    21f7:	48 01 c1             	add    %rax,%rcx
    21fa:	48 8b 45 a8          	mov    -0x58(%rbp),%rax
    21fe:	48 89 ce             	mov    %rcx,%rsi
    2201:	48 89 c7             	mov    %rax,%rdi
    2204:	e8 d7 f1 ff ff       	call   13e0 <memmove@plt>
/media/ssd-partition/Documents/RootCauseAnalysisPruning/evaluation/test_bin/22-ezXML/ezxml/ezxml.c:213 (discriminator 1)
            while (*s && *s != ' ') s++;
    2209:	eb 05                	jmp    2210 <ezxml_decode+0x5bb>
/media/ssd-partition/Documents/RootCauseAnalysisPruning/evaluation/test_bin/22-ezXML/ezxml/ezxml.c:213 (discriminator 3)
    220b:	48 83 45 a8 01       	addq   $0x1,-0x58(%rbp)
/media/ssd-partition/Documents/RootCauseAnalysisPruning/evaluation/test_bin/22-ezXML/ezxml/ezxml.c:213 (discriminator 1)
    2210:	48 8b 45 a8          	mov    -0x58(%rbp),%rax
    2214:	0f b6 00             	movzbl (%rax),%eax
    2217:	84 c0                	test   %al,%al
    2219:	74 0b                	je     2226 <ezxml_decode+0x5d1>
/media/ssd-partition/Documents/RootCauseAnalysisPruning/evaluation/test_bin/22-ezXML/ezxml/ezxml.c:213 (discriminator 2)
    221b:	48 8b 45 a8          	mov    -0x58(%rbp),%rax
    221f:	0f b6 00             	movzbl (%rax),%eax
    2222:	3c 20                	cmp    $0x20,%al
    2224:	75 e5                	jne    220b <ezxml_decode+0x5b6>
/media/ssd-partition/Documents/RootCauseAnalysisPruning/evaluation/test_bin/22-ezXML/ezxml/ezxml.c:211 (discriminator 2)
        for (s = r; *s; s++) {
    2226:	48 83 45 a8 01       	addq   $0x1,-0x58(%rbp)
/media/ssd-partition/Documents/RootCauseAnalysisPruning/evaluation/test_bin/22-ezXML/ezxml/ezxml.c:211 (discriminator 1)
    222b:	48 8b 45 a8          	mov    -0x58(%rbp),%rax
    222f:	0f b6 00             	movzbl (%rax),%eax
    2232:	84 c0                	test   %al,%al
    2234:	75 81                	jne    21b7 <ezxml_decode+0x562>
/media/ssd-partition/Documents/RootCauseAnalysisPruning/evaluation/test_bin/22-ezXML/ezxml/ezxml.c:215
        }
        if (--s >= r && *s == ' ') *s = '\0'; // trim any trailing space
    2236:	48 83 6d a8 01       	subq   $0x1,-0x58(%rbp)
    223b:	48 8b 45 a8          	mov    -0x58(%rbp),%rax
    223f:	48 3b 45 b8          	cmp    -0x48(%rbp),%rax
    2243:	72 12                	jb     2257 <ezxml_decode+0x602>
/media/ssd-partition/Documents/RootCauseAnalysisPruning/evaluation/test_bin/22-ezXML/ezxml/ezxml.c:215 (discriminator 1)
    2245:	48 8b 45 a8          	mov    -0x58(%rbp),%rax
    2249:	0f b6 00             	movzbl (%rax),%eax
    224c:	3c 20                	cmp    $0x20,%al
    224e:	75 07                	jne    2257 <ezxml_decode+0x602>
/media/ssd-partition/Documents/RootCauseAnalysisPruning/evaluation/test_bin/22-ezXML/ezxml/ezxml.c:215 (discriminator 2)
    2250:	48 8b 45 a8          	mov    -0x58(%rbp),%rax
    2254:	c6 00 00             	movb   $0x0,(%rax)
/media/ssd-partition/Documents/RootCauseAnalysisPruning/evaluation/test_bin/22-ezXML/ezxml/ezxml.c:217
    }
    return r;
    2257:	48 8b 45 b8          	mov    -0x48(%rbp),%rax
/media/ssd-partition/Documents/RootCauseAnalysisPruning/evaluation/test_bin/22-ezXML/ezxml/ezxml.c:218
}
    225b:	48 8b 55 e8          	mov    -0x18(%rbp),%rdx
    225f:	64 48 2b 14 25 28 00 	sub    %fs:0x28,%rdx
    2266:	00 00 
    2268:	74 05                	je     226f <ezxml_decode+0x61a>
    226a:	e8 61 f0 ff ff       	call   12d0 <__stack_chk_fail@plt>
    226f:	48 8b 5d f8          	mov    -0x8(%rbp),%rbx
    2273:	c9                   	leave  
    2274:	c3                   	ret    

0000000000002275 <ezxml_open_tag>:
ezxml_open_tag():
/media/ssd-partition/Documents/RootCauseAnalysisPruning/evaluation/test_bin/22-ezXML/ezxml/ezxml.c:222

// called when parser finds start of new tag
void ezxml_open_tag(ezxml_root_t root, char *name, char **attr)
{
    2275:	f3 0f 1e fa          	endbr64 
    2279:	55                   	push   %rbp
    227a:	48 89 e5             	mov    %rsp,%rbp
    227d:	48 83 ec 30          	sub    $0x30,%rsp
    2281:	48 89 7d e8          	mov    %rdi,-0x18(%rbp)
    2285:	48 89 75 e0          	mov    %rsi,-0x20(%rbp)
    2289:	48 89 55 d8          	mov    %rdx,-0x28(%rbp)
/media/ssd-partition/Documents/RootCauseAnalysisPruning/evaluation/test_bin/22-ezXML/ezxml/ezxml.c:223
    ezxml_t xml = root->cur;
    228d:	48 8b 45 e8          	mov    -0x18(%rbp),%rax
    2291:	48 8b 40 50          	mov    0x50(%rax),%rax
    2295:	48 89 45 f8          	mov    %rax,-0x8(%rbp)
/media/ssd-partition/Documents/RootCauseAnalysisPruning/evaluation/test_bin/22-ezXML/ezxml/ezxml.c:225
    
    if (xml->name) xml = ezxml_add_child(xml, name, strlen(xml->txt));
    2299:	48 8b 45 f8          	mov    -0x8(%rbp),%rax
    229d:	48 8b 00             	mov    (%rax),%rax
    22a0:	48 85 c0             	test   %rax,%rax
    22a3:	74 2c                	je     22d1 <ezxml_open_tag+0x5c>
/media/ssd-partition/Documents/RootCauseAnalysisPruning/evaluation/test_bin/22-ezXML/ezxml/ezxml.c:225 (discriminator 1)
    22a5:	48 8b 45 f8          	mov    -0x8(%rbp),%rax
    22a9:	48 8b 40 10          	mov    0x10(%rax),%rax
    22ad:	48 89 c7             	mov    %rax,%rdi
    22b0:	e8 0b f0 ff ff       	call   12c0 <strlen@plt>
    22b5:	48 89 c2             	mov    %rax,%rdx
    22b8:	48 8b 4d e0          	mov    -0x20(%rbp),%rcx
    22bc:	48 8b 45 f8          	mov    -0x8(%rbp),%rax
    22c0:	48 89 ce             	mov    %rcx,%rsi
    22c3:	48 89 c7             	mov    %rax,%rdi
    22c6:	e8 87 3e 00 00       	call   6152 <ezxml_add_child>
    22cb:	48 89 45 f8          	mov    %rax,-0x8(%rbp)
    22cf:	eb 0b                	jmp    22dc <ezxml_open_tag+0x67>
/media/ssd-partition/Documents/RootCauseAnalysisPruning/evaluation/test_bin/22-ezXML/ezxml/ezxml.c:226
    else xml->name = name; // first open tag
    22d1:	48 8b 45 f8          	mov    -0x8(%rbp),%rax
    22d5:	48 8b 55 e0          	mov    -0x20(%rbp),%rdx
    22d9:	48 89 10             	mov    %rdx,(%rax)
/media/ssd-partition/Documents/RootCauseAnalysisPruning/evaluation/test_bin/22-ezXML/ezxml/ezxml.c:228

    xml->attr = attr;
    22dc:	48 8b 45 f8          	mov    -0x8(%rbp),%rax
    22e0:	48 8b 55 d8          	mov    -0x28(%rbp),%rdx
    22e4:	48 89 50 08          	mov    %rdx,0x8(%rax)
/media/ssd-partition/Documents/RootCauseAnalysisPruning/evaluation/test_bin/22-ezXML/ezxml/ezxml.c:229
    root->cur = xml; // update tag insertion point
    22e8:	48 8b 45 e8          	mov    -0x18(%rbp),%rax
    22ec:	48 8b 55 f8          	mov    -0x8(%rbp),%rdx
    22f0:	48 89 50 50          	mov    %rdx,0x50(%rax)
/media/ssd-partition/Documents/RootCauseAnalysisPruning/evaluation/test_bin/22-ezXML/ezxml/ezxml.c:230
}
    22f4:	90                   	nop
    22f5:	c9                   	leave  
    22f6:	c3                   	ret    

00000000000022f7 <ezxml_char_content>:
ezxml_char_content():
/media/ssd-partition/Documents/RootCauseAnalysisPruning/evaluation/test_bin/22-ezXML/ezxml/ezxml.c:234

// called when parser finds character content between open and closing tag
void ezxml_char_content(ezxml_root_t root, char *s, size_t len, char t)
{
    22f7:	f3 0f 1e fa          	endbr64 
    22fb:	55                   	push   %rbp
    22fc:	48 89 e5             	mov    %rsp,%rbp
    22ff:	53                   	push   %rbx
    2300:	48 83 ec 48          	sub    $0x48,%rsp
    2304:	48 89 7d c8          	mov    %rdi,-0x38(%rbp)
    2308:	48 89 75 c0          	mov    %rsi,-0x40(%rbp)
    230c:	48 89 55 b8          	mov    %rdx,-0x48(%rbp)
    2310:	89 c8                	mov    %ecx,%eax
    2312:	88 45 b4             	mov    %al,-0x4c(%rbp)
/media/ssd-partition/Documents/RootCauseAnalysisPruning/evaluation/test_bin/22-ezXML/ezxml/ezxml.c:235
    ezxml_t xml = root->cur;
    2315:	48 8b 45 c8          	mov    -0x38(%rbp),%rax
    2319:	48 8b 40 50          	mov    0x50(%rax),%rax
    231d:	48 89 45 e0          	mov    %rax,-0x20(%rbp)
/media/ssd-partition/Documents/RootCauseAnalysisPruning/evaluation/test_bin/22-ezXML/ezxml/ezxml.c:236
    char *m = s;
    2321:	48 8b 45 c0          	mov    -0x40(%rbp),%rax
    2325:	48 89 45 e8          	mov    %rax,-0x18(%rbp)
/media/ssd-partition/Documents/RootCauseAnalysisPruning/evaluation/test_bin/22-ezXML/ezxml/ezxml.c:239
    size_t l;

    if (! xml || ! xml->name || ! len) return; // sanity check
    2329:	48 83 7d e0 00       	cmpq   $0x0,-0x20(%rbp)
    232e:	0f 84 5a 01 00 00    	je     248e <ezxml_char_content+0x197>
/media/ssd-partition/Documents/RootCauseAnalysisPruning/evaluation/test_bin/22-ezXML/ezxml/ezxml.c:239 (discriminator 2)
    2334:	48 8b 45 e0          	mov    -0x20(%rbp),%rax
    2338:	48 8b 00             	mov    (%rax),%rax
    233b:	48 85 c0             	test   %rax,%rax
    233e:	0f 84 4a 01 00 00    	je     248e <ezxml_char_content+0x197>
/media/ssd-partition/Documents/RootCauseAnalysisPruning/evaluation/test_bin/22-ezXML/ezxml/ezxml.c:239 (discriminator 4)
    2344:	48 83 7d b8 00       	cmpq   $0x0,-0x48(%rbp)
    2349:	0f 84 3f 01 00 00    	je     248e <ezxml_char_content+0x197>
/media/ssd-partition/Documents/RootCauseAnalysisPruning/evaluation/test_bin/22-ezXML/ezxml/ezxml.c:241

    s[len] = '\0'; // null terminate text (calling functions anticipate this)
    234f:	48 8b 55 c0          	mov    -0x40(%rbp),%rdx
    2353:	48 8b 45 b8          	mov    -0x48(%rbp),%rax
    2357:	48 01 d0             	add    %rdx,%rax
    235a:	c6 00 00             	movb   $0x0,(%rax)
/media/ssd-partition/Documents/RootCauseAnalysisPruning/evaluation/test_bin/22-ezXML/ezxml/ezxml.c:242
    len = strlen(s = ezxml_decode(s, root->ent, t)) + 1;
    235d:	0f be 55 b4          	movsbl -0x4c(%rbp),%edx
    2361:	48 8b 45 c8          	mov    -0x38(%rbp),%rax
    2365:	48 8b 88 80 00 00 00 	mov    0x80(%rax),%rcx
    236c:	48 8b 45 c0          	mov    -0x40(%rbp),%rax
    2370:	48 89 ce             	mov    %rcx,%rsi
    2373:	48 89 c7             	mov    %rax,%rdi
    2376:	e8 da f8 ff ff       	call   1c55 <ezxml_decode>
    237b:	48 89 45 c0          	mov    %rax,-0x40(%rbp)
    237f:	48 8b 45 c0          	mov    -0x40(%rbp),%rax
    2383:	48 89 c7             	mov    %rax,%rdi
    2386:	e8 35 ef ff ff       	call   12c0 <strlen@plt>
    238b:	48 83 c0 01          	add    $0x1,%rax
    238f:	48 89 45 b8          	mov    %rax,-0x48(%rbp)
/media/ssd-partition/Documents/RootCauseAnalysisPruning/evaluation/test_bin/22-ezXML/ezxml/ezxml.c:244

    if (! *(xml->txt)) xml->txt = s; // initial character content
    2393:	48 8b 45 e0          	mov    -0x20(%rbp),%rax
    2397:	48 8b 40 10          	mov    0x10(%rax),%rax
    239b:	0f b6 00             	movzbl (%rax),%eax
    239e:	84 c0                	test   %al,%al
    23a0:	75 11                	jne    23b3 <ezxml_char_content+0xbc>
/media/ssd-partition/Documents/RootCauseAnalysisPruning/evaluation/test_bin/22-ezXML/ezxml/ezxml.c:244 (discriminator 1)
    23a2:	48 8b 45 e0          	mov    -0x20(%rbp),%rax
    23a6:	48 8b 55 c0          	mov    -0x40(%rbp),%rdx
    23aa:	48 89 50 10          	mov    %rdx,0x10(%rax)
    23ae:	e9 ba 00 00 00       	jmp    246d <ezxml_char_content+0x176>
/media/ssd-partition/Documents/RootCauseAnalysisPruning/evaluation/test_bin/22-ezXML/ezxml/ezxml.c:246
    else { // allocate our own memory and make a copy
        xml->txt = (xml->flags & EZXML_TXTM) // allocate some space
    23b3:	48 8b 45 e0          	mov    -0x20(%rbp),%rax
    23b7:	0f b7 40 48          	movzwl 0x48(%rax),%eax
    23bb:	98                   	cwtl   
    23bc:	83 e0 40             	and    $0x40,%eax
/media/ssd-partition/Documents/RootCauseAnalysisPruning/evaluation/test_bin/22-ezXML/ezxml/ezxml.c:248
                   ? realloc(xml->txt, (l = strlen(xml->txt)) + len)
                   : strcpy(malloc((l = strlen(xml->txt)) + len), xml->txt);
    23bf:	85 c0                	test   %eax,%eax
    23c1:	74 34                	je     23f7 <ezxml_char_content+0x100>
/media/ssd-partition/Documents/RootCauseAnalysisPruning/evaluation/test_bin/22-ezXML/ezxml/ezxml.c:247
                   ? realloc(xml->txt, (l = strlen(xml->txt)) + len)
    23c3:	48 8b 45 e0          	mov    -0x20(%rbp),%rax
    23c7:	48 8b 40 10          	mov    0x10(%rax),%rax
    23cb:	48 89 c7             	mov    %rax,%rdi
    23ce:	e8 ed ee ff ff       	call   12c0 <strlen@plt>
    23d3:	48 89 45 d8          	mov    %rax,-0x28(%rbp)
    23d7:	48 8b 55 d8          	mov    -0x28(%rbp),%rdx
    23db:	48 8b 45 b8          	mov    -0x48(%rbp),%rax
    23df:	48 01 c2             	add    %rax,%rdx
    23e2:	48 8b 45 e0          	mov    -0x20(%rbp),%rax
    23e6:	48 8b 40 10          	mov    0x10(%rax),%rax
    23ea:	48 89 d6             	mov    %rdx,%rsi
    23ed:	48 89 c7             	mov    %rax,%rdi
    23f0:	e8 bb ef ff ff       	call   13b0 <realloc@plt>
    23f5:	eb 3a                	jmp    2431 <ezxml_char_content+0x13a>
/media/ssd-partition/Documents/RootCauseAnalysisPruning/evaluation/test_bin/22-ezXML/ezxml/ezxml.c:248 (discriminator 1)
                   : strcpy(malloc((l = strlen(xml->txt)) + len), xml->txt);
    23f7:	48 8b 45 e0          	mov    -0x20(%rbp),%rax
    23fb:	48 8b 58 10          	mov    0x10(%rax),%rbx
    23ff:	48 8b 45 e0          	mov    -0x20(%rbp),%rax
    2403:	48 8b 40 10          	mov    0x10(%rax),%rax
    2407:	48 89 c7             	mov    %rax,%rdi
    240a:	e8 b1 ee ff ff       	call   12c0 <strlen@plt>
    240f:	48 89 45 d8          	mov    %rax,-0x28(%rbp)
    2413:	48 8b 55 d8          	mov    -0x28(%rbp),%rdx
    2417:	48 8b 45 b8          	mov    -0x48(%rbp),%rax
    241b:	48 01 d0             	add    %rdx,%rax
    241e:	48 89 c7             	mov    %rax,%rdi
    2421:	e8 7a ef ff ff       	call   13a0 <malloc@plt>
    2426:	48 89 de             	mov    %rbx,%rsi
    2429:	48 89 c7             	mov    %rax,%rdi
    242c:	e8 4f ee ff ff       	call   1280 <strcpy@plt>
/media/ssd-partition/Documents/RootCauseAnalysisPruning/evaluation/test_bin/22-ezXML/ezxml/ezxml.c:246
        xml->txt = (xml->flags & EZXML_TXTM) // allocate some space
    2431:	48 8b 55 e0          	mov    -0x20(%rbp),%rdx
    2435:	48 89 42 10          	mov    %rax,0x10(%rdx)
/media/ssd-partition/Documents/RootCauseAnalysisPruning/evaluation/test_bin/22-ezXML/ezxml/ezxml.c:249
        strcpy(xml->txt + l, s); // add new char content
    2439:	48 8b 45 e0          	mov    -0x20(%rbp),%rax
    243d:	48 8b 50 10          	mov    0x10(%rax),%rdx
    2441:	48 8b 45 d8          	mov    -0x28(%rbp),%rax
    2445:	48 01 c2             	add    %rax,%rdx
    2448:	48 8b 45 c0          	mov    -0x40(%rbp),%rax
    244c:	48 89 c6             	mov    %rax,%rsi
    244f:	48 89 d7             	mov    %rdx,%rdi
    2452:	e8 29 ee ff ff       	call   1280 <strcpy@plt>
/media/ssd-partition/Documents/RootCauseAnalysisPruning/evaluation/test_bin/22-ezXML/ezxml/ezxml.c:250
        if (s != m) free(s); // free s if it was malloced by ezxml_decode()
    2457:	48 8b 45 c0          	mov    -0x40(%rbp),%rax
    245b:	48 3b 45 e8          	cmp    -0x18(%rbp),%rax
    245f:	74 0c                	je     246d <ezxml_char_content+0x176>
/media/ssd-partition/Documents/RootCauseAnalysisPruning/evaluation/test_bin/22-ezXML/ezxml/ezxml.c:250 (discriminator 1)
    2461:	48 8b 45 c0          	mov    -0x40(%rbp),%rax
    2465:	48 89 c7             	mov    %rax,%rdi
    2468:	e8 e3 ed ff ff       	call   1250 <free@plt>
/media/ssd-partition/Documents/RootCauseAnalysisPruning/evaluation/test_bin/22-ezXML/ezxml/ezxml.c:253
    }

    if (xml->txt != m) ezxml_set_flag(xml, EZXML_TXTM);
    246d:	48 8b 45 e0          	mov    -0x20(%rbp),%rax
    2471:	48 8b 40 10          	mov    0x10(%rax),%rax
    2475:	48 39 45 e8          	cmp    %rax,-0x18(%rbp)
    2479:	74 14                	je     248f <ezxml_char_content+0x198>
/media/ssd-partition/Documents/RootCauseAnalysisPruning/evaluation/test_bin/22-ezXML/ezxml/ezxml.c:253 (discriminator 1)
    247b:	48 8b 45 e0          	mov    -0x20(%rbp),%rax
    247f:	be 40 00 00 00       	mov    $0x40,%esi
    2484:	48 89 c7             	mov    %rax,%rdi
    2487:	e8 e1 42 00 00       	call   676d <ezxml_set_flag>
    248c:	eb 01                	jmp    248f <ezxml_char_content+0x198>
/media/ssd-partition/Documents/RootCauseAnalysisPruning/evaluation/test_bin/22-ezXML/ezxml/ezxml.c:239
    if (! xml || ! xml->name || ! len) return; // sanity check
    248e:	90                   	nop
/media/ssd-partition/Documents/RootCauseAnalysisPruning/evaluation/test_bin/22-ezXML/ezxml/ezxml.c:254
}
    248f:	48 8b 5d f8          	mov    -0x8(%rbp),%rbx
    2493:	c9                   	leave  
    2494:	c3                   	ret    

0000000000002495 <ezxml_close_tag>:
ezxml_close_tag():
/media/ssd-partition/Documents/RootCauseAnalysisPruning/evaluation/test_bin/22-ezXML/ezxml/ezxml.c:258

// called when parser finds closing tag
ezxml_t ezxml_close_tag(ezxml_root_t root, char *name, char *s)
{
    2495:	f3 0f 1e fa          	endbr64 
    2499:	55                   	push   %rbp
    249a:	48 89 e5             	mov    %rsp,%rbp
    249d:	48 83 ec 20          	sub    $0x20,%rsp
    24a1:	48 89 7d f8          	mov    %rdi,-0x8(%rbp)
    24a5:	48 89 75 f0          	mov    %rsi,-0x10(%rbp)
    24a9:	48 89 55 e8          	mov    %rdx,-0x18(%rbp)
/media/ssd-partition/Documents/RootCauseAnalysisPruning/evaluation/test_bin/22-ezXML/ezxml/ezxml.c:259
    if (! root->cur || ! root->cur->name || strcmp(name, root->cur->name))
    24ad:	48 8b 45 f8          	mov    -0x8(%rbp),%rax
    24b1:	48 8b 40 50          	mov    0x50(%rax),%rax
    24b5:	48 85 c0             	test   %rax,%rax
    24b8:	74 2e                	je     24e8 <ezxml_close_tag+0x53>
/media/ssd-partition/Documents/RootCauseAnalysisPruning/evaluation/test_bin/22-ezXML/ezxml/ezxml.c:259 (discriminator 1)
    24ba:	48 8b 45 f8          	mov    -0x8(%rbp),%rax
    24be:	48 8b 40 50          	mov    0x50(%rax),%rax
    24c2:	48 8b 00             	mov    (%rax),%rax
    24c5:	48 85 c0             	test   %rax,%rax
    24c8:	74 1e                	je     24e8 <ezxml_close_tag+0x53>
/media/ssd-partition/Documents/RootCauseAnalysisPruning/evaluation/test_bin/22-ezXML/ezxml/ezxml.c:259 (discriminator 2)
    24ca:	48 8b 45 f8          	mov    -0x8(%rbp),%rax
    24ce:	48 8b 40 50          	mov    0x50(%rax),%rax
    24d2:	48 8b 10             	mov    (%rax),%rdx
    24d5:	48 8b 45 f0          	mov    -0x10(%rbp),%rax
    24d9:	48 89 d6             	mov    %rdx,%rsi
    24dc:	48 89 c7             	mov    %rax,%rdi
    24df:	e8 7c ee ff ff       	call   1360 <strcmp@plt>
    24e4:	85 c0                	test   %eax,%eax
    24e6:	74 25                	je     250d <ezxml_close_tag+0x78>
/media/ssd-partition/Documents/RootCauseAnalysisPruning/evaluation/test_bin/22-ezXML/ezxml/ezxml.c:260
        return ezxml_err(root, s, "unexpected closing tag </%s>", name);
    24e8:	48 8b 55 f0          	mov    -0x10(%rbp),%rdx
    24ec:	48 8b 75 e8          	mov    -0x18(%rbp),%rsi
    24f0:	48 8b 45 f8          	mov    -0x8(%rbp),%rax
    24f4:	48 89 d1             	mov    %rdx,%rcx
    24f7:	48 8d 15 28 4b 00 00 	lea    0x4b28(%rip),%rdx        # 7026 <_IO_stdin_used+0x26>
    24fe:	48 89 c7             	mov    %rax,%rdi
    2501:	b8 00 00 00 00       	mov    $0x0,%eax
    2506:	e8 e5 f5 ff ff       	call   1af0 <ezxml_err>
    250b:	eb 19                	jmp    2526 <ezxml_close_tag+0x91>
/media/ssd-partition/Documents/RootCauseAnalysisPruning/evaluation/test_bin/22-ezXML/ezxml/ezxml.c:262

    root->cur = root->cur->parent;
    250d:	48 8b 45 f8          	mov    -0x8(%rbp),%rax
    2511:	48 8b 40 50          	mov    0x50(%rax),%rax
    2515:	48 8b 50 40          	mov    0x40(%rax),%rdx
    2519:	48 8b 45 f8          	mov    -0x8(%rbp),%rax
    251d:	48 89 50 50          	mov    %rdx,0x50(%rax)
/media/ssd-partition/Documents/RootCauseAnalysisPruning/evaluation/test_bin/22-ezXML/ezxml/ezxml.c:263
    return NULL;
    2521:	b8 00 00 00 00       	mov    $0x0,%eax
/media/ssd-partition/Documents/RootCauseAnalysisPruning/evaluation/test_bin/22-ezXML/ezxml/ezxml.c:264
}
    2526:	c9                   	leave  
    2527:	c3                   	ret    

0000000000002528 <ezxml_ent_ok>:
ezxml_ent_ok():
/media/ssd-partition/Documents/RootCauseAnalysisPruning/evaluation/test_bin/22-ezXML/ezxml/ezxml.c:269

// checks for circular entity references, returns non-zero if no circular
// references are found, zero otherwise
int ezxml_ent_ok(char *name, char *s, char **ent)
{
    2528:	f3 0f 1e fa          	endbr64 
    252c:	55                   	push   %rbp
    252d:	48 89 e5             	mov    %rsp,%rbp
    2530:	48 83 ec 30          	sub    $0x30,%rsp
    2534:	48 89 7d e8          	mov    %rdi,-0x18(%rbp)
    2538:	48 89 75 e0          	mov    %rsi,-0x20(%rbp)
    253c:	48 89 55 d8          	mov    %rdx,-0x28(%rbp)
/media/ssd-partition/Documents/RootCauseAnalysisPruning/evaluation/test_bin/22-ezXML/ezxml/ezxml.c:273
    int i;

    for (; ; s++) {
        while (*s && *s != '&') s++; // find next entity reference
    2540:	eb 05                	jmp    2547 <ezxml_ent_ok+0x1f>
/media/ssd-partition/Documents/RootCauseAnalysisPruning/evaluation/test_bin/22-ezXML/ezxml/ezxml.c:273 (discriminator 3)
    2542:	48 83 45 e0 01       	addq   $0x1,-0x20(%rbp)
/media/ssd-partition/Documents/RootCauseAnalysisPruning/evaluation/test_bin/22-ezXML/ezxml/ezxml.c:273 (discriminator 1)
    2547:	48 8b 45 e0          	mov    -0x20(%rbp),%rax
    254b:	0f b6 00             	movzbl (%rax),%eax
    254e:	84 c0                	test   %al,%al
    2550:	74 0b                	je     255d <ezxml_ent_ok+0x35>
/media/ssd-partition/Documents/RootCauseAnalysisPruning/evaluation/test_bin/22-ezXML/ezxml/ezxml.c:273 (discriminator 2)
    2552:	48 8b 45 e0          	mov    -0x20(%rbp),%rax
    2556:	0f b6 00             	movzbl (%rax),%eax
    2559:	3c 26                	cmp    $0x26,%al
    255b:	75 e5                	jne    2542 <ezxml_ent_ok+0x1a>
/media/ssd-partition/Documents/RootCauseAnalysisPruning/evaluation/test_bin/22-ezXML/ezxml/ezxml.c:274
        if (! *s) return 1;
    255d:	48 8b 45 e0          	mov    -0x20(%rbp),%rax
    2561:	0f b6 00             	movzbl (%rax),%eax
    2564:	84 c0                	test   %al,%al
    2566:	75 0a                	jne    2572 <ezxml_ent_ok+0x4a>
/media/ssd-partition/Documents/RootCauseAnalysisPruning/evaluation/test_bin/22-ezXML/ezxml/ezxml.c:274 (discriminator 1)
    2568:	b8 01 00 00 00       	mov    $0x1,%eax
    256d:	e9 0c 01 00 00       	jmp    267e <ezxml_ent_ok+0x156>
/media/ssd-partition/Documents/RootCauseAnalysisPruning/evaluation/test_bin/22-ezXML/ezxml/ezxml.c:275
        if (! strncmp(s + 1, name, strlen(name))) return 0; // circular ref.
    2572:	48 8b 45 e8          	mov    -0x18(%rbp),%rax
    2576:	48 89 c7             	mov    %rax,%rdi
    2579:	e8 42 ed ff ff       	call   12c0 <strlen@plt>
    257e:	48 89 c2             	mov    %rax,%rdx
    2581:	48 8b 45 e0          	mov    -0x20(%rbp),%rax
    2585:	48 8d 48 01          	lea    0x1(%rax),%rcx
    2589:	48 8b 45 e8          	mov    -0x18(%rbp),%rax
    258d:	48 89 c6             	mov    %rax,%rsi
    2590:	48 89 cf             	mov    %rcx,%rdi
    2593:	e8 d8 ec ff ff       	call   1270 <strncmp@plt>
    2598:	85 c0                	test   %eax,%eax
    259a:	75 0a                	jne    25a6 <ezxml_ent_ok+0x7e>
/media/ssd-partition/Documents/RootCauseAnalysisPruning/evaluation/test_bin/22-ezXML/ezxml/ezxml.c:275 (discriminator 1)
    259c:	b8 00 00 00 00       	mov    $0x0,%eax
    25a1:	e9 d8 00 00 00       	jmp    267e <ezxml_ent_ok+0x156>
/media/ssd-partition/Documents/RootCauseAnalysisPruning/evaluation/test_bin/22-ezXML/ezxml/ezxml.c:276
        for (i = 0; ent[i] && strncmp(ent[i], s + 1, strlen(ent[i])); i += 2);
    25a6:	c7 45 fc 00 00 00 00 	movl   $0x0,-0x4(%rbp)
    25ad:	eb 04                	jmp    25b3 <ezxml_ent_ok+0x8b>
/media/ssd-partition/Documents/RootCauseAnalysisPruning/evaluation/test_bin/22-ezXML/ezxml/ezxml.c:276 (discriminator 4)
    25af:	83 45 fc 02          	addl   $0x2,-0x4(%rbp)
/media/ssd-partition/Documents/RootCauseAnalysisPruning/evaluation/test_bin/22-ezXML/ezxml/ezxml.c:276 (discriminator 1)
    25b3:	8b 45 fc             	mov    -0x4(%rbp),%eax
    25b6:	48 98                	cltq   
    25b8:	48 8d 14 c5 00 00 00 	lea    0x0(,%rax,8),%rdx
    25bf:	00 
    25c0:	48 8b 45 d8          	mov    -0x28(%rbp),%rax
    25c4:	48 01 d0             	add    %rdx,%rax
    25c7:	48 8b 00             	mov    (%rax),%rax
    25ca:	48 85 c0             	test   %rax,%rax
    25cd:	74 50                	je     261f <ezxml_ent_ok+0xf7>
/media/ssd-partition/Documents/RootCauseAnalysisPruning/evaluation/test_bin/22-ezXML/ezxml/ezxml.c:276 (discriminator 3)
    25cf:	8b 45 fc             	mov    -0x4(%rbp),%eax
    25d2:	48 98                	cltq   
    25d4:	48 8d 14 c5 00 00 00 	lea    0x0(,%rax,8),%rdx
    25db:	00 
    25dc:	48 8b 45 d8          	mov    -0x28(%rbp),%rax
    25e0:	48 01 d0             	add    %rdx,%rax
    25e3:	48 8b 00             	mov    (%rax),%rax
    25e6:	48 89 c7             	mov    %rax,%rdi
    25e9:	e8 d2 ec ff ff       	call   12c0 <strlen@plt>
    25ee:	48 89 c2             	mov    %rax,%rdx
    25f1:	48 8b 45 e0          	mov    -0x20(%rbp),%rax
    25f5:	48 8d 48 01          	lea    0x1(%rax),%rcx
    25f9:	8b 45 fc             	mov    -0x4(%rbp),%eax
    25fc:	48 98                	cltq   
    25fe:	48 8d 34 c5 00 00 00 	lea    0x0(,%rax,8),%rsi
    2605:	00 
    2606:	48 8b 45 d8          	mov    -0x28(%rbp),%rax
    260a:	48 01 f0             	add    %rsi,%rax
    260d:	48 8b 00             	mov    (%rax),%rax
    2610:	48 89 ce             	mov    %rcx,%rsi
    2613:	48 89 c7             	mov    %rax,%rdi
    2616:	e8 55 ec ff ff       	call   1270 <strncmp@plt>
    261b:	85 c0                	test   %eax,%eax
    261d:	75 90                	jne    25af <ezxml_ent_ok+0x87>
/media/ssd-partition/Documents/RootCauseAnalysisPruning/evaluation/test_bin/22-ezXML/ezxml/ezxml.c:277
        if (ent[i] && ! ezxml_ent_ok(name, ent[i + 1], ent)) return 0;
    261f:	8b 45 fc             	mov    -0x4(%rbp),%eax
    2622:	48 98                	cltq   
    2624:	48 8d 14 c5 00 00 00 	lea    0x0(,%rax,8),%rdx
    262b:	00 
    262c:	48 8b 45 d8          	mov    -0x28(%rbp),%rax
    2630:	48 01 d0             	add    %rdx,%rax
    2633:	48 8b 00             	mov    (%rax),%rax
    2636:	48 85 c0             	test   %rax,%rax
    2639:	74 39                	je     2674 <ezxml_ent_ok+0x14c>
/media/ssd-partition/Documents/RootCauseAnalysisPruning/evaluation/test_bin/22-ezXML/ezxml/ezxml.c:277 (discriminator 1)
    263b:	8b 45 fc             	mov    -0x4(%rbp),%eax
    263e:	48 98                	cltq   
    2640:	48 83 c0 01          	add    $0x1,%rax
    2644:	48 8d 14 c5 00 00 00 	lea    0x0(,%rax,8),%rdx
    264b:	00 
    264c:	48 8b 45 d8          	mov    -0x28(%rbp),%rax
    2650:	48 01 d0             	add    %rdx,%rax
    2653:	48 8b 08             	mov    (%rax),%rcx
    2656:	48 8b 55 d8          	mov    -0x28(%rbp),%rdx
    265a:	48 8b 45 e8          	mov    -0x18(%rbp),%rax
    265e:	48 89 ce             	mov    %rcx,%rsi
    2661:	48 89 c7             	mov    %rax,%rdi
    2664:	e8 bf fe ff ff       	call   2528 <ezxml_ent_ok>
    2669:	85 c0                	test   %eax,%eax
    266b:	75 07                	jne    2674 <ezxml_ent_ok+0x14c>
/media/ssd-partition/Documents/RootCauseAnalysisPruning/evaluation/test_bin/22-ezXML/ezxml/ezxml.c:277 (discriminator 2)
    266d:	b8 00 00 00 00       	mov    $0x0,%eax
    2672:	eb 0a                	jmp    267e <ezxml_ent_ok+0x156>
/media/ssd-partition/Documents/RootCauseAnalysisPruning/evaluation/test_bin/22-ezXML/ezxml/ezxml.c:272
    for (; ; s++) {
    2674:	48 83 45 e0 01       	addq   $0x1,-0x20(%rbp)
/media/ssd-partition/Documents/RootCauseAnalysisPruning/evaluation/test_bin/22-ezXML/ezxml/ezxml.c:273
        while (*s && *s != '&') s++; // find next entity reference
    2679:	e9 c9 fe ff ff       	jmp    2547 <ezxml_ent_ok+0x1f>
/media/ssd-partition/Documents/RootCauseAnalysisPruning/evaluation/test_bin/22-ezXML/ezxml/ezxml.c:279
    }
}
    267e:	c9                   	leave  
    267f:	c3                   	ret    

0000000000002680 <ezxml_proc_inst>:
ezxml_proc_inst():
/media/ssd-partition/Documents/RootCauseAnalysisPruning/evaluation/test_bin/22-ezXML/ezxml/ezxml.c:283

// called when the parser finds a processing instruction
void ezxml_proc_inst(ezxml_root_t root, char *s, size_t len)
{
    2680:	f3 0f 1e fa          	endbr64 
    2684:	55                   	push   %rbp
    2685:	48 89 e5             	mov    %rsp,%rbp
    2688:	53                   	push   %rbx
    2689:	48 83 ec 38          	sub    $0x38,%rsp
    268d:	48 89 7d d8          	mov    %rdi,-0x28(%rbp)
    2691:	48 89 75 d0          	mov    %rsi,-0x30(%rbp)
    2695:	48 89 55 c8          	mov    %rdx,-0x38(%rbp)
/media/ssd-partition/Documents/RootCauseAnalysisPruning/evaluation/test_bin/22-ezXML/ezxml/ezxml.c:284
    int i = 0, j = 1;
    2699:	c7 45 e0 00 00 00 00 	movl   $0x0,-0x20(%rbp)
    26a0:	c7 45 e4 01 00 00 00 	movl   $0x1,-0x1c(%rbp)
/media/ssd-partition/Documents/RootCauseAnalysisPruning/evaluation/test_bin/22-ezXML/ezxml/ezxml.c:285
    char *target = s;
    26a7:	48 8b 45 d0          	mov    -0x30(%rbp),%rax
    26ab:	48 89 45 e8          	mov    %rax,-0x18(%rbp)
/media/ssd-partition/Documents/RootCauseAnalysisPruning/evaluation/test_bin/22-ezXML/ezxml/ezxml.c:287

    s[len] = '\0'; // null terminate instruction
    26af:	48 8b 55 d0          	mov    -0x30(%rbp),%rdx
    26b3:	48 8b 45 c8          	mov    -0x38(%rbp),%rax
    26b7:	48 01 d0             	add    %rdx,%rax
    26ba:	c6 00 00             	movb   $0x0,(%rax)
/media/ssd-partition/Documents/RootCauseAnalysisPruning/evaluation/test_bin/22-ezXML/ezxml/ezxml.c:288
    if (*(s += strcspn(s, EZXML_WS))) {
    26bd:	48 8b 45 d0          	mov    -0x30(%rbp),%rax
    26c1:	48 8d 15 7b 49 00 00 	lea    0x497b(%rip),%rdx        # 7043 <_IO_stdin_used+0x43>
    26c8:	48 89 d6             	mov    %rdx,%rsi
    26cb:	48 89 c7             	mov    %rax,%rdi
    26ce:	e8 6d ec ff ff       	call   1340 <strcspn@plt>
    26d3:	48 01 45 d0          	add    %rax,-0x30(%rbp)
    26d7:	48 8b 45 d0          	mov    -0x30(%rbp),%rax
    26db:	0f b6 00             	movzbl (%rax),%eax
    26de:	84 c0                	test   %al,%al
    26e0:	74 29                	je     270b <ezxml_proc_inst+0x8b>
/media/ssd-partition/Documents/RootCauseAnalysisPruning/evaluation/test_bin/22-ezXML/ezxml/ezxml.c:289
        *s = '\0'; // null terminate target
    26e2:	48 8b 45 d0          	mov    -0x30(%rbp),%rax
    26e6:	c6 00 00             	movb   $0x0,(%rax)
/media/ssd-partition/Documents/RootCauseAnalysisPruning/evaluation/test_bin/22-ezXML/ezxml/ezxml.c:290
        s += strspn(s + 1, EZXML_WS) + 1; // skip whitespace after target
    26e9:	48 8b 45 d0          	mov    -0x30(%rbp),%rax
    26ed:	48 83 c0 01          	add    $0x1,%rax
    26f1:	48 8d 15 4b 49 00 00 	lea    0x494b(%rip),%rdx        # 7043 <_IO_stdin_used+0x43>
    26f8:	48 89 d6             	mov    %rdx,%rsi
    26fb:	48 89 c7             	mov    %rax,%rdi
    26fe:	e8 2d ec ff ff       	call   1330 <strspn@plt>
    2703:	48 83 c0 01          	add    $0x1,%rax
    2707:	48 01 45 d0          	add    %rax,-0x30(%rbp)
/media/ssd-partition/Documents/RootCauseAnalysisPruning/evaluation/test_bin/22-ezXML/ezxml/ezxml.c:293
    }

    if (! strcmp(target, "xml")) { // <?xml ... ?>
    270b:	48 8b 45 e8          	mov    -0x18(%rbp),%rax
    270f:	48 8d 15 32 49 00 00 	lea    0x4932(%rip),%rdx        # 7048 <_IO_stdin_used+0x48>
    2716:	48 89 d6             	mov    %rdx,%rsi
    2719:	48 89 c7             	mov    %rax,%rdi
    271c:	e8 3f ec ff ff       	call   1360 <strcmp@plt>
    2721:	85 c0                	test   %eax,%eax
    2723:	75 7b                	jne    27a0 <ezxml_proc_inst+0x120>
/media/ssd-partition/Documents/RootCauseAnalysisPruning/evaluation/test_bin/22-ezXML/ezxml/ezxml.c:294
        if ((s = strstr(s, "standalone")) && ! strncmp(s + strspn(s + 10,
    2725:	48 8b 45 d0          	mov    -0x30(%rbp),%rax
    2729:	48 8d 15 1c 49 00 00 	lea    0x491c(%rip),%rdx        # 704c <_IO_stdin_used+0x4c>
    2730:	48 89 d6             	mov    %rdx,%rsi
    2733:	48 89 c7             	mov    %rax,%rdi
    2736:	e8 05 ed ff ff       	call   1440 <strstr@plt>
    273b:	48 89 45 d0          	mov    %rax,-0x30(%rbp)
    273f:	48 83 7d d0 00       	cmpq   $0x0,-0x30(%rbp)
    2744:	0f 84 b2 03 00 00    	je     2afc <ezxml_proc_inst+0x47c>
/media/ssd-partition/Documents/RootCauseAnalysisPruning/evaluation/test_bin/22-ezXML/ezxml/ezxml.c:294 (discriminator 1)
    274a:	48 8b 45 d0          	mov    -0x30(%rbp),%rax
    274e:	48 83 c0 0a          	add    $0xa,%rax
    2752:	48 8d 15 fe 48 00 00 	lea    0x48fe(%rip),%rdx        # 7057 <_IO_stdin_used+0x57>
    2759:	48 89 d6             	mov    %rdx,%rsi
    275c:	48 89 c7             	mov    %rax,%rdi
    275f:	e8 cc eb ff ff       	call   1330 <strspn@plt>
/media/ssd-partition/Documents/RootCauseAnalysisPruning/evaluation/test_bin/22-ezXML/ezxml/ezxml.c:295 (discriminator 1)
            EZXML_WS "='\"") + 10, "yes", 3)) root->standalone = 1;
    2764:	48 8d 50 0a          	lea    0xa(%rax),%rdx
    2768:	48 8b 45 d0          	mov    -0x30(%rbp),%rax
    276c:	48 01 d0             	add    %rdx,%rax
/media/ssd-partition/Documents/RootCauseAnalysisPruning/evaluation/test_bin/22-ezXML/ezxml/ezxml.c:294 (discriminator 1)
        if ((s = strstr(s, "standalone")) && ! strncmp(s + strspn(s + 10,
    276f:	ba 03 00 00 00       	mov    $0x3,%edx
    2774:	48 8d 0d e4 48 00 00 	lea    0x48e4(%rip),%rcx        # 705f <_IO_stdin_used+0x5f>
    277b:	48 89 ce             	mov    %rcx,%rsi
    277e:	48 89 c7             	mov    %rax,%rdi
    2781:	e8 ea ea ff ff       	call   1270 <strncmp@plt>
    2786:	85 c0                	test   %eax,%eax
    2788:	0f 85 6e 03 00 00    	jne    2afc <ezxml_proc_inst+0x47c>
/media/ssd-partition/Documents/RootCauseAnalysisPruning/evaluation/test_bin/22-ezXML/ezxml/ezxml.c:295
            EZXML_WS "='\"") + 10, "yes", 3)) root->standalone = 1;
    278e:	48 8b 45 d8          	mov    -0x28(%rbp),%rax
    2792:	66 c7 80 98 00 00 00 	movw   $0x1,0x98(%rax)
    2799:	01 00 
/media/ssd-partition/Documents/RootCauseAnalysisPruning/evaluation/test_bin/22-ezXML/ezxml/ezxml.c:296
        return;
    279b:	e9 5c 03 00 00       	jmp    2afc <ezxml_proc_inst+0x47c>
/media/ssd-partition/Documents/RootCauseAnalysisPruning/evaluation/test_bin/22-ezXML/ezxml/ezxml.c:299
    }

    if (! root->pi[0]) *(root->pi = malloc(sizeof(char **))) = NULL; //first pi
    27a0:	48 8b 45 d8          	mov    -0x28(%rbp),%rax
    27a4:	48 8b 80 90 00 00 00 	mov    0x90(%rax),%rax
    27ab:	48 8b 00             	mov    (%rax),%rax
    27ae:	48 85 c0             	test   %rax,%rax
    27b1:	75 30                	jne    27e3 <ezxml_proc_inst+0x163>
/media/ssd-partition/Documents/RootCauseAnalysisPruning/evaluation/test_bin/22-ezXML/ezxml/ezxml.c:299 (discriminator 1)
    27b3:	bf 08 00 00 00       	mov    $0x8,%edi
    27b8:	e8 e3 eb ff ff       	call   13a0 <malloc@plt>
    27bd:	48 89 c2             	mov    %rax,%rdx
    27c0:	48 8b 45 d8          	mov    -0x28(%rbp),%rax
    27c4:	48 89 90 90 00 00 00 	mov    %rdx,0x90(%rax)
    27cb:	48 8b 45 d8          	mov    -0x28(%rbp),%rax
    27cf:	48 8b 80 90 00 00 00 	mov    0x90(%rax),%rax
    27d6:	48 c7 00 00 00 00 00 	movq   $0x0,(%rax)
/media/ssd-partition/Documents/RootCauseAnalysisPruning/evaluation/test_bin/22-ezXML/ezxml/ezxml.c:301 (discriminator 1)

    while (root->pi[i] && strcmp(target, root->pi[i][0])) i++; // find target
    27dd:	eb 04                	jmp    27e3 <ezxml_proc_inst+0x163>
/media/ssd-partition/Documents/RootCauseAnalysisPruning/evaluation/test_bin/22-ezXML/ezxml/ezxml.c:301 (discriminator 3)
    27df:	83 45 e0 01          	addl   $0x1,-0x20(%rbp)
/media/ssd-partition/Documents/RootCauseAnalysisPruning/evaluation/test_bin/22-ezXML/ezxml/ezxml.c:301 (discriminator 1)
    27e3:	48 8b 45 d8          	mov    -0x28(%rbp),%rax
    27e7:	48 8b 90 90 00 00 00 	mov    0x90(%rax),%rdx
    27ee:	8b 45 e0             	mov    -0x20(%rbp),%eax
    27f1:	48 98                	cltq   
    27f3:	48 c1 e0 03          	shl    $0x3,%rax
    27f7:	48 01 d0             	add    %rdx,%rax
    27fa:	48 8b 00             	mov    (%rax),%rax
    27fd:	48 85 c0             	test   %rax,%rax
    2800:	74 30                	je     2832 <ezxml_proc_inst+0x1b2>
/media/ssd-partition/Documents/RootCauseAnalysisPruning/evaluation/test_bin/22-ezXML/ezxml/ezxml.c:301 (discriminator 2)
    2802:	48 8b 45 d8          	mov    -0x28(%rbp),%rax
    2806:	48 8b 90 90 00 00 00 	mov    0x90(%rax),%rdx
    280d:	8b 45 e0             	mov    -0x20(%rbp),%eax
    2810:	48 98                	cltq   
    2812:	48 c1 e0 03          	shl    $0x3,%rax
    2816:	48 01 d0             	add    %rdx,%rax
    2819:	48 8b 00             	mov    (%rax),%rax
    281c:	48 8b 10             	mov    (%rax),%rdx
    281f:	48 8b 45 e8          	mov    -0x18(%rbp),%rax
    2823:	48 89 d6             	mov    %rdx,%rsi
    2826:	48 89 c7             	mov    %rax,%rdi
    2829:	e8 32 eb ff ff       	call   1360 <strcmp@plt>
    282e:	85 c0                	test   %eax,%eax
    2830:	75 ad                	jne    27df <ezxml_proc_inst+0x15f>
/media/ssd-partition/Documents/RootCauseAnalysisPruning/evaluation/test_bin/22-ezXML/ezxml/ezxml.c:302
    if (! root->pi[i]) { // new target
    2832:	48 8b 45 d8          	mov    -0x28(%rbp),%rax
    2836:	48 8b 90 90 00 00 00 	mov    0x90(%rax),%rdx
    283d:	8b 45 e0             	mov    -0x20(%rbp),%eax
    2840:	48 98                	cltq   
    2842:	48 c1 e0 03          	shl    $0x3,%rax
    2846:	48 01 d0             	add    %rdx,%rax
    2849:	48 8b 00             	mov    (%rax),%rax
    284c:	48 85 c0             	test   %rax,%rax
    284f:	0f 85 f4 00 00 00    	jne    2949 <ezxml_proc_inst+0x2c9>
/media/ssd-partition/Documents/RootCauseAnalysisPruning/evaluation/test_bin/22-ezXML/ezxml/ezxml.c:303
        root->pi = realloc(root->pi, sizeof(char **) * (i + 2));
    2855:	8b 45 e0             	mov    -0x20(%rbp),%eax
    2858:	83 c0 02             	add    $0x2,%eax
    285b:	48 98                	cltq   
    285d:	48 8d 14 c5 00 00 00 	lea    0x0(,%rax,8),%rdx
    2864:	00 
    2865:	48 8b 45 d8          	mov    -0x28(%rbp),%rax
    2869:	48 8b 80 90 00 00 00 	mov    0x90(%rax),%rax
    2870:	48 89 d6             	mov    %rdx,%rsi
    2873:	48 89 c7             	mov    %rax,%rdi
    2876:	e8 35 eb ff ff       	call   13b0 <realloc@plt>
    287b:	48 8b 55 d8          	mov    -0x28(%rbp),%rdx
    287f:	48 89 82 90 00 00 00 	mov    %rax,0x90(%rdx)
/media/ssd-partition/Documents/RootCauseAnalysisPruning/evaluation/test_bin/22-ezXML/ezxml/ezxml.c:304
        root->pi[i] = malloc(sizeof(char *) * 3);
    2886:	48 8b 45 d8          	mov    -0x28(%rbp),%rax
    288a:	48 8b 90 90 00 00 00 	mov    0x90(%rax),%rdx
    2891:	8b 45 e0             	mov    -0x20(%rbp),%eax
    2894:	48 98                	cltq   
    2896:	48 c1 e0 03          	shl    $0x3,%rax
    289a:	48 8d 1c 02          	lea    (%rdx,%rax,1),%rbx
    289e:	bf 18 00 00 00       	mov    $0x18,%edi
    28a3:	e8 f8 ea ff ff       	call   13a0 <malloc@plt>
    28a8:	48 89 03             	mov    %rax,(%rbx)
/media/ssd-partition/Documents/RootCauseAnalysisPruning/evaluation/test_bin/22-ezXML/ezxml/ezxml.c:305
        root->pi[i][0] = target;
    28ab:	48 8b 45 d8          	mov    -0x28(%rbp),%rax
    28af:	48 8b 90 90 00 00 00 	mov    0x90(%rax),%rdx
    28b6:	8b 45 e0             	mov    -0x20(%rbp),%eax
    28b9:	48 98                	cltq   
    28bb:	48 c1 e0 03          	shl    $0x3,%rax
    28bf:	48 01 d0             	add    %rdx,%rax
    28c2:	48 8b 00             	mov    (%rax),%rax
    28c5:	48 8b 55 e8          	mov    -0x18(%rbp),%rdx
    28c9:	48 89 10             	mov    %rdx,(%rax)
/media/ssd-partition/Documents/RootCauseAnalysisPruning/evaluation/test_bin/22-ezXML/ezxml/ezxml.c:306
        root->pi[i][1] = (char *)(root->pi[i + 1] = NULL); // terminate pi list
    28cc:	48 8b 45 d8          	mov    -0x28(%rbp),%rax
    28d0:	48 8b 90 90 00 00 00 	mov    0x90(%rax),%rdx
    28d7:	8b 45 e0             	mov    -0x20(%rbp),%eax
    28da:	48 98                	cltq   
    28dc:	48 83 c0 01          	add    $0x1,%rax
    28e0:	48 c1 e0 03          	shl    $0x3,%rax
    28e4:	48 01 d0             	add    %rdx,%rax
    28e7:	48 c7 00 00 00 00 00 	movq   $0x0,(%rax)
    28ee:	48 8b 45 d8          	mov    -0x28(%rbp),%rax
    28f2:	48 8b 90 90 00 00 00 	mov    0x90(%rax),%rdx
    28f9:	8b 45 e0             	mov    -0x20(%rbp),%eax
    28fc:	48 98                	cltq   
    28fe:	48 c1 e0 03          	shl    $0x3,%rax
    2902:	48 01 d0             	add    %rdx,%rax
    2905:	48 8b 00             	mov    (%rax),%rax
    2908:	48 83 c0 08          	add    $0x8,%rax
    290c:	48 c7 00 00 00 00 00 	movq   $0x0,(%rax)
/media/ssd-partition/Documents/RootCauseAnalysisPruning/evaluation/test_bin/22-ezXML/ezxml/ezxml.c:307
        root->pi[i][2] = strdup(""); // empty document position list
    2913:	48 8b 45 d8          	mov    -0x28(%rbp),%rax
    2917:	48 8b 90 90 00 00 00 	mov    0x90(%rax),%rdx
    291e:	8b 45 e0             	mov    -0x20(%rbp),%eax
    2921:	48 98                	cltq   
    2923:	48 c1 e0 03          	shl    $0x3,%rax
    2927:	48 01 d0             	add    %rdx,%rax
    292a:	48 8b 00             	mov    (%rax),%rax
    292d:	48 8d 58 10          	lea    0x10(%rax),%rbx
    2931:	48 8d 05 2b 47 00 00 	lea    0x472b(%rip),%rax        # 7063 <_IO_stdin_used+0x63>
    2938:	48 89 c7             	mov    %rax,%rdi
    293b:	e8 e0 ea ff ff       	call   1420 <strdup@plt>
    2940:	48 89 03             	mov    %rax,(%rbx)
/media/ssd-partition/Documents/RootCauseAnalysisPruning/evaluation/test_bin/22-ezXML/ezxml/ezxml.c:310
    }

    while (root->pi[i][j]) j++; // find end of instruction list for this target
    2943:	eb 04                	jmp    2949 <ezxml_proc_inst+0x2c9>
/media/ssd-partition/Documents/RootCauseAnalysisPruning/evaluation/test_bin/22-ezXML/ezxml/ezxml.c:310 (discriminator 2)
    2945:	83 45 e4 01          	addl   $0x1,-0x1c(%rbp)
/media/ssd-partition/Documents/RootCauseAnalysisPruning/evaluation/test_bin/22-ezXML/ezxml/ezxml.c:310 (discriminator 1)
    2949:	48 8b 45 d8          	mov    -0x28(%rbp),%rax
    294d:	48 8b 90 90 00 00 00 	mov    0x90(%rax),%rdx
    2954:	8b 45 e0             	mov    -0x20(%rbp),%eax
    2957:	48 98                	cltq   
    2959:	48 c1 e0 03          	shl    $0x3,%rax
    295d:	48 01 d0             	add    %rdx,%rax
    2960:	48 8b 10             	mov    (%rax),%rdx
    2963:	8b 45 e4             	mov    -0x1c(%rbp),%eax
    2966:	48 98                	cltq   
    2968:	48 c1 e0 03          	shl    $0x3,%rax
    296c:	48 01 d0             	add    %rdx,%rax
    296f:	48 8b 00             	mov    (%rax),%rax
    2972:	48 85 c0             	test   %rax,%rax
    2975:	75 ce                	jne    2945 <ezxml_proc_inst+0x2c5>
/media/ssd-partition/Documents/RootCauseAnalysisPruning/evaluation/test_bin/22-ezXML/ezxml/ezxml.c:311
    root->pi[i] = realloc(root->pi[i], sizeof(char *) * (j + 3));
    2977:	8b 45 e4             	mov    -0x1c(%rbp),%eax
    297a:	83 c0 03             	add    $0x3,%eax
    297d:	48 98                	cltq   
    297f:	48 8d 14 c5 00 00 00 	lea    0x0(,%rax,8),%rdx
    2986:	00 
    2987:	48 8b 45 d8          	mov    -0x28(%rbp),%rax
    298b:	48 8b 88 90 00 00 00 	mov    0x90(%rax),%rcx
    2992:	8b 45 e0             	mov    -0x20(%rbp),%eax
    2995:	48 98                	cltq   
    2997:	48 c1 e0 03          	shl    $0x3,%rax
    299b:	48 01 c8             	add    %rcx,%rax
    299e:	48 8b 00             	mov    (%rax),%rax
    29a1:	48 8b 4d d8          	mov    -0x28(%rbp),%rcx
    29a5:	48 8b b1 90 00 00 00 	mov    0x90(%rcx),%rsi
    29ac:	8b 4d e0             	mov    -0x20(%rbp),%ecx
    29af:	48 63 c9             	movslq %ecx,%rcx
    29b2:	48 c1 e1 03          	shl    $0x3,%rcx
    29b6:	48 8d 1c 0e          	lea    (%rsi,%rcx,1),%rbx
    29ba:	48 89 d6             	mov    %rdx,%rsi
    29bd:	48 89 c7             	mov    %rax,%rdi
    29c0:	e8 eb e9 ff ff       	call   13b0 <realloc@plt>
    29c5:	48 89 03             	mov    %rax,(%rbx)
/media/ssd-partition/Documents/RootCauseAnalysisPruning/evaluation/test_bin/22-ezXML/ezxml/ezxml.c:312
    root->pi[i][j + 2] = realloc(root->pi[i][j + 1], j + 1);
    29c8:	8b 45 e4             	mov    -0x1c(%rbp),%eax
    29cb:	83 c0 01             	add    $0x1,%eax
    29ce:	48 63 d0             	movslq %eax,%rdx
    29d1:	48 8b 45 d8          	mov    -0x28(%rbp),%rax
    29d5:	48 8b 88 90 00 00 00 	mov    0x90(%rax),%rcx
    29dc:	8b 45 e0             	mov    -0x20(%rbp),%eax
    29df:	48 98                	cltq   
    29e1:	48 c1 e0 03          	shl    $0x3,%rax
    29e5:	48 01 c8             	add    %rcx,%rax
    29e8:	48 8b 08             	mov    (%rax),%rcx
    29eb:	8b 45 e4             	mov    -0x1c(%rbp),%eax
    29ee:	48 98                	cltq   
    29f0:	48 83 c0 01          	add    $0x1,%rax
    29f4:	48 c1 e0 03          	shl    $0x3,%rax
    29f8:	48 01 c8             	add    %rcx,%rax
    29fb:	48 8b 00             	mov    (%rax),%rax
    29fe:	48 8b 4d d8          	mov    -0x28(%rbp),%rcx
    2a02:	48 8b b1 90 00 00 00 	mov    0x90(%rcx),%rsi
    2a09:	8b 4d e0             	mov    -0x20(%rbp),%ecx
    2a0c:	48 63 c9             	movslq %ecx,%rcx
    2a0f:	48 c1 e1 03          	shl    $0x3,%rcx
    2a13:	48 01 f1             	add    %rsi,%rcx
    2a16:	48 8b 31             	mov    (%rcx),%rsi
    2a19:	8b 4d e4             	mov    -0x1c(%rbp),%ecx
    2a1c:	48 63 c9             	movslq %ecx,%rcx
    2a1f:	48 83 c1 02          	add    $0x2,%rcx
    2a23:	48 c1 e1 03          	shl    $0x3,%rcx
    2a27:	48 8d 1c 0e          	lea    (%rsi,%rcx,1),%rbx
    2a2b:	48 89 d6             	mov    %rdx,%rsi
    2a2e:	48 89 c7             	mov    %rax,%rdi
    2a31:	e8 7a e9 ff ff       	call   13b0 <realloc@plt>
    2a36:	48 89 03             	mov    %rax,(%rbx)
/media/ssd-partition/Documents/RootCauseAnalysisPruning/evaluation/test_bin/22-ezXML/ezxml/ezxml.c:313
    strcpy(root->pi[i][j + 2] + j - 1, (root->xml.name) ? ">" : "<");
    2a39:	48 8b 45 d8          	mov    -0x28(%rbp),%rax
    2a3d:	48 8b 00             	mov    (%rax),%rax
    2a40:	48 85 c0             	test   %rax,%rax
    2a43:	74 09                	je     2a4e <ezxml_proc_inst+0x3ce>
/media/ssd-partition/Documents/RootCauseAnalysisPruning/evaluation/test_bin/22-ezXML/ezxml/ezxml.c:313 (discriminator 1)
    2a45:	48 8d 05 18 46 00 00 	lea    0x4618(%rip),%rax        # 7064 <_IO_stdin_used+0x64>
    2a4c:	eb 07                	jmp    2a55 <ezxml_proc_inst+0x3d5>
/media/ssd-partition/Documents/RootCauseAnalysisPruning/evaluation/test_bin/22-ezXML/ezxml/ezxml.c:313 (discriminator 2)
    2a4e:	48 8d 05 11 46 00 00 	lea    0x4611(%rip),%rax        # 7066 <_IO_stdin_used+0x66>
/media/ssd-partition/Documents/RootCauseAnalysisPruning/evaluation/test_bin/22-ezXML/ezxml/ezxml.c:313 (discriminator 4)
    2a55:	48 8b 55 d8          	mov    -0x28(%rbp),%rdx
    2a59:	48 8b 8a 90 00 00 00 	mov    0x90(%rdx),%rcx
    2a60:	8b 55 e0             	mov    -0x20(%rbp),%edx
    2a63:	48 63 d2             	movslq %edx,%rdx
    2a66:	48 c1 e2 03          	shl    $0x3,%rdx
    2a6a:	48 01 ca             	add    %rcx,%rdx
    2a6d:	48 8b 0a             	mov    (%rdx),%rcx
    2a70:	8b 55 e4             	mov    -0x1c(%rbp),%edx
    2a73:	48 63 d2             	movslq %edx,%rdx
    2a76:	48 83 c2 02          	add    $0x2,%rdx
    2a7a:	48 c1 e2 03          	shl    $0x3,%rdx
    2a7e:	48 01 ca             	add    %rcx,%rdx
    2a81:	48 8b 0a             	mov    (%rdx),%rcx
    2a84:	8b 55 e4             	mov    -0x1c(%rbp),%edx
    2a87:	48 63 d2             	movslq %edx,%rdx
    2a8a:	48 83 ea 01          	sub    $0x1,%rdx
    2a8e:	48 01 ca             	add    %rcx,%rdx
    2a91:	48 89 c6             	mov    %rax,%rsi
    2a94:	48 89 d7             	mov    %rdx,%rdi
    2a97:	e8 e4 e7 ff ff       	call   1280 <strcpy@plt>
/media/ssd-partition/Documents/RootCauseAnalysisPruning/evaluation/test_bin/22-ezXML/ezxml/ezxml.c:314 (discriminator 4)
    root->pi[i][j + 1] = NULL; // null terminate pi list for this target
    2a9c:	48 8b 45 d8          	mov    -0x28(%rbp),%rax
    2aa0:	48 8b 90 90 00 00 00 	mov    0x90(%rax),%rdx
    2aa7:	8b 45 e0             	mov    -0x20(%rbp),%eax
    2aaa:	48 98                	cltq   
    2aac:	48 c1 e0 03          	shl    $0x3,%rax
    2ab0:	48 01 d0             	add    %rdx,%rax
    2ab3:	48 8b 10             	mov    (%rax),%rdx
    2ab6:	8b 45 e4             	mov    -0x1c(%rbp),%eax
    2ab9:	48 98                	cltq   
    2abb:	48 83 c0 01          	add    $0x1,%rax
    2abf:	48 c1 e0 03          	shl    $0x3,%rax
    2ac3:	48 01 d0             	add    %rdx,%rax
    2ac6:	48 c7 00 00 00 00 00 	movq   $0x0,(%rax)
/media/ssd-partition/Documents/RootCauseAnalysisPruning/evaluation/test_bin/22-ezXML/ezxml/ezxml.c:315 (discriminator 4)
    root->pi[i][j] = s; // set instruction
    2acd:	48 8b 45 d8          	mov    -0x28(%rbp),%rax
    2ad1:	48 8b 90 90 00 00 00 	mov    0x90(%rax),%rdx
    2ad8:	8b 45 e0             	mov    -0x20(%rbp),%eax
    2adb:	48 98                	cltq   
    2add:	48 c1 e0 03          	shl    $0x3,%rax
    2ae1:	48 01 d0             	add    %rdx,%rax
    2ae4:	48 8b 10             	mov    (%rax),%rdx
    2ae7:	8b 45 e4             	mov    -0x1c(%rbp),%eax
    2aea:	48 98                	cltq   
    2aec:	48 c1 e0 03          	shl    $0x3,%rax
    2af0:	48 01 c2             	add    %rax,%rdx
    2af3:	48 8b 45 d0          	mov    -0x30(%rbp),%rax
    2af7:	48 89 02             	mov    %rax,(%rdx)
    2afa:	eb 01                	jmp    2afd <ezxml_proc_inst+0x47d>
/media/ssd-partition/Documents/RootCauseAnalysisPruning/evaluation/test_bin/22-ezXML/ezxml/ezxml.c:296
        return;
    2afc:	90                   	nop
/media/ssd-partition/Documents/RootCauseAnalysisPruning/evaluation/test_bin/22-ezXML/ezxml/ezxml.c:316
}
    2afd:	48 8b 5d f8          	mov    -0x8(%rbp),%rbx
    2b01:	c9                   	leave  
    2b02:	c3                   	ret    

0000000000002b03 <ezxml_internal_dtd>:
ezxml_internal_dtd():
/media/ssd-partition/Documents/RootCauseAnalysisPruning/evaluation/test_bin/22-ezXML/ezxml/ezxml.c:320

// called when the parser finds an internal doctype subset
short ezxml_internal_dtd(ezxml_root_t root, char *s, size_t len)
{
    2b03:	f3 0f 1e fa          	endbr64 
    2b07:	55                   	push   %rbp
    2b08:	48 89 e5             	mov    %rsp,%rbp
    2b0b:	53                   	push   %rbx
    2b0c:	48 83 ec 68          	sub    $0x68,%rsp
    2b10:	48 89 7d a8          	mov    %rdi,-0x58(%rbp)
    2b14:	48 89 75 a0          	mov    %rsi,-0x60(%rbp)
    2b18:	48 89 55 98          	mov    %rdx,-0x68(%rbp)
/media/ssd-partition/Documents/RootCauseAnalysisPruning/evaluation/test_bin/22-ezXML/ezxml/ezxml.c:321
    char q, *c, *t, *n = NULL, *v, **ent, **pe;
    2b1c:	48 c7 45 c0 00 00 00 	movq   $0x0,-0x40(%rbp)
    2b23:	00 
/media/ssd-partition/Documents/RootCauseAnalysisPruning/evaluation/test_bin/22-ezXML/ezxml/ezxml.c:324
    int i, j;
    
    pe = memcpy(malloc(sizeof(EZXML_NIL)), EZXML_NIL, sizeof(EZXML_NIL));
    2b24:	bf 08 00 00 00       	mov    $0x8,%edi
    2b29:	e8 72 e8 ff ff       	call   13a0 <malloc@plt>
    2b2e:	48 8b 15 5b 65 00 00 	mov    0x655b(%rip),%rdx        # 9090 <EZXML_NIL>
    2b35:	48 89 10             	mov    %rdx,(%rax)
    2b38:	48 89 45 d0          	mov    %rax,-0x30(%rbp)
/media/ssd-partition/Documents/RootCauseAnalysisPruning/evaluation/test_bin/22-ezXML/ezxml/ezxml.c:326

    for (s[len] = '\0'; s; ) {
    2b3c:	48 8b 55 a0          	mov    -0x60(%rbp),%rdx
    2b40:	48 8b 45 98          	mov    -0x68(%rbp),%rax
    2b44:	48 01 d0             	add    %rdx,%rax
    2b47:	c6 00 00             	movb   $0x0,(%rax)
    2b4a:	e9 39 0a 00 00       	jmp    3588 <ezxml_internal_dtd+0xa85>
/media/ssd-partition/Documents/RootCauseAnalysisPruning/evaluation/test_bin/22-ezXML/ezxml/ezxml.c:327 (discriminator 4)
        while (*s && *s != '<' && *s != '%') s++; // find next declaration
    2b4f:	48 83 45 a0 01       	addq   $0x1,-0x60(%rbp)
/media/ssd-partition/Documents/RootCauseAnalysisPruning/evaluation/test_bin/22-ezXML/ezxml/ezxml.c:327 (discriminator 1)
    2b54:	48 8b 45 a0          	mov    -0x60(%rbp),%rax
    2b58:	0f b6 00             	movzbl (%rax),%eax
    2b5b:	84 c0                	test   %al,%al
    2b5d:	74 16                	je     2b75 <ezxml_internal_dtd+0x72>
/media/ssd-partition/Documents/RootCauseAnalysisPruning/evaluation/test_bin/22-ezXML/ezxml/ezxml.c:327 (discriminator 2)
    2b5f:	48 8b 45 a0          	mov    -0x60(%rbp),%rax
    2b63:	0f b6 00             	movzbl (%rax),%eax
    2b66:	3c 3c                	cmp    $0x3c,%al
    2b68:	74 0b                	je     2b75 <ezxml_internal_dtd+0x72>
/media/ssd-partition/Documents/RootCauseAnalysisPruning/evaluation/test_bin/22-ezXML/ezxml/ezxml.c:327 (discriminator 3)
    2b6a:	48 8b 45 a0          	mov    -0x60(%rbp),%rax
    2b6e:	0f b6 00             	movzbl (%rax),%eax
    2b71:	3c 25                	cmp    $0x25,%al
    2b73:	75 da                	jne    2b4f <ezxml_internal_dtd+0x4c>
/media/ssd-partition/Documents/RootCauseAnalysisPruning/evaluation/test_bin/22-ezXML/ezxml/ezxml.c:329

        if (! *s) break;
    2b75:	48 8b 45 a0          	mov    -0x60(%rbp),%rax
    2b79:	0f b6 00             	movzbl (%rax),%eax
    2b7c:	84 c0                	test   %al,%al
    2b7e:	0f 84 11 0a 00 00    	je     3595 <ezxml_internal_dtd+0xa92>
/media/ssd-partition/Documents/RootCauseAnalysisPruning/evaluation/test_bin/22-ezXML/ezxml/ezxml.c:330
        else if (! strncmp(s, "<!ENTITY", 8)) { // parse entity definitions
    2b84:	48 8b 45 a0          	mov    -0x60(%rbp),%rax
    2b88:	ba 08 00 00 00       	mov    $0x8,%edx
    2b8d:	48 8d 0d d4 44 00 00 	lea    0x44d4(%rip),%rcx        # 7068 <_IO_stdin_used+0x68>
    2b94:	48 89 ce             	mov    %rcx,%rsi
    2b97:	48 89 c7             	mov    %rax,%rdi
    2b9a:	e8 d1 e6 ff ff       	call   1270 <strncmp@plt>
    2b9f:	85 c0                	test   %eax,%eax
    2ba1:	0f 85 ad 02 00 00    	jne    2e54 <ezxml_internal_dtd+0x351>
/media/ssd-partition/Documents/RootCauseAnalysisPruning/evaluation/test_bin/22-ezXML/ezxml/ezxml.c:331
            c = s += strspn(s + 8, EZXML_WS) + 8; // skip white space separator
    2ba7:	48 8b 45 a0          	mov    -0x60(%rbp),%rax
    2bab:	48 83 c0 08          	add    $0x8,%rax
    2baf:	48 8d 15 8d 44 00 00 	lea    0x448d(%rip),%rdx        # 7043 <_IO_stdin_used+0x43>
    2bb6:	48 89 d6             	mov    %rdx,%rsi
    2bb9:	48 89 c7             	mov    %rax,%rdi
    2bbc:	e8 6f e7 ff ff       	call   1330 <strspn@plt>
    2bc1:	48 83 c0 08          	add    $0x8,%rax
    2bc5:	48 01 45 a0          	add    %rax,-0x60(%rbp)
    2bc9:	48 8b 45 a0          	mov    -0x60(%rbp),%rax
    2bcd:	48 89 45 d8          	mov    %rax,-0x28(%rbp)
/media/ssd-partition/Documents/RootCauseAnalysisPruning/evaluation/test_bin/22-ezXML/ezxml/ezxml.c:332
            n = s + strspn(s, EZXML_WS "%"); // find name
    2bd1:	48 8b 45 a0          	mov    -0x60(%rbp),%rax
    2bd5:	48 8d 15 95 44 00 00 	lea    0x4495(%rip),%rdx        # 7071 <_IO_stdin_used+0x71>
    2bdc:	48 89 d6             	mov    %rdx,%rsi
    2bdf:	48 89 c7             	mov    %rax,%rdi
    2be2:	e8 49 e7 ff ff       	call   1330 <strspn@plt>
    2be7:	48 8b 55 a0          	mov    -0x60(%rbp),%rdx
    2beb:	48 01 d0             	add    %rdx,%rax
    2bee:	48 89 45 c0          	mov    %rax,-0x40(%rbp)
/media/ssd-partition/Documents/RootCauseAnalysisPruning/evaluation/test_bin/22-ezXML/ezxml/ezxml.c:333
            *(s = n + strcspn(n, EZXML_WS)) = ';'; // append ; to name
    2bf2:	48 8b 45 c0          	mov    -0x40(%rbp),%rax
    2bf6:	48 8d 15 46 44 00 00 	lea    0x4446(%rip),%rdx        # 7043 <_IO_stdin_used+0x43>
    2bfd:	48 89 d6             	mov    %rdx,%rsi
    2c00:	48 89 c7             	mov    %rax,%rdi
    2c03:	e8 38 e7 ff ff       	call   1340 <strcspn@plt>
    2c08:	48 8b 55 c0          	mov    -0x40(%rbp),%rdx
    2c0c:	48 01 d0             	add    %rdx,%rax
    2c0f:	48 89 45 a0          	mov    %rax,-0x60(%rbp)
    2c13:	48 8b 45 a0          	mov    -0x60(%rbp),%rax
    2c17:	c6 00 3b             	movb   $0x3b,(%rax)
/media/ssd-partition/Documents/RootCauseAnalysisPruning/evaluation/test_bin/22-ezXML/ezxml/ezxml.c:335

            v = s + strspn(s + 1, EZXML_WS) + 1; // find value
    2c1a:	48 8b 45 a0          	mov    -0x60(%rbp),%rax
    2c1e:	48 83 c0 01          	add    $0x1,%rax
    2c22:	48 8d 15 1a 44 00 00 	lea    0x441a(%rip),%rdx        # 7043 <_IO_stdin_used+0x43>
    2c29:	48 89 d6             	mov    %rdx,%rsi
    2c2c:	48 89 c7             	mov    %rax,%rdi
    2c2f:	e8 fc e6 ff ff       	call   1330 <strspn@plt>
    2c34:	48 8d 50 01          	lea    0x1(%rax),%rdx
    2c38:	48 8b 45 a0          	mov    -0x60(%rbp),%rax
    2c3c:	48 01 d0             	add    %rdx,%rax
    2c3f:	48 89 45 c8          	mov    %rax,-0x38(%rbp)
/media/ssd-partition/Documents/RootCauseAnalysisPruning/evaluation/test_bin/22-ezXML/ezxml/ezxml.c:336
            if ((q = *(v++)) != '"' && q != '\'') { // skip externals
    2c43:	48 8b 45 c8          	mov    -0x38(%rbp),%rax
    2c47:	48 8d 50 01          	lea    0x1(%rax),%rdx
    2c4b:	48 89 55 c8          	mov    %rdx,-0x38(%rbp)
    2c4f:	0f b6 00             	movzbl (%rax),%eax
    2c52:	88 45 b7             	mov    %al,-0x49(%rbp)
    2c55:	80 7d b7 22          	cmpb   $0x22,-0x49(%rbp)
    2c59:	74 20                	je     2c7b <ezxml_internal_dtd+0x178>
/media/ssd-partition/Documents/RootCauseAnalysisPruning/evaluation/test_bin/22-ezXML/ezxml/ezxml.c:336 (discriminator 1)
    2c5b:	80 7d b7 27          	cmpb   $0x27,-0x49(%rbp)
    2c5f:	74 1a                	je     2c7b <ezxml_internal_dtd+0x178>
/media/ssd-partition/Documents/RootCauseAnalysisPruning/evaluation/test_bin/22-ezXML/ezxml/ezxml.c:337 (discriminator 2)
                s = strchr(s, '>');
    2c61:	48 8b 45 a0          	mov    -0x60(%rbp),%rax
    2c65:	be 3e 00 00 00       	mov    $0x3e,%esi
    2c6a:	48 89 c7             	mov    %rax,%rdi
    2c6d:	e8 7e e6 ff ff       	call   12f0 <strchr@plt>
    2c72:	48 89 45 a0          	mov    %rax,-0x60(%rbp)
/media/ssd-partition/Documents/RootCauseAnalysisPruning/evaluation/test_bin/22-ezXML/ezxml/ezxml.c:338 (discriminator 2)
                continue;
    2c76:	e9 0d 09 00 00       	jmp    3588 <ezxml_internal_dtd+0xa85>
/media/ssd-partition/Documents/RootCauseAnalysisPruning/evaluation/test_bin/22-ezXML/ezxml/ezxml.c:341
            }

            for (i = 0, ent = (*c == '%') ? pe : root->ent; ent[i]; i++);
    2c7b:	c7 45 b8 00 00 00 00 	movl   $0x0,-0x48(%rbp)
    2c82:	48 8b 45 d8          	mov    -0x28(%rbp),%rax
    2c86:	0f b6 00             	movzbl (%rax),%eax
    2c89:	3c 25                	cmp    $0x25,%al
    2c8b:	74 0d                	je     2c9a <ezxml_internal_dtd+0x197>
/media/ssd-partition/Documents/RootCauseAnalysisPruning/evaluation/test_bin/22-ezXML/ezxml/ezxml.c:341 (discriminator 1)
    2c8d:	48 8b 45 a8          	mov    -0x58(%rbp),%rax
    2c91:	48 8b 80 80 00 00 00 	mov    0x80(%rax),%rax
    2c98:	eb 04                	jmp    2c9e <ezxml_internal_dtd+0x19b>
/media/ssd-partition/Documents/RootCauseAnalysisPruning/evaluation/test_bin/22-ezXML/ezxml/ezxml.c:341 (discriminator 2)
    2c9a:	48 8b 45 d0          	mov    -0x30(%rbp),%rax
/media/ssd-partition/Documents/RootCauseAnalysisPruning/evaluation/test_bin/22-ezXML/ezxml/ezxml.c:341 (discriminator 4)
    2c9e:	48 89 45 e8          	mov    %rax,-0x18(%rbp)
    2ca2:	eb 04                	jmp    2ca8 <ezxml_internal_dtd+0x1a5>
/media/ssd-partition/Documents/RootCauseAnalysisPruning/evaluation/test_bin/22-ezXML/ezxml/ezxml.c:341 (discriminator 7)
    2ca4:	83 45 b8 01          	addl   $0x1,-0x48(%rbp)
/media/ssd-partition/Documents/RootCauseAnalysisPruning/evaluation/test_bin/22-ezXML/ezxml/ezxml.c:341 (discriminator 5)
    2ca8:	8b 45 b8             	mov    -0x48(%rbp),%eax
    2cab:	48 98                	cltq   
    2cad:	48 8d 14 c5 00 00 00 	lea    0x0(,%rax,8),%rdx
    2cb4:	00 
    2cb5:	48 8b 45 e8          	mov    -0x18(%rbp),%rax
    2cb9:	48 01 d0             	add    %rdx,%rax
    2cbc:	48 8b 00             	mov    (%rax),%rax
    2cbf:	48 85 c0             	test   %rax,%rax
    2cc2:	75 e0                	jne    2ca4 <ezxml_internal_dtd+0x1a1>
/media/ssd-partition/Documents/RootCauseAnalysisPruning/evaluation/test_bin/22-ezXML/ezxml/ezxml.c:342
            ent = realloc(ent, (i + 3) * sizeof(char *)); // space for next ent
    2cc4:	8b 45 b8             	mov    -0x48(%rbp),%eax
    2cc7:	83 c0 03             	add    $0x3,%eax
    2cca:	48 98                	cltq   
    2ccc:	48 8d 14 c5 00 00 00 	lea    0x0(,%rax,8),%rdx
    2cd3:	00 
    2cd4:	48 8b 45 e8          	mov    -0x18(%rbp),%rax
    2cd8:	48 89 d6             	mov    %rdx,%rsi
    2cdb:	48 89 c7             	mov    %rax,%rdi
    2cde:	e8 cd e6 ff ff       	call   13b0 <realloc@plt>
    2ce3:	48 89 45 e8          	mov    %rax,-0x18(%rbp)
/media/ssd-partition/Documents/RootCauseAnalysisPruning/evaluation/test_bin/22-ezXML/ezxml/ezxml.c:343
            if (*c == '%') pe = ent;
    2ce7:	48 8b 45 d8          	mov    -0x28(%rbp),%rax
    2ceb:	0f b6 00             	movzbl (%rax),%eax
    2cee:	3c 25                	cmp    $0x25,%al
    2cf0:	75 0a                	jne    2cfc <ezxml_internal_dtd+0x1f9>
/media/ssd-partition/Documents/RootCauseAnalysisPruning/evaluation/test_bin/22-ezXML/ezxml/ezxml.c:343 (discriminator 1)
    2cf2:	48 8b 45 e8          	mov    -0x18(%rbp),%rax
    2cf6:	48 89 45 d0          	mov    %rax,-0x30(%rbp)
    2cfa:	eb 0f                	jmp    2d0b <ezxml_internal_dtd+0x208>
/media/ssd-partition/Documents/RootCauseAnalysisPruning/evaluation/test_bin/22-ezXML/ezxml/ezxml.c:344
            else root->ent = ent;
    2cfc:	48 8b 45 a8          	mov    -0x58(%rbp),%rax
    2d00:	48 8b 55 e8          	mov    -0x18(%rbp),%rdx
    2d04:	48 89 90 80 00 00 00 	mov    %rdx,0x80(%rax)
/media/ssd-partition/Documents/RootCauseAnalysisPruning/evaluation/test_bin/22-ezXML/ezxml/ezxml.c:346

            *(++s) = '\0'; // null terminate name
    2d0b:	48 83 45 a0 01       	addq   $0x1,-0x60(%rbp)
    2d10:	48 8b 45 a0          	mov    -0x60(%rbp),%rax
    2d14:	c6 00 00             	movb   $0x0,(%rax)
/media/ssd-partition/Documents/RootCauseAnalysisPruning/evaluation/test_bin/22-ezXML/ezxml/ezxml.c:347
            if ((s = strchr(v, q))) *(s++) = '\0'; // null terminate value
    2d17:	0f be 55 b7          	movsbl -0x49(%rbp),%edx
    2d1b:	48 8b 45 c8          	mov    -0x38(%rbp),%rax
    2d1f:	89 d6                	mov    %edx,%esi
    2d21:	48 89 c7             	mov    %rax,%rdi
    2d24:	e8 c7 e5 ff ff       	call   12f0 <strchr@plt>
    2d29:	48 89 45 a0          	mov    %rax,-0x60(%rbp)
    2d2d:	48 83 7d a0 00       	cmpq   $0x0,-0x60(%rbp)
    2d32:	74 0f                	je     2d43 <ezxml_internal_dtd+0x240>
/media/ssd-partition/Documents/RootCauseAnalysisPruning/evaluation/test_bin/22-ezXML/ezxml/ezxml.c:347 (discriminator 1)
    2d34:	48 8b 45 a0          	mov    -0x60(%rbp),%rax
    2d38:	48 8d 50 01          	lea    0x1(%rax),%rdx
    2d3c:	48 89 55 a0          	mov    %rdx,-0x60(%rbp)
    2d40:	c6 00 00             	movb   $0x0,(%rax)
/media/ssd-partition/Documents/RootCauseAnalysisPruning/evaluation/test_bin/22-ezXML/ezxml/ezxml.c:348
            ent[i + 1] = ezxml_decode(v, pe, '%'); // set value
    2d43:	8b 45 b8             	mov    -0x48(%rbp),%eax
    2d46:	48 98                	cltq   
    2d48:	48 83 c0 01          	add    $0x1,%rax
    2d4c:	48 8d 14 c5 00 00 00 	lea    0x0(,%rax,8),%rdx
    2d53:	00 
    2d54:	48 8b 45 e8          	mov    -0x18(%rbp),%rax
    2d58:	48 8d 1c 02          	lea    (%rdx,%rax,1),%rbx
    2d5c:	48 8b 4d d0          	mov    -0x30(%rbp),%rcx
    2d60:	48 8b 45 c8          	mov    -0x38(%rbp),%rax
    2d64:	ba 25 00 00 00       	mov    $0x25,%edx
    2d69:	48 89 ce             	mov    %rcx,%rsi
    2d6c:	48 89 c7             	mov    %rax,%rdi
    2d6f:	e8 e1 ee ff ff       	call   1c55 <ezxml_decode>
    2d74:	48 89 03             	mov    %rax,(%rbx)
/media/ssd-partition/Documents/RootCauseAnalysisPruning/evaluation/test_bin/22-ezXML/ezxml/ezxml.c:349
            ent[i + 2] = NULL; // null terminate entity list
    2d77:	8b 45 b8             	mov    -0x48(%rbp),%eax
    2d7a:	48 98                	cltq   
    2d7c:	48 83 c0 02          	add    $0x2,%rax
    2d80:	48 8d 14 c5 00 00 00 	lea    0x0(,%rax,8),%rdx
    2d87:	00 
    2d88:	48 8b 45 e8          	mov    -0x18(%rbp),%rax
    2d8c:	48 01 d0             	add    %rdx,%rax
    2d8f:	48 c7 00 00 00 00 00 	movq   $0x0,(%rax)
/media/ssd-partition/Documents/RootCauseAnalysisPruning/evaluation/test_bin/22-ezXML/ezxml/ezxml.c:350
            if (! ezxml_ent_ok(n, ent[i + 1], ent)) { // circular reference
    2d96:	8b 45 b8             	mov    -0x48(%rbp),%eax
    2d99:	48 98                	cltq   
    2d9b:	48 83 c0 01          	add    $0x1,%rax
    2d9f:	48 8d 14 c5 00 00 00 	lea    0x0(,%rax,8),%rdx
    2da6:	00 
    2da7:	48 8b 45 e8          	mov    -0x18(%rbp),%rax
    2dab:	48 01 d0             	add    %rdx,%rax
    2dae:	48 8b 08             	mov    (%rax),%rcx
    2db1:	48 8b 55 e8          	mov    -0x18(%rbp),%rdx
    2db5:	48 8b 45 c0          	mov    -0x40(%rbp),%rax
    2db9:	48 89 ce             	mov    %rcx,%rsi
    2dbc:	48 89 c7             	mov    %rax,%rdi
    2dbf:	e8 64 f7 ff ff       	call   2528 <ezxml_ent_ok>
    2dc4:	85 c0                	test   %eax,%eax
    2dc6:	75 6c                	jne    2e34 <ezxml_internal_dtd+0x331>
/media/ssd-partition/Documents/RootCauseAnalysisPruning/evaluation/test_bin/22-ezXML/ezxml/ezxml.c:351
                if (ent[i + 1] != v) free(ent[i + 1]);
    2dc8:	8b 45 b8             	mov    -0x48(%rbp),%eax
    2dcb:	48 98                	cltq   
    2dcd:	48 83 c0 01          	add    $0x1,%rax
    2dd1:	48 8d 14 c5 00 00 00 	lea    0x0(,%rax,8),%rdx
    2dd8:	00 
    2dd9:	48 8b 45 e8          	mov    -0x18(%rbp),%rax
    2ddd:	48 01 d0             	add    %rdx,%rax
    2de0:	48 8b 00             	mov    (%rax),%rax
    2de3:	48 39 45 c8          	cmp    %rax,-0x38(%rbp)
    2de7:	74 23                	je     2e0c <ezxml_internal_dtd+0x309>
/media/ssd-partition/Documents/RootCauseAnalysisPruning/evaluation/test_bin/22-ezXML/ezxml/ezxml.c:351 (discriminator 1)
    2de9:	8b 45 b8             	mov    -0x48(%rbp),%eax
    2dec:	48 98                	cltq   
    2dee:	48 83 c0 01          	add    $0x1,%rax
    2df2:	48 8d 14 c5 00 00 00 	lea    0x0(,%rax,8),%rdx
    2df9:	00 
    2dfa:	48 8b 45 e8          	mov    -0x18(%rbp),%rax
    2dfe:	48 01 d0             	add    %rdx,%rax
    2e01:	48 8b 00             	mov    (%rax),%rax
    2e04:	48 89 c7             	mov    %rax,%rdi
    2e07:	e8 44 e4 ff ff       	call   1250 <free@plt>
/media/ssd-partition/Documents/RootCauseAnalysisPruning/evaluation/test_bin/22-ezXML/ezxml/ezxml.c:352
                ezxml_err(root, v, "circular entity declaration &%s", n);
    2e0c:	48 8b 55 c0          	mov    -0x40(%rbp),%rdx
    2e10:	48 8b 75 c8          	mov    -0x38(%rbp),%rsi
    2e14:	48 8b 45 a8          	mov    -0x58(%rbp),%rax
    2e18:	48 89 d1             	mov    %rdx,%rcx
    2e1b:	48 8d 15 56 42 00 00 	lea    0x4256(%rip),%rdx        # 7078 <_IO_stdin_used+0x78>
    2e22:	48 89 c7             	mov    %rax,%rdi
    2e25:	b8 00 00 00 00       	mov    $0x0,%eax
    2e2a:	e8 c1 ec ff ff       	call   1af0 <ezxml_err>
/media/ssd-partition/Documents/RootCauseAnalysisPruning/evaluation/test_bin/22-ezXML/ezxml/ezxml.c:353
                break;
    2e2f:	e9 65 07 00 00       	jmp    3599 <ezxml_internal_dtd+0xa96>
/media/ssd-partition/Documents/RootCauseAnalysisPruning/evaluation/test_bin/22-ezXML/ezxml/ezxml.c:355
            }
            else ent[i] = n; // set entity name
    2e34:	8b 45 b8             	mov    -0x48(%rbp),%eax
    2e37:	48 98                	cltq   
    2e39:	48 8d 14 c5 00 00 00 	lea    0x0(,%rax,8),%rdx
    2e40:	00 
    2e41:	48 8b 45 e8          	mov    -0x18(%rbp),%rax
    2e45:	48 01 c2             	add    %rax,%rdx
    2e48:	48 8b 45 c0          	mov    -0x40(%rbp),%rax
    2e4c:	48 89 02             	mov    %rax,(%rdx)
    2e4f:	e9 34 07 00 00       	jmp    3588 <ezxml_internal_dtd+0xa85>
/media/ssd-partition/Documents/RootCauseAnalysisPruning/evaluation/test_bin/22-ezXML/ezxml/ezxml.c:357
        }
        else if (! strncmp(s, "<!ATTLIST", 9)) { // parse default attributes
    2e54:	48 8b 45 a0          	mov    -0x60(%rbp),%rax
    2e58:	ba 09 00 00 00       	mov    $0x9,%edx
    2e5d:	48 8d 0d 34 42 00 00 	lea    0x4234(%rip),%rcx        # 7098 <_IO_stdin_used+0x98>
    2e64:	48 89 ce             	mov    %rcx,%rsi
    2e67:	48 89 c7             	mov    %rax,%rdi
    2e6a:	e8 01 e4 ff ff       	call   1270 <strncmp@plt>
    2e6f:	85 c0                	test   %eax,%eax
    2e71:	0f 85 16 06 00 00    	jne    348d <ezxml_internal_dtd+0x98a>
/media/ssd-partition/Documents/RootCauseAnalysisPruning/evaluation/test_bin/22-ezXML/ezxml/ezxml.c:358
            t = s + strspn(s + 9, EZXML_WS) + 9; // skip whitespace separator
    2e77:	48 8b 45 a0          	mov    -0x60(%rbp),%rax
    2e7b:	48 83 c0 09          	add    $0x9,%rax
    2e7f:	48 8d 15 bd 41 00 00 	lea    0x41bd(%rip),%rdx        # 7043 <_IO_stdin_used+0x43>
    2e86:	48 89 d6             	mov    %rdx,%rsi
    2e89:	48 89 c7             	mov    %rax,%rdi
    2e8c:	e8 9f e4 ff ff       	call   1330 <strspn@plt>
    2e91:	48 8d 50 09          	lea    0x9(%rax),%rdx
    2e95:	48 8b 45 a0          	mov    -0x60(%rbp),%rax
    2e99:	48 01 d0             	add    %rdx,%rax
    2e9c:	48 89 45 e0          	mov    %rax,-0x20(%rbp)
/media/ssd-partition/Documents/RootCauseAnalysisPruning/evaluation/test_bin/22-ezXML/ezxml/ezxml.c:359
            if (! *t) { ezxml_err(root, t, "unclosed <!ATTLIST"); break; }
    2ea0:	48 8b 45 e0          	mov    -0x20(%rbp),%rax
    2ea4:	0f b6 00             	movzbl (%rax),%eax
    2ea7:	84 c0                	test   %al,%al
    2ea9:	75 24                	jne    2ecf <ezxml_internal_dtd+0x3cc>
/media/ssd-partition/Documents/RootCauseAnalysisPruning/evaluation/test_bin/22-ezXML/ezxml/ezxml.c:359 (discriminator 1)
    2eab:	48 8b 4d e0          	mov    -0x20(%rbp),%rcx
    2eaf:	48 8b 45 a8          	mov    -0x58(%rbp),%rax
    2eb3:	48 8d 15 e8 41 00 00 	lea    0x41e8(%rip),%rdx        # 70a2 <_IO_stdin_used+0xa2>
    2eba:	48 89 ce             	mov    %rcx,%rsi
    2ebd:	48 89 c7             	mov    %rax,%rdi
    2ec0:	b8 00 00 00 00       	mov    $0x0,%eax
    2ec5:	e8 26 ec ff ff       	call   1af0 <ezxml_err>
    2eca:	e9 ca 06 00 00       	jmp    3599 <ezxml_internal_dtd+0xa96>
/media/ssd-partition/Documents/RootCauseAnalysisPruning/evaluation/test_bin/22-ezXML/ezxml/ezxml.c:360
            if (*(s = t + strcspn(t, EZXML_WS ">")) == '>') continue;
    2ecf:	48 8b 45 e0          	mov    -0x20(%rbp),%rax
    2ed3:	48 8d 15 db 41 00 00 	lea    0x41db(%rip),%rdx        # 70b5 <_IO_stdin_used+0xb5>
    2eda:	48 89 d6             	mov    %rdx,%rsi
    2edd:	48 89 c7             	mov    %rax,%rdi
    2ee0:	e8 5b e4 ff ff       	call   1340 <strcspn@plt>
    2ee5:	48 8b 55 e0          	mov    -0x20(%rbp),%rdx
    2ee9:	48 01 d0             	add    %rdx,%rax
    2eec:	48 89 45 a0          	mov    %rax,-0x60(%rbp)
    2ef0:	48 8b 45 a0          	mov    -0x60(%rbp),%rax
    2ef4:	0f b6 00             	movzbl (%rax),%eax
    2ef7:	3c 3e                	cmp    $0x3e,%al
    2ef9:	75 05                	jne    2f00 <ezxml_internal_dtd+0x3fd>
/media/ssd-partition/Documents/RootCauseAnalysisPruning/evaluation/test_bin/22-ezXML/ezxml/ezxml.c:360 (discriminator 1)
    2efb:	e9 88 06 00 00       	jmp    3588 <ezxml_internal_dtd+0xa85>
/media/ssd-partition/Documents/RootCauseAnalysisPruning/evaluation/test_bin/22-ezXML/ezxml/ezxml.c:361
            else *s = '\0'; // null terminate tag name
    2f00:	48 8b 45 a0          	mov    -0x60(%rbp),%rax
    2f04:	c6 00 00             	movb   $0x0,(%rax)
/media/ssd-partition/Documents/RootCauseAnalysisPruning/evaluation/test_bin/22-ezXML/ezxml/ezxml.c:362
            for (i = 0; root->attr[i] && strcmp(n, root->attr[i][0]); i++);
    2f07:	c7 45 b8 00 00 00 00 	movl   $0x0,-0x48(%rbp)
    2f0e:	eb 04                	jmp    2f14 <ezxml_internal_dtd+0x411>
/media/ssd-partition/Documents/RootCauseAnalysisPruning/evaluation/test_bin/22-ezXML/ezxml/ezxml.c:362 (discriminator 4)
    2f10:	83 45 b8 01          	addl   $0x1,-0x48(%rbp)
/media/ssd-partition/Documents/RootCauseAnalysisPruning/evaluation/test_bin/22-ezXML/ezxml/ezxml.c:362 (discriminator 1)
    2f14:	48 8b 45 a8          	mov    -0x58(%rbp),%rax
    2f18:	48 8b 90 88 00 00 00 	mov    0x88(%rax),%rdx
    2f1f:	8b 45 b8             	mov    -0x48(%rbp),%eax
    2f22:	48 98                	cltq   
    2f24:	48 c1 e0 03          	shl    $0x3,%rax
    2f28:	48 01 d0             	add    %rdx,%rax
    2f2b:	48 8b 00             	mov    (%rax),%rax
    2f2e:	48 85 c0             	test   %rax,%rax
    2f31:	0f 84 0d 05 00 00    	je     3444 <ezxml_internal_dtd+0x941>
/media/ssd-partition/Documents/RootCauseAnalysisPruning/evaluation/test_bin/22-ezXML/ezxml/ezxml.c:362 (discriminator 3)
    2f37:	48 8b 45 a8          	mov    -0x58(%rbp),%rax
    2f3b:	48 8b 90 88 00 00 00 	mov    0x88(%rax),%rdx
    2f42:	8b 45 b8             	mov    -0x48(%rbp),%eax
    2f45:	48 98                	cltq   
    2f47:	48 c1 e0 03          	shl    $0x3,%rax
    2f4b:	48 01 d0             	add    %rdx,%rax
    2f4e:	48 8b 00             	mov    (%rax),%rax
    2f51:	48 8b 10             	mov    (%rax),%rdx
    2f54:	48 8b 45 c0          	mov    -0x40(%rbp),%rax
    2f58:	48 89 d6             	mov    %rdx,%rsi
    2f5b:	48 89 c7             	mov    %rax,%rdi
    2f5e:	e8 fd e3 ff ff       	call   1360 <strcmp@plt>
    2f63:	85 c0                	test   %eax,%eax
    2f65:	75 a9                	jne    2f10 <ezxml_internal_dtd+0x40d>
/media/ssd-partition/Documents/RootCauseAnalysisPruning/evaluation/test_bin/22-ezXML/ezxml/ezxml.c:364

            while (*(n = ++s + strspn(s, EZXML_WS)) && *n != '>') {
    2f67:	e9 d8 04 00 00       	jmp    3444 <ezxml_internal_dtd+0x941>
/media/ssd-partition/Documents/RootCauseAnalysisPruning/evaluation/test_bin/22-ezXML/ezxml/ezxml.c:365
                if (*(s = n + strcspn(n, EZXML_WS))) *s = '\0'; // attr name
    2f6c:	48 8b 45 c0          	mov    -0x40(%rbp),%rax
    2f70:	48 8d 15 cc 40 00 00 	lea    0x40cc(%rip),%rdx        # 7043 <_IO_stdin_used+0x43>
    2f77:	48 89 d6             	mov    %rdx,%rsi
    2f7a:	48 89 c7             	mov    %rax,%rdi
    2f7d:	e8 be e3 ff ff       	call   1340 <strcspn@plt>
    2f82:	48 8b 55 c0          	mov    -0x40(%rbp),%rdx
    2f86:	48 01 d0             	add    %rdx,%rax
    2f89:	48 89 45 a0          	mov    %rax,-0x60(%rbp)
    2f8d:	48 8b 45 a0          	mov    -0x60(%rbp),%rax
    2f91:	0f b6 00             	movzbl (%rax),%eax
    2f94:	84 c0                	test   %al,%al
    2f96:	74 4a                	je     2fe2 <ezxml_internal_dtd+0x4df>
/media/ssd-partition/Documents/RootCauseAnalysisPruning/evaluation/test_bin/22-ezXML/ezxml/ezxml.c:365 (discriminator 1)
    2f98:	48 8b 45 a0          	mov    -0x60(%rbp),%rax
    2f9c:	c6 00 00             	movb   $0x0,(%rax)
/media/ssd-partition/Documents/RootCauseAnalysisPruning/evaluation/test_bin/22-ezXML/ezxml/ezxml.c:368 (discriminator 1)
                else { ezxml_err(root, t, "malformed <!ATTLIST"); break; }

                s += strspn(s + 1, EZXML_WS) + 1; // find next token
    2f9f:	48 8b 45 a0          	mov    -0x60(%rbp),%rax
    2fa3:	48 83 c0 01          	add    $0x1,%rax
    2fa7:	48 8d 15 95 40 00 00 	lea    0x4095(%rip),%rdx        # 7043 <_IO_stdin_used+0x43>
    2fae:	48 89 d6             	mov    %rdx,%rsi
    2fb1:	48 89 c7             	mov    %rax,%rdi
    2fb4:	e8 77 e3 ff ff       	call   1330 <strspn@plt>
    2fb9:	48 83 c0 01          	add    $0x1,%rax
    2fbd:	48 01 45 a0          	add    %rax,-0x60(%rbp)
/media/ssd-partition/Documents/RootCauseAnalysisPruning/evaluation/test_bin/22-ezXML/ezxml/ezxml.c:369 (discriminator 1)
                c = (strncmp(s, "CDATA", 5)) ? "*" : " "; // is it cdata?
    2fc1:	48 8b 45 a0          	mov    -0x60(%rbp),%rax
    2fc5:	ba 05 00 00 00       	mov    $0x5,%edx
    2fca:	48 8d 0d fe 40 00 00 	lea    0x40fe(%rip),%rcx        # 70cf <_IO_stdin_used+0xcf>
    2fd1:	48 89 ce             	mov    %rcx,%rsi
    2fd4:	48 89 c7             	mov    %rax,%rdi
    2fd7:	e8 94 e2 ff ff       	call   1270 <strncmp@plt>
    2fdc:	85 c0                	test   %eax,%eax
    2fde:	74 2f                	je     300f <ezxml_internal_dtd+0x50c>
    2fe0:	eb 24                	jmp    3006 <ezxml_internal_dtd+0x503>
/media/ssd-partition/Documents/RootCauseAnalysisPruning/evaluation/test_bin/22-ezXML/ezxml/ezxml.c:366
                else { ezxml_err(root, t, "malformed <!ATTLIST"); break; }
    2fe2:	48 8b 4d e0          	mov    -0x20(%rbp),%rcx
    2fe6:	48 8b 45 a8          	mov    -0x58(%rbp),%rax
    2fea:	48 8d 15 ca 40 00 00 	lea    0x40ca(%rip),%rdx        # 70bb <_IO_stdin_used+0xbb>
    2ff1:	48 89 ce             	mov    %rcx,%rsi
    2ff4:	48 89 c7             	mov    %rax,%rdi
    2ff7:	b8 00 00 00 00       	mov    $0x0,%eax
    2ffc:	e8 ef ea ff ff       	call   1af0 <ezxml_err>
    3001:	e9 82 05 00 00       	jmp    3588 <ezxml_internal_dtd+0xa85>
/media/ssd-partition/Documents/RootCauseAnalysisPruning/evaluation/test_bin/22-ezXML/ezxml/ezxml.c:369 (discriminator 1)
                c = (strncmp(s, "CDATA", 5)) ? "*" : " "; // is it cdata?
    3006:	48 8d 05 c8 40 00 00 	lea    0x40c8(%rip),%rax        # 70d5 <_IO_stdin_used+0xd5>
    300d:	eb 07                	jmp    3016 <ezxml_internal_dtd+0x513>
/media/ssd-partition/Documents/RootCauseAnalysisPruning/evaluation/test_bin/22-ezXML/ezxml/ezxml.c:369 (discriminator 2)
    300f:	48 8d 05 0e 40 00 00 	lea    0x400e(%rip),%rax        # 7024 <_IO_stdin_used+0x24>
/media/ssd-partition/Documents/RootCauseAnalysisPruning/evaluation/test_bin/22-ezXML/ezxml/ezxml.c:369 (discriminator 4)
    3016:	48 89 45 d8          	mov    %rax,-0x28(%rbp)
/media/ssd-partition/Documents/RootCauseAnalysisPruning/evaluation/test_bin/22-ezXML/ezxml/ezxml.c:370 (discriminator 4)
                if (! strncmp(s, "NOTATION", 8))
    301a:	48 8b 45 a0          	mov    -0x60(%rbp),%rax
    301e:	ba 08 00 00 00       	mov    $0x8,%edx
    3023:	48 8d 0d ad 40 00 00 	lea    0x40ad(%rip),%rcx        # 70d7 <_IO_stdin_used+0xd7>
    302a:	48 89 ce             	mov    %rcx,%rsi
    302d:	48 89 c7             	mov    %rax,%rdi
    3030:	e8 3b e2 ff ff       	call   1270 <strncmp@plt>
    3035:	85 c0                	test   %eax,%eax
    3037:	75 22                	jne    305b <ezxml_internal_dtd+0x558>
/media/ssd-partition/Documents/RootCauseAnalysisPruning/evaluation/test_bin/22-ezXML/ezxml/ezxml.c:371
                    s += strspn(s + 8, EZXML_WS) + 8;
    3039:	48 8b 45 a0          	mov    -0x60(%rbp),%rax
    303d:	48 83 c0 08          	add    $0x8,%rax
    3041:	48 8d 15 fb 3f 00 00 	lea    0x3ffb(%rip),%rdx        # 7043 <_IO_stdin_used+0x43>
    3048:	48 89 d6             	mov    %rdx,%rsi
    304b:	48 89 c7             	mov    %rax,%rdi
    304e:	e8 dd e2 ff ff       	call   1330 <strspn@plt>
    3053:	48 83 c0 08          	add    $0x8,%rax
    3057:	48 01 45 a0          	add    %rax,-0x60(%rbp)
/media/ssd-partition/Documents/RootCauseAnalysisPruning/evaluation/test_bin/22-ezXML/ezxml/ezxml.c:372
                s = (*s == '(') ? strchr(s, ')') : s + strcspn(s, EZXML_WS);
    305b:	48 8b 45 a0          	mov    -0x60(%rbp),%rax
    305f:	0f b6 00             	movzbl (%rax),%eax
    3062:	3c 28                	cmp    $0x28,%al
    3064:	75 13                	jne    3079 <ezxml_internal_dtd+0x576>
/media/ssd-partition/Documents/RootCauseAnalysisPruning/evaluation/test_bin/22-ezXML/ezxml/ezxml.c:372 (discriminator 1)
    3066:	48 8b 45 a0          	mov    -0x60(%rbp),%rax
    306a:	be 29 00 00 00       	mov    $0x29,%esi
    306f:	48 89 c7             	mov    %rax,%rdi
    3072:	e8 79 e2 ff ff       	call   12f0 <strchr@plt>
    3077:	eb 1d                	jmp    3096 <ezxml_internal_dtd+0x593>
/media/ssd-partition/Documents/RootCauseAnalysisPruning/evaluation/test_bin/22-ezXML/ezxml/ezxml.c:372 (discriminator 2)
    3079:	48 8b 45 a0          	mov    -0x60(%rbp),%rax
    307d:	48 8d 15 bf 3f 00 00 	lea    0x3fbf(%rip),%rdx        # 7043 <_IO_stdin_used+0x43>
    3084:	48 89 d6             	mov    %rdx,%rsi
    3087:	48 89 c7             	mov    %rax,%rdi
    308a:	e8 b1 e2 ff ff       	call   1340 <strcspn@plt>
    308f:	48 8b 55 a0          	mov    -0x60(%rbp),%rdx
    3093:	48 01 d0             	add    %rdx,%rax
/media/ssd-partition/Documents/RootCauseAnalysisPruning/evaluation/test_bin/22-ezXML/ezxml/ezxml.c:372 (discriminator 4)
    3096:	48 89 45 a0          	mov    %rax,-0x60(%rbp)
/media/ssd-partition/Documents/RootCauseAnalysisPruning/evaluation/test_bin/22-ezXML/ezxml/ezxml.c:373 (discriminator 4)
                if (! s) { ezxml_err(root, t, "malformed <!ATTLIST"); break; }
    309a:	48 83 7d a0 00       	cmpq   $0x0,-0x60(%rbp)
    309f:	75 24                	jne    30c5 <ezxml_internal_dtd+0x5c2>
/media/ssd-partition/Documents/RootCauseAnalysisPruning/evaluation/test_bin/22-ezXML/ezxml/ezxml.c:373 (discriminator 1)
    30a1:	48 8b 4d e0          	mov    -0x20(%rbp),%rcx
    30a5:	48 8b 45 a8          	mov    -0x58(%rbp),%rax
    30a9:	48 8d 15 0b 40 00 00 	lea    0x400b(%rip),%rdx        # 70bb <_IO_stdin_used+0xbb>
    30b0:	48 89 ce             	mov    %rcx,%rsi
    30b3:	48 89 c7             	mov    %rax,%rdi
    30b6:	b8 00 00 00 00       	mov    $0x0,%eax
    30bb:	e8 30 ea ff ff       	call   1af0 <ezxml_err>
    30c0:	e9 c3 04 00 00       	jmp    3588 <ezxml_internal_dtd+0xa85>
/media/ssd-partition/Documents/RootCauseAnalysisPruning/evaluation/test_bin/22-ezXML/ezxml/ezxml.c:375

                s += strspn(s, EZXML_WS ")"); // skip white space separator
    30c5:	48 8b 45 a0          	mov    -0x60(%rbp),%rax
    30c9:	48 8d 15 10 40 00 00 	lea    0x4010(%rip),%rdx        # 70e0 <_IO_stdin_used+0xe0>
    30d0:	48 89 d6             	mov    %rdx,%rsi
    30d3:	48 89 c7             	mov    %rax,%rdi
    30d6:	e8 55 e2 ff ff       	call   1330 <strspn@plt>
    30db:	48 01 45 a0          	add    %rax,-0x60(%rbp)
/media/ssd-partition/Documents/RootCauseAnalysisPruning/evaluation/test_bin/22-ezXML/ezxml/ezxml.c:376
                if (! strncmp(s, "#FIXED", 6))
    30df:	48 8b 45 a0          	mov    -0x60(%rbp),%rax
    30e3:	ba 06 00 00 00       	mov    $0x6,%edx
    30e8:	48 8d 0d f7 3f 00 00 	lea    0x3ff7(%rip),%rcx        # 70e6 <_IO_stdin_used+0xe6>
    30ef:	48 89 ce             	mov    %rcx,%rsi
    30f2:	48 89 c7             	mov    %rax,%rdi
    30f5:	e8 76 e1 ff ff       	call   1270 <strncmp@plt>
    30fa:	85 c0                	test   %eax,%eax
    30fc:	75 22                	jne    3120 <ezxml_internal_dtd+0x61d>
/media/ssd-partition/Documents/RootCauseAnalysisPruning/evaluation/test_bin/22-ezXML/ezxml/ezxml.c:377
                    s += strspn(s + 6, EZXML_WS) + 6;
    30fe:	48 8b 45 a0          	mov    -0x60(%rbp),%rax
    3102:	48 83 c0 06          	add    $0x6,%rax
    3106:	48 8d 15 36 3f 00 00 	lea    0x3f36(%rip),%rdx        # 7043 <_IO_stdin_used+0x43>
    310d:	48 89 d6             	mov    %rdx,%rsi
    3110:	48 89 c7             	mov    %rax,%rdi
    3113:	e8 18 e2 ff ff       	call   1330 <strspn@plt>
    3118:	48 83 c0 06          	add    $0x6,%rax
    311c:	48 01 45 a0          	add    %rax,-0x60(%rbp)
/media/ssd-partition/Documents/RootCauseAnalysisPruning/evaluation/test_bin/22-ezXML/ezxml/ezxml.c:378
                if (*s == '#') { // no default value
    3120:	48 8b 45 a0          	mov    -0x60(%rbp),%rax
    3124:	0f b6 00             	movzbl (%rax),%eax
    3127:	3c 23                	cmp    $0x23,%al
    3129:	75 38                	jne    3163 <ezxml_internal_dtd+0x660>
/media/ssd-partition/Documents/RootCauseAnalysisPruning/evaluation/test_bin/22-ezXML/ezxml/ezxml.c:379
                    s += strcspn(s, EZXML_WS ">") - 1;
    312b:	48 8b 45 a0          	mov    -0x60(%rbp),%rax
    312f:	48 8d 15 7f 3f 00 00 	lea    0x3f7f(%rip),%rdx        # 70b5 <_IO_stdin_used+0xb5>
    3136:	48 89 d6             	mov    %rdx,%rsi
    3139:	48 89 c7             	mov    %rax,%rdi
    313c:	e8 ff e1 ff ff       	call   1340 <strcspn@plt>
    3141:	48 83 e8 01          	sub    $0x1,%rax
    3145:	48 01 45 a0          	add    %rax,-0x60(%rbp)
/media/ssd-partition/Documents/RootCauseAnalysisPruning/evaluation/test_bin/22-ezXML/ezxml/ezxml.c:380
                    if (*c == ' ') continue; // cdata is default, nothing to do
    3149:	48 8b 45 d8          	mov    -0x28(%rbp),%rax
    314d:	0f b6 00             	movzbl (%rax),%eax
    3150:	3c 20                	cmp    $0x20,%al
    3152:	75 05                	jne    3159 <ezxml_internal_dtd+0x656>
/media/ssd-partition/Documents/RootCauseAnalysisPruning/evaluation/test_bin/22-ezXML/ezxml/ezxml.c:380 (discriminator 1)
    3154:	e9 eb 02 00 00       	jmp    3444 <ezxml_internal_dtd+0x941>
/media/ssd-partition/Documents/RootCauseAnalysisPruning/evaluation/test_bin/22-ezXML/ezxml/ezxml.c:381
                    v = NULL;
    3159:	48 c7 45 c8 00 00 00 	movq   $0x0,-0x38(%rbp)
    3160:	00 
    3161:	eb 72                	jmp    31d5 <ezxml_internal_dtd+0x6d2>
/media/ssd-partition/Documents/RootCauseAnalysisPruning/evaluation/test_bin/22-ezXML/ezxml/ezxml.c:383
                }
                else if ((*s == '"' || *s == '\'')  &&  // default value
    3163:	48 8b 45 a0          	mov    -0x60(%rbp),%rax
    3167:	0f b6 00             	movzbl (%rax),%eax
    316a:	3c 22                	cmp    $0x22,%al
    316c:	74 0b                	je     3179 <ezxml_internal_dtd+0x676>
/media/ssd-partition/Documents/RootCauseAnalysisPruning/evaluation/test_bin/22-ezXML/ezxml/ezxml.c:383 (discriminator 2)
    316e:	48 8b 45 a0          	mov    -0x60(%rbp),%rax
    3172:	0f b6 00             	movzbl (%rax),%eax
    3175:	3c 27                	cmp    $0x27,%al
    3177:	75 38                	jne    31b1 <ezxml_internal_dtd+0x6ae>
/media/ssd-partition/Documents/RootCauseAnalysisPruning/evaluation/test_bin/22-ezXML/ezxml/ezxml.c:384 (discriminator 3)
                         (s = strchr(v = s + 1, *s))) *s = '\0';
    3179:	48 8b 45 a0          	mov    -0x60(%rbp),%rax
    317d:	0f b6 00             	movzbl (%rax),%eax
    3180:	0f be d0             	movsbl %al,%edx
    3183:	48 8b 45 a0          	mov    -0x60(%rbp),%rax
    3187:	48 83 c0 01          	add    $0x1,%rax
    318b:	48 89 45 c8          	mov    %rax,-0x38(%rbp)
    318f:	48 8b 45 c8          	mov    -0x38(%rbp),%rax
    3193:	89 d6                	mov    %edx,%esi
    3195:	48 89 c7             	mov    %rax,%rdi
    3198:	e8 53 e1 ff ff       	call   12f0 <strchr@plt>
    319d:	48 89 45 a0          	mov    %rax,-0x60(%rbp)
/media/ssd-partition/Documents/RootCauseAnalysisPruning/evaluation/test_bin/22-ezXML/ezxml/ezxml.c:383 (discriminator 3)
                else if ((*s == '"' || *s == '\'')  &&  // default value
    31a1:	48 83 7d a0 00       	cmpq   $0x0,-0x60(%rbp)
    31a6:	74 09                	je     31b1 <ezxml_internal_dtd+0x6ae>
/media/ssd-partition/Documents/RootCauseAnalysisPruning/evaluation/test_bin/22-ezXML/ezxml/ezxml.c:384
                         (s = strchr(v = s + 1, *s))) *s = '\0';
    31a8:	48 8b 45 a0          	mov    -0x60(%rbp),%rax
    31ac:	c6 00 00             	movb   $0x0,(%rax)
    31af:	eb 24                	jmp    31d5 <ezxml_internal_dtd+0x6d2>
/media/ssd-partition/Documents/RootCauseAnalysisPruning/evaluation/test_bin/22-ezXML/ezxml/ezxml.c:385
                else { ezxml_err(root, t, "malformed <!ATTLIST"); break; }
    31b1:	48 8b 4d e0          	mov    -0x20(%rbp),%rcx
    31b5:	48 8b 45 a8          	mov    -0x58(%rbp),%rax
    31b9:	48 8d 15 fb 3e 00 00 	lea    0x3efb(%rip),%rdx        # 70bb <_IO_stdin_used+0xbb>
    31c0:	48 89 ce             	mov    %rcx,%rsi
    31c3:	48 89 c7             	mov    %rax,%rdi
    31c6:	b8 00 00 00 00       	mov    $0x0,%eax
    31cb:	e8 20 e9 ff ff       	call   1af0 <ezxml_err>
    31d0:	e9 b3 03 00 00       	jmp    3588 <ezxml_internal_dtd+0xa85>
/media/ssd-partition/Documents/RootCauseAnalysisPruning/evaluation/test_bin/22-ezXML/ezxml/ezxml.c:387

                if (! root->attr[i]) { // new tag name
    31d5:	48 8b 45 a8          	mov    -0x58(%rbp),%rax
    31d9:	48 8b 90 88 00 00 00 	mov    0x88(%rax),%rdx
    31e0:	8b 45 b8             	mov    -0x48(%rbp),%eax
    31e3:	48 98                	cltq   
    31e5:	48 c1 e0 03          	shl    $0x3,%rax
    31e9:	48 01 d0             	add    %rdx,%rax
    31ec:	48 8b 00             	mov    (%rax),%rax
    31ef:	48 85 c0             	test   %rax,%rax
    31f2:	0f 85 d0 00 00 00    	jne    32c8 <ezxml_internal_dtd+0x7c5>
/media/ssd-partition/Documents/RootCauseAnalysisPruning/evaluation/test_bin/22-ezXML/ezxml/ezxml.c:388
                    root->attr = (! i) ? malloc(2 * sizeof(char **))
    31f8:	83 7d b8 00          	cmpl   $0x0,-0x48(%rbp)
    31fc:	75 0c                	jne    320a <ezxml_internal_dtd+0x707>
/media/ssd-partition/Documents/RootCauseAnalysisPruning/evaluation/test_bin/22-ezXML/ezxml/ezxml.c:388 (discriminator 1)
    31fe:	bf 10 00 00 00       	mov    $0x10,%edi
    3203:	e8 98 e1 ff ff       	call   13a0 <malloc@plt>
    3208:	eb 26                	jmp    3230 <ezxml_internal_dtd+0x72d>
/media/ssd-partition/Documents/RootCauseAnalysisPruning/evaluation/test_bin/22-ezXML/ezxml/ezxml.c:390
                                       : realloc(root->attr,
                                                 (i + 2) * sizeof(char **));
    320a:	8b 45 b8             	mov    -0x48(%rbp),%eax
    320d:	83 c0 02             	add    $0x2,%eax
    3210:	48 98                	cltq   
/media/ssd-partition/Documents/RootCauseAnalysisPruning/evaluation/test_bin/22-ezXML/ezxml/ezxml.c:389
                                       : realloc(root->attr,
    3212:	48 8d 14 c5 00 00 00 	lea    0x0(,%rax,8),%rdx
    3219:	00 
    321a:	48 8b 45 a8          	mov    -0x58(%rbp),%rax
    321e:	48 8b 80 88 00 00 00 	mov    0x88(%rax),%rax
    3225:	48 89 d6             	mov    %rdx,%rsi
    3228:	48 89 c7             	mov    %rax,%rdi
    322b:	e8 80 e1 ff ff       	call   13b0 <realloc@plt>
/media/ssd-partition/Documents/RootCauseAnalysisPruning/evaluation/test_bin/22-ezXML/ezxml/ezxml.c:388 (discriminator 2)
                    root->attr = (! i) ? malloc(2 * sizeof(char **))
    3230:	48 8b 55 a8          	mov    -0x58(%rbp),%rdx
    3234:	48 89 82 88 00 00 00 	mov    %rax,0x88(%rdx)
/media/ssd-partition/Documents/RootCauseAnalysisPruning/evaluation/test_bin/22-ezXML/ezxml/ezxml.c:391 (discriminator 2)
                    root->attr[i] = malloc(2 * sizeof(char *));
    323b:	48 8b 45 a8          	mov    -0x58(%rbp),%rax
    323f:	48 8b 90 88 00 00 00 	mov    0x88(%rax),%rdx
    3246:	8b 45 b8             	mov    -0x48(%rbp),%eax
    3249:	48 98                	cltq   
    324b:	48 c1 e0 03          	shl    $0x3,%rax
    324f:	48 8d 1c 02          	lea    (%rdx,%rax,1),%rbx
    3253:	bf 10 00 00 00       	mov    $0x10,%edi
    3258:	e8 43 e1 ff ff       	call   13a0 <malloc@plt>
    325d:	48 89 03             	mov    %rax,(%rbx)
/media/ssd-partition/Documents/RootCauseAnalysisPruning/evaluation/test_bin/22-ezXML/ezxml/ezxml.c:392 (discriminator 2)
                    root->attr[i][0] = t; // set tag name
    3260:	48 8b 45 a8          	mov    -0x58(%rbp),%rax
    3264:	48 8b 90 88 00 00 00 	mov    0x88(%rax),%rdx
    326b:	8b 45 b8             	mov    -0x48(%rbp),%eax
    326e:	48 98                	cltq   
    3270:	48 c1 e0 03          	shl    $0x3,%rax
    3274:	48 01 d0             	add    %rdx,%rax
    3277:	48 8b 00             	mov    (%rax),%rax
    327a:	48 8b 55 e0          	mov    -0x20(%rbp),%rdx
    327e:	48 89 10             	mov    %rdx,(%rax)
/media/ssd-partition/Documents/RootCauseAnalysisPruning/evaluation/test_bin/22-ezXML/ezxml/ezxml.c:393 (discriminator 2)
                    root->attr[i][1] = (char *)(root->attr[i + 1] = NULL);
    3281:	48 8b 45 a8          	mov    -0x58(%rbp),%rax
    3285:	48 8b 90 88 00 00 00 	mov    0x88(%rax),%rdx
    328c:	8b 45 b8             	mov    -0x48(%rbp),%eax
    328f:	48 98                	cltq   
    3291:	48 83 c0 01          	add    $0x1,%rax
    3295:	48 c1 e0 03          	shl    $0x3,%rax
    3299:	48 01 d0             	add    %rdx,%rax
    329c:	48 c7 00 00 00 00 00 	movq   $0x0,(%rax)
    32a3:	48 8b 45 a8          	mov    -0x58(%rbp),%rax
    32a7:	48 8b 90 88 00 00 00 	mov    0x88(%rax),%rdx
    32ae:	8b 45 b8             	mov    -0x48(%rbp),%eax
    32b1:	48 98                	cltq   
    32b3:	48 c1 e0 03          	shl    $0x3,%rax
    32b7:	48 01 d0             	add    %rdx,%rax
    32ba:	48 8b 00             	mov    (%rax),%rax
    32bd:	48 83 c0 08          	add    $0x8,%rax
    32c1:	48 c7 00 00 00 00 00 	movq   $0x0,(%rax)
/media/ssd-partition/Documents/RootCauseAnalysisPruning/evaluation/test_bin/22-ezXML/ezxml/ezxml.c:396
                }

                for (j = 1; root->attr[i][j]; j += 3); // find end of list
    32c8:	c7 45 bc 01 00 00 00 	movl   $0x1,-0x44(%rbp)
    32cf:	eb 04                	jmp    32d5 <ezxml_internal_dtd+0x7d2>
/media/ssd-partition/Documents/RootCauseAnalysisPruning/evaluation/test_bin/22-ezXML/ezxml/ezxml.c:396 (discriminator 3)
    32d1:	83 45 bc 03          	addl   $0x3,-0x44(%rbp)
/media/ssd-partition/Documents/RootCauseAnalysisPruning/evaluation/test_bin/22-ezXML/ezxml/ezxml.c:396 (discriminator 1)
    32d5:	48 8b 45 a8          	mov    -0x58(%rbp),%rax
    32d9:	48 8b 90 88 00 00 00 	mov    0x88(%rax),%rdx
    32e0:	8b 45 b8             	mov    -0x48(%rbp),%eax
    32e3:	48 98                	cltq   
    32e5:	48 c1 e0 03          	shl    $0x3,%rax
    32e9:	48 01 d0             	add    %rdx,%rax
    32ec:	48 8b 10             	mov    (%rax),%rdx
    32ef:	8b 45 bc             	mov    -0x44(%rbp),%eax
    32f2:	48 98                	cltq   
    32f4:	48 c1 e0 03          	shl    $0x3,%rax
    32f8:	48 01 d0             	add    %rdx,%rax
    32fb:	48 8b 00             	mov    (%rax),%rax
    32fe:	48 85 c0             	test   %rax,%rax
    3301:	75 ce                	jne    32d1 <ezxml_internal_dtd+0x7ce>
/media/ssd-partition/Documents/RootCauseAnalysisPruning/evaluation/test_bin/22-ezXML/ezxml/ezxml.c:398
                root->attr[i] = realloc(root->attr[i],
                                        (j + 4) * sizeof(char *));
    3303:	8b 45 bc             	mov    -0x44(%rbp),%eax
    3306:	83 c0 04             	add    $0x4,%eax
    3309:	48 98                	cltq   
/media/ssd-partition/Documents/RootCauseAnalysisPruning/evaluation/test_bin/22-ezXML/ezxml/ezxml.c:397
                root->attr[i] = realloc(root->attr[i],
    330b:	48 8d 14 c5 00 00 00 	lea    0x0(,%rax,8),%rdx
    3312:	00 
    3313:	48 8b 45 a8          	mov    -0x58(%rbp),%rax
    3317:	48 8b 88 88 00 00 00 	mov    0x88(%rax),%rcx
    331e:	8b 45 b8             	mov    -0x48(%rbp),%eax
    3321:	48 98                	cltq   
    3323:	48 c1 e0 03          	shl    $0x3,%rax
    3327:	48 01 c8             	add    %rcx,%rax
    332a:	48 8b 00             	mov    (%rax),%rax
    332d:	48 8b 4d a8          	mov    -0x58(%rbp),%rcx
    3331:	48 8b b1 88 00 00 00 	mov    0x88(%rcx),%rsi
    3338:	8b 4d b8             	mov    -0x48(%rbp),%ecx
    333b:	48 63 c9             	movslq %ecx,%rcx
    333e:	48 c1 e1 03          	shl    $0x3,%rcx
    3342:	48 8d 1c 0e          	lea    (%rsi,%rcx,1),%rbx
    3346:	48 89 d6             	mov    %rdx,%rsi
    3349:	48 89 c7             	mov    %rax,%rdi
    334c:	e8 5f e0 ff ff       	call   13b0 <realloc@plt>
    3351:	48 89 03             	mov    %rax,(%rbx)
/media/ssd-partition/Documents/RootCauseAnalysisPruning/evaluation/test_bin/22-ezXML/ezxml/ezxml.c:400

                root->attr[i][j + 3] = NULL; // null terminate list
    3354:	48 8b 45 a8          	mov    -0x58(%rbp),%rax
    3358:	48 8b 90 88 00 00 00 	mov    0x88(%rax),%rdx
    335f:	8b 45 b8             	mov    -0x48(%rbp),%eax
    3362:	48 98                	cltq   
    3364:	48 c1 e0 03          	shl    $0x3,%rax
    3368:	48 01 d0             	add    %rdx,%rax
    336b:	48 8b 10             	mov    (%rax),%rdx
    336e:	8b 45 bc             	mov    -0x44(%rbp),%eax
    3371:	48 98                	cltq   
    3373:	48 83 c0 03          	add    $0x3,%rax
    3377:	48 c1 e0 03          	shl    $0x3,%rax
    337b:	48 01 d0             	add    %rdx,%rax
    337e:	48 c7 00 00 00 00 00 	movq   $0x0,(%rax)
/media/ssd-partition/Documents/RootCauseAnalysisPruning/evaluation/test_bin/22-ezXML/ezxml/ezxml.c:401
                root->attr[i][j + 2] = c; // is it cdata?
    3385:	48 8b 45 a8          	mov    -0x58(%rbp),%rax
    3389:	48 8b 90 88 00 00 00 	mov    0x88(%rax),%rdx
    3390:	8b 45 b8             	mov    -0x48(%rbp),%eax
    3393:	48 98                	cltq   
    3395:	48 c1 e0 03          	shl    $0x3,%rax
    3399:	48 01 d0             	add    %rdx,%rax
    339c:	48 8b 10             	mov    (%rax),%rdx
    339f:	8b 45 bc             	mov    -0x44(%rbp),%eax
    33a2:	48 98                	cltq   
    33a4:	48 83 c0 02          	add    $0x2,%rax
    33a8:	48 c1 e0 03          	shl    $0x3,%rax
    33ac:	48 01 c2             	add    %rax,%rdx
    33af:	48 8b 45 d8          	mov    -0x28(%rbp),%rax
    33b3:	48 89 02             	mov    %rax,(%rdx)
/media/ssd-partition/Documents/RootCauseAnalysisPruning/evaluation/test_bin/22-ezXML/ezxml/ezxml.c:403
                root->attr[i][j + 1] = (v) ? ezxml_decode(v, root->ent, *c)
                                           : NULL;
    33b6:	48 83 7d c8 00       	cmpq   $0x0,-0x38(%rbp)
    33bb:	74 26                	je     33e3 <ezxml_internal_dtd+0x8e0>
/media/ssd-partition/Documents/RootCauseAnalysisPruning/evaluation/test_bin/22-ezXML/ezxml/ezxml.c:402
                root->attr[i][j + 1] = (v) ? ezxml_decode(v, root->ent, *c)
    33bd:	48 8b 45 d8          	mov    -0x28(%rbp),%rax
    33c1:	0f b6 00             	movzbl (%rax),%eax
    33c4:	0f be d0             	movsbl %al,%edx
    33c7:	48 8b 45 a8          	mov    -0x58(%rbp),%rax
    33cb:	48 8b 88 80 00 00 00 	mov    0x80(%rax),%rcx
    33d2:	48 8b 45 c8          	mov    -0x38(%rbp),%rax
    33d6:	48 89 ce             	mov    %rcx,%rsi
    33d9:	48 89 c7             	mov    %rax,%rdi
    33dc:	e8 74 e8 ff ff       	call   1c55 <ezxml_decode>
    33e1:	eb 05                	jmp    33e8 <ezxml_internal_dtd+0x8e5>
/media/ssd-partition/Documents/RootCauseAnalysisPruning/evaluation/test_bin/22-ezXML/ezxml/ezxml.c:403 (discriminator 1)
                                           : NULL;
    33e3:	b8 00 00 00 00       	mov    $0x0,%eax
/media/ssd-partition/Documents/RootCauseAnalysisPruning/evaluation/test_bin/22-ezXML/ezxml/ezxml.c:402 (discriminator 1)
                root->attr[i][j + 1] = (v) ? ezxml_decode(v, root->ent, *c)
    33e8:	48 8b 55 a8          	mov    -0x58(%rbp),%rdx
    33ec:	48 8b 8a 88 00 00 00 	mov    0x88(%rdx),%rcx
    33f3:	8b 55 b8             	mov    -0x48(%rbp),%edx
    33f6:	48 63 d2             	movslq %edx,%rdx
    33f9:	48 c1 e2 03          	shl    $0x3,%rdx
    33fd:	48 01 ca             	add    %rcx,%rdx
    3400:	48 8b 0a             	mov    (%rdx),%rcx
    3403:	8b 55 bc             	mov    -0x44(%rbp),%edx
    3406:	48 63 d2             	movslq %edx,%rdx
    3409:	48 83 c2 01          	add    $0x1,%rdx
    340d:	48 c1 e2 03          	shl    $0x3,%rdx
    3411:	48 01 ca             	add    %rcx,%rdx
    3414:	48 89 02             	mov    %rax,(%rdx)
/media/ssd-partition/Documents/RootCauseAnalysisPruning/evaluation/test_bin/22-ezXML/ezxml/ezxml.c:404 (discriminator 1)
                root->attr[i][j] = n; // attribute name 
    3417:	48 8b 45 a8          	mov    -0x58(%rbp),%rax
    341b:	48 8b 90 88 00 00 00 	mov    0x88(%rax),%rdx
    3422:	8b 45 b8             	mov    -0x48(%rbp),%eax
    3425:	48 98                	cltq   
    3427:	48 c1 e0 03          	shl    $0x3,%rax
    342b:	48 01 d0             	add    %rdx,%rax
    342e:	48 8b 10             	mov    (%rax),%rdx
    3431:	8b 45 bc             	mov    -0x44(%rbp),%eax
    3434:	48 98                	cltq   
    3436:	48 c1 e0 03          	shl    $0x3,%rax
    343a:	48 01 c2             	add    %rax,%rdx
    343d:	48 8b 45 c0          	mov    -0x40(%rbp),%rax
    3441:	48 89 02             	mov    %rax,(%rdx)
/media/ssd-partition/Documents/RootCauseAnalysisPruning/evaluation/test_bin/22-ezXML/ezxml/ezxml.c:364
            while (*(n = ++s + strspn(s, EZXML_WS)) && *n != '>') {
    3444:	48 83 45 a0 01       	addq   $0x1,-0x60(%rbp)
    3449:	48 8b 45 a0          	mov    -0x60(%rbp),%rax
    344d:	48 8d 15 ef 3b 00 00 	lea    0x3bef(%rip),%rdx        # 7043 <_IO_stdin_used+0x43>
    3454:	48 89 d6             	mov    %rdx,%rsi
    3457:	48 89 c7             	mov    %rax,%rdi
    345a:	e8 d1 de ff ff       	call   1330 <strspn@plt>
    345f:	48 8b 55 a0          	mov    -0x60(%rbp),%rdx
    3463:	48 01 d0             	add    %rdx,%rax
    3466:	48 89 45 c0          	mov    %rax,-0x40(%rbp)
    346a:	48 8b 45 c0          	mov    -0x40(%rbp),%rax
    346e:	0f b6 00             	movzbl (%rax),%eax
    3471:	84 c0                	test   %al,%al
    3473:	0f 84 0f 01 00 00    	je     3588 <ezxml_internal_dtd+0xa85>
/media/ssd-partition/Documents/RootCauseAnalysisPruning/evaluation/test_bin/22-ezXML/ezxml/ezxml.c:364 (discriminator 1)
    3479:	48 8b 45 c0          	mov    -0x40(%rbp),%rax
    347d:	0f b6 00             	movzbl (%rax),%eax
    3480:	3c 3e                	cmp    $0x3e,%al
    3482:	0f 85 e4 fa ff ff    	jne    2f6c <ezxml_internal_dtd+0x469>
    3488:	e9 fb 00 00 00       	jmp    3588 <ezxml_internal_dtd+0xa85>
/media/ssd-partition/Documents/RootCauseAnalysisPruning/evaluation/test_bin/22-ezXML/ezxml/ezxml.c:407
            }
        }
        else if (! strncmp(s, "<!--", 4)) s = strstr(s + 4, "-->"); // comments
    348d:	48 8b 45 a0          	mov    -0x60(%rbp),%rax
    3491:	ba 04 00 00 00       	mov    $0x4,%edx
    3496:	48 8d 0d 50 3c 00 00 	lea    0x3c50(%rip),%rcx        # 70ed <_IO_stdin_used+0xed>
    349d:	48 89 ce             	mov    %rcx,%rsi
    34a0:	48 89 c7             	mov    %rax,%rdi
    34a3:	e8 c8 dd ff ff       	call   1270 <strncmp@plt>
    34a8:	85 c0                	test   %eax,%eax
    34aa:	75 23                	jne    34cf <ezxml_internal_dtd+0x9cc>
/media/ssd-partition/Documents/RootCauseAnalysisPruning/evaluation/test_bin/22-ezXML/ezxml/ezxml.c:407 (discriminator 1)
    34ac:	48 8b 45 a0          	mov    -0x60(%rbp),%rax
    34b0:	48 83 c0 04          	add    $0x4,%rax
    34b4:	48 8d 15 37 3c 00 00 	lea    0x3c37(%rip),%rdx        # 70f2 <_IO_stdin_used+0xf2>
    34bb:	48 89 d6             	mov    %rdx,%rsi
    34be:	48 89 c7             	mov    %rax,%rdi
    34c1:	e8 7a df ff ff       	call   1440 <strstr@plt>
    34c6:	48 89 45 a0          	mov    %rax,-0x60(%rbp)
    34ca:	e9 b9 00 00 00       	jmp    3588 <ezxml_internal_dtd+0xa85>
/media/ssd-partition/Documents/RootCauseAnalysisPruning/evaluation/test_bin/22-ezXML/ezxml/ezxml.c:408
        else if (! strncmp(s, "<?", 2)) { // processing instructions
    34cf:	48 8b 45 a0          	mov    -0x60(%rbp),%rax
    34d3:	ba 02 00 00 00       	mov    $0x2,%edx
    34d8:	48 8d 0d 17 3c 00 00 	lea    0x3c17(%rip),%rcx        # 70f6 <_IO_stdin_used+0xf6>
    34df:	48 89 ce             	mov    %rcx,%rsi
    34e2:	48 89 c7             	mov    %rax,%rdi
    34e5:	e8 86 dd ff ff       	call   1270 <strncmp@plt>
    34ea:	85 c0                	test   %eax,%eax
    34ec:	75 55                	jne    3543 <ezxml_internal_dtd+0xa40>
/media/ssd-partition/Documents/RootCauseAnalysisPruning/evaluation/test_bin/22-ezXML/ezxml/ezxml.c:409
            if ((s = strstr(c = s + 2, "?>")))
    34ee:	48 8b 45 a0          	mov    -0x60(%rbp),%rax
    34f2:	48 83 c0 02          	add    $0x2,%rax
    34f6:	48 89 45 d8          	mov    %rax,-0x28(%rbp)
    34fa:	48 8b 45 d8          	mov    -0x28(%rbp),%rax
    34fe:	48 8d 15 f4 3b 00 00 	lea    0x3bf4(%rip),%rdx        # 70f9 <_IO_stdin_used+0xf9>
    3505:	48 89 d6             	mov    %rdx,%rsi
    3508:	48 89 c7             	mov    %rax,%rdi
    350b:	e8 30 df ff ff       	call   1440 <strstr@plt>
    3510:	48 89 45 a0          	mov    %rax,-0x60(%rbp)
    3514:	48 83 7d a0 00       	cmpq   $0x0,-0x60(%rbp)
    3519:	74 6d                	je     3588 <ezxml_internal_dtd+0xa85>
/media/ssd-partition/Documents/RootCauseAnalysisPruning/evaluation/test_bin/22-ezXML/ezxml/ezxml.c:410
                ezxml_proc_inst(root, c, s++ - c);
    351b:	48 8b 45 a0          	mov    -0x60(%rbp),%rax
    351f:	48 8d 50 01          	lea    0x1(%rax),%rdx
    3523:	48 89 55 a0          	mov    %rdx,-0x60(%rbp)
    3527:	48 2b 45 d8          	sub    -0x28(%rbp),%rax
    352b:	48 89 c2             	mov    %rax,%rdx
    352e:	48 8b 4d d8          	mov    -0x28(%rbp),%rcx
    3532:	48 8b 45 a8          	mov    -0x58(%rbp),%rax
    3536:	48 89 ce             	mov    %rcx,%rsi
    3539:	48 89 c7             	mov    %rax,%rdi
    353c:	e8 3f f1 ff ff       	call   2680 <ezxml_proc_inst>
    3541:	eb 45                	jmp    3588 <ezxml_internal_dtd+0xa85>
/media/ssd-partition/Documents/RootCauseAnalysisPruning/evaluation/test_bin/22-ezXML/ezxml/ezxml.c:412
        }
        else if (*s == '<') s = strchr(s, '>'); // skip other declarations
    3543:	48 8b 45 a0          	mov    -0x60(%rbp),%rax
    3547:	0f b6 00             	movzbl (%rax),%eax
    354a:	3c 3c                	cmp    $0x3c,%al
    354c:	75 17                	jne    3565 <ezxml_internal_dtd+0xa62>
/media/ssd-partition/Documents/RootCauseAnalysisPruning/evaluation/test_bin/22-ezXML/ezxml/ezxml.c:412 (discriminator 1)
    354e:	48 8b 45 a0          	mov    -0x60(%rbp),%rax
    3552:	be 3e 00 00 00       	mov    $0x3e,%esi
    3557:	48 89 c7             	mov    %rax,%rdi
    355a:	e8 91 dd ff ff       	call   12f0 <strchr@plt>
    355f:	48 89 45 a0          	mov    %rax,-0x60(%rbp)
    3563:	eb 23                	jmp    3588 <ezxml_internal_dtd+0xa85>
/media/ssd-partition/Documents/RootCauseAnalysisPruning/evaluation/test_bin/22-ezXML/ezxml/ezxml.c:413
        else if (*(s++) == '%' && ! root->standalone) break;
    3565:	48 8b 45 a0          	mov    -0x60(%rbp),%rax
    3569:	48 8d 50 01          	lea    0x1(%rax),%rdx
    356d:	48 89 55 a0          	mov    %rdx,-0x60(%rbp)
    3571:	0f b6 00             	movzbl (%rax),%eax
    3574:	3c 25                	cmp    $0x25,%al
    3576:	75 10                	jne    3588 <ezxml_internal_dtd+0xa85>
/media/ssd-partition/Documents/RootCauseAnalysisPruning/evaluation/test_bin/22-ezXML/ezxml/ezxml.c:413 (discriminator 1)
    3578:	48 8b 45 a8          	mov    -0x58(%rbp),%rax
    357c:	0f b7 80 98 00 00 00 	movzwl 0x98(%rax),%eax
    3583:	66 85 c0             	test   %ax,%ax
    3586:	74 10                	je     3598 <ezxml_internal_dtd+0xa95>
/media/ssd-partition/Documents/RootCauseAnalysisPruning/evaluation/test_bin/22-ezXML/ezxml/ezxml.c:326 (discriminator 1)
    for (s[len] = '\0'; s; ) {
    3588:	48 83 7d a0 00       	cmpq   $0x0,-0x60(%rbp)
    358d:	0f 85 c1 f5 ff ff    	jne    2b54 <ezxml_internal_dtd+0x51>
    3593:	eb 04                	jmp    3599 <ezxml_internal_dtd+0xa96>
/media/ssd-partition/Documents/RootCauseAnalysisPruning/evaluation/test_bin/22-ezXML/ezxml/ezxml.c:329
        if (! *s) break;
    3595:	90                   	nop
    3596:	eb 01                	jmp    3599 <ezxml_internal_dtd+0xa96>
/media/ssd-partition/Documents/RootCauseAnalysisPruning/evaluation/test_bin/22-ezXML/ezxml/ezxml.c:413
        else if (*(s++) == '%' && ! root->standalone) break;
    3598:	90                   	nop
/media/ssd-partition/Documents/RootCauseAnalysisPruning/evaluation/test_bin/22-ezXML/ezxml/ezxml.c:416
    }

    free(pe);
    3599:	48 8b 45 d0          	mov    -0x30(%rbp),%rax
    359d:	48 89 c7             	mov    %rax,%rdi
    35a0:	e8 ab dc ff ff       	call   1250 <free@plt>
/media/ssd-partition/Documents/RootCauseAnalysisPruning/evaluation/test_bin/22-ezXML/ezxml/ezxml.c:417
    return ! *root->err;
    35a5:	48 8b 45 a8          	mov    -0x58(%rbp),%rax
    35a9:	0f b6 80 9a 00 00 00 	movzbl 0x9a(%rax),%eax
    35b0:	84 c0                	test   %al,%al
    35b2:	0f 94 c0             	sete   %al
    35b5:	0f b6 c0             	movzbl %al,%eax
/media/ssd-partition/Documents/RootCauseAnalysisPruning/evaluation/test_bin/22-ezXML/ezxml/ezxml.c:418
}
    35b8:	48 8b 5d f8          	mov    -0x8(%rbp),%rbx
    35bc:	c9                   	leave  
    35bd:	c3                   	ret    

00000000000035be <ezxml_str2utf8>:
ezxml_str2utf8():
/media/ssd-partition/Documents/RootCauseAnalysisPruning/evaluation/test_bin/22-ezXML/ezxml/ezxml.c:423

// Converts a UTF-16 string to UTF-8. Returns a new string that must be freed
// or NULL if no conversion was needed.
char *ezxml_str2utf8(char **s, size_t *len)
{
    35be:	f3 0f 1e fa          	endbr64 
    35c2:	55                   	push   %rbp
    35c3:	48 89 e5             	mov    %rsp,%rbp
    35c6:	48 83 ec 50          	sub    $0x50,%rsp
    35ca:	48 89 7d b8          	mov    %rdi,-0x48(%rbp)
    35ce:	48 89 75 b0          	mov    %rsi,-0x50(%rbp)
/media/ssd-partition/Documents/RootCauseAnalysisPruning/evaluation/test_bin/22-ezXML/ezxml/ezxml.c:425
    char *u;
    size_t l = 0, sl, max = *len;
    35d2:	48 c7 45 d8 00 00 00 	movq   $0x0,-0x28(%rbp)
    35d9:	00 
    35da:	48 8b 45 b0          	mov    -0x50(%rbp),%rax
    35de:	48 8b 00             	mov    (%rax),%rax
    35e1:	48 89 45 e8          	mov    %rax,-0x18(%rbp)
/media/ssd-partition/Documents/RootCauseAnalysisPruning/evaluation/test_bin/22-ezXML/ezxml/ezxml.c:427
    long c, d;
    int b, be = (**s == '\xFE') ? 1 : (**s == '\xFF') ? 0 : -1;
    35e5:	48 8b 45 b8          	mov    -0x48(%rbp),%rax
    35e9:	48 8b 00             	mov    (%rax),%rax
    35ec:	0f b6 00             	movzbl (%rax),%eax
    35ef:	3c fe                	cmp    $0xfe,%al
    35f1:	74 1c                	je     360f <ezxml_str2utf8+0x51>
/media/ssd-partition/Documents/RootCauseAnalysisPruning/evaluation/test_bin/22-ezXML/ezxml/ezxml.c:427 (discriminator 1)
    35f3:	48 8b 45 b8          	mov    -0x48(%rbp),%rax
    35f7:	48 8b 00             	mov    (%rax),%rax
    35fa:	0f b6 00             	movzbl (%rax),%eax
    35fd:	3c ff                	cmp    $0xff,%al
    35ff:	75 07                	jne    3608 <ezxml_str2utf8+0x4a>
/media/ssd-partition/Documents/RootCauseAnalysisPruning/evaluation/test_bin/22-ezXML/ezxml/ezxml.c:427 (discriminator 3)
    3601:	b8 00 00 00 00       	mov    $0x0,%eax
    3606:	eb 0c                	jmp    3614 <ezxml_str2utf8+0x56>
/media/ssd-partition/Documents/RootCauseAnalysisPruning/evaluation/test_bin/22-ezXML/ezxml/ezxml.c:427 (discriminator 4)
    3608:	b8 ff ff ff ff       	mov    $0xffffffff,%eax
    360d:	eb 05                	jmp    3614 <ezxml_str2utf8+0x56>
/media/ssd-partition/Documents/RootCauseAnalysisPruning/evaluation/test_bin/22-ezXML/ezxml/ezxml.c:427 (discriminator 2)
    360f:	b8 01 00 00 00       	mov    $0x1,%eax
/media/ssd-partition/Documents/RootCauseAnalysisPruning/evaluation/test_bin/22-ezXML/ezxml/ezxml.c:427 (discriminator 8)
    3614:	89 45 cc             	mov    %eax,-0x34(%rbp)
/media/ssd-partition/Documents/RootCauseAnalysisPruning/evaluation/test_bin/22-ezXML/ezxml/ezxml.c:429 (discriminator 8)

    if (be == -1) return NULL; // not UTF-16
    3617:	83 7d cc ff          	cmpl   $0xffffffff,-0x34(%rbp)
    361b:	75 0a                	jne    3627 <ezxml_str2utf8+0x69>
/media/ssd-partition/Documents/RootCauseAnalysisPruning/evaluation/test_bin/22-ezXML/ezxml/ezxml.c:429 (discriminator 1)
    361d:	b8 00 00 00 00       	mov    $0x0,%eax
    3622:	e9 ec 02 00 00       	jmp    3913 <ezxml_str2utf8+0x355>
/media/ssd-partition/Documents/RootCauseAnalysisPruning/evaluation/test_bin/22-ezXML/ezxml/ezxml.c:431

    u = malloc(max);
    3627:	48 8b 45 e8          	mov    -0x18(%rbp),%rax
    362b:	48 89 c7             	mov    %rax,%rdi
    362e:	e8 6d dd ff ff       	call   13a0 <malloc@plt>
    3633:	48 89 45 d0          	mov    %rax,-0x30(%rbp)
/media/ssd-partition/Documents/RootCauseAnalysisPruning/evaluation/test_bin/22-ezXML/ezxml/ezxml.c:432
    for (sl = 2; sl < *len - 1; sl += 2) {
    3637:	48 c7 45 e0 02 00 00 	movq   $0x2,-0x20(%rbp)
    363e:	00 
    363f:	e9 8b 02 00 00       	jmp    38cf <ezxml_str2utf8+0x311>
/media/ssd-partition/Documents/RootCauseAnalysisPruning/evaluation/test_bin/22-ezXML/ezxml/ezxml.c:434
        c = (be) ? (((*s)[sl] & 0xFF) << 8) | ((*s)[sl + 1] & 0xFF)  //UTF-16BE
                 : (((*s)[sl + 1] & 0xFF) << 8) | ((*s)[sl] & 0xFF); //UTF-16LE
    3644:	83 7d cc 00          	cmpl   $0x0,-0x34(%rbp)
    3648:	74 3b                	je     3685 <ezxml_str2utf8+0xc7>
/media/ssd-partition/Documents/RootCauseAnalysisPruning/evaluation/test_bin/22-ezXML/ezxml/ezxml.c:433 (discriminator 1)
        c = (be) ? (((*s)[sl] & 0xFF) << 8) | ((*s)[sl + 1] & 0xFF)  //UTF-16BE
    364a:	48 8b 45 b8          	mov    -0x48(%rbp),%rax
    364e:	48 8b 10             	mov    (%rax),%rdx
    3651:	48 8b 45 e0          	mov    -0x20(%rbp),%rax
    3655:	48 01 d0             	add    %rdx,%rax
    3658:	0f b6 00             	movzbl (%rax),%eax
    365b:	0f be c0             	movsbl %al,%eax
    365e:	c1 e0 08             	shl    $0x8,%eax
    3661:	0f b7 d0             	movzwl %ax,%edx
    3664:	48 8b 45 b8          	mov    -0x48(%rbp),%rax
    3668:	48 8b 08             	mov    (%rax),%rcx
    366b:	48 8b 45 e0          	mov    -0x20(%rbp),%rax
    366f:	48 83 c0 01          	add    $0x1,%rax
    3673:	48 01 c8             	add    %rcx,%rax
    3676:	0f b6 00             	movzbl (%rax),%eax
    3679:	0f be c0             	movsbl %al,%eax
    367c:	0f b6 c0             	movzbl %al,%eax
    367f:	09 d0                	or     %edx,%eax
/media/ssd-partition/Documents/RootCauseAnalysisPruning/evaluation/test_bin/22-ezXML/ezxml/ezxml.c:434 (discriminator 1)
                 : (((*s)[sl + 1] & 0xFF) << 8) | ((*s)[sl] & 0xFF); //UTF-16LE
    3681:	48 98                	cltq   
    3683:	eb 39                	jmp    36be <ezxml_str2utf8+0x100>
/media/ssd-partition/Documents/RootCauseAnalysisPruning/evaluation/test_bin/22-ezXML/ezxml/ezxml.c:434 (discriminator 2)
    3685:	48 8b 45 b8          	mov    -0x48(%rbp),%rax
    3689:	48 8b 10             	mov    (%rax),%rdx
    368c:	48 8b 45 e0          	mov    -0x20(%rbp),%rax
    3690:	48 83 c0 01          	add    $0x1,%rax
    3694:	48 01 d0             	add    %rdx,%rax
    3697:	0f b6 00             	movzbl (%rax),%eax
    369a:	0f be c0             	movsbl %al,%eax
    369d:	c1 e0 08             	shl    $0x8,%eax
    36a0:	0f b7 d0             	movzwl %ax,%edx
    36a3:	48 8b 45 b8          	mov    -0x48(%rbp),%rax
    36a7:	48 8b 08             	mov    (%rax),%rcx
    36aa:	48 8b 45 e0          	mov    -0x20(%rbp),%rax
    36ae:	48 01 c8             	add    %rcx,%rax
    36b1:	0f b6 00             	movzbl (%rax),%eax
    36b4:	0f be c0             	movsbl %al,%eax
    36b7:	0f b6 c0             	movzbl %al,%eax
    36ba:	09 d0                	or     %edx,%eax
    36bc:	48 98                	cltq   
/media/ssd-partition/Documents/RootCauseAnalysisPruning/evaluation/test_bin/22-ezXML/ezxml/ezxml.c:433
        c = (be) ? (((*s)[sl] & 0xFF) << 8) | ((*s)[sl + 1] & 0xFF)  //UTF-16BE
    36be:	48 89 45 f0          	mov    %rax,-0x10(%rbp)
/media/ssd-partition/Documents/RootCauseAnalysisPruning/evaluation/test_bin/22-ezXML/ezxml/ezxml.c:435
        if (c >= 0xD800 && c <= 0xDFFF && (sl += 2) < *len - 1) { // high-half
    36c2:	48 81 7d f0 ff d7 00 	cmpq   $0xd7ff,-0x10(%rbp)
    36c9:	00 
    36ca:	0f 8e ed 00 00 00    	jle    37bd <ezxml_str2utf8+0x1ff>
/media/ssd-partition/Documents/RootCauseAnalysisPruning/evaluation/test_bin/22-ezXML/ezxml/ezxml.c:435 (discriminator 1)
    36d0:	48 81 7d f0 ff df 00 	cmpq   $0xdfff,-0x10(%rbp)
    36d7:	00 
    36d8:	0f 8f df 00 00 00    	jg     37bd <ezxml_str2utf8+0x1ff>
/media/ssd-partition/Documents/RootCauseAnalysisPruning/evaluation/test_bin/22-ezXML/ezxml/ezxml.c:435 (discriminator 2)
    36de:	48 83 45 e0 02       	addq   $0x2,-0x20(%rbp)
    36e3:	48 8b 45 b0          	mov    -0x50(%rbp),%rax
    36e7:	48 8b 00             	mov    (%rax),%rax
    36ea:	48 83 e8 01          	sub    $0x1,%rax
    36ee:	48 39 45 e0          	cmp    %rax,-0x20(%rbp)
    36f2:	0f 83 c5 00 00 00    	jae    37bd <ezxml_str2utf8+0x1ff>
/media/ssd-partition/Documents/RootCauseAnalysisPruning/evaluation/test_bin/22-ezXML/ezxml/ezxml.c:437
            d = (be) ? (((*s)[sl] & 0xFF) << 8) | ((*s)[sl + 1] & 0xFF)
                     : (((*s)[sl + 1] & 0xFF) << 8) | ((*s)[sl] & 0xFF);
    36f8:	83 7d cc 00          	cmpl   $0x0,-0x34(%rbp)
    36fc:	74 3b                	je     3739 <ezxml_str2utf8+0x17b>
/media/ssd-partition/Documents/RootCauseAnalysisPruning/evaluation/test_bin/22-ezXML/ezxml/ezxml.c:436 (discriminator 1)
            d = (be) ? (((*s)[sl] & 0xFF) << 8) | ((*s)[sl + 1] & 0xFF)
    36fe:	48 8b 45 b8          	mov    -0x48(%rbp),%rax
    3702:	48 8b 10             	mov    (%rax),%rdx
    3705:	48 8b 45 e0          	mov    -0x20(%rbp),%rax
    3709:	48 01 d0             	add    %rdx,%rax
    370c:	0f b6 00             	movzbl (%rax),%eax
    370f:	0f be c0             	movsbl %al,%eax
    3712:	c1 e0 08             	shl    $0x8,%eax
    3715:	0f b7 d0             	movzwl %ax,%edx
    3718:	48 8b 45 b8          	mov    -0x48(%rbp),%rax
    371c:	48 8b 08             	mov    (%rax),%rcx
    371f:	48 8b 45 e0          	mov    -0x20(%rbp),%rax
    3723:	48 83 c0 01          	add    $0x1,%rax
    3727:	48 01 c8             	add    %rcx,%rax
    372a:	0f b6 00             	movzbl (%rax),%eax
    372d:	0f be c0             	movsbl %al,%eax
    3730:	0f b6 c0             	movzbl %al,%eax
    3733:	09 d0                	or     %edx,%eax
/media/ssd-partition/Documents/RootCauseAnalysisPruning/evaluation/test_bin/22-ezXML/ezxml/ezxml.c:437 (discriminator 1)
                     : (((*s)[sl + 1] & 0xFF) << 8) | ((*s)[sl] & 0xFF);
    3735:	48 98                	cltq   
    3737:	eb 39                	jmp    3772 <ezxml_str2utf8+0x1b4>
/media/ssd-partition/Documents/RootCauseAnalysisPruning/evaluation/test_bin/22-ezXML/ezxml/ezxml.c:437 (discriminator 2)
    3739:	48 8b 45 b8          	mov    -0x48(%rbp),%rax
    373d:	48 8b 10             	mov    (%rax),%rdx
    3740:	48 8b 45 e0          	mov    -0x20(%rbp),%rax
    3744:	48 83 c0 01          	add    $0x1,%rax
    3748:	48 01 d0             	add    %rdx,%rax
    374b:	0f b6 00             	movzbl (%rax),%eax
    374e:	0f be c0             	movsbl %al,%eax
    3751:	c1 e0 08             	shl    $0x8,%eax
    3754:	0f b7 d0             	movzwl %ax,%edx
    3757:	48 8b 45 b8          	mov    -0x48(%rbp),%rax
    375b:	48 8b 08             	mov    (%rax),%rcx
    375e:	48 8b 45 e0          	mov    -0x20(%rbp),%rax
    3762:	48 01 c8             	add    %rcx,%rax
    3765:	0f b6 00             	movzbl (%rax),%eax
    3768:	0f be c0             	movsbl %al,%eax
    376b:	0f b6 c0             	movzbl %al,%eax
    376e:	09 d0                	or     %edx,%eax
    3770:	48 98                	cltq   
/media/ssd-partition/Documents/RootCauseAnalysisPruning/evaluation/test_bin/22-ezXML/ezxml/ezxml.c:436
            d = (be) ? (((*s)[sl] & 0xFF) << 8) | ((*s)[sl + 1] & 0xFF)
    3772:	48 89 45 f8          	mov    %rax,-0x8(%rbp)
/media/ssd-partition/Documents/RootCauseAnalysisPruning/evaluation/test_bin/22-ezXML/ezxml/ezxml.c:438
            c = (((c & 0x3FF) << 10) | (d & 0x3FF)) + 0x10000;
    3776:	48 8b 45 f0          	mov    -0x10(%rbp),%rax
    377a:	48 c1 e0 0a          	shl    $0xa,%rax
    377e:	25 00 fc 0f 00       	and    $0xffc00,%eax
    3783:	48 89 c2             	mov    %rax,%rdx
    3786:	48 8b 45 f8          	mov    -0x8(%rbp),%rax
    378a:	25 ff 03 00 00       	and    $0x3ff,%eax
    378f:	48 09 d0             	or     %rdx,%rax
    3792:	48 05 00 00 01 00    	add    $0x10000,%rax
    3798:	48 89 45 f0          	mov    %rax,-0x10(%rbp)
/media/ssd-partition/Documents/RootCauseAnalysisPruning/evaluation/test_bin/22-ezXML/ezxml/ezxml.c:441
        }

        while (l + 6 > max) u = realloc(u, max += EZXML_BUFSIZE);
    379c:	eb 1f                	jmp    37bd <ezxml_str2utf8+0x1ff>
/media/ssd-partition/Documents/RootCauseAnalysisPruning/evaluation/test_bin/22-ezXML/ezxml/ezxml.c:441 (discriminator 2)
    379e:	48 81 45 e8 00 04 00 	addq   $0x400,-0x18(%rbp)
    37a5:	00 
    37a6:	48 8b 55 e8          	mov    -0x18(%rbp),%rdx
    37aa:	48 8b 45 d0          	mov    -0x30(%rbp),%rax
    37ae:	48 89 d6             	mov    %rdx,%rsi
    37b1:	48 89 c7             	mov    %rax,%rdi
    37b4:	e8 f7 db ff ff       	call   13b0 <realloc@plt>
    37b9:	48 89 45 d0          	mov    %rax,-0x30(%rbp)
/media/ssd-partition/Documents/RootCauseAnalysisPruning/evaluation/test_bin/22-ezXML/ezxml/ezxml.c:441 (discriminator 1)
    37bd:	48 8b 45 d8          	mov    -0x28(%rbp),%rax
    37c1:	48 83 c0 06          	add    $0x6,%rax
    37c5:	48 39 45 e8          	cmp    %rax,-0x18(%rbp)
    37c9:	72 d3                	jb     379e <ezxml_str2utf8+0x1e0>
/media/ssd-partition/Documents/RootCauseAnalysisPruning/evaluation/test_bin/22-ezXML/ezxml/ezxml.c:442
        if (c < 0x80) u[l++] = c; // US-ASCII subset
    37cb:	48 83 7d f0 7f       	cmpq   $0x7f,-0x10(%rbp)
    37d0:	7f 1e                	jg     37f0 <ezxml_str2utf8+0x232>
/media/ssd-partition/Documents/RootCauseAnalysisPruning/evaluation/test_bin/22-ezXML/ezxml/ezxml.c:442 (discriminator 1)
    37d2:	48 8b 45 d8          	mov    -0x28(%rbp),%rax
    37d6:	48 8d 50 01          	lea    0x1(%rax),%rdx
    37da:	48 89 55 d8          	mov    %rdx,-0x28(%rbp)
    37de:	48 8b 55 d0          	mov    -0x30(%rbp),%rdx
    37e2:	48 01 d0             	add    %rdx,%rax
    37e5:	48 8b 55 f0          	mov    -0x10(%rbp),%rdx
    37e9:	88 10                	mov    %dl,(%rax)
    37eb:	e9 da 00 00 00       	jmp    38ca <ezxml_str2utf8+0x30c>
/media/ssd-partition/Documents/RootCauseAnalysisPruning/evaluation/test_bin/22-ezXML/ezxml/ezxml.c:444
        else { // multi-byte UTF-8 sequence
            for (b = 0, d = c; d; d /= 2) b++; // bits in c
    37f0:	c7 45 c8 00 00 00 00 	movl   $0x0,-0x38(%rbp)
    37f7:	48 8b 45 f0          	mov    -0x10(%rbp),%rax
    37fb:	48 89 45 f8          	mov    %rax,-0x8(%rbp)
    37ff:	eb 19                	jmp    381a <ezxml_str2utf8+0x25c>
/media/ssd-partition/Documents/RootCauseAnalysisPruning/evaluation/test_bin/22-ezXML/ezxml/ezxml.c:444 (discriminator 3)
    3801:	83 45 c8 01          	addl   $0x1,-0x38(%rbp)
    3805:	48 8b 45 f8          	mov    -0x8(%rbp),%rax
    3809:	48 89 c2             	mov    %rax,%rdx
    380c:	48 c1 ea 3f          	shr    $0x3f,%rdx
    3810:	48 01 d0             	add    %rdx,%rax
    3813:	48 d1 f8             	sar    %rax
    3816:	48 89 45 f8          	mov    %rax,-0x8(%rbp)
/media/ssd-partition/Documents/RootCauseAnalysisPruning/evaluation/test_bin/22-ezXML/ezxml/ezxml.c:444 (discriminator 1)
    381a:	48 83 7d f8 00       	cmpq   $0x0,-0x8(%rbp)
    381f:	75 e0                	jne    3801 <ezxml_str2utf8+0x243>
/media/ssd-partition/Documents/RootCauseAnalysisPruning/evaluation/test_bin/22-ezXML/ezxml/ezxml.c:445
            b = (b - 2) / 5; // bytes in payload
    3821:	8b 45 c8             	mov    -0x38(%rbp),%eax
    3824:	83 e8 02             	sub    $0x2,%eax
    3827:	48 63 d0             	movslq %eax,%rdx
    382a:	48 69 d2 67 66 66 66 	imul   $0x66666667,%rdx,%rdx
    3831:	48 c1 ea 20          	shr    $0x20,%rdx
    3835:	d1 fa                	sar    %edx
    3837:	c1 f8 1f             	sar    $0x1f,%eax
    383a:	89 c1                	mov    %eax,%ecx
    383c:	89 d0                	mov    %edx,%eax
    383e:	29 c8                	sub    %ecx,%eax
    3840:	89 45 c8             	mov    %eax,-0x38(%rbp)
/media/ssd-partition/Documents/RootCauseAnalysisPruning/evaluation/test_bin/22-ezXML/ezxml/ezxml.c:446
            u[l++] = (0xFF << (7 - b)) | (c >> (6 * b)); // head
    3843:	b8 07 00 00 00       	mov    $0x7,%eax
    3848:	2b 45 c8             	sub    -0x38(%rbp),%eax
    384b:	ba ff 00 00 00       	mov    $0xff,%edx
    3850:	89 c1                	mov    %eax,%ecx
    3852:	d3 e2                	shl    %cl,%edx
    3854:	89 d0                	mov    %edx,%eax
    3856:	89 c6                	mov    %eax,%esi
    3858:	8b 55 c8             	mov    -0x38(%rbp),%edx
    385b:	89 d0                	mov    %edx,%eax
    385d:	01 c0                	add    %eax,%eax
    385f:	01 d0                	add    %edx,%eax
    3861:	01 c0                	add    %eax,%eax
    3863:	89 c2                	mov    %eax,%edx
    3865:	48 8b 45 f0          	mov    -0x10(%rbp),%rax
    3869:	89 d1                	mov    %edx,%ecx
    386b:	48 d3 f8             	sar    %cl,%rax
    386e:	89 c1                	mov    %eax,%ecx
    3870:	48 8b 45 d8          	mov    -0x28(%rbp),%rax
    3874:	48 8d 50 01          	lea    0x1(%rax),%rdx
    3878:	48 89 55 d8          	mov    %rdx,-0x28(%rbp)
    387c:	48 8b 55 d0          	mov    -0x30(%rbp),%rdx
    3880:	48 01 d0             	add    %rdx,%rax
    3883:	09 ce                	or     %ecx,%esi
    3885:	89 f2                	mov    %esi,%edx
    3887:	88 10                	mov    %dl,(%rax)
/media/ssd-partition/Documents/RootCauseAnalysisPruning/evaluation/test_bin/22-ezXML/ezxml/ezxml.c:447
            while (b) u[l++] = 0x80 | ((c >> (6 * --b)) & 0x3F); // payload
    3889:	eb 39                	jmp    38c4 <ezxml_str2utf8+0x306>
/media/ssd-partition/Documents/RootCauseAnalysisPruning/evaluation/test_bin/22-ezXML/ezxml/ezxml.c:447 (discriminator 2)
    388b:	83 6d c8 01          	subl   $0x1,-0x38(%rbp)
    388f:	8b 55 c8             	mov    -0x38(%rbp),%edx
    3892:	89 d0                	mov    %edx,%eax
    3894:	01 c0                	add    %eax,%eax
    3896:	01 d0                	add    %edx,%eax
    3898:	01 c0                	add    %eax,%eax
    389a:	89 c2                	mov    %eax,%edx
    389c:	48 8b 45 f0          	mov    -0x10(%rbp),%rax
    38a0:	89 d1                	mov    %edx,%ecx
    38a2:	48 d3 f8             	sar    %cl,%rax
    38a5:	83 e0 3f             	and    $0x3f,%eax
    38a8:	89 c1                	mov    %eax,%ecx
    38aa:	48 8b 45 d8          	mov    -0x28(%rbp),%rax
    38ae:	48 8d 50 01          	lea    0x1(%rax),%rdx
    38b2:	48 89 55 d8          	mov    %rdx,-0x28(%rbp)
    38b6:	48 8b 55 d0          	mov    -0x30(%rbp),%rdx
    38ba:	48 01 d0             	add    %rdx,%rax
    38bd:	83 c9 80             	or     $0xffffff80,%ecx
    38c0:	89 ca                	mov    %ecx,%edx
    38c2:	88 10                	mov    %dl,(%rax)
/media/ssd-partition/Documents/RootCauseAnalysisPruning/evaluation/test_bin/22-ezXML/ezxml/ezxml.c:447 (discriminator 1)
    38c4:	83 7d c8 00          	cmpl   $0x0,-0x38(%rbp)
    38c8:	75 c1                	jne    388b <ezxml_str2utf8+0x2cd>
/media/ssd-partition/Documents/RootCauseAnalysisPruning/evaluation/test_bin/22-ezXML/ezxml/ezxml.c:432 (discriminator 2)
    for (sl = 2; sl < *len - 1; sl += 2) {
    38ca:	48 83 45 e0 02       	addq   $0x2,-0x20(%rbp)
/media/ssd-partition/Documents/RootCauseAnalysisPruning/evaluation/test_bin/22-ezXML/ezxml/ezxml.c:432 (discriminator 1)
    38cf:	48 8b 45 b0          	mov    -0x50(%rbp),%rax
    38d3:	48 8b 00             	mov    (%rax),%rax
    38d6:	48 83 e8 01          	sub    $0x1,%rax
    38da:	48 39 45 e0          	cmp    %rax,-0x20(%rbp)
    38de:	0f 82 60 fd ff ff    	jb     3644 <ezxml_str2utf8+0x86>
/media/ssd-partition/Documents/RootCauseAnalysisPruning/evaluation/test_bin/22-ezXML/ezxml/ezxml.c:450
        }
    }
    return *s = realloc(u, *len = l);
    38e4:	48 8b 45 b0          	mov    -0x50(%rbp),%rax
    38e8:	48 8b 55 d8          	mov    -0x28(%rbp),%rdx
    38ec:	48 89 10             	mov    %rdx,(%rax)
    38ef:	48 8b 45 b0          	mov    -0x50(%rbp),%rax
    38f3:	48 8b 10             	mov    (%rax),%rdx
    38f6:	48 8b 45 d0          	mov    -0x30(%rbp),%rax
    38fa:	48 89 d6             	mov    %rdx,%rsi
    38fd:	48 89 c7             	mov    %rax,%rdi
    3900:	e8 ab da ff ff       	call   13b0 <realloc@plt>
    3905:	48 8b 55 b8          	mov    -0x48(%rbp),%rdx
    3909:	48 89 02             	mov    %rax,(%rdx)
    390c:	48 8b 45 b8          	mov    -0x48(%rbp),%rax
    3910:	48 8b 00             	mov    (%rax),%rax
/media/ssd-partition/Documents/RootCauseAnalysisPruning/evaluation/test_bin/22-ezXML/ezxml/ezxml.c:451
}
    3913:	c9                   	leave  
    3914:	c3                   	ret    

0000000000003915 <ezxml_free_attr>:
ezxml_free_attr():
/media/ssd-partition/Documents/RootCauseAnalysisPruning/evaluation/test_bin/22-ezXML/ezxml/ezxml.c:454

// frees a tag attribute list
void ezxml_free_attr(char **attr) {
    3915:	f3 0f 1e fa          	endbr64 
    3919:	55                   	push   %rbp
    391a:	48 89 e5             	mov    %rsp,%rbp
    391d:	48 83 ec 20          	sub    $0x20,%rsp
    3921:	48 89 7d e8          	mov    %rdi,-0x18(%rbp)
/media/ssd-partition/Documents/RootCauseAnalysisPruning/evaluation/test_bin/22-ezXML/ezxml/ezxml.c:455
    int i = 0;
    3925:	c7 45 f4 00 00 00 00 	movl   $0x0,-0xc(%rbp)
/media/ssd-partition/Documents/RootCauseAnalysisPruning/evaluation/test_bin/22-ezXML/ezxml/ezxml.c:458
    char *m;
    
    if (! attr || attr == EZXML_NIL) return; // nothing to free
    392c:	48 83 7d e8 00       	cmpq   $0x0,-0x18(%rbp)
    3931:	0f 84 05 01 00 00    	je     3a3c <ezxml_free_attr+0x127>
/media/ssd-partition/Documents/RootCauseAnalysisPruning/evaluation/test_bin/22-ezXML/ezxml/ezxml.c:458 (discriminator 2)
    3937:	48 8d 05 52 57 00 00 	lea    0x5752(%rip),%rax        # 9090 <EZXML_NIL>
    393e:	48 39 45 e8          	cmp    %rax,-0x18(%rbp)
    3942:	0f 84 f4 00 00 00    	je     3a3c <ezxml_free_attr+0x127>
/media/ssd-partition/Documents/RootCauseAnalysisPruning/evaluation/test_bin/22-ezXML/ezxml/ezxml.c:459
    while (attr[i]) i += 2; // find end of attribute list
    3948:	eb 04                	jmp    394e <ezxml_free_attr+0x39>
/media/ssd-partition/Documents/RootCauseAnalysisPruning/evaluation/test_bin/22-ezXML/ezxml/ezxml.c:459 (discriminator 2)
    394a:	83 45 f4 02          	addl   $0x2,-0xc(%rbp)
/media/ssd-partition/Documents/RootCauseAnalysisPruning/evaluation/test_bin/22-ezXML/ezxml/ezxml.c:459 (discriminator 1)
    394e:	8b 45 f4             	mov    -0xc(%rbp),%eax
    3951:	48 98                	cltq   
    3953:	48 8d 14 c5 00 00 00 	lea    0x0(,%rax,8),%rdx
    395a:	00 
    395b:	48 8b 45 e8          	mov    -0x18(%rbp),%rax
    395f:	48 01 d0             	add    %rdx,%rax
    3962:	48 8b 00             	mov    (%rax),%rax
    3965:	48 85 c0             	test   %rax,%rax
    3968:	75 e0                	jne    394a <ezxml_free_attr+0x35>
/media/ssd-partition/Documents/RootCauseAnalysisPruning/evaluation/test_bin/22-ezXML/ezxml/ezxml.c:460
    m = attr[i + 1]; // list of which names and values are malloced
    396a:	8b 45 f4             	mov    -0xc(%rbp),%eax
    396d:	48 98                	cltq   
    396f:	48 83 c0 01          	add    $0x1,%rax
    3973:	48 8d 14 c5 00 00 00 	lea    0x0(,%rax,8),%rdx
    397a:	00 
    397b:	48 8b 45 e8          	mov    -0x18(%rbp),%rax
    397f:	48 01 d0             	add    %rdx,%rax
    3982:	48 8b 00             	mov    (%rax),%rax
    3985:	48 89 45 f8          	mov    %rax,-0x8(%rbp)
/media/ssd-partition/Documents/RootCauseAnalysisPruning/evaluation/test_bin/22-ezXML/ezxml/ezxml.c:461
    for (i = 0; m[i]; i++) {
    3989:	c7 45 f4 00 00 00 00 	movl   $0x0,-0xc(%rbp)
    3990:	eb 78                	jmp    3a0a <ezxml_free_attr+0xf5>
/media/ssd-partition/Documents/RootCauseAnalysisPruning/evaluation/test_bin/22-ezXML/ezxml/ezxml.c:462
        if (m[i] & EZXML_NAMEM) free(attr[i * 2]);
    3992:	8b 45 f4             	mov    -0xc(%rbp),%eax
    3995:	48 63 d0             	movslq %eax,%rdx
    3998:	48 8b 45 f8          	mov    -0x8(%rbp),%rax
    399c:	48 01 d0             	add    %rdx,%rax
    399f:	0f b6 00             	movzbl (%rax),%eax
    39a2:	84 c0                	test   %al,%al
    39a4:	79 21                	jns    39c7 <ezxml_free_attr+0xb2>
/media/ssd-partition/Documents/RootCauseAnalysisPruning/evaluation/test_bin/22-ezXML/ezxml/ezxml.c:462 (discriminator 1)
    39a6:	8b 45 f4             	mov    -0xc(%rbp),%eax
    39a9:	01 c0                	add    %eax,%eax
    39ab:	48 98                	cltq   
    39ad:	48 8d 14 c5 00 00 00 	lea    0x0(,%rax,8),%rdx
    39b4:	00 
    39b5:	48 8b 45 e8          	mov    -0x18(%rbp),%rax
    39b9:	48 01 d0             	add    %rdx,%rax
    39bc:	48 8b 00             	mov    (%rax),%rax
    39bf:	48 89 c7             	mov    %rax,%rdi
    39c2:	e8 89 d8 ff ff       	call   1250 <free@plt>
/media/ssd-partition/Documents/RootCauseAnalysisPruning/evaluation/test_bin/22-ezXML/ezxml/ezxml.c:463
        if (m[i] & EZXML_TXTM) free(attr[(i * 2) + 1]);
    39c7:	8b 45 f4             	mov    -0xc(%rbp),%eax
    39ca:	48 63 d0             	movslq %eax,%rdx
    39cd:	48 8b 45 f8          	mov    -0x8(%rbp),%rax
    39d1:	48 01 d0             	add    %rdx,%rax
    39d4:	0f b6 00             	movzbl (%rax),%eax
    39d7:	0f be c0             	movsbl %al,%eax
    39da:	83 e0 40             	and    $0x40,%eax
    39dd:	85 c0                	test   %eax,%eax
    39df:	74 25                	je     3a06 <ezxml_free_attr+0xf1>
/media/ssd-partition/Documents/RootCauseAnalysisPruning/evaluation/test_bin/22-ezXML/ezxml/ezxml.c:463 (discriminator 1)
    39e1:	8b 45 f4             	mov    -0xc(%rbp),%eax
    39e4:	01 c0                	add    %eax,%eax
    39e6:	48 98                	cltq   
    39e8:	48 83 c0 01          	add    $0x1,%rax
    39ec:	48 8d 14 c5 00 00 00 	lea    0x0(,%rax,8),%rdx
    39f3:	00 
    39f4:	48 8b 45 e8          	mov    -0x18(%rbp),%rax
    39f8:	48 01 d0             	add    %rdx,%rax
    39fb:	48 8b 00             	mov    (%rax),%rax
    39fe:	48 89 c7             	mov    %rax,%rdi
    3a01:	e8 4a d8 ff ff       	call   1250 <free@plt>
/media/ssd-partition/Documents/RootCauseAnalysisPruning/evaluation/test_bin/22-ezXML/ezxml/ezxml.c:461 (discriminator 2)
    for (i = 0; m[i]; i++) {
    3a06:	83 45 f4 01          	addl   $0x1,-0xc(%rbp)
/media/ssd-partition/Documents/RootCauseAnalysisPruning/evaluation/test_bin/22-ezXML/ezxml/ezxml.c:461 (discriminator 1)
    3a0a:	8b 45 f4             	mov    -0xc(%rbp),%eax
    3a0d:	48 63 d0             	movslq %eax,%rdx
    3a10:	48 8b 45 f8          	mov    -0x8(%rbp),%rax
    3a14:	48 01 d0             	add    %rdx,%rax
    3a17:	0f b6 00             	movzbl (%rax),%eax
    3a1a:	84 c0                	test   %al,%al
    3a1c:	0f 85 70 ff ff ff    	jne    3992 <ezxml_free_attr+0x7d>
/media/ssd-partition/Documents/RootCauseAnalysisPruning/evaluation/test_bin/22-ezXML/ezxml/ezxml.c:465
    }
    free(m);
    3a22:	48 8b 45 f8          	mov    -0x8(%rbp),%rax
    3a26:	48 89 c7             	mov    %rax,%rdi
    3a29:	e8 22 d8 ff ff       	call   1250 <free@plt>
/media/ssd-partition/Documents/RootCauseAnalysisPruning/evaluation/test_bin/22-ezXML/ezxml/ezxml.c:466
    free(attr);
    3a2e:	48 8b 45 e8          	mov    -0x18(%rbp),%rax
    3a32:	48 89 c7             	mov    %rax,%rdi
    3a35:	e8 16 d8 ff ff       	call   1250 <free@plt>
    3a3a:	eb 01                	jmp    3a3d <ezxml_free_attr+0x128>
/media/ssd-partition/Documents/RootCauseAnalysisPruning/evaluation/test_bin/22-ezXML/ezxml/ezxml.c:458
    if (! attr || attr == EZXML_NIL) return; // nothing to free
    3a3c:	90                   	nop
/media/ssd-partition/Documents/RootCauseAnalysisPruning/evaluation/test_bin/22-ezXML/ezxml/ezxml.c:467
}
    3a3d:	c9                   	leave  
    3a3e:	c3                   	ret    

0000000000003a3f <ezxml_parse_str>:
ezxml_parse_str():
/media/ssd-partition/Documents/RootCauseAnalysisPruning/evaluation/test_bin/22-ezXML/ezxml/ezxml.c:471

// parse the given xml string and return an ezxml structure
ezxml_t ezxml_parse_str(char *s, size_t len)
{
    3a3f:	f3 0f 1e fa          	endbr64 
    3a43:	55                   	push   %rbp
    3a44:	48 89 e5             	mov    %rsp,%rbp
    3a47:	53                   	push   %rbx
    3a48:	48 83 ec 48          	sub    $0x48,%rsp
    3a4c:	48 89 7d b8          	mov    %rdi,-0x48(%rbp)
    3a50:	48 89 75 b0          	mov    %rsi,-0x50(%rbp)
/media/ssd-partition/Documents/RootCauseAnalysisPruning/evaluation/test_bin/22-ezXML/ezxml/ezxml.c:472
    ezxml_root_t root = (ezxml_root_t)ezxml_new(NULL);
    3a54:	bf 00 00 00 00       	mov    $0x0,%edi
    3a59:	e8 f4 23 00 00       	call   5e52 <ezxml_new>
    3a5e:	48 89 45 e8          	mov    %rax,-0x18(%rbp)
/media/ssd-partition/Documents/RootCauseAnalysisPruning/evaluation/test_bin/22-ezXML/ezxml/ezxml.c:473
    char q, e, *d, **attr, **a = NULL; // initialize a to avoid compile warning
    3a62:	48 c7 45 e0 00 00 00 	movq   $0x0,-0x20(%rbp)
    3a69:	00 
/media/ssd-partition/Documents/RootCauseAnalysisPruning/evaluation/test_bin/22-ezXML/ezxml/ezxml.c:476
    int l, i, j;

    root->m = s;
    3a6a:	48 8b 55 b8          	mov    -0x48(%rbp),%rdx
    3a6e:	48 8b 45 e8          	mov    -0x18(%rbp),%rax
    3a72:	48 89 50 58          	mov    %rdx,0x58(%rax)
/media/ssd-partition/Documents/RootCauseAnalysisPruning/evaluation/test_bin/22-ezXML/ezxml/ezxml.c:477
    if (! len) return ezxml_err(root, NULL, "root tag missing");
    3a76:	48 8b 45 b0          	mov    -0x50(%rbp),%rax
    3a7a:	48 85 c0             	test   %rax,%rax
    3a7d:	75 22                	jne    3aa1 <ezxml_parse_str+0x62>
/media/ssd-partition/Documents/RootCauseAnalysisPruning/evaluation/test_bin/22-ezXML/ezxml/ezxml.c:477 (discriminator 1)
    3a7f:	48 8b 45 e8          	mov    -0x18(%rbp),%rax
    3a83:	48 8d 15 72 36 00 00 	lea    0x3672(%rip),%rdx        # 70fc <_IO_stdin_used+0xfc>
    3a8a:	be 00 00 00 00       	mov    $0x0,%esi
    3a8f:	48 89 c7             	mov    %rax,%rdi
    3a92:	b8 00 00 00 00       	mov    $0x0,%eax
    3a97:	e8 54 e0 ff ff       	call   1af0 <ezxml_err>
    3a9c:	e9 43 0d 00 00       	jmp    47e4 <ezxml_parse_str+0xda5>
/media/ssd-partition/Documents/RootCauseAnalysisPruning/evaluation/test_bin/22-ezXML/ezxml/ezxml.c:478
    root->u = ezxml_str2utf8(&s, &len); // convert utf-16 to utf-8
    3aa1:	48 8d 55 b0          	lea    -0x50(%rbp),%rdx
    3aa5:	48 8d 45 b8          	lea    -0x48(%rbp),%rax
    3aa9:	48 89 d6             	mov    %rdx,%rsi
    3aac:	48 89 c7             	mov    %rax,%rdi
    3aaf:	e8 0a fb ff ff       	call   35be <ezxml_str2utf8>
    3ab4:	48 8b 55 e8          	mov    -0x18(%rbp),%rdx
    3ab8:	48 89 42 68          	mov    %rax,0x68(%rdx)
/media/ssd-partition/Documents/RootCauseAnalysisPruning/evaluation/test_bin/22-ezXML/ezxml/ezxml.c:479
    root->e = (root->s = s) + len; // record start and end of work area
    3abc:	48 8b 55 b8          	mov    -0x48(%rbp),%rdx
    3ac0:	48 8b 45 e8          	mov    -0x18(%rbp),%rax
    3ac4:	48 89 50 70          	mov    %rdx,0x70(%rax)
    3ac8:	48 8b 45 e8          	mov    -0x18(%rbp),%rax
    3acc:	48 8b 50 70          	mov    0x70(%rax),%rdx
    3ad0:	48 8b 45 b0          	mov    -0x50(%rbp),%rax
    3ad4:	48 01 c2             	add    %rax,%rdx
    3ad7:	48 8b 45 e8          	mov    -0x18(%rbp),%rax
    3adb:	48 89 50 78          	mov    %rdx,0x78(%rax)
/media/ssd-partition/Documents/RootCauseAnalysisPruning/evaluation/test_bin/22-ezXML/ezxml/ezxml.c:481
    
    e = s[len - 1]; // save end char
    3adf:	48 8b 55 b8          	mov    -0x48(%rbp),%rdx
    3ae3:	48 8b 45 b0          	mov    -0x50(%rbp),%rax
    3ae7:	48 83 e8 01          	sub    $0x1,%rax
    3aeb:	48 01 d0             	add    %rdx,%rax
    3aee:	0f b6 00             	movzbl (%rax),%eax
    3af1:	88 45 c2             	mov    %al,-0x3e(%rbp)
/media/ssd-partition/Documents/RootCauseAnalysisPruning/evaluation/test_bin/22-ezXML/ezxml/ezxml.c:482
    s[len - 1] = '\0'; // turn end char into null terminator
    3af4:	48 8b 55 b8          	mov    -0x48(%rbp),%rdx
    3af8:	48 8b 45 b0          	mov    -0x50(%rbp),%rax
    3afc:	48 83 e8 01          	sub    $0x1,%rax
    3b00:	48 01 d0             	add    %rdx,%rax
    3b03:	c6 00 00             	movb   $0x0,(%rax)
/media/ssd-partition/Documents/RootCauseAnalysisPruning/evaluation/test_bin/22-ezXML/ezxml/ezxml.c:484

    while (*s && *s != '<') s++; // find first tag
    3b06:	eb 0c                	jmp    3b14 <ezxml_parse_str+0xd5>
/media/ssd-partition/Documents/RootCauseAnalysisPruning/evaluation/test_bin/22-ezXML/ezxml/ezxml.c:484 (discriminator 3)
    3b08:	48 8b 45 b8          	mov    -0x48(%rbp),%rax
    3b0c:	48 83 c0 01          	add    $0x1,%rax
    3b10:	48 89 45 b8          	mov    %rax,-0x48(%rbp)
/media/ssd-partition/Documents/RootCauseAnalysisPruning/evaluation/test_bin/22-ezXML/ezxml/ezxml.c:484 (discriminator 1)
    3b14:	48 8b 45 b8          	mov    -0x48(%rbp),%rax
    3b18:	0f b6 00             	movzbl (%rax),%eax
    3b1b:	84 c0                	test   %al,%al
    3b1d:	74 0b                	je     3b2a <ezxml_parse_str+0xeb>
/media/ssd-partition/Documents/RootCauseAnalysisPruning/evaluation/test_bin/22-ezXML/ezxml/ezxml.c:484 (discriminator 2)
    3b1f:	48 8b 45 b8          	mov    -0x48(%rbp),%rax
    3b23:	0f b6 00             	movzbl (%rax),%eax
    3b26:	3c 3c                	cmp    $0x3c,%al
    3b28:	75 de                	jne    3b08 <ezxml_parse_str+0xc9>
/media/ssd-partition/Documents/RootCauseAnalysisPruning/evaluation/test_bin/22-ezXML/ezxml/ezxml.c:485
    if (! *s) return ezxml_err(root, s, "root tag missing");
    3b2a:	48 8b 45 b8          	mov    -0x48(%rbp),%rax
    3b2e:	0f b6 00             	movzbl (%rax),%eax
    3b31:	84 c0                	test   %al,%al
    3b33:	75 24                	jne    3b59 <ezxml_parse_str+0x11a>
/media/ssd-partition/Documents/RootCauseAnalysisPruning/evaluation/test_bin/22-ezXML/ezxml/ezxml.c:485 (discriminator 1)
    3b35:	48 8b 4d b8          	mov    -0x48(%rbp),%rcx
    3b39:	48 8b 45 e8          	mov    -0x18(%rbp),%rax
    3b3d:	48 8d 15 b8 35 00 00 	lea    0x35b8(%rip),%rdx        # 70fc <_IO_stdin_used+0xfc>
    3b44:	48 89 ce             	mov    %rcx,%rsi
    3b47:	48 89 c7             	mov    %rax,%rdi
    3b4a:	b8 00 00 00 00       	mov    $0x0,%eax
    3b4f:	e8 9c df ff ff       	call   1af0 <ezxml_err>
    3b54:	e9 8b 0c 00 00       	jmp    47e4 <ezxml_parse_str+0xda5>
/media/ssd-partition/Documents/RootCauseAnalysisPruning/evaluation/test_bin/22-ezXML/ezxml/ezxml.c:488

    for (; ; ) {
        attr = (char **)EZXML_NIL;
    3b59:	48 8d 05 30 55 00 00 	lea    0x5530(%rip),%rax        # 9090 <EZXML_NIL>
    3b60:	48 89 45 d8          	mov    %rax,-0x28(%rbp)
/media/ssd-partition/Documents/RootCauseAnalysisPruning/evaluation/test_bin/22-ezXML/ezxml/ezxml.c:489
        d = ++s;
    3b64:	48 8b 45 b8          	mov    -0x48(%rbp),%rax
    3b68:	48 83 c0 01          	add    $0x1,%rax
    3b6c:	48 89 45 b8          	mov    %rax,-0x48(%rbp)
    3b70:	48 8b 45 b8          	mov    -0x48(%rbp),%rax
    3b74:	48 89 45 d0          	mov    %rax,-0x30(%rbp)
/media/ssd-partition/Documents/RootCauseAnalysisPruning/evaluation/test_bin/22-ezXML/ezxml/ezxml.c:491
        
        if (isalpha(*s) || *s == '_' || *s == ':' || *s < '\0') { // new tag
    3b78:	e8 d3 d8 ff ff       	call   1450 <__ctype_b_loc@plt>
    3b7d:	48 8b 10             	mov    (%rax),%rdx
    3b80:	48 8b 45 b8          	mov    -0x48(%rbp),%rax
    3b84:	0f b6 00             	movzbl (%rax),%eax
    3b87:	48 0f be c0          	movsbq %al,%rax
    3b8b:	48 01 c0             	add    %rax,%rax
    3b8e:	48 01 d0             	add    %rdx,%rax
    3b91:	0f b7 00             	movzwl (%rax),%eax
    3b94:	0f b7 c0             	movzwl %ax,%eax
    3b97:	25 00 04 00 00       	and    $0x400,%eax
    3b9c:	85 c0                	test   %eax,%eax
    3b9e:	75 25                	jne    3bc5 <ezxml_parse_str+0x186>
/media/ssd-partition/Documents/RootCauseAnalysisPruning/evaluation/test_bin/22-ezXML/ezxml/ezxml.c:491 (discriminator 1)
    3ba0:	48 8b 45 b8          	mov    -0x48(%rbp),%rax
    3ba4:	0f b6 00             	movzbl (%rax),%eax
    3ba7:	3c 5f                	cmp    $0x5f,%al
    3ba9:	74 1a                	je     3bc5 <ezxml_parse_str+0x186>
/media/ssd-partition/Documents/RootCauseAnalysisPruning/evaluation/test_bin/22-ezXML/ezxml/ezxml.c:491 (discriminator 2)
    3bab:	48 8b 45 b8          	mov    -0x48(%rbp),%rax
    3baf:	0f b6 00             	movzbl (%rax),%eax
    3bb2:	3c 3a                	cmp    $0x3a,%al
    3bb4:	74 0f                	je     3bc5 <ezxml_parse_str+0x186>
/media/ssd-partition/Documents/RootCauseAnalysisPruning/evaluation/test_bin/22-ezXML/ezxml/ezxml.c:491 (discriminator 3)
    3bb6:	48 8b 45 b8          	mov    -0x48(%rbp),%rax
    3bba:	0f b6 00             	movzbl (%rax),%eax
    3bbd:	84 c0                	test   %al,%al
    3bbf:	0f 89 76 06 00 00    	jns    423b <ezxml_parse_str+0x7fc>
/media/ssd-partition/Documents/RootCauseAnalysisPruning/evaluation/test_bin/22-ezXML/ezxml/ezxml.c:492
            if (! root->cur)
    3bc5:	48 8b 45 e8          	mov    -0x18(%rbp),%rax
    3bc9:	48 8b 40 50          	mov    0x50(%rax),%rax
    3bcd:	48 85 c0             	test   %rax,%rax
    3bd0:	75 24                	jne    3bf6 <ezxml_parse_str+0x1b7>
/media/ssd-partition/Documents/RootCauseAnalysisPruning/evaluation/test_bin/22-ezXML/ezxml/ezxml.c:493
                return ezxml_err(root, d, "markup outside of root element");
    3bd2:	48 8b 4d d0          	mov    -0x30(%rbp),%rcx
    3bd6:	48 8b 45 e8          	mov    -0x18(%rbp),%rax
    3bda:	48 8d 15 2f 35 00 00 	lea    0x352f(%rip),%rdx        # 7110 <_IO_stdin_used+0x110>
    3be1:	48 89 ce             	mov    %rcx,%rsi
    3be4:	48 89 c7             	mov    %rax,%rdi
    3be7:	b8 00 00 00 00       	mov    $0x0,%eax
    3bec:	e8 ff de ff ff       	call   1af0 <ezxml_err>
    3bf1:	e9 ee 0b 00 00       	jmp    47e4 <ezxml_parse_str+0xda5>
/media/ssd-partition/Documents/RootCauseAnalysisPruning/evaluation/test_bin/22-ezXML/ezxml/ezxml.c:495

            s += strcspn(s, EZXML_WS "/>");
    3bf6:	48 8b 5d b8          	mov    -0x48(%rbp),%rbx
    3bfa:	48 8b 45 b8          	mov    -0x48(%rbp),%rax
    3bfe:	48 8d 15 2a 35 00 00 	lea    0x352a(%rip),%rdx        # 712f <_IO_stdin_used+0x12f>
    3c05:	48 89 d6             	mov    %rdx,%rsi
    3c08:	48 89 c7             	mov    %rax,%rdi
    3c0b:	e8 30 d7 ff ff       	call   1340 <strcspn@plt>
    3c10:	48 01 d8             	add    %rbx,%rax
    3c13:	48 89 45 b8          	mov    %rax,-0x48(%rbp)
/media/ssd-partition/Documents/RootCauseAnalysisPruning/evaluation/test_bin/22-ezXML/ezxml/ezxml.c:496
            while (isspace(*s)) *(s++) = '\0'; // null terminate tag name
    3c17:	eb 0f                	jmp    3c28 <ezxml_parse_str+0x1e9>
/media/ssd-partition/Documents/RootCauseAnalysisPruning/evaluation/test_bin/22-ezXML/ezxml/ezxml.c:496 (discriminator 2)
    3c19:	48 8b 45 b8          	mov    -0x48(%rbp),%rax
    3c1d:	48 8d 50 01          	lea    0x1(%rax),%rdx
    3c21:	48 89 55 b8          	mov    %rdx,-0x48(%rbp)
    3c25:	c6 00 00             	movb   $0x0,(%rax)
/media/ssd-partition/Documents/RootCauseAnalysisPruning/evaluation/test_bin/22-ezXML/ezxml/ezxml.c:496 (discriminator 1)
    3c28:	e8 23 d8 ff ff       	call   1450 <__ctype_b_loc@plt>
    3c2d:	48 8b 10             	mov    (%rax),%rdx
    3c30:	48 8b 45 b8          	mov    -0x48(%rbp),%rax
    3c34:	0f b6 00             	movzbl (%rax),%eax
    3c37:	48 0f be c0          	movsbq %al,%rax
    3c3b:	48 01 c0             	add    %rax,%rax
    3c3e:	48 01 d0             	add    %rdx,%rax
    3c41:	0f b7 00             	movzwl (%rax),%eax
    3c44:	0f b7 c0             	movzwl %ax,%eax
    3c47:	25 00 20 00 00       	and    $0x2000,%eax
    3c4c:	85 c0                	test   %eax,%eax
    3c4e:	75 c9                	jne    3c19 <ezxml_parse_str+0x1da>
/media/ssd-partition/Documents/RootCauseAnalysisPruning/evaluation/test_bin/22-ezXML/ezxml/ezxml.c:498
  
            if (*s && *s != '/' && *s != '>') // find tag in default attr list
    3c50:	48 8b 45 b8          	mov    -0x48(%rbp),%rax
    3c54:	0f b6 00             	movzbl (%rax),%eax
    3c57:	84 c0                	test   %al,%al
    3c59:	74 62                	je     3cbd <ezxml_parse_str+0x27e>
/media/ssd-partition/Documents/RootCauseAnalysisPruning/evaluation/test_bin/22-ezXML/ezxml/ezxml.c:498 (discriminator 1)
    3c5b:	48 8b 45 b8          	mov    -0x48(%rbp),%rax
    3c5f:	0f b6 00             	movzbl (%rax),%eax
    3c62:	3c 2f                	cmp    $0x2f,%al
    3c64:	74 57                	je     3cbd <ezxml_parse_str+0x27e>
/media/ssd-partition/Documents/RootCauseAnalysisPruning/evaluation/test_bin/22-ezXML/ezxml/ezxml.c:498 (discriminator 2)
    3c66:	48 8b 45 b8          	mov    -0x48(%rbp),%rax
    3c6a:	0f b6 00             	movzbl (%rax),%eax
    3c6d:	3c 3e                	cmp    $0x3e,%al
    3c6f:	74 4c                	je     3cbd <ezxml_parse_str+0x27e>
/media/ssd-partition/Documents/RootCauseAnalysisPruning/evaluation/test_bin/22-ezXML/ezxml/ezxml.c:499
                for (i = 0; (a = root->attr[i]) && strcmp(a[0], d); i++);
    3c71:	c7 45 c8 00 00 00 00 	movl   $0x0,-0x38(%rbp)
    3c78:	eb 04                	jmp    3c7e <ezxml_parse_str+0x23f>
/media/ssd-partition/Documents/RootCauseAnalysisPruning/evaluation/test_bin/22-ezXML/ezxml/ezxml.c:499 (discriminator 4)
    3c7a:	83 45 c8 01          	addl   $0x1,-0x38(%rbp)
/media/ssd-partition/Documents/RootCauseAnalysisPruning/evaluation/test_bin/22-ezXML/ezxml/ezxml.c:499 (discriminator 1)
    3c7e:	48 8b 45 e8          	mov    -0x18(%rbp),%rax
    3c82:	48 8b 90 88 00 00 00 	mov    0x88(%rax),%rdx
    3c89:	8b 45 c8             	mov    -0x38(%rbp),%eax
    3c8c:	48 98                	cltq   
    3c8e:	48 c1 e0 03          	shl    $0x3,%rax
    3c92:	48 01 d0             	add    %rdx,%rax
    3c95:	48 8b 00             	mov    (%rax),%rax
    3c98:	48 89 45 e0          	mov    %rax,-0x20(%rbp)
    3c9c:	48 83 7d e0 00       	cmpq   $0x0,-0x20(%rbp)
    3ca1:	74 1a                	je     3cbd <ezxml_parse_str+0x27e>
/media/ssd-partition/Documents/RootCauseAnalysisPruning/evaluation/test_bin/22-ezXML/ezxml/ezxml.c:499 (discriminator 3)
    3ca3:	48 8b 45 e0          	mov    -0x20(%rbp),%rax
    3ca7:	48 8b 00             	mov    (%rax),%rax
    3caa:	48 8b 55 d0          	mov    -0x30(%rbp),%rdx
    3cae:	48 89 d6             	mov    %rdx,%rsi
    3cb1:	48 89 c7             	mov    %rax,%rdi
    3cb4:	e8 a7 d6 ff ff       	call   1360 <strcmp@plt>
    3cb9:	85 c0                	test   %eax,%eax
    3cbb:	75 bd                	jne    3c7a <ezxml_parse_str+0x23b>
/media/ssd-partition/Documents/RootCauseAnalysisPruning/evaluation/test_bin/22-ezXML/ezxml/ezxml.c:501

            for (l = 0; *s && *s != '/' && *s != '>'; l += 2) { // new attrib
    3cbd:	c7 45 c4 00 00 00 00 	movl   $0x0,-0x3c(%rbp)
    3cc4:	e9 1b 04 00 00       	jmp    40e4 <ezxml_parse_str+0x6a5>
/media/ssd-partition/Documents/RootCauseAnalysisPruning/evaluation/test_bin/22-ezXML/ezxml/ezxml.c:502
                attr = (l) ? realloc(attr, (l + 4) * sizeof(char *))
    3cc9:	83 7d c4 00          	cmpl   $0x0,-0x3c(%rbp)
    3ccd:	74 21                	je     3cf0 <ezxml_parse_str+0x2b1>
/media/ssd-partition/Documents/RootCauseAnalysisPruning/evaluation/test_bin/22-ezXML/ezxml/ezxml.c:502 (discriminator 1)
    3ccf:	8b 45 c4             	mov    -0x3c(%rbp),%eax
    3cd2:	83 c0 04             	add    $0x4,%eax
    3cd5:	48 98                	cltq   
    3cd7:	48 8d 14 c5 00 00 00 	lea    0x0(,%rax,8),%rdx
    3cde:	00 
    3cdf:	48 8b 45 d8          	mov    -0x28(%rbp),%rax
    3ce3:	48 89 d6             	mov    %rdx,%rsi
    3ce6:	48 89 c7             	mov    %rax,%rdi
    3ce9:	e8 c2 d6 ff ff       	call   13b0 <realloc@plt>
    3cee:	eb 0a                	jmp    3cfa <ezxml_parse_str+0x2bb>
/media/ssd-partition/Documents/RootCauseAnalysisPruning/evaluation/test_bin/22-ezXML/ezxml/ezxml.c:503
                           : malloc(4 * sizeof(char *)); // allocate space
    3cf0:	bf 20 00 00 00       	mov    $0x20,%edi
    3cf5:	e8 a6 d6 ff ff       	call   13a0 <malloc@plt>
/media/ssd-partition/Documents/RootCauseAnalysisPruning/evaluation/test_bin/22-ezXML/ezxml/ezxml.c:502 (discriminator 2)
                attr = (l) ? realloc(attr, (l + 4) * sizeof(char *))
    3cfa:	48 89 45 d8          	mov    %rax,-0x28(%rbp)
/media/ssd-partition/Documents/RootCauseAnalysisPruning/evaluation/test_bin/22-ezXML/ezxml/ezxml.c:504 (discriminator 2)
                attr[l + 3] = (l) ? realloc(attr[l + 1], (l / 2) + 2)
    3cfe:	83 7d c4 00          	cmpl   $0x0,-0x3c(%rbp)
    3d02:	74 3a                	je     3d3e <ezxml_parse_str+0x2ff>
/media/ssd-partition/Documents/RootCauseAnalysisPruning/evaluation/test_bin/22-ezXML/ezxml/ezxml.c:504 (discriminator 1)
    3d04:	8b 45 c4             	mov    -0x3c(%rbp),%eax
    3d07:	89 c2                	mov    %eax,%edx
    3d09:	c1 ea 1f             	shr    $0x1f,%edx
    3d0c:	01 d0                	add    %edx,%eax
    3d0e:	d1 f8                	sar    %eax
    3d10:	83 c0 02             	add    $0x2,%eax
    3d13:	48 63 d0             	movslq %eax,%rdx
    3d16:	8b 45 c4             	mov    -0x3c(%rbp),%eax
    3d19:	48 98                	cltq   
    3d1b:	48 83 c0 01          	add    $0x1,%rax
    3d1f:	48 8d 0c c5 00 00 00 	lea    0x0(,%rax,8),%rcx
    3d26:	00 
    3d27:	48 8b 45 d8          	mov    -0x28(%rbp),%rax
    3d2b:	48 01 c8             	add    %rcx,%rax
    3d2e:	48 8b 00             	mov    (%rax),%rax
    3d31:	48 89 d6             	mov    %rdx,%rsi
    3d34:	48 89 c7             	mov    %rax,%rdi
    3d37:	e8 74 d6 ff ff       	call   13b0 <realloc@plt>
    3d3c:	eb 0a                	jmp    3d48 <ezxml_parse_str+0x309>
/media/ssd-partition/Documents/RootCauseAnalysisPruning/evaluation/test_bin/22-ezXML/ezxml/ezxml.c:505
                                  : malloc(2); // mem for list of maloced vals
    3d3e:	bf 02 00 00 00       	mov    $0x2,%edi
    3d43:	e8 58 d6 ff ff       	call   13a0 <malloc@plt>
/media/ssd-partition/Documents/RootCauseAnalysisPruning/evaluation/test_bin/22-ezXML/ezxml/ezxml.c:504 (discriminator 2)
                attr[l + 3] = (l) ? realloc(attr[l + 1], (l / 2) + 2)
    3d48:	8b 55 c4             	mov    -0x3c(%rbp),%edx
    3d4b:	48 63 d2             	movslq %edx,%rdx
    3d4e:	48 83 c2 03          	add    $0x3,%rdx
    3d52:	48 8d 0c d5 00 00 00 	lea    0x0(,%rdx,8),%rcx
    3d59:	00 
    3d5a:	48 8b 55 d8          	mov    -0x28(%rbp),%rdx
    3d5e:	48 01 ca             	add    %rcx,%rdx
    3d61:	48 89 02             	mov    %rax,(%rdx)
/media/ssd-partition/Documents/RootCauseAnalysisPruning/evaluation/test_bin/22-ezXML/ezxml/ezxml.c:506 (discriminator 2)
                strcpy(attr[l + 3] + (l / 2), " "); // value is not malloced
    3d64:	8b 45 c4             	mov    -0x3c(%rbp),%eax
    3d67:	48 98                	cltq   
    3d69:	48 83 c0 03          	add    $0x3,%rax
    3d6d:	48 8d 14 c5 00 00 00 	lea    0x0(,%rax,8),%rdx
    3d74:	00 
    3d75:	48 8b 45 d8          	mov    -0x28(%rbp),%rax
    3d79:	48 01 d0             	add    %rdx,%rax
    3d7c:	48 8b 10             	mov    (%rax),%rdx
    3d7f:	8b 45 c4             	mov    -0x3c(%rbp),%eax
    3d82:	89 c1                	mov    %eax,%ecx
    3d84:	c1 e9 1f             	shr    $0x1f,%ecx
    3d87:	01 c8                	add    %ecx,%eax
    3d89:	d1 f8                	sar    %eax
    3d8b:	48 98                	cltq   
    3d8d:	48 01 d0             	add    %rdx,%rax
    3d90:	66 c7 00 20 00       	movw   $0x20,(%rax)
/media/ssd-partition/Documents/RootCauseAnalysisPruning/evaluation/test_bin/22-ezXML/ezxml/ezxml.c:507 (discriminator 2)
                attr[l + 2] = NULL; // null terminate list
    3d95:	8b 45 c4             	mov    -0x3c(%rbp),%eax
    3d98:	48 98                	cltq   
    3d9a:	48 83 c0 02          	add    $0x2,%rax
    3d9e:	48 8d 14 c5 00 00 00 	lea    0x0(,%rax,8),%rdx
    3da5:	00 
    3da6:	48 8b 45 d8          	mov    -0x28(%rbp),%rax
    3daa:	48 01 d0             	add    %rdx,%rax
    3dad:	48 c7 00 00 00 00 00 	movq   $0x0,(%rax)
/media/ssd-partition/Documents/RootCauseAnalysisPruning/evaluation/test_bin/22-ezXML/ezxml/ezxml.c:508 (discriminator 2)
                attr[l + 1] = ""; // temporary attribute value
    3db4:	8b 45 c4             	mov    -0x3c(%rbp),%eax
    3db7:	48 98                	cltq   
    3db9:	48 83 c0 01          	add    $0x1,%rax
    3dbd:	48 8d 14 c5 00 00 00 	lea    0x0(,%rax,8),%rdx
    3dc4:	00 
    3dc5:	48 8b 45 d8          	mov    -0x28(%rbp),%rax
    3dc9:	48 01 d0             	add    %rdx,%rax
    3dcc:	48 8d 15 90 32 00 00 	lea    0x3290(%rip),%rdx        # 7063 <_IO_stdin_used+0x63>
    3dd3:	48 89 10             	mov    %rdx,(%rax)
/media/ssd-partition/Documents/RootCauseAnalysisPruning/evaluation/test_bin/22-ezXML/ezxml/ezxml.c:509 (discriminator 2)
                attr[l] = s; // set attribute name
    3dd6:	8b 45 c4             	mov    -0x3c(%rbp),%eax
    3dd9:	48 98                	cltq   
    3ddb:	48 8d 14 c5 00 00 00 	lea    0x0(,%rax,8),%rdx
    3de2:	00 
    3de3:	48 8b 45 d8          	mov    -0x28(%rbp),%rax
    3de7:	48 01 c2             	add    %rax,%rdx
    3dea:	48 8b 45 b8          	mov    -0x48(%rbp),%rax
    3dee:	48 89 02             	mov    %rax,(%rdx)
/media/ssd-partition/Documents/RootCauseAnalysisPruning/evaluation/test_bin/22-ezXML/ezxml/ezxml.c:511 (discriminator 2)

                s += strcspn(s, EZXML_WS "=/>");
    3df1:	48 8b 5d b8          	mov    -0x48(%rbp),%rbx
    3df5:	48 8b 45 b8          	mov    -0x48(%rbp),%rax
    3df9:	48 8d 15 36 33 00 00 	lea    0x3336(%rip),%rdx        # 7136 <_IO_stdin_used+0x136>
    3e00:	48 89 d6             	mov    %rdx,%rsi
    3e03:	48 89 c7             	mov    %rax,%rdi
    3e06:	e8 35 d5 ff ff       	call   1340 <strcspn@plt>
    3e0b:	48 01 d8             	add    %rbx,%rax
    3e0e:	48 89 45 b8          	mov    %rax,-0x48(%rbp)
/media/ssd-partition/Documents/RootCauseAnalysisPruning/evaluation/test_bin/22-ezXML/ezxml/ezxml.c:512 (discriminator 2)
                if (*s == '=' || isspace(*s)) { 
    3e12:	48 8b 45 b8          	mov    -0x48(%rbp),%rax
    3e16:	0f b6 00             	movzbl (%rax),%eax
    3e19:	3c 3d                	cmp    $0x3d,%al
    3e1b:	74 2c                	je     3e49 <ezxml_parse_str+0x40a>
/media/ssd-partition/Documents/RootCauseAnalysisPruning/evaluation/test_bin/22-ezXML/ezxml/ezxml.c:512 (discriminator 1)
    3e1d:	e8 2e d6 ff ff       	call   1450 <__ctype_b_loc@plt>
    3e22:	48 8b 10             	mov    (%rax),%rdx
    3e25:	48 8b 45 b8          	mov    -0x48(%rbp),%rax
    3e29:	0f b6 00             	movzbl (%rax),%eax
    3e2c:	48 0f be c0          	movsbq %al,%rax
    3e30:	48 01 c0             	add    %rax,%rax
    3e33:	48 01 d0             	add    %rdx,%rax
    3e36:	0f b7 00             	movzwl (%rax),%eax
    3e39:	0f b7 c0             	movzwl %ax,%eax
    3e3c:	25 00 20 00 00       	and    $0x2000,%eax
    3e41:	85 c0                	test   %eax,%eax
    3e43:	0f 84 6f 02 00 00    	je     40b8 <ezxml_parse_str+0x679>
/media/ssd-partition/Documents/RootCauseAnalysisPruning/evaluation/test_bin/22-ezXML/ezxml/ezxml.c:513
                    *(s++) = '\0'; // null terminate tag attribute name
    3e49:	48 8b 45 b8          	mov    -0x48(%rbp),%rax
    3e4d:	48 8d 50 01          	lea    0x1(%rax),%rdx
    3e51:	48 89 55 b8          	mov    %rdx,-0x48(%rbp)
    3e55:	c6 00 00             	movb   $0x0,(%rax)
/media/ssd-partition/Documents/RootCauseAnalysisPruning/evaluation/test_bin/22-ezXML/ezxml/ezxml.c:514
                    q = *(s += strspn(s, EZXML_WS "="));
    3e58:	48 8b 5d b8          	mov    -0x48(%rbp),%rbx
    3e5c:	48 8b 45 b8          	mov    -0x48(%rbp),%rax
    3e60:	48 8d 15 d7 32 00 00 	lea    0x32d7(%rip),%rdx        # 713e <_IO_stdin_used+0x13e>
    3e67:	48 89 d6             	mov    %rdx,%rsi
    3e6a:	48 89 c7             	mov    %rax,%rdi
    3e6d:	e8 be d4 ff ff       	call   1330 <strspn@plt>
    3e72:	48 01 d8             	add    %rbx,%rax
    3e75:	48 89 45 b8          	mov    %rax,-0x48(%rbp)
    3e79:	48 8b 45 b8          	mov    -0x48(%rbp),%rax
    3e7d:	0f b6 00             	movzbl (%rax),%eax
    3e80:	88 45 c3             	mov    %al,-0x3d(%rbp)
/media/ssd-partition/Documents/RootCauseAnalysisPruning/evaluation/test_bin/22-ezXML/ezxml/ezxml.c:515
                    if (q == '"' || q == '\'') { // attribute value
    3e83:	80 7d c3 22          	cmpb   $0x22,-0x3d(%rbp)
    3e87:	74 0a                	je     3e93 <ezxml_parse_str+0x454>
/media/ssd-partition/Documents/RootCauseAnalysisPruning/evaluation/test_bin/22-ezXML/ezxml/ezxml.c:515 (discriminator 1)
    3e89:	80 7d c3 27          	cmpb   $0x27,-0x3d(%rbp)
    3e8d:	0f 85 25 02 00 00    	jne    40b8 <ezxml_parse_str+0x679>
/media/ssd-partition/Documents/RootCauseAnalysisPruning/evaluation/test_bin/22-ezXML/ezxml/ezxml.c:516
                        attr[l + 1] = ++s;
    3e93:	48 8b 45 b8          	mov    -0x48(%rbp),%rax
    3e97:	48 83 c0 01          	add    $0x1,%rax
    3e9b:	48 89 45 b8          	mov    %rax,-0x48(%rbp)
    3e9f:	8b 45 c4             	mov    -0x3c(%rbp),%eax
    3ea2:	48 98                	cltq   
    3ea4:	48 83 c0 01          	add    $0x1,%rax
    3ea8:	48 8d 14 c5 00 00 00 	lea    0x0(,%rax,8),%rdx
    3eaf:	00 
    3eb0:	48 8b 45 d8          	mov    -0x28(%rbp),%rax
    3eb4:	48 01 c2             	add    %rax,%rdx
    3eb7:	48 8b 45 b8          	mov    -0x48(%rbp),%rax
    3ebb:	48 89 02             	mov    %rax,(%rdx)
/media/ssd-partition/Documents/RootCauseAnalysisPruning/evaluation/test_bin/22-ezXML/ezxml/ezxml.c:517
                        while (*s && *s != q) s++;
    3ebe:	eb 0c                	jmp    3ecc <ezxml_parse_str+0x48d>
/media/ssd-partition/Documents/RootCauseAnalysisPruning/evaluation/test_bin/22-ezXML/ezxml/ezxml.c:517 (discriminator 3)
    3ec0:	48 8b 45 b8          	mov    -0x48(%rbp),%rax
    3ec4:	48 83 c0 01          	add    $0x1,%rax
    3ec8:	48 89 45 b8          	mov    %rax,-0x48(%rbp)
/media/ssd-partition/Documents/RootCauseAnalysisPruning/evaluation/test_bin/22-ezXML/ezxml/ezxml.c:517 (discriminator 1)
    3ecc:	48 8b 45 b8          	mov    -0x48(%rbp),%rax
    3ed0:	0f b6 00             	movzbl (%rax),%eax
    3ed3:	84 c0                	test   %al,%al
    3ed5:	74 0c                	je     3ee3 <ezxml_parse_str+0x4a4>
/media/ssd-partition/Documents/RootCauseAnalysisPruning/evaluation/test_bin/22-ezXML/ezxml/ezxml.c:517 (discriminator 2)
    3ed7:	48 8b 45 b8          	mov    -0x48(%rbp),%rax
    3edb:	0f b6 00             	movzbl (%rax),%eax
    3ede:	38 45 c3             	cmp    %al,-0x3d(%rbp)
    3ee1:	75 dd                	jne    3ec0 <ezxml_parse_str+0x481>
/media/ssd-partition/Documents/RootCauseAnalysisPruning/evaluation/test_bin/22-ezXML/ezxml/ezxml.c:518
                        if (*s) *(s++) = '\0'; // null terminate attribute val
    3ee3:	48 8b 45 b8          	mov    -0x48(%rbp),%rax
    3ee7:	0f b6 00             	movzbl (%rax),%eax
    3eea:	84 c0                	test   %al,%al
    3eec:	74 18                	je     3f06 <ezxml_parse_str+0x4c7>
/media/ssd-partition/Documents/RootCauseAnalysisPruning/evaluation/test_bin/22-ezXML/ezxml/ezxml.c:518 (discriminator 1)
    3eee:	48 8b 45 b8          	mov    -0x48(%rbp),%rax
    3ef2:	48 8d 50 01          	lea    0x1(%rax),%rdx
    3ef6:	48 89 55 b8          	mov    %rdx,-0x48(%rbp)
    3efa:	c6 00 00             	movb   $0x0,(%rax)
/media/ssd-partition/Documents/RootCauseAnalysisPruning/evaluation/test_bin/22-ezXML/ezxml/ezxml.c:524 (discriminator 1)
                        else {
                            ezxml_free_attr(attr);
                            return ezxml_err(root, d, "missing %c", q);
                        }

                        for (j = 1; a && a[j] && strcmp(a[j], attr[l]); j +=3);
    3efd:	c7 45 cc 01 00 00 00 	movl   $0x1,-0x34(%rbp)
    3f04:	eb 37                	jmp    3f3d <ezxml_parse_str+0x4fe>
/media/ssd-partition/Documents/RootCauseAnalysisPruning/evaluation/test_bin/22-ezXML/ezxml/ezxml.c:520
                            ezxml_free_attr(attr);
    3f06:	48 8b 45 d8          	mov    -0x28(%rbp),%rax
    3f0a:	48 89 c7             	mov    %rax,%rdi
    3f0d:	e8 03 fa ff ff       	call   3915 <ezxml_free_attr>
/media/ssd-partition/Documents/RootCauseAnalysisPruning/evaluation/test_bin/22-ezXML/ezxml/ezxml.c:521
                            return ezxml_err(root, d, "missing %c", q);
    3f12:	0f be 55 c3          	movsbl -0x3d(%rbp),%edx
    3f16:	48 8b 75 d0          	mov    -0x30(%rbp),%rsi
    3f1a:	48 8b 45 e8          	mov    -0x18(%rbp),%rax
    3f1e:	89 d1                	mov    %edx,%ecx
    3f20:	48 8d 15 1d 32 00 00 	lea    0x321d(%rip),%rdx        # 7144 <_IO_stdin_used+0x144>
    3f27:	48 89 c7             	mov    %rax,%rdi
    3f2a:	b8 00 00 00 00       	mov    $0x0,%eax
    3f2f:	e8 bc db ff ff       	call   1af0 <ezxml_err>
    3f34:	e9 ab 08 00 00       	jmp    47e4 <ezxml_parse_str+0xda5>
/media/ssd-partition/Documents/RootCauseAnalysisPruning/evaluation/test_bin/22-ezXML/ezxml/ezxml.c:524 (discriminator 5)
                        for (j = 1; a && a[j] && strcmp(a[j], attr[l]); j +=3);
    3f39:	83 45 cc 03          	addl   $0x3,-0x34(%rbp)
/media/ssd-partition/Documents/RootCauseAnalysisPruning/evaluation/test_bin/22-ezXML/ezxml/ezxml.c:524 (discriminator 1)
    3f3d:	48 83 7d e0 00       	cmpq   $0x0,-0x20(%rbp)
    3f42:	74 59                	je     3f9d <ezxml_parse_str+0x55e>
/media/ssd-partition/Documents/RootCauseAnalysisPruning/evaluation/test_bin/22-ezXML/ezxml/ezxml.c:524 (discriminator 3)
    3f44:	8b 45 cc             	mov    -0x34(%rbp),%eax
    3f47:	48 98                	cltq   
    3f49:	48 8d 14 c5 00 00 00 	lea    0x0(,%rax,8),%rdx
    3f50:	00 
    3f51:	48 8b 45 e0          	mov    -0x20(%rbp),%rax
    3f55:	48 01 d0             	add    %rdx,%rax
    3f58:	48 8b 00             	mov    (%rax),%rax
    3f5b:	48 85 c0             	test   %rax,%rax
    3f5e:	74 3d                	je     3f9d <ezxml_parse_str+0x55e>
/media/ssd-partition/Documents/RootCauseAnalysisPruning/evaluation/test_bin/22-ezXML/ezxml/ezxml.c:524 (discriminator 4)
    3f60:	8b 45 c4             	mov    -0x3c(%rbp),%eax
    3f63:	48 98                	cltq   
    3f65:	48 8d 14 c5 00 00 00 	lea    0x0(,%rax,8),%rdx
    3f6c:	00 
    3f6d:	48 8b 45 d8          	mov    -0x28(%rbp),%rax
    3f71:	48 01 d0             	add    %rdx,%rax
    3f74:	48 8b 10             	mov    (%rax),%rdx
    3f77:	8b 45 cc             	mov    -0x34(%rbp),%eax
    3f7a:	48 98                	cltq   
    3f7c:	48 8d 0c c5 00 00 00 	lea    0x0(,%rax,8),%rcx
    3f83:	00 
    3f84:	48 8b 45 e0          	mov    -0x20(%rbp),%rax
    3f88:	48 01 c8             	add    %rcx,%rax
    3f8b:	48 8b 00             	mov    (%rax),%rax
    3f8e:	48 89 d6             	mov    %rdx,%rsi
    3f91:	48 89 c7             	mov    %rax,%rdi
    3f94:	e8 c7 d3 ff ff       	call   1360 <strcmp@plt>
    3f99:	85 c0                	test   %eax,%eax
    3f9b:	75 9c                	jne    3f39 <ezxml_parse_str+0x4fa>
/media/ssd-partition/Documents/RootCauseAnalysisPruning/evaluation/test_bin/22-ezXML/ezxml/ezxml.c:525
                        attr[l + 1] = ezxml_decode(attr[l + 1], root->ent, (a
    3f9d:	48 83 7d e0 00       	cmpq   $0x0,-0x20(%rbp)
    3fa2:	74 3f                	je     3fe3 <ezxml_parse_str+0x5a4>
/media/ssd-partition/Documents/RootCauseAnalysisPruning/evaluation/test_bin/22-ezXML/ezxml/ezxml.c:526
                                                   && a[j]) ? *a[j + 2] : ' ');
    3fa4:	8b 45 cc             	mov    -0x34(%rbp),%eax
    3fa7:	48 98                	cltq   
    3fa9:	48 8d 14 c5 00 00 00 	lea    0x0(,%rax,8),%rdx
    3fb0:	00 
    3fb1:	48 8b 45 e0          	mov    -0x20(%rbp),%rax
    3fb5:	48 01 d0             	add    %rdx,%rax
    3fb8:	48 8b 00             	mov    (%rax),%rax
    3fbb:	48 85 c0             	test   %rax,%rax
    3fbe:	74 23                	je     3fe3 <ezxml_parse_str+0x5a4>
/media/ssd-partition/Documents/RootCauseAnalysisPruning/evaluation/test_bin/22-ezXML/ezxml/ezxml.c:526 (discriminator 1)
    3fc0:	8b 45 cc             	mov    -0x34(%rbp),%eax
    3fc3:	48 98                	cltq   
    3fc5:	48 83 c0 02          	add    $0x2,%rax
    3fc9:	48 8d 14 c5 00 00 00 	lea    0x0(,%rax,8),%rdx
    3fd0:	00 
    3fd1:	48 8b 45 e0          	mov    -0x20(%rbp),%rax
    3fd5:	48 01 d0             	add    %rdx,%rax
    3fd8:	48 8b 00             	mov    (%rax),%rax
    3fdb:	0f b6 00             	movzbl (%rax),%eax
/media/ssd-partition/Documents/RootCauseAnalysisPruning/evaluation/test_bin/22-ezXML/ezxml/ezxml.c:525 (discriminator 1)
                        attr[l + 1] = ezxml_decode(attr[l + 1], root->ent, (a
    3fde:	0f be c0             	movsbl %al,%eax
    3fe1:	eb 05                	jmp    3fe8 <ezxml_parse_str+0x5a9>
    3fe3:	b8 20 00 00 00       	mov    $0x20,%eax
/media/ssd-partition/Documents/RootCauseAnalysisPruning/evaluation/test_bin/22-ezXML/ezxml/ezxml.c:525 (discriminator 3)
    3fe8:	48 8b 55 e8          	mov    -0x18(%rbp),%rdx
    3fec:	48 8b b2 80 00 00 00 	mov    0x80(%rdx),%rsi
    3ff3:	8b 55 c4             	mov    -0x3c(%rbp),%edx
    3ff6:	48 63 d2             	movslq %edx,%rdx
    3ff9:	48 83 c2 01          	add    $0x1,%rdx
    3ffd:	48 8d 0c d5 00 00 00 	lea    0x0(,%rdx,8),%rcx
    4004:	00 
    4005:	48 8b 55 d8          	mov    -0x28(%rbp),%rdx
    4009:	48 01 ca             	add    %rcx,%rdx
    400c:	48 8b 0a             	mov    (%rdx),%rcx
    400f:	8b 55 c4             	mov    -0x3c(%rbp),%edx
    4012:	48 63 d2             	movslq %edx,%rdx
    4015:	48 83 c2 01          	add    $0x1,%rdx
    4019:	48 8d 3c d5 00 00 00 	lea    0x0(,%rdx,8),%rdi
    4020:	00 
    4021:	48 8b 55 d8          	mov    -0x28(%rbp),%rdx
    4025:	48 8d 1c 17          	lea    (%rdi,%rdx,1),%rbx
    4029:	89 c2                	mov    %eax,%edx
    402b:	48 89 cf             	mov    %rcx,%rdi
    402e:	e8 22 dc ff ff       	call   1c55 <ezxml_decode>
    4033:	48 89 03             	mov    %rax,(%rbx)
/media/ssd-partition/Documents/RootCauseAnalysisPruning/evaluation/test_bin/22-ezXML/ezxml/ezxml.c:527 (discriminator 3)
                        if (attr[l + 1] < d || attr[l + 1] > s)
    4036:	8b 45 c4             	mov    -0x3c(%rbp),%eax
    4039:	48 98                	cltq   
    403b:	48 83 c0 01          	add    $0x1,%rax
    403f:	48 8d 14 c5 00 00 00 	lea    0x0(,%rax,8),%rdx
    4046:	00 
    4047:	48 8b 45 d8          	mov    -0x28(%rbp),%rax
    404b:	48 01 d0             	add    %rdx,%rax
    404e:	48 8b 00             	mov    (%rax),%rax
    4051:	48 39 45 d0          	cmp    %rax,-0x30(%rbp)
    4055:	77 24                	ja     407b <ezxml_parse_str+0x63c>
/media/ssd-partition/Documents/RootCauseAnalysisPruning/evaluation/test_bin/22-ezXML/ezxml/ezxml.c:527 (discriminator 1)
    4057:	8b 45 c4             	mov    -0x3c(%rbp),%eax
    405a:	48 98                	cltq   
    405c:	48 83 c0 01          	add    $0x1,%rax
    4060:	48 8d 14 c5 00 00 00 	lea    0x0(,%rax,8),%rdx
    4067:	00 
    4068:	48 8b 45 d8          	mov    -0x28(%rbp),%rax
    406c:	48 01 d0             	add    %rdx,%rax
    406f:	48 8b 10             	mov    (%rax),%rdx
    4072:	48 8b 45 b8          	mov    -0x48(%rbp),%rax
    4076:	48 39 c2             	cmp    %rax,%rdx
    4079:	76 3d                	jbe    40b8 <ezxml_parse_str+0x679>
/media/ssd-partition/Documents/RootCauseAnalysisPruning/evaluation/test_bin/22-ezXML/ezxml/ezxml.c:528
                            attr[l + 3][l / 2] = EZXML_TXTM; // value malloced
    407b:	8b 45 c4             	mov    -0x3c(%rbp),%eax
    407e:	48 98                	cltq   
    4080:	48 83 c0 03          	add    $0x3,%rax
    4084:	48 8d 14 c5 00 00 00 	lea    0x0(,%rax,8),%rdx
    408b:	00 
    408c:	48 8b 45 d8          	mov    -0x28(%rbp),%rax
    4090:	48 01 d0             	add    %rdx,%rax
    4093:	48 8b 10             	mov    (%rax),%rdx
    4096:	8b 45 c4             	mov    -0x3c(%rbp),%eax
    4099:	89 c1                	mov    %eax,%ecx
    409b:	c1 e9 1f             	shr    $0x1f,%ecx
    409e:	01 c8                	add    %ecx,%eax
    40a0:	d1 f8                	sar    %eax
    40a2:	48 98                	cltq   
    40a4:	48 01 d0             	add    %rdx,%rax
    40a7:	c6 00 40             	movb   $0x40,(%rax)
/media/ssd-partition/Documents/RootCauseAnalysisPruning/evaluation/test_bin/22-ezXML/ezxml/ezxml.c:531
                    }
                }
                while (isspace(*s)) s++;
    40aa:	eb 0c                	jmp    40b8 <ezxml_parse_str+0x679>
/media/ssd-partition/Documents/RootCauseAnalysisPruning/evaluation/test_bin/22-ezXML/ezxml/ezxml.c:531 (discriminator 2)
    40ac:	48 8b 45 b8          	mov    -0x48(%rbp),%rax
    40b0:	48 83 c0 01          	add    $0x1,%rax
    40b4:	48 89 45 b8          	mov    %rax,-0x48(%rbp)
/media/ssd-partition/Documents/RootCauseAnalysisPruning/evaluation/test_bin/22-ezXML/ezxml/ezxml.c:531 (discriminator 1)
    40b8:	e8 93 d3 ff ff       	call   1450 <__ctype_b_loc@plt>
    40bd:	48 8b 10             	mov    (%rax),%rdx
    40c0:	48 8b 45 b8          	mov    -0x48(%rbp),%rax
    40c4:	0f b6 00             	movzbl (%rax),%eax
    40c7:	48 0f be c0          	movsbq %al,%rax
    40cb:	48 01 c0             	add    %rax,%rax
    40ce:	48 01 d0             	add    %rdx,%rax
    40d1:	0f b7 00             	movzwl (%rax),%eax
    40d4:	0f b7 c0             	movzwl %ax,%eax
    40d7:	25 00 20 00 00       	and    $0x2000,%eax
    40dc:	85 c0                	test   %eax,%eax
    40de:	75 cc                	jne    40ac <ezxml_parse_str+0x66d>
/media/ssd-partition/Documents/RootCauseAnalysisPruning/evaluation/test_bin/22-ezXML/ezxml/ezxml.c:501 (discriminator 2)
            for (l = 0; *s && *s != '/' && *s != '>'; l += 2) { // new attrib
    40e0:	83 45 c4 02          	addl   $0x2,-0x3c(%rbp)
/media/ssd-partition/Documents/RootCauseAnalysisPruning/evaluation/test_bin/22-ezXML/ezxml/ezxml.c:501 (discriminator 1)
    40e4:	48 8b 45 b8          	mov    -0x48(%rbp),%rax
    40e8:	0f b6 00             	movzbl (%rax),%eax
    40eb:	84 c0                	test   %al,%al
    40ed:	74 1a                	je     4109 <ezxml_parse_str+0x6ca>
/media/ssd-partition/Documents/RootCauseAnalysisPruning/evaluation/test_bin/22-ezXML/ezxml/ezxml.c:501 (discriminator 3)
    40ef:	48 8b 45 b8          	mov    -0x48(%rbp),%rax
    40f3:	0f b6 00             	movzbl (%rax),%eax
    40f6:	3c 2f                	cmp    $0x2f,%al
    40f8:	74 0f                	je     4109 <ezxml_parse_str+0x6ca>
/media/ssd-partition/Documents/RootCauseAnalysisPruning/evaluation/test_bin/22-ezXML/ezxml/ezxml.c:501 (discriminator 4)
    40fa:	48 8b 45 b8          	mov    -0x48(%rbp),%rax
    40fe:	0f b6 00             	movzbl (%rax),%eax
    4101:	3c 3e                	cmp    $0x3e,%al
    4103:	0f 85 c0 fb ff ff    	jne    3cc9 <ezxml_parse_str+0x28a>
/media/ssd-partition/Documents/RootCauseAnalysisPruning/evaluation/test_bin/22-ezXML/ezxml/ezxml.c:534
            }

            if (*s == '/') { // self closing tag
    4109:	48 8b 45 b8          	mov    -0x48(%rbp),%rax
    410d:	0f b6 00             	movzbl (%rax),%eax
    4110:	3c 2f                	cmp    $0x2f,%al
    4112:	0f 85 9f 00 00 00    	jne    41b7 <ezxml_parse_str+0x778>
/media/ssd-partition/Documents/RootCauseAnalysisPruning/evaluation/test_bin/22-ezXML/ezxml/ezxml.c:535
                *(s++) = '\0';
    4118:	48 8b 45 b8          	mov    -0x48(%rbp),%rax
    411c:	48 8d 50 01          	lea    0x1(%rax),%rdx
    4120:	48 89 55 b8          	mov    %rdx,-0x48(%rbp)
    4124:	c6 00 00             	movb   $0x0,(%rax)
/media/ssd-partition/Documents/RootCauseAnalysisPruning/evaluation/test_bin/22-ezXML/ezxml/ezxml.c:536
                if ((*s && *s != '>') || (! *s && e != '>')) {
    4127:	48 8b 45 b8          	mov    -0x48(%rbp),%rax
    412b:	0f b6 00             	movzbl (%rax),%eax
    412e:	84 c0                	test   %al,%al
    4130:	74 0b                	je     413d <ezxml_parse_str+0x6fe>
/media/ssd-partition/Documents/RootCauseAnalysisPruning/evaluation/test_bin/22-ezXML/ezxml/ezxml.c:536 (discriminator 1)
    4132:	48 8b 45 b8          	mov    -0x48(%rbp),%rax
    4136:	0f b6 00             	movzbl (%rax),%eax
    4139:	3c 3e                	cmp    $0x3e,%al
    413b:	75 11                	jne    414e <ezxml_parse_str+0x70f>
/media/ssd-partition/Documents/RootCauseAnalysisPruning/evaluation/test_bin/22-ezXML/ezxml/ezxml.c:536 (discriminator 3)
    413d:	48 8b 45 b8          	mov    -0x48(%rbp),%rax
    4141:	0f b6 00             	movzbl (%rax),%eax
    4144:	84 c0                	test   %al,%al
    4146:	75 3c                	jne    4184 <ezxml_parse_str+0x745>
/media/ssd-partition/Documents/RootCauseAnalysisPruning/evaluation/test_bin/22-ezXML/ezxml/ezxml.c:536 (discriminator 4)
    4148:	80 7d c2 3e          	cmpb   $0x3e,-0x3e(%rbp)
    414c:	74 36                	je     4184 <ezxml_parse_str+0x745>
/media/ssd-partition/Documents/RootCauseAnalysisPruning/evaluation/test_bin/22-ezXML/ezxml/ezxml.c:537
                    if (l) ezxml_free_attr(attr);
    414e:	83 7d c4 00          	cmpl   $0x0,-0x3c(%rbp)
    4152:	74 0c                	je     4160 <ezxml_parse_str+0x721>
/media/ssd-partition/Documents/RootCauseAnalysisPruning/evaluation/test_bin/22-ezXML/ezxml/ezxml.c:537 (discriminator 1)
    4154:	48 8b 45 d8          	mov    -0x28(%rbp),%rax
    4158:	48 89 c7             	mov    %rax,%rdi
    415b:	e8 b5 f7 ff ff       	call   3915 <ezxml_free_attr>
/media/ssd-partition/Documents/RootCauseAnalysisPruning/evaluation/test_bin/22-ezXML/ezxml/ezxml.c:538
                    return ezxml_err(root, d, "missing >");
    4160:	48 8b 4d d0          	mov    -0x30(%rbp),%rcx
    4164:	48 8b 45 e8          	mov    -0x18(%rbp),%rax
    4168:	48 8d 15 e0 2f 00 00 	lea    0x2fe0(%rip),%rdx        # 714f <_IO_stdin_used+0x14f>
    416f:	48 89 ce             	mov    %rcx,%rsi
    4172:	48 89 c7             	mov    %rax,%rdi
    4175:	b8 00 00 00 00       	mov    $0x0,%eax
    417a:	e8 71 d9 ff ff       	call   1af0 <ezxml_err>
    417f:	e9 60 06 00 00       	jmp    47e4 <ezxml_parse_str+0xda5>
/media/ssd-partition/Documents/RootCauseAnalysisPruning/evaluation/test_bin/22-ezXML/ezxml/ezxml.c:540
                }
                ezxml_open_tag(root, d, attr);
    4184:	48 8b 55 d8          	mov    -0x28(%rbp),%rdx
    4188:	48 8b 4d d0          	mov    -0x30(%rbp),%rcx
    418c:	48 8b 45 e8          	mov    -0x18(%rbp),%rax
    4190:	48 89 ce             	mov    %rcx,%rsi
    4193:	48 89 c7             	mov    %rax,%rdi
    4196:	e8 da e0 ff ff       	call   2275 <ezxml_open_tag>
/media/ssd-partition/Documents/RootCauseAnalysisPruning/evaluation/test_bin/22-ezXML/ezxml/ezxml.c:541
                ezxml_close_tag(root, d, s);
    419b:	48 8b 55 b8          	mov    -0x48(%rbp),%rdx
    419f:	48 8b 4d d0          	mov    -0x30(%rbp),%rcx
    41a3:	48 8b 45 e8          	mov    -0x18(%rbp),%rax
    41a7:	48 89 ce             	mov    %rcx,%rsi
    41aa:	48 89 c7             	mov    %rax,%rdi
    41ad:	e8 e3 e2 ff ff       	call   2495 <ezxml_close_tag>
/media/ssd-partition/Documents/RootCauseAnalysisPruning/evaluation/test_bin/22-ezXML/ezxml/ezxml.c:534
            if (*s == '/') { // self closing tag
    41b2:	e9 0d 05 00 00       	jmp    46c4 <ezxml_parse_str+0xc85>
/media/ssd-partition/Documents/RootCauseAnalysisPruning/evaluation/test_bin/22-ezXML/ezxml/ezxml.c:543
            }
            else if ((q = *s) == '>' || (! *s && e == '>')) { // open tag
    41b7:	48 8b 45 b8          	mov    -0x48(%rbp),%rax
    41bb:	0f b6 00             	movzbl (%rax),%eax
    41be:	88 45 c3             	mov    %al,-0x3d(%rbp)
    41c1:	80 7d c3 3e          	cmpb   $0x3e,-0x3d(%rbp)
    41c5:	74 11                	je     41d8 <ezxml_parse_str+0x799>
/media/ssd-partition/Documents/RootCauseAnalysisPruning/evaluation/test_bin/22-ezXML/ezxml/ezxml.c:543 (discriminator 1)
    41c7:	48 8b 45 b8          	mov    -0x48(%rbp),%rax
    41cb:	0f b6 00             	movzbl (%rax),%eax
    41ce:	84 c0                	test   %al,%al
    41d0:	75 33                	jne    4205 <ezxml_parse_str+0x7c6>
/media/ssd-partition/Documents/RootCauseAnalysisPruning/evaluation/test_bin/22-ezXML/ezxml/ezxml.c:543 (discriminator 2)
    41d2:	80 7d c2 3e          	cmpb   $0x3e,-0x3e(%rbp)
    41d6:	75 2d                	jne    4205 <ezxml_parse_str+0x7c6>
/media/ssd-partition/Documents/RootCauseAnalysisPruning/evaluation/test_bin/22-ezXML/ezxml/ezxml.c:544
                *s = '\0'; // temporarily null terminate tag name
    41d8:	48 8b 45 b8          	mov    -0x48(%rbp),%rax
    41dc:	c6 00 00             	movb   $0x0,(%rax)
/media/ssd-partition/Documents/RootCauseAnalysisPruning/evaluation/test_bin/22-ezXML/ezxml/ezxml.c:545
                ezxml_open_tag(root, d, attr);
    41df:	48 8b 55 d8          	mov    -0x28(%rbp),%rdx
    41e3:	48 8b 4d d0          	mov    -0x30(%rbp),%rcx
    41e7:	48 8b 45 e8          	mov    -0x18(%rbp),%rax
    41eb:	48 89 ce             	mov    %rcx,%rsi
    41ee:	48 89 c7             	mov    %rax,%rdi
    41f1:	e8 7f e0 ff ff       	call   2275 <ezxml_open_tag>
/media/ssd-partition/Documents/RootCauseAnalysisPruning/evaluation/test_bin/22-ezXML/ezxml/ezxml.c:546
                *s = q;
    41f6:	48 8b 45 b8          	mov    -0x48(%rbp),%rax
    41fa:	0f b6 55 c3          	movzbl -0x3d(%rbp),%edx
    41fe:	88 10                	mov    %dl,(%rax)
/media/ssd-partition/Documents/RootCauseAnalysisPruning/evaluation/test_bin/22-ezXML/ezxml/ezxml.c:534
            if (*s == '/') { // self closing tag
    4200:	e9 bf 04 00 00       	jmp    46c4 <ezxml_parse_str+0xc85>
/media/ssd-partition/Documents/RootCauseAnalysisPruning/evaluation/test_bin/22-ezXML/ezxml/ezxml.c:549
            }
            else {
                if (l) ezxml_free_attr(attr);
    4205:	83 7d c4 00          	cmpl   $0x0,-0x3c(%rbp)
    4209:	74 0c                	je     4217 <ezxml_parse_str+0x7d8>
/media/ssd-partition/Documents/RootCauseAnalysisPruning/evaluation/test_bin/22-ezXML/ezxml/ezxml.c:549 (discriminator 1)
    420b:	48 8b 45 d8          	mov    -0x28(%rbp),%rax
    420f:	48 89 c7             	mov    %rax,%rdi
    4212:	e8 fe f6 ff ff       	call   3915 <ezxml_free_attr>
/media/ssd-partition/Documents/RootCauseAnalysisPruning/evaluation/test_bin/22-ezXML/ezxml/ezxml.c:550
                return ezxml_err(root, d, "missing >"); 
    4217:	48 8b 4d d0          	mov    -0x30(%rbp),%rcx
    421b:	48 8b 45 e8          	mov    -0x18(%rbp),%rax
    421f:	48 8d 15 29 2f 00 00 	lea    0x2f29(%rip),%rdx        # 714f <_IO_stdin_used+0x14f>
    4226:	48 89 ce             	mov    %rcx,%rsi
    4229:	48 89 c7             	mov    %rax,%rdi
    422c:	b8 00 00 00 00       	mov    $0x0,%eax
    4231:	e8 ba d8 ff ff       	call   1af0 <ezxml_err>
    4236:	e9 a9 05 00 00       	jmp    47e4 <ezxml_parse_str+0xda5>
/media/ssd-partition/Documents/RootCauseAnalysisPruning/evaluation/test_bin/22-ezXML/ezxml/ezxml.c:553
            }
        }
        else if (*s == '/') { // close tag
    423b:	48 8b 45 b8          	mov    -0x48(%rbp),%rax
    423f:	0f b6 00             	movzbl (%rax),%eax
    4242:	3c 2f                	cmp    $0x2f,%al
    4244:	0f 85 ef 00 00 00    	jne    4339 <ezxml_parse_str+0x8fa>
/media/ssd-partition/Documents/RootCauseAnalysisPruning/evaluation/test_bin/22-ezXML/ezxml/ezxml.c:554
            s += strcspn(d = s + 1, EZXML_WS ">") + 1;
    424a:	48 8b 45 b8          	mov    -0x48(%rbp),%rax
    424e:	48 83 c0 01          	add    $0x1,%rax
    4252:	48 89 45 d0          	mov    %rax,-0x30(%rbp)
    4256:	48 8b 45 d0          	mov    -0x30(%rbp),%rax
    425a:	48 8d 15 54 2e 00 00 	lea    0x2e54(%rip),%rdx        # 70b5 <_IO_stdin_used+0xb5>
    4261:	48 89 d6             	mov    %rdx,%rsi
    4264:	48 89 c7             	mov    %rax,%rdi
    4267:	e8 d4 d0 ff ff       	call   1340 <strcspn@plt>
    426c:	48 8d 50 01          	lea    0x1(%rax),%rdx
    4270:	48 8b 45 b8          	mov    -0x48(%rbp),%rax
    4274:	48 01 d0             	add    %rdx,%rax
    4277:	48 89 45 b8          	mov    %rax,-0x48(%rbp)
/media/ssd-partition/Documents/RootCauseAnalysisPruning/evaluation/test_bin/22-ezXML/ezxml/ezxml.c:555
            if (! (q = *s) && e != '>') return ezxml_err(root, d, "missing >");
    427b:	48 8b 45 b8          	mov    -0x48(%rbp),%rax
    427f:	0f b6 00             	movzbl (%rax),%eax
    4282:	88 45 c3             	mov    %al,-0x3d(%rbp)
    4285:	80 7d c3 00          	cmpb   $0x0,-0x3d(%rbp)
    4289:	75 2a                	jne    42b5 <ezxml_parse_str+0x876>
/media/ssd-partition/Documents/RootCauseAnalysisPruning/evaluation/test_bin/22-ezXML/ezxml/ezxml.c:555 (discriminator 1)
    428b:	80 7d c2 3e          	cmpb   $0x3e,-0x3e(%rbp)
    428f:	74 24                	je     42b5 <ezxml_parse_str+0x876>
/media/ssd-partition/Documents/RootCauseAnalysisPruning/evaluation/test_bin/22-ezXML/ezxml/ezxml.c:555 (discriminator 2)
    4291:	48 8b 4d d0          	mov    -0x30(%rbp),%rcx
    4295:	48 8b 45 e8          	mov    -0x18(%rbp),%rax
    4299:	48 8d 15 af 2e 00 00 	lea    0x2eaf(%rip),%rdx        # 714f <_IO_stdin_used+0x14f>
    42a0:	48 89 ce             	mov    %rcx,%rsi
    42a3:	48 89 c7             	mov    %rax,%rdi
    42a6:	b8 00 00 00 00       	mov    $0x0,%eax
    42ab:	e8 40 d8 ff ff       	call   1af0 <ezxml_err>
    42b0:	e9 2f 05 00 00       	jmp    47e4 <ezxml_parse_str+0xda5>
/media/ssd-partition/Documents/RootCauseAnalysisPruning/evaluation/test_bin/22-ezXML/ezxml/ezxml.c:556
            *s = '\0'; // temporarily null terminate tag name
    42b5:	48 8b 45 b8          	mov    -0x48(%rbp),%rax
    42b9:	c6 00 00             	movb   $0x0,(%rax)
/media/ssd-partition/Documents/RootCauseAnalysisPruning/evaluation/test_bin/22-ezXML/ezxml/ezxml.c:557
            if (ezxml_close_tag(root, d, s)) return &root->xml;
    42bc:	48 8b 55 b8          	mov    -0x48(%rbp),%rdx
    42c0:	48 8b 4d d0          	mov    -0x30(%rbp),%rcx
    42c4:	48 8b 45 e8          	mov    -0x18(%rbp),%rax
    42c8:	48 89 ce             	mov    %rcx,%rsi
    42cb:	48 89 c7             	mov    %rax,%rdi
    42ce:	e8 c2 e1 ff ff       	call   2495 <ezxml_close_tag>
    42d3:	48 85 c0             	test   %rax,%rax
    42d6:	74 09                	je     42e1 <ezxml_parse_str+0x8a2>
/media/ssd-partition/Documents/RootCauseAnalysisPruning/evaluation/test_bin/22-ezXML/ezxml/ezxml.c:557 (discriminator 1)
    42d8:	48 8b 45 e8          	mov    -0x18(%rbp),%rax
    42dc:	e9 03 05 00 00       	jmp    47e4 <ezxml_parse_str+0xda5>
/media/ssd-partition/Documents/RootCauseAnalysisPruning/evaluation/test_bin/22-ezXML/ezxml/ezxml.c:558
            if (isspace(*s = q)) s += strspn(s, EZXML_WS);
    42e1:	e8 6a d1 ff ff       	call   1450 <__ctype_b_loc@plt>
    42e6:	48 8b 08             	mov    (%rax),%rcx
    42e9:	48 8b 45 b8          	mov    -0x48(%rbp),%rax
    42ed:	0f b6 55 c3          	movzbl -0x3d(%rbp),%edx
    42f1:	88 10                	mov    %dl,(%rax)
    42f3:	0f b6 00             	movzbl (%rax),%eax
    42f6:	48 0f be c0          	movsbq %al,%rax
    42fa:	48 01 c0             	add    %rax,%rax
    42fd:	48 01 c8             	add    %rcx,%rax
    4300:	0f b7 00             	movzwl (%rax),%eax
    4303:	0f b7 c0             	movzwl %ax,%eax
    4306:	25 00 20 00 00       	and    $0x2000,%eax
    430b:	85 c0                	test   %eax,%eax
    430d:	0f 84 b1 03 00 00    	je     46c4 <ezxml_parse_str+0xc85>
/media/ssd-partition/Documents/RootCauseAnalysisPruning/evaluation/test_bin/22-ezXML/ezxml/ezxml.c:558 (discriminator 1)
    4313:	48 8b 5d b8          	mov    -0x48(%rbp),%rbx
    4317:	48 8b 45 b8          	mov    -0x48(%rbp),%rax
    431b:	48 8d 15 21 2d 00 00 	lea    0x2d21(%rip),%rdx        # 7043 <_IO_stdin_used+0x43>
    4322:	48 89 d6             	mov    %rdx,%rsi
    4325:	48 89 c7             	mov    %rax,%rdi
    4328:	e8 03 d0 ff ff       	call   1330 <strspn@plt>
    432d:	48 01 d8             	add    %rbx,%rax
    4330:	48 89 45 b8          	mov    %rax,-0x48(%rbp)
    4334:	e9 8b 03 00 00       	jmp    46c4 <ezxml_parse_str+0xc85>
/media/ssd-partition/Documents/RootCauseAnalysisPruning/evaluation/test_bin/22-ezXML/ezxml/ezxml.c:560
        }
        else if (! strncmp(s, "!--", 3)) { // xml comment
    4339:	48 8b 45 b8          	mov    -0x48(%rbp),%rax
    433d:	ba 03 00 00 00       	mov    $0x3,%edx
    4342:	48 8d 0d 10 2e 00 00 	lea    0x2e10(%rip),%rcx        # 7159 <_IO_stdin_used+0x159>
    4349:	48 89 ce             	mov    %rcx,%rsi
    434c:	48 89 c7             	mov    %rax,%rdi
    434f:	e8 1c cf ff ff       	call   1270 <strncmp@plt>
    4354:	85 c0                	test   %eax,%eax
    4356:	0f 85 86 00 00 00    	jne    43e2 <ezxml_parse_str+0x9a3>
/media/ssd-partition/Documents/RootCauseAnalysisPruning/evaluation/test_bin/22-ezXML/ezxml/ezxml.c:561
            if (! (s = strstr(s + 3, "--")) || (*(s += 2) != '>' && *s) ||
    435c:	48 8b 45 b8          	mov    -0x48(%rbp),%rax
    4360:	48 83 c0 03          	add    $0x3,%rax
    4364:	48 8d 15 f2 2d 00 00 	lea    0x2df2(%rip),%rdx        # 715d <_IO_stdin_used+0x15d>
    436b:	48 89 d6             	mov    %rdx,%rsi
    436e:	48 89 c7             	mov    %rax,%rdi
    4371:	e8 ca d0 ff ff       	call   1440 <strstr@plt>
    4376:	48 89 45 b8          	mov    %rax,-0x48(%rbp)
    437a:	48 8b 45 b8          	mov    -0x48(%rbp),%rax
    437e:	48 85 c0             	test   %rax,%rax
    4381:	74 3b                	je     43be <ezxml_parse_str+0x97f>
/media/ssd-partition/Documents/RootCauseAnalysisPruning/evaluation/test_bin/22-ezXML/ezxml/ezxml.c:561 (discriminator 1)
    4383:	48 8b 45 b8          	mov    -0x48(%rbp),%rax
    4387:	48 83 c0 02          	add    $0x2,%rax
    438b:	48 89 45 b8          	mov    %rax,-0x48(%rbp)
    438f:	48 8b 45 b8          	mov    -0x48(%rbp),%rax
    4393:	0f b6 00             	movzbl (%rax),%eax
    4396:	3c 3e                	cmp    $0x3e,%al
    4398:	74 0b                	je     43a5 <ezxml_parse_str+0x966>
/media/ssd-partition/Documents/RootCauseAnalysisPruning/evaluation/test_bin/22-ezXML/ezxml/ezxml.c:561 (discriminator 2)
    439a:	48 8b 45 b8          	mov    -0x48(%rbp),%rax
    439e:	0f b6 00             	movzbl (%rax),%eax
    43a1:	84 c0                	test   %al,%al
    43a3:	75 19                	jne    43be <ezxml_parse_str+0x97f>
/media/ssd-partition/Documents/RootCauseAnalysisPruning/evaluation/test_bin/22-ezXML/ezxml/ezxml.c:562 (discriminator 4)
                (! *s && e != '>')) return ezxml_err(root, d, "unclosed <!--");
    43a5:	48 8b 45 b8          	mov    -0x48(%rbp),%rax
    43a9:	0f b6 00             	movzbl (%rax),%eax
/media/ssd-partition/Documents/RootCauseAnalysisPruning/evaluation/test_bin/22-ezXML/ezxml/ezxml.c:561 (discriminator 4)
            if (! (s = strstr(s + 3, "--")) || (*(s += 2) != '>' && *s) ||
    43ac:	84 c0                	test   %al,%al
    43ae:	0f 85 10 03 00 00    	jne    46c4 <ezxml_parse_str+0xc85>
/media/ssd-partition/Documents/RootCauseAnalysisPruning/evaluation/test_bin/22-ezXML/ezxml/ezxml.c:562
                (! *s && e != '>')) return ezxml_err(root, d, "unclosed <!--");
    43b4:	80 7d c2 3e          	cmpb   $0x3e,-0x3e(%rbp)
    43b8:	0f 84 06 03 00 00    	je     46c4 <ezxml_parse_str+0xc85>
/media/ssd-partition/Documents/RootCauseAnalysisPruning/evaluation/test_bin/22-ezXML/ezxml/ezxml.c:562 (discriminator 1)
    43be:	48 8b 4d d0          	mov    -0x30(%rbp),%rcx
    43c2:	48 8b 45 e8          	mov    -0x18(%rbp),%rax
    43c6:	48 8d 15 93 2d 00 00 	lea    0x2d93(%rip),%rdx        # 7160 <_IO_stdin_used+0x160>
    43cd:	48 89 ce             	mov    %rcx,%rsi
    43d0:	48 89 c7             	mov    %rax,%rdi
    43d3:	b8 00 00 00 00       	mov    $0x0,%eax
    43d8:	e8 13 d7 ff ff       	call   1af0 <ezxml_err>
    43dd:	e9 02 04 00 00       	jmp    47e4 <ezxml_parse_str+0xda5>
/media/ssd-partition/Documents/RootCauseAnalysisPruning/evaluation/test_bin/22-ezXML/ezxml/ezxml.c:564
        }
        else if (! strncmp(s, "![CDATA[", 8)) { // cdata
    43e2:	48 8b 45 b8          	mov    -0x48(%rbp),%rax
    43e6:	ba 08 00 00 00       	mov    $0x8,%edx
    43eb:	48 8d 0d 7c 2d 00 00 	lea    0x2d7c(%rip),%rcx        # 716e <_IO_stdin_used+0x16e>
    43f2:	48 89 ce             	mov    %rcx,%rsi
    43f5:	48 89 c7             	mov    %rax,%rdi
    43f8:	e8 73 ce ff ff       	call   1270 <strncmp@plt>
    43fd:	85 c0                	test   %eax,%eax
    43ff:	0f 85 80 00 00 00    	jne    4485 <ezxml_parse_str+0xa46>
/media/ssd-partition/Documents/RootCauseAnalysisPruning/evaluation/test_bin/22-ezXML/ezxml/ezxml.c:565
            if ((s = strstr(s, "]]>")))
    4405:	48 8b 45 b8          	mov    -0x48(%rbp),%rax
    4409:	48 8d 15 67 2d 00 00 	lea    0x2d67(%rip),%rdx        # 7177 <_IO_stdin_used+0x177>
    4410:	48 89 d6             	mov    %rdx,%rsi
    4413:	48 89 c7             	mov    %rax,%rdi
    4416:	e8 25 d0 ff ff       	call   1440 <strstr@plt>
    441b:	48 89 45 b8          	mov    %rax,-0x48(%rbp)
    441f:	48 8b 45 b8          	mov    -0x48(%rbp),%rax
    4423:	48 85 c0             	test   %rax,%rax
    4426:	74 39                	je     4461 <ezxml_parse_str+0xa22>
/media/ssd-partition/Documents/RootCauseAnalysisPruning/evaluation/test_bin/22-ezXML/ezxml/ezxml.c:566
                ezxml_char_content(root, d + 8, (s += 2) - d - 10, 'c');
    4428:	48 8b 45 b8          	mov    -0x48(%rbp),%rax
    442c:	48 83 c0 02          	add    $0x2,%rax
    4430:	48 89 45 b8          	mov    %rax,-0x48(%rbp)
    4434:	48 8b 45 b8          	mov    -0x48(%rbp),%rax
    4438:	48 2b 45 d0          	sub    -0x30(%rbp),%rax
    443c:	48 83 e8 0a          	sub    $0xa,%rax
    4440:	48 89 c2             	mov    %rax,%rdx
    4443:	48 8b 45 d0          	mov    -0x30(%rbp),%rax
    4447:	48 8d 70 08          	lea    0x8(%rax),%rsi
    444b:	48 8b 45 e8          	mov    -0x18(%rbp),%rax
    444f:	b9 63 00 00 00       	mov    $0x63,%ecx
    4454:	48 89 c7             	mov    %rax,%rdi
    4457:	e8 9b de ff ff       	call   22f7 <ezxml_char_content>
    445c:	e9 63 02 00 00       	jmp    46c4 <ezxml_parse_str+0xc85>
/media/ssd-partition/Documents/RootCauseAnalysisPruning/evaluation/test_bin/22-ezXML/ezxml/ezxml.c:567
            else return ezxml_err(root, d, "unclosed <![CDATA[");
    4461:	48 8b 4d d0          	mov    -0x30(%rbp),%rcx
    4465:	48 8b 45 e8          	mov    -0x18(%rbp),%rax
    4469:	48 8d 15 0b 2d 00 00 	lea    0x2d0b(%rip),%rdx        # 717b <_IO_stdin_used+0x17b>
    4470:	48 89 ce             	mov    %rcx,%rsi
    4473:	48 89 c7             	mov    %rax,%rdi
    4476:	b8 00 00 00 00       	mov    $0x0,%eax
    447b:	e8 70 d6 ff ff       	call   1af0 <ezxml_err>
    4480:	e9 5f 03 00 00       	jmp    47e4 <ezxml_parse_str+0xda5>
/media/ssd-partition/Documents/RootCauseAnalysisPruning/evaluation/test_bin/22-ezXML/ezxml/ezxml.c:569
        }
        else if (! strncmp(s, "!DOCTYPE", 8)) { // dtd
    4485:	48 8b 45 b8          	mov    -0x48(%rbp),%rax
    4489:	ba 08 00 00 00       	mov    $0x8,%edx
    448e:	48 8d 0d f9 2c 00 00 	lea    0x2cf9(%rip),%rcx        # 718e <_IO_stdin_used+0x18e>
    4495:	48 89 ce             	mov    %rcx,%rsi
    4498:	48 89 c7             	mov    %rax,%rdi
    449b:	e8 d0 cd ff ff       	call   1270 <strncmp@plt>
    44a0:	85 c0                	test   %eax,%eax
    44a2:	0f 85 43 01 00 00    	jne    45eb <ezxml_parse_str+0xbac>
/media/ssd-partition/Documents/RootCauseAnalysisPruning/evaluation/test_bin/22-ezXML/ezxml/ezxml.c:570
            for (l = 0; *s && ((! l && *s != '>') || (l && (*s != ']' || 
    44a8:	c7 45 c4 00 00 00 00 	movl   $0x0,-0x3c(%rbp)
    44af:	eb 41                	jmp    44f2 <ezxml_parse_str+0xab3>
/media/ssd-partition/Documents/RootCauseAnalysisPruning/evaluation/test_bin/22-ezXML/ezxml/ezxml.c:572
                 *(s + strspn(s + 1, EZXML_WS) + 1) != '>')));
                 l = (*s == '[') ? 1 : l) s += strcspn(s + 1, "[]>") + 1;
    44b1:	48 8b 5d b8          	mov    -0x48(%rbp),%rbx
    44b5:	48 8b 45 b8          	mov    -0x48(%rbp),%rax
    44b9:	48 83 c0 01          	add    $0x1,%rax
    44bd:	48 8d 15 d3 2c 00 00 	lea    0x2cd3(%rip),%rdx        # 7197 <_IO_stdin_used+0x197>
    44c4:	48 89 d6             	mov    %rdx,%rsi
    44c7:	48 89 c7             	mov    %rax,%rdi
    44ca:	e8 71 ce ff ff       	call   1340 <strcspn@plt>
    44cf:	48 83 c0 01          	add    $0x1,%rax
    44d3:	48 01 d8             	add    %rbx,%rax
    44d6:	48 89 45 b8          	mov    %rax,-0x48(%rbp)
    44da:	48 8b 45 b8          	mov    -0x48(%rbp),%rax
    44de:	0f b6 00             	movzbl (%rax),%eax
    44e1:	3c 5b                	cmp    $0x5b,%al
    44e3:	74 05                	je     44ea <ezxml_parse_str+0xaab>
/media/ssd-partition/Documents/RootCauseAnalysisPruning/evaluation/test_bin/22-ezXML/ezxml/ezxml.c:572 (discriminator 1)
    44e5:	8b 45 c4             	mov    -0x3c(%rbp),%eax
    44e8:	eb 05                	jmp    44ef <ezxml_parse_str+0xab0>
/media/ssd-partition/Documents/RootCauseAnalysisPruning/evaluation/test_bin/22-ezXML/ezxml/ezxml.c:572 (discriminator 2)
    44ea:	b8 01 00 00 00       	mov    $0x1,%eax
/media/ssd-partition/Documents/RootCauseAnalysisPruning/evaluation/test_bin/22-ezXML/ezxml/ezxml.c:572 (discriminator 4)
    44ef:	89 45 c4             	mov    %eax,-0x3c(%rbp)
/media/ssd-partition/Documents/RootCauseAnalysisPruning/evaluation/test_bin/22-ezXML/ezxml/ezxml.c:570 (discriminator 1)
            for (l = 0; *s && ((! l && *s != '>') || (l && (*s != ']' || 
    44f2:	48 8b 45 b8          	mov    -0x48(%rbp),%rax
    44f6:	0f b6 00             	movzbl (%rax),%eax
    44f9:	84 c0                	test   %al,%al
    44fb:	74 52                	je     454f <ezxml_parse_str+0xb10>
/media/ssd-partition/Documents/RootCauseAnalysisPruning/evaluation/test_bin/22-ezXML/ezxml/ezxml.c:570 (discriminator 2)
    44fd:	83 7d c4 00          	cmpl   $0x0,-0x3c(%rbp)
    4501:	75 0b                	jne    450e <ezxml_parse_str+0xacf>
/media/ssd-partition/Documents/RootCauseAnalysisPruning/evaluation/test_bin/22-ezXML/ezxml/ezxml.c:570 (discriminator 3)
    4503:	48 8b 45 b8          	mov    -0x48(%rbp),%rax
    4507:	0f b6 00             	movzbl (%rax),%eax
    450a:	3c 3e                	cmp    $0x3e,%al
    450c:	75 a3                	jne    44b1 <ezxml_parse_str+0xa72>
/media/ssd-partition/Documents/RootCauseAnalysisPruning/evaluation/test_bin/22-ezXML/ezxml/ezxml.c:570 (discriminator 5)
    450e:	83 7d c4 00          	cmpl   $0x0,-0x3c(%rbp)
    4512:	74 3b                	je     454f <ezxml_parse_str+0xb10>
/media/ssd-partition/Documents/RootCauseAnalysisPruning/evaluation/test_bin/22-ezXML/ezxml/ezxml.c:570 (discriminator 6)
    4514:	48 8b 45 b8          	mov    -0x48(%rbp),%rax
    4518:	0f b6 00             	movzbl (%rax),%eax
    451b:	3c 5d                	cmp    $0x5d,%al
    451d:	75 92                	jne    44b1 <ezxml_parse_str+0xa72>
/media/ssd-partition/Documents/RootCauseAnalysisPruning/evaluation/test_bin/22-ezXML/ezxml/ezxml.c:571 (discriminator 7)
                 *(s + strspn(s + 1, EZXML_WS) + 1) != '>')));
    451f:	48 8b 5d b8          	mov    -0x48(%rbp),%rbx
    4523:	48 8b 45 b8          	mov    -0x48(%rbp),%rax
    4527:	48 83 c0 01          	add    $0x1,%rax
    452b:	48 8d 15 11 2b 00 00 	lea    0x2b11(%rip),%rdx        # 7043 <_IO_stdin_used+0x43>
    4532:	48 89 d6             	mov    %rdx,%rsi
    4535:	48 89 c7             	mov    %rax,%rdi
    4538:	e8 f3 cd ff ff       	call   1330 <strspn@plt>
    453d:	48 83 c0 01          	add    $0x1,%rax
    4541:	48 01 d8             	add    %rbx,%rax
    4544:	0f b6 00             	movzbl (%rax),%eax
/media/ssd-partition/Documents/RootCauseAnalysisPruning/evaluation/test_bin/22-ezXML/ezxml/ezxml.c:570 (discriminator 7)
            for (l = 0; *s && ((! l && *s != '>') || (l && (*s != ']' || 
    4547:	3c 3e                	cmp    $0x3e,%al
    4549:	0f 85 62 ff ff ff    	jne    44b1 <ezxml_parse_str+0xa72>
/media/ssd-partition/Documents/RootCauseAnalysisPruning/evaluation/test_bin/22-ezXML/ezxml/ezxml.c:573
            if (! *s && e != '>')
    454f:	48 8b 45 b8          	mov    -0x48(%rbp),%rax
    4553:	0f b6 00             	movzbl (%rax),%eax
    4556:	84 c0                	test   %al,%al
    4558:	75 2a                	jne    4584 <ezxml_parse_str+0xb45>
/media/ssd-partition/Documents/RootCauseAnalysisPruning/evaluation/test_bin/22-ezXML/ezxml/ezxml.c:573 (discriminator 1)
    455a:	80 7d c2 3e          	cmpb   $0x3e,-0x3e(%rbp)
    455e:	74 24                	je     4584 <ezxml_parse_str+0xb45>
/media/ssd-partition/Documents/RootCauseAnalysisPruning/evaluation/test_bin/22-ezXML/ezxml/ezxml.c:574
                return ezxml_err(root, d, "unclosed <!DOCTYPE");
    4560:	48 8b 4d d0          	mov    -0x30(%rbp),%rcx
    4564:	48 8b 45 e8          	mov    -0x18(%rbp),%rax
    4568:	48 8d 15 2c 2c 00 00 	lea    0x2c2c(%rip),%rdx        # 719b <_IO_stdin_used+0x19b>
    456f:	48 89 ce             	mov    %rcx,%rsi
    4572:	48 89 c7             	mov    %rax,%rdi
    4575:	b8 00 00 00 00       	mov    $0x0,%eax
    457a:	e8 71 d5 ff ff       	call   1af0 <ezxml_err>
    457f:	e9 60 02 00 00       	jmp    47e4 <ezxml_parse_str+0xda5>
/media/ssd-partition/Documents/RootCauseAnalysisPruning/evaluation/test_bin/22-ezXML/ezxml/ezxml.c:575
            d = (l) ? strchr(d, '[') + 1 : d;
    4584:	83 7d c4 00          	cmpl   $0x0,-0x3c(%rbp)
    4588:	74 17                	je     45a1 <ezxml_parse_str+0xb62>
/media/ssd-partition/Documents/RootCauseAnalysisPruning/evaluation/test_bin/22-ezXML/ezxml/ezxml.c:575 (discriminator 1)
    458a:	48 8b 45 d0          	mov    -0x30(%rbp),%rax
    458e:	be 5b 00 00 00       	mov    $0x5b,%esi
    4593:	48 89 c7             	mov    %rax,%rdi
    4596:	e8 55 cd ff ff       	call   12f0 <strchr@plt>
    459b:	48 83 c0 01          	add    $0x1,%rax
    459f:	eb 04                	jmp    45a5 <ezxml_parse_str+0xb66>
/media/ssd-partition/Documents/RootCauseAnalysisPruning/evaluation/test_bin/22-ezXML/ezxml/ezxml.c:575 (discriminator 2)
    45a1:	48 8b 45 d0          	mov    -0x30(%rbp),%rax
/media/ssd-partition/Documents/RootCauseAnalysisPruning/evaluation/test_bin/22-ezXML/ezxml/ezxml.c:575 (discriminator 4)
    45a5:	48 89 45 d0          	mov    %rax,-0x30(%rbp)
/media/ssd-partition/Documents/RootCauseAnalysisPruning/evaluation/test_bin/22-ezXML/ezxml/ezxml.c:576 (discriminator 4)
            if (l && ! ezxml_internal_dtd(root, d, s++ - d)) return &root->xml;
    45a9:	83 7d c4 00          	cmpl   $0x0,-0x3c(%rbp)
    45ad:	0f 84 11 01 00 00    	je     46c4 <ezxml_parse_str+0xc85>
/media/ssd-partition/Documents/RootCauseAnalysisPruning/evaluation/test_bin/22-ezXML/ezxml/ezxml.c:576 (discriminator 1)
    45b3:	48 8b 45 b8          	mov    -0x48(%rbp),%rax
    45b7:	48 8d 50 01          	lea    0x1(%rax),%rdx
    45bb:	48 89 55 b8          	mov    %rdx,-0x48(%rbp)
    45bf:	48 2b 45 d0          	sub    -0x30(%rbp),%rax
    45c3:	48 89 c2             	mov    %rax,%rdx
    45c6:	48 8b 4d d0          	mov    -0x30(%rbp),%rcx
    45ca:	48 8b 45 e8          	mov    -0x18(%rbp),%rax
    45ce:	48 89 ce             	mov    %rcx,%rsi
    45d1:	48 89 c7             	mov    %rax,%rdi
    45d4:	e8 2a e5 ff ff       	call   2b03 <ezxml_internal_dtd>
    45d9:	66 85 c0             	test   %ax,%ax
    45dc:	0f 85 e2 00 00 00    	jne    46c4 <ezxml_parse_str+0xc85>
/media/ssd-partition/Documents/RootCauseAnalysisPruning/evaluation/test_bin/22-ezXML/ezxml/ezxml.c:576 (discriminator 2)
    45e2:	48 8b 45 e8          	mov    -0x18(%rbp),%rax
    45e6:	e9 f9 01 00 00       	jmp    47e4 <ezxml_parse_str+0xda5>
/media/ssd-partition/Documents/RootCauseAnalysisPruning/evaluation/test_bin/22-ezXML/ezxml/ezxml.c:578
        }
        else if (*s == '?') { // <?...?> processing instructions
    45eb:	48 8b 45 b8          	mov    -0x48(%rbp),%rax
    45ef:	0f b6 00             	movzbl (%rax),%eax
    45f2:	3c 3f                	cmp    $0x3f,%al
    45f4:	0f 85 a6 00 00 00    	jne    46a0 <ezxml_parse_str+0xc61>
/media/ssd-partition/Documents/RootCauseAnalysisPruning/evaluation/test_bin/22-ezXML/ezxml/ezxml.c:579 (discriminator 3)
            do { s = strchr(s, '?'); } while (s && *(++s) && *s != '>');
    45fa:	48 8b 45 b8          	mov    -0x48(%rbp),%rax
    45fe:	be 3f 00 00 00       	mov    $0x3f,%esi
    4603:	48 89 c7             	mov    %rax,%rdi
    4606:	e8 e5 cc ff ff       	call   12f0 <strchr@plt>
    460b:	48 89 45 b8          	mov    %rax,-0x48(%rbp)
    460f:	48 8b 45 b8          	mov    -0x48(%rbp),%rax
    4613:	48 85 c0             	test   %rax,%rax
    4616:	74 22                	je     463a <ezxml_parse_str+0xbfb>
/media/ssd-partition/Documents/RootCauseAnalysisPruning/evaluation/test_bin/22-ezXML/ezxml/ezxml.c:579 (discriminator 1)
    4618:	48 8b 45 b8          	mov    -0x48(%rbp),%rax
    461c:	48 83 c0 01          	add    $0x1,%rax
    4620:	48 89 45 b8          	mov    %rax,-0x48(%rbp)
    4624:	48 8b 45 b8          	mov    -0x48(%rbp),%rax
    4628:	0f b6 00             	movzbl (%rax),%eax
    462b:	84 c0                	test   %al,%al
    462d:	74 0b                	je     463a <ezxml_parse_str+0xbfb>
/media/ssd-partition/Documents/RootCauseAnalysisPruning/evaluation/test_bin/22-ezXML/ezxml/ezxml.c:579 (discriminator 2)
    462f:	48 8b 45 b8          	mov    -0x48(%rbp),%rax
    4633:	0f b6 00             	movzbl (%rax),%eax
    4636:	3c 3e                	cmp    $0x3e,%al
    4638:	75 c0                	jne    45fa <ezxml_parse_str+0xbbb>
/media/ssd-partition/Documents/RootCauseAnalysisPruning/evaluation/test_bin/22-ezXML/ezxml/ezxml.c:580
            if (! s || (! *s && e != '>')) 
    463a:	48 8b 45 b8          	mov    -0x48(%rbp),%rax
    463e:	48 85 c0             	test   %rax,%rax
    4641:	74 11                	je     4654 <ezxml_parse_str+0xc15>
/media/ssd-partition/Documents/RootCauseAnalysisPruning/evaluation/test_bin/22-ezXML/ezxml/ezxml.c:580 (discriminator 1)
    4643:	48 8b 45 b8          	mov    -0x48(%rbp),%rax
    4647:	0f b6 00             	movzbl (%rax),%eax
    464a:	84 c0                	test   %al,%al
    464c:	75 2a                	jne    4678 <ezxml_parse_str+0xc39>
/media/ssd-partition/Documents/RootCauseAnalysisPruning/evaluation/test_bin/22-ezXML/ezxml/ezxml.c:580 (discriminator 2)
    464e:	80 7d c2 3e          	cmpb   $0x3e,-0x3e(%rbp)
    4652:	74 24                	je     4678 <ezxml_parse_str+0xc39>
/media/ssd-partition/Documents/RootCauseAnalysisPruning/evaluation/test_bin/22-ezXML/ezxml/ezxml.c:581
                return ezxml_err(root, d, "unclosed <?");
    4654:	48 8b 4d d0          	mov    -0x30(%rbp),%rcx
    4658:	48 8b 45 e8          	mov    -0x18(%rbp),%rax
    465c:	48 8d 15 4b 2b 00 00 	lea    0x2b4b(%rip),%rdx        # 71ae <_IO_stdin_used+0x1ae>
    4663:	48 89 ce             	mov    %rcx,%rsi
    4666:	48 89 c7             	mov    %rax,%rdi
    4669:	b8 00 00 00 00       	mov    $0x0,%eax
    466e:	e8 7d d4 ff ff       	call   1af0 <ezxml_err>
    4673:	e9 6c 01 00 00       	jmp    47e4 <ezxml_parse_str+0xda5>
/media/ssd-partition/Documents/RootCauseAnalysisPruning/evaluation/test_bin/22-ezXML/ezxml/ezxml.c:582
            else ezxml_proc_inst(root, d + 1, s - d - 2);
    4678:	48 8b 45 b8          	mov    -0x48(%rbp),%rax
    467c:	48 2b 45 d0          	sub    -0x30(%rbp),%rax
    4680:	48 83 e8 02          	sub    $0x2,%rax
    4684:	48 89 c2             	mov    %rax,%rdx
    4687:	48 8b 45 d0          	mov    -0x30(%rbp),%rax
    468b:	48 8d 48 01          	lea    0x1(%rax),%rcx
    468f:	48 8b 45 e8          	mov    -0x18(%rbp),%rax
    4693:	48 89 ce             	mov    %rcx,%rsi
    4696:	48 89 c7             	mov    %rax,%rdi
    4699:	e8 e2 df ff ff       	call   2680 <ezxml_proc_inst>
    469e:	eb 24                	jmp    46c4 <ezxml_parse_str+0xc85>
/media/ssd-partition/Documents/RootCauseAnalysisPruning/evaluation/test_bin/22-ezXML/ezxml/ezxml.c:584
        }
        else return ezxml_err(root, d, "unexpected <");
    46a0:	48 8b 4d d0          	mov    -0x30(%rbp),%rcx
    46a4:	48 8b 45 e8          	mov    -0x18(%rbp),%rax
    46a8:	48 8d 15 0b 2b 00 00 	lea    0x2b0b(%rip),%rdx        # 71ba <_IO_stdin_used+0x1ba>
    46af:	48 89 ce             	mov    %rcx,%rsi
    46b2:	48 89 c7             	mov    %rax,%rdi
    46b5:	b8 00 00 00 00       	mov    $0x0,%eax
    46ba:	e8 31 d4 ff ff       	call   1af0 <ezxml_err>
    46bf:	e9 20 01 00 00       	jmp    47e4 <ezxml_parse_str+0xda5>
/media/ssd-partition/Documents/RootCauseAnalysisPruning/evaluation/test_bin/22-ezXML/ezxml/ezxml.c:586
        
        if (! s || ! *s) break;
    46c4:	48 8b 45 b8          	mov    -0x48(%rbp),%rax
    46c8:	48 85 c0             	test   %rax,%rax
    46cb:	0f 84 a5 00 00 00    	je     4776 <ezxml_parse_str+0xd37>
/media/ssd-partition/Documents/RootCauseAnalysisPruning/evaluation/test_bin/22-ezXML/ezxml/ezxml.c:586 (discriminator 1)
    46d1:	48 8b 45 b8          	mov    -0x48(%rbp),%rax
    46d5:	0f b6 00             	movzbl (%rax),%eax
    46d8:	84 c0                	test   %al,%al
    46da:	0f 84 96 00 00 00    	je     4776 <ezxml_parse_str+0xd37>
/media/ssd-partition/Documents/RootCauseAnalysisPruning/evaluation/test_bin/22-ezXML/ezxml/ezxml.c:587
        *s = '\0';
    46e0:	48 8b 45 b8          	mov    -0x48(%rbp),%rax
    46e4:	c6 00 00             	movb   $0x0,(%rax)
/media/ssd-partition/Documents/RootCauseAnalysisPruning/evaluation/test_bin/22-ezXML/ezxml/ezxml.c:588
        d = ++s;
    46e7:	48 8b 45 b8          	mov    -0x48(%rbp),%rax
    46eb:	48 83 c0 01          	add    $0x1,%rax
    46ef:	48 89 45 b8          	mov    %rax,-0x48(%rbp)
    46f3:	48 8b 45 b8          	mov    -0x48(%rbp),%rax
    46f7:	48 89 45 d0          	mov    %rax,-0x30(%rbp)
/media/ssd-partition/Documents/RootCauseAnalysisPruning/evaluation/test_bin/22-ezXML/ezxml/ezxml.c:589
        if (*s && *s != '<') { // tag character content
    46fb:	48 8b 45 b8          	mov    -0x48(%rbp),%rax
    46ff:	0f b6 00             	movzbl (%rax),%eax
    4702:	84 c0                	test   %al,%al
    4704:	74 5c                	je     4762 <ezxml_parse_str+0xd23>
/media/ssd-partition/Documents/RootCauseAnalysisPruning/evaluation/test_bin/22-ezXML/ezxml/ezxml.c:589 (discriminator 1)
    4706:	48 8b 45 b8          	mov    -0x48(%rbp),%rax
    470a:	0f b6 00             	movzbl (%rax),%eax
    470d:	3c 3c                	cmp    $0x3c,%al
    470f:	74 51                	je     4762 <ezxml_parse_str+0xd23>
/media/ssd-partition/Documents/RootCauseAnalysisPruning/evaluation/test_bin/22-ezXML/ezxml/ezxml.c:590
            while (*s && *s != '<') s++;
    4711:	eb 0c                	jmp    471f <ezxml_parse_str+0xce0>
/media/ssd-partition/Documents/RootCauseAnalysisPruning/evaluation/test_bin/22-ezXML/ezxml/ezxml.c:590 (discriminator 3)
    4713:	48 8b 45 b8          	mov    -0x48(%rbp),%rax
    4717:	48 83 c0 01          	add    $0x1,%rax
    471b:	48 89 45 b8          	mov    %rax,-0x48(%rbp)
/media/ssd-partition/Documents/RootCauseAnalysisPruning/evaluation/test_bin/22-ezXML/ezxml/ezxml.c:590 (discriminator 1)
    471f:	48 8b 45 b8          	mov    -0x48(%rbp),%rax
    4723:	0f b6 00             	movzbl (%rax),%eax
    4726:	84 c0                	test   %al,%al
    4728:	74 0b                	je     4735 <ezxml_parse_str+0xcf6>
/media/ssd-partition/Documents/RootCauseAnalysisPruning/evaluation/test_bin/22-ezXML/ezxml/ezxml.c:590 (discriminator 2)
    472a:	48 8b 45 b8          	mov    -0x48(%rbp),%rax
    472e:	0f b6 00             	movzbl (%rax),%eax
    4731:	3c 3c                	cmp    $0x3c,%al
    4733:	75 de                	jne    4713 <ezxml_parse_str+0xcd4>
/media/ssd-partition/Documents/RootCauseAnalysisPruning/evaluation/test_bin/22-ezXML/ezxml/ezxml.c:591
            if (*s) ezxml_char_content(root, d, s - d, '&');
    4735:	48 8b 45 b8          	mov    -0x48(%rbp),%rax
    4739:	0f b6 00             	movzbl (%rax),%eax
    473c:	84 c0                	test   %al,%al
    473e:	74 32                	je     4772 <ezxml_parse_str+0xd33>
/media/ssd-partition/Documents/RootCauseAnalysisPruning/evaluation/test_bin/22-ezXML/ezxml/ezxml.c:591 (discriminator 1)
    4740:	48 8b 45 b8          	mov    -0x48(%rbp),%rax
    4744:	48 2b 45 d0          	sub    -0x30(%rbp),%rax
    4748:	48 89 c2             	mov    %rax,%rdx
    474b:	48 8b 75 d0          	mov    -0x30(%rbp),%rsi
    474f:	48 8b 45 e8          	mov    -0x18(%rbp),%rax
    4753:	b9 26 00 00 00       	mov    $0x26,%ecx
    4758:	48 89 c7             	mov    %rax,%rdi
    475b:	e8 97 db ff ff       	call   22f7 <ezxml_char_content>
    4760:	eb 0b                	jmp    476d <ezxml_parse_str+0xd2e>
/media/ssd-partition/Documents/RootCauseAnalysisPruning/evaluation/test_bin/22-ezXML/ezxml/ezxml.c:594
            else break;
        }
        else if (! *s) break;
    4762:	48 8b 45 b8          	mov    -0x48(%rbp),%rax
    4766:	0f b6 00             	movzbl (%rax),%eax
    4769:	84 c0                	test   %al,%al
    476b:	74 08                	je     4775 <ezxml_parse_str+0xd36>
/media/ssd-partition/Documents/RootCauseAnalysisPruning/evaluation/test_bin/22-ezXML/ezxml/ezxml.c:488 (discriminator 1)
        attr = (char **)EZXML_NIL;
    476d:	e9 e7 f3 ff ff       	jmp    3b59 <ezxml_parse_str+0x11a>
/media/ssd-partition/Documents/RootCauseAnalysisPruning/evaluation/test_bin/22-ezXML/ezxml/ezxml.c:592
            else break;
    4772:	90                   	nop
    4773:	eb 01                	jmp    4776 <ezxml_parse_str+0xd37>
/media/ssd-partition/Documents/RootCauseAnalysisPruning/evaluation/test_bin/22-ezXML/ezxml/ezxml.c:594
        else if (! *s) break;
    4775:	90                   	nop
/media/ssd-partition/Documents/RootCauseAnalysisPruning/evaluation/test_bin/22-ezXML/ezxml/ezxml.c:597
    }

    if (! root->cur) return &root->xml;
    4776:	48 8b 45 e8          	mov    -0x18(%rbp),%rax
    477a:	48 8b 40 50          	mov    0x50(%rax),%rax
    477e:	48 85 c0             	test   %rax,%rax
    4781:	75 06                	jne    4789 <ezxml_parse_str+0xd4a>
/media/ssd-partition/Documents/RootCauseAnalysisPruning/evaluation/test_bin/22-ezXML/ezxml/ezxml.c:597 (discriminator 1)
    4783:	48 8b 45 e8          	mov    -0x18(%rbp),%rax
    4787:	eb 5b                	jmp    47e4 <ezxml_parse_str+0xda5>
/media/ssd-partition/Documents/RootCauseAnalysisPruning/evaluation/test_bin/22-ezXML/ezxml/ezxml.c:598
    else if (! root->cur->name) return ezxml_err(root, d, "root tag missing");
    4789:	48 8b 45 e8          	mov    -0x18(%rbp),%rax
    478d:	48 8b 40 50          	mov    0x50(%rax),%rax
    4791:	48 8b 00             	mov    (%rax),%rax
    4794:	48 85 c0             	test   %rax,%rax
    4797:	75 21                	jne    47ba <ezxml_parse_str+0xd7b>
/media/ssd-partition/Documents/RootCauseAnalysisPruning/evaluation/test_bin/22-ezXML/ezxml/ezxml.c:598 (discriminator 1)
    4799:	48 8b 4d d0          	mov    -0x30(%rbp),%rcx
    479d:	48 8b 45 e8          	mov    -0x18(%rbp),%rax
    47a1:	48 8d 15 54 29 00 00 	lea    0x2954(%rip),%rdx        # 70fc <_IO_stdin_used+0xfc>
    47a8:	48 89 ce             	mov    %rcx,%rsi
    47ab:	48 89 c7             	mov    %rax,%rdi
    47ae:	b8 00 00 00 00       	mov    $0x0,%eax
    47b3:	e8 38 d3 ff ff       	call   1af0 <ezxml_err>
    47b8:	eb 2a                	jmp    47e4 <ezxml_parse_str+0xda5>
/media/ssd-partition/Documents/RootCauseAnalysisPruning/evaluation/test_bin/22-ezXML/ezxml/ezxml.c:599
    else return ezxml_err(root, d, "unclosed tag <%s>", root->cur->name);
    47ba:	48 8b 45 e8          	mov    -0x18(%rbp),%rax
    47be:	48 8b 40 50          	mov    0x50(%rax),%rax
    47c2:	48 8b 10             	mov    (%rax),%rdx
    47c5:	48 8b 75 d0          	mov    -0x30(%rbp),%rsi
    47c9:	48 8b 45 e8          	mov    -0x18(%rbp),%rax
    47cd:	48 89 d1             	mov    %rdx,%rcx
    47d0:	48 8d 15 f0 29 00 00 	lea    0x29f0(%rip),%rdx        # 71c7 <_IO_stdin_used+0x1c7>
    47d7:	48 89 c7             	mov    %rax,%rdi
    47da:	b8 00 00 00 00       	mov    $0x0,%eax
    47df:	e8 0c d3 ff ff       	call   1af0 <ezxml_err>
/media/ssd-partition/Documents/RootCauseAnalysisPruning/evaluation/test_bin/22-ezXML/ezxml/ezxml.c:600
}
    47e4:	48 8b 5d f8          	mov    -0x8(%rbp),%rbx
    47e8:	c9                   	leave  
    47e9:	c3                   	ret    

00000000000047ea <ezxml_parse_fp>:
ezxml_parse_fp():
/media/ssd-partition/Documents/RootCauseAnalysisPruning/evaluation/test_bin/22-ezXML/ezxml/ezxml.c:606

// Wrapper for ezxml_parse_str() that accepts a file stream. Reads the entire
// stream into memory and then parses it. For xml files, use ezxml_parse_file()
// or ezxml_parse_fd()
ezxml_t ezxml_parse_fp(FILE *fp)
{
    47ea:	f3 0f 1e fa          	endbr64 
    47ee:	55                   	push   %rbp
    47ef:	48 89 e5             	mov    %rsp,%rbp
    47f2:	48 83 ec 30          	sub    $0x30,%rsp
    47f6:	48 89 7d d8          	mov    %rdi,-0x28(%rbp)
/media/ssd-partition/Documents/RootCauseAnalysisPruning/evaluation/test_bin/22-ezXML/ezxml/ezxml.c:608
    ezxml_root_t root;
    size_t l, len = 0;
    47fa:	48 c7 45 e0 00 00 00 	movq   $0x0,-0x20(%rbp)
    4801:	00 
/media/ssd-partition/Documents/RootCauseAnalysisPruning/evaluation/test_bin/22-ezXML/ezxml/ezxml.c:611
    char *s;

    if (! (s = malloc(EZXML_BUFSIZE))) return NULL;
    4802:	bf 00 04 00 00       	mov    $0x400,%edi
    4807:	e8 94 cb ff ff       	call   13a0 <malloc@plt>
    480c:	48 89 45 e8          	mov    %rax,-0x18(%rbp)
    4810:	48 83 7d e8 00       	cmpq   $0x0,-0x18(%rbp)
    4815:	75 0a                	jne    4821 <ezxml_parse_fp+0x37>
/media/ssd-partition/Documents/RootCauseAnalysisPruning/evaluation/test_bin/22-ezXML/ezxml/ezxml.c:611 (discriminator 1)
    4817:	b8 00 00 00 00       	mov    $0x0,%eax
    481c:	e9 9c 00 00 00       	jmp    48bd <ezxml_parse_fp+0xd3>
/media/ssd-partition/Documents/RootCauseAnalysisPruning/evaluation/test_bin/22-ezXML/ezxml/ezxml.c:613
    do {
        len += (l = fread((s + len), 1, EZXML_BUFSIZE, fp));
    4821:	48 8b 55 e8          	mov    -0x18(%rbp),%rdx
    4825:	48 8b 45 e0          	mov    -0x20(%rbp),%rax
    4829:	48 8d 3c 02          	lea    (%rdx,%rax,1),%rdi
    482d:	48 8b 45 d8          	mov    -0x28(%rbp),%rax
    4831:	48 89 c1             	mov    %rax,%rcx
    4834:	ba 00 04 00 00       	mov    $0x400,%edx
    4839:	be 01 00 00 00       	mov    $0x1,%esi
    483e:	e8 5d ca ff ff       	call   12a0 <fread@plt>
    4843:	48 89 45 f0          	mov    %rax,-0x10(%rbp)
    4847:	48 8b 45 f0          	mov    -0x10(%rbp),%rax
    484b:	48 01 45 e0          	add    %rax,-0x20(%rbp)
/media/ssd-partition/Documents/RootCauseAnalysisPruning/evaluation/test_bin/22-ezXML/ezxml/ezxml.c:614
        if (l == EZXML_BUFSIZE) s = realloc(s, len + EZXML_BUFSIZE);
    484f:	48 81 7d f0 00 04 00 	cmpq   $0x400,-0x10(%rbp)
    4856:	00 
    4857:	75 1e                	jne    4877 <ezxml_parse_fp+0x8d>
/media/ssd-partition/Documents/RootCauseAnalysisPruning/evaluation/test_bin/22-ezXML/ezxml/ezxml.c:614 (discriminator 1)
    4859:	48 8b 45 e0          	mov    -0x20(%rbp),%rax
    485d:	48 8d 90 00 04 00 00 	lea    0x400(%rax),%rdx
    4864:	48 8b 45 e8          	mov    -0x18(%rbp),%rax
    4868:	48 89 d6             	mov    %rdx,%rsi
    486b:	48 89 c7             	mov    %rax,%rdi
    486e:	e8 3d cb ff ff       	call   13b0 <realloc@plt>
    4873:	48 89 45 e8          	mov    %rax,-0x18(%rbp)
/media/ssd-partition/Documents/RootCauseAnalysisPruning/evaluation/test_bin/22-ezXML/ezxml/ezxml.c:615
    } while (s && l == EZXML_BUFSIZE);
    4877:	48 83 7d e8 00       	cmpq   $0x0,-0x18(%rbp)
    487c:	74 0a                	je     4888 <ezxml_parse_fp+0x9e>
/media/ssd-partition/Documents/RootCauseAnalysisPruning/evaluation/test_bin/22-ezXML/ezxml/ezxml.c:615 (discriminator 1)
    487e:	48 81 7d f0 00 04 00 	cmpq   $0x400,-0x10(%rbp)
    4885:	00 
    4886:	74 99                	je     4821 <ezxml_parse_fp+0x37>
/media/ssd-partition/Documents/RootCauseAnalysisPruning/evaluation/test_bin/22-ezXML/ezxml/ezxml.c:617

    if (! s) return NULL;
    4888:	48 83 7d e8 00       	cmpq   $0x0,-0x18(%rbp)
    488d:	75 07                	jne    4896 <ezxml_parse_fp+0xac>
/media/ssd-partition/Documents/RootCauseAnalysisPruning/evaluation/test_bin/22-ezXML/ezxml/ezxml.c:617 (discriminator 1)
    488f:	b8 00 00 00 00       	mov    $0x0,%eax
    4894:	eb 27                	jmp    48bd <ezxml_parse_fp+0xd3>
/media/ssd-partition/Documents/RootCauseAnalysisPruning/evaluation/test_bin/22-ezXML/ezxml/ezxml.c:618
    root = (ezxml_root_t)ezxml_parse_str(s, len);
    4896:	48 8b 55 e0          	mov    -0x20(%rbp),%rdx
    489a:	48 8b 45 e8          	mov    -0x18(%rbp),%rax
    489e:	48 89 d6             	mov    %rdx,%rsi
    48a1:	48 89 c7             	mov    %rax,%rdi
    48a4:	e8 96 f1 ff ff       	call   3a3f <ezxml_parse_str>
    48a9:	48 89 45 f8          	mov    %rax,-0x8(%rbp)
/media/ssd-partition/Documents/RootCauseAnalysisPruning/evaluation/test_bin/22-ezXML/ezxml/ezxml.c:619
    root->len = -1; // so we know to free s in ezxml_free()
    48ad:	48 8b 45 f8          	mov    -0x8(%rbp),%rax
    48b1:	48 c7 40 60 ff ff ff 	movq   $0xffffffffffffffff,0x60(%rax)
    48b8:	ff 
/media/ssd-partition/Documents/RootCauseAnalysisPruning/evaluation/test_bin/22-ezXML/ezxml/ezxml.c:620
    return &root->xml;
    48b9:	48 8b 45 f8          	mov    -0x8(%rbp),%rax
/media/ssd-partition/Documents/RootCauseAnalysisPruning/evaluation/test_bin/22-ezXML/ezxml/ezxml.c:621
}
    48bd:	c9                   	leave  
    48be:	c3                   	ret    

00000000000048bf <ezxml_parse_fd>:
ezxml_parse_fd():
/media/ssd-partition/Documents/RootCauseAnalysisPruning/evaluation/test_bin/22-ezXML/ezxml/ezxml.c:627

// A wrapper for ezxml_parse_str() that accepts a file descriptor. First
// attempts to mem map the file. Failing that, reads the file into memory.
// Returns NULL on failure.
ezxml_t ezxml_parse_fd(int fd)
{
    48bf:	f3 0f 1e fa          	endbr64 
    48c3:	55                   	push   %rbp
    48c4:	48 89 e5             	mov    %rsp,%rbp
    48c7:	53                   	push   %rbx
    48c8:	48 81 ec d8 00 00 00 	sub    $0xd8,%rsp
    48cf:	89 bd 2c ff ff ff    	mov    %edi,-0xd4(%rbp)
    48d5:	64 48 8b 04 25 28 00 	mov    %fs:0x28,%rax
    48dc:	00 00 
    48de:	48 89 45 e8          	mov    %rax,-0x18(%rbp)
    48e2:	31 c0                	xor    %eax,%eax
/media/ssd-partition/Documents/RootCauseAnalysisPruning/evaluation/test_bin/22-ezXML/ezxml/ezxml.c:633
    ezxml_root_t root;
    struct stat st;
    size_t l;
    void *m;

    if (fd < 0) return NULL;
    48e4:	83 bd 2c ff ff ff 00 	cmpl   $0x0,-0xd4(%rbp)
    48eb:	79 0a                	jns    48f7 <ezxml_parse_fd+0x38>
/media/ssd-partition/Documents/RootCauseAnalysisPruning/evaluation/test_bin/22-ezXML/ezxml/ezxml.c:633 (discriminator 1)
    48ed:	b8 00 00 00 00       	mov    $0x0,%eax
    48f2:	e9 66 01 00 00       	jmp    4a5d <ezxml_parse_fd+0x19e>
/media/ssd-partition/Documents/RootCauseAnalysisPruning/evaluation/test_bin/22-ezXML/ezxml/ezxml.c:634
    fstat(fd, &st);
    48f7:	48 8d 95 50 ff ff ff 	lea    -0xb0(%rbp),%rdx
    48fe:	8b 85 2c ff ff ff    	mov    -0xd4(%rbp),%eax
    4904:	48 89 d6             	mov    %rdx,%rsi
    4907:	89 c7                	mov    %eax,%edi
    4909:	e8 22 cb ff ff       	call   1430 <fstat@plt>
/media/ssd-partition/Documents/RootCauseAnalysisPruning/evaluation/test_bin/22-ezXML/ezxml/ezxml.c:637

#ifndef EZXML_NOMMAP
    l = (st.st_size + sysconf(_SC_PAGESIZE) - 1) & ~(sysconf(_SC_PAGESIZE) -1);
    490e:	48 8b 5d 80          	mov    -0x80(%rbp),%rbx
    4912:	bf 1e 00 00 00       	mov    $0x1e,%edi
    4917:	e8 e4 ca ff ff       	call   1400 <sysconf@plt>
    491c:	48 01 d8             	add    %rbx,%rax
    491f:	48 8d 58 ff          	lea    -0x1(%rax),%rbx
    4923:	bf 1e 00 00 00       	mov    $0x1e,%edi
    4928:	e8 d3 ca ff ff       	call   1400 <sysconf@plt>
    492d:	48 f7 d8             	neg    %rax
    4930:	48 21 d8             	and    %rbx,%rax
    4933:	48 89 85 40 ff ff ff 	mov    %rax,-0xc0(%rbp)
/media/ssd-partition/Documents/RootCauseAnalysisPruning/evaluation/test_bin/22-ezXML/ezxml/ezxml.c:638
    if ((m = mmap(NULL, l, PROT_READ | PROT_WRITE, MAP_PRIVATE, fd, 0)) !=
    493a:	8b 95 2c ff ff ff    	mov    -0xd4(%rbp),%edx
    4940:	48 8b 85 40 ff ff ff 	mov    -0xc0(%rbp),%rax
    4947:	41 b9 00 00 00 00    	mov    $0x0,%r9d
    494d:	41 89 d0             	mov    %edx,%r8d
    4950:	b9 02 00 00 00       	mov    $0x2,%ecx
    4955:	ba 03 00 00 00       	mov    $0x3,%edx
    495a:	48 89 c6             	mov    %rax,%rsi
    495d:	bf 00 00 00 00       	mov    $0x0,%edi
    4962:	e8 79 c9 ff ff       	call   12e0 <mmap@plt>
    4967:	48 89 85 48 ff ff ff 	mov    %rax,-0xb8(%rbp)
    496e:	48 83 bd 48 ff ff ff 	cmpq   $0xffffffffffffffff,-0xb8(%rbp)
    4975:	ff 
    4976:	74 74                	je     49ec <ezxml_parse_fd+0x12d>
/media/ssd-partition/Documents/RootCauseAnalysisPruning/evaluation/test_bin/22-ezXML/ezxml/ezxml.c:640
        MAP_FAILED) {
        madvise(m, l, MADV_SEQUENTIAL); // optimize for sequential access
    4978:	48 8b 8d 40 ff ff ff 	mov    -0xc0(%rbp),%rcx
    497f:	48 8b 85 48 ff ff ff 	mov    -0xb8(%rbp),%rax
    4986:	ba 02 00 00 00       	mov    $0x2,%edx
    498b:	48 89 ce             	mov    %rcx,%rsi
    498e:	48 89 c7             	mov    %rax,%rdi
    4991:	e8 3a ca ff ff       	call   13d0 <madvise@plt>
/media/ssd-partition/Documents/RootCauseAnalysisPruning/evaluation/test_bin/22-ezXML/ezxml/ezxml.c:641
        root = (ezxml_root_t)ezxml_parse_str(m, st.st_size);
    4996:	48 8b 45 80          	mov    -0x80(%rbp),%rax
    499a:	48 89 c2             	mov    %rax,%rdx
    499d:	48 8b 85 48 ff ff ff 	mov    -0xb8(%rbp),%rax
    49a4:	48 89 d6             	mov    %rdx,%rsi
    49a7:	48 89 c7             	mov    %rax,%rdi
    49aa:	e8 90 f0 ff ff       	call   3a3f <ezxml_parse_str>
    49af:	48 89 85 38 ff ff ff 	mov    %rax,-0xc8(%rbp)
/media/ssd-partition/Documents/RootCauseAnalysisPruning/evaluation/test_bin/22-ezXML/ezxml/ezxml.c:642
        madvise(m, root->len = l, MADV_NORMAL); // put it back to normal
    49b6:	48 8b 85 38 ff ff ff 	mov    -0xc8(%rbp),%rax
    49bd:	48 8b 95 40 ff ff ff 	mov    -0xc0(%rbp),%rdx
    49c4:	48 89 50 60          	mov    %rdx,0x60(%rax)
    49c8:	48 8b 85 38 ff ff ff 	mov    -0xc8(%rbp),%rax
    49cf:	48 8b 48 60          	mov    0x60(%rax),%rcx
    49d3:	48 8b 85 48 ff ff ff 	mov    -0xb8(%rbp),%rax
    49da:	ba 00 00 00 00       	mov    $0x0,%edx
    49df:	48 89 ce             	mov    %rcx,%rsi
    49e2:	48 89 c7             	mov    %rax,%rdi
    49e5:	e8 e6 c9 ff ff       	call   13d0 <madvise@plt>
    49ea:	eb 6a                	jmp    4a56 <ezxml_parse_fd+0x197>
/media/ssd-partition/Documents/RootCauseAnalysisPruning/evaluation/test_bin/22-ezXML/ezxml/ezxml.c:646
    }
    else { // mmap failed, read file into memory
#endif // EZXML_NOMMAP
        l = read(fd, m = malloc(st.st_size), st.st_size);
    49ec:	48 8b 45 80          	mov    -0x80(%rbp),%rax
    49f0:	48 89 c3             	mov    %rax,%rbx
    49f3:	48 8b 45 80          	mov    -0x80(%rbp),%rax
    49f7:	48 89 c7             	mov    %rax,%rdi
    49fa:	e8 a1 c9 ff ff       	call   13a0 <malloc@plt>
    49ff:	48 89 85 48 ff ff ff 	mov    %rax,-0xb8(%rbp)
    4a06:	48 8b 8d 48 ff ff ff 	mov    -0xb8(%rbp),%rcx
    4a0d:	8b 85 2c ff ff ff    	mov    -0xd4(%rbp),%eax
    4a13:	48 89 da             	mov    %rbx,%rdx
    4a16:	48 89 ce             	mov    %rcx,%rsi
    4a19:	89 c7                	mov    %eax,%edi
    4a1b:	e8 30 c9 ff ff       	call   1350 <read@plt>
    4a20:	48 89 85 40 ff ff ff 	mov    %rax,-0xc0(%rbp)
/media/ssd-partition/Documents/RootCauseAnalysisPruning/evaluation/test_bin/22-ezXML/ezxml/ezxml.c:647
        root = (ezxml_root_t)ezxml_parse_str(m, l);
    4a27:	48 8b 95 40 ff ff ff 	mov    -0xc0(%rbp),%rdx
    4a2e:	48 8b 85 48 ff ff ff 	mov    -0xb8(%rbp),%rax
    4a35:	48 89 d6             	mov    %rdx,%rsi
    4a38:	48 89 c7             	mov    %rax,%rdi
    4a3b:	e8 ff ef ff ff       	call   3a3f <ezxml_parse_str>
    4a40:	48 89 85 38 ff ff ff 	mov    %rax,-0xc8(%rbp)
/media/ssd-partition/Documents/RootCauseAnalysisPruning/evaluation/test_bin/22-ezXML/ezxml/ezxml.c:648
        root->len = -1; // so we know to free s in ezxml_free()
    4a47:	48 8b 85 38 ff ff ff 	mov    -0xc8(%rbp),%rax
    4a4e:	48 c7 40 60 ff ff ff 	movq   $0xffffffffffffffff,0x60(%rax)
    4a55:	ff 
/media/ssd-partition/Documents/RootCauseAnalysisPruning/evaluation/test_bin/22-ezXML/ezxml/ezxml.c:652
#ifndef EZXML_NOMMAP
    }
#endif // EZXML_NOMMAP
    return &root->xml;
    4a56:	48 8b 85 38 ff ff ff 	mov    -0xc8(%rbp),%rax
/media/ssd-partition/Documents/RootCauseAnalysisPruning/evaluation/test_bin/22-ezXML/ezxml/ezxml.c:653 (discriminator 1)
}
    4a5d:	48 8b 55 e8          	mov    -0x18(%rbp),%rdx
    4a61:	64 48 2b 14 25 28 00 	sub    %fs:0x28,%rdx
    4a68:	00 00 
    4a6a:	74 05                	je     4a71 <ezxml_parse_fd+0x1b2>
/media/ssd-partition/Documents/RootCauseAnalysisPruning/evaluation/test_bin/22-ezXML/ezxml/ezxml.c:653
    4a6c:	e8 5f c8 ff ff       	call   12d0 <__stack_chk_fail@plt>
    4a71:	48 8b 5d f8          	mov    -0x8(%rbp),%rbx
    4a75:	c9                   	leave  
    4a76:	c3                   	ret    

0000000000004a77 <ezxml_parse_file>:
ezxml_parse_file():
/media/ssd-partition/Documents/RootCauseAnalysisPruning/evaluation/test_bin/22-ezXML/ezxml/ezxml.c:657

// a wrapper for ezxml_parse_fd that accepts a file name
ezxml_t ezxml_parse_file(const char *file)
{
    4a77:	f3 0f 1e fa          	endbr64 
    4a7b:	55                   	push   %rbp
    4a7c:	48 89 e5             	mov    %rsp,%rbp
    4a7f:	48 83 ec 20          	sub    $0x20,%rsp
    4a83:	48 89 7d e8          	mov    %rdi,-0x18(%rbp)
/media/ssd-partition/Documents/RootCauseAnalysisPruning/evaluation/test_bin/22-ezXML/ezxml/ezxml.c:658
    int fd = open(file, O_RDONLY, 0);
    4a87:	48 8b 45 e8          	mov    -0x18(%rbp),%rax
    4a8b:	ba 00 00 00 00       	mov    $0x0,%edx
    4a90:	be 00 00 00 00       	mov    $0x0,%esi
    4a95:	48 89 c7             	mov    %rax,%rdi
    4a98:	b8 00 00 00 00       	mov    $0x0,%eax
    4a9d:	e8 4e c9 ff ff       	call   13f0 <open@plt>
    4aa2:	89 45 f4             	mov    %eax,-0xc(%rbp)
/media/ssd-partition/Documents/RootCauseAnalysisPruning/evaluation/test_bin/22-ezXML/ezxml/ezxml.c:659
    ezxml_t xml = ezxml_parse_fd(fd);
    4aa5:	8b 45 f4             	mov    -0xc(%rbp),%eax
    4aa8:	89 c7                	mov    %eax,%edi
    4aaa:	e8 10 fe ff ff       	call   48bf <ezxml_parse_fd>
    4aaf:	48 89 45 f8          	mov    %rax,-0x8(%rbp)
/media/ssd-partition/Documents/RootCauseAnalysisPruning/evaluation/test_bin/22-ezXML/ezxml/ezxml.c:661
    
    if (fd >= 0) close(fd);
    4ab3:	83 7d f4 00          	cmpl   $0x0,-0xc(%rbp)
    4ab7:	78 0a                	js     4ac3 <ezxml_parse_file+0x4c>
/media/ssd-partition/Documents/RootCauseAnalysisPruning/evaluation/test_bin/22-ezXML/ezxml/ezxml.c:661 (discriminator 1)
    4ab9:	8b 45 f4             	mov    -0xc(%rbp),%eax
    4abc:	89 c7                	mov    %eax,%edi
    4abe:	e8 5d c8 ff ff       	call   1320 <close@plt>
/media/ssd-partition/Documents/RootCauseAnalysisPruning/evaluation/test_bin/22-ezXML/ezxml/ezxml.c:662
    return xml;
    4ac3:	48 8b 45 f8          	mov    -0x8(%rbp),%rax
/media/ssd-partition/Documents/RootCauseAnalysisPruning/evaluation/test_bin/22-ezXML/ezxml/ezxml.c:663
}
    4ac7:	c9                   	leave  
    4ac8:	c3                   	ret    

0000000000004ac9 <ezxml_ampencode>:
ezxml_ampencode():
/media/ssd-partition/Documents/RootCauseAnalysisPruning/evaluation/test_bin/22-ezXML/ezxml/ezxml.c:669

// Encodes ampersand sequences appending the results to *dst, reallocating *dst
// if length excedes max. a is non-zero for attribute encoding. Returns *dst
char *ezxml_ampencode(const char *s, size_t len, char **dst, size_t *dlen,
                      size_t *max, short a)
{
    4ac9:	f3 0f 1e fa          	endbr64 
    4acd:	55                   	push   %rbp
    4ace:	48 89 e5             	mov    %rsp,%rbp
    4ad1:	48 83 ec 40          	sub    $0x40,%rsp
    4ad5:	48 89 7d e8          	mov    %rdi,-0x18(%rbp)
    4ad9:	48 89 75 e0          	mov    %rsi,-0x20(%rbp)
    4add:	48 89 55 d8          	mov    %rdx,-0x28(%rbp)
    4ae1:	48 89 4d d0          	mov    %rcx,-0x30(%rbp)
    4ae5:	4c 89 45 c8          	mov    %r8,-0x38(%rbp)
    4ae9:	44 89 c8             	mov    %r9d,%eax
    4aec:	66 89 45 c4          	mov    %ax,-0x3c(%rbp)
/media/ssd-partition/Documents/RootCauseAnalysisPruning/evaluation/test_bin/22-ezXML/ezxml/ezxml.c:672
    const char *e;
    
    for (e = s + len; s != e; s++) {
    4af0:	48 8b 55 e8          	mov    -0x18(%rbp),%rdx
    4af4:	48 8b 45 e0          	mov    -0x20(%rbp),%rax
    4af8:	48 01 d0             	add    %rdx,%rax
    4afb:	48 89 45 f8          	mov    %rax,-0x8(%rbp)
    4aff:	e9 a3 02 00 00       	jmp    4da7 <ezxml_ampencode+0x2de>
/media/ssd-partition/Documents/RootCauseAnalysisPruning/evaluation/test_bin/22-ezXML/ezxml/ezxml.c:673 (discriminator 2)
        while (*dlen + 10 > *max) *dst = realloc(*dst, *max += EZXML_BUFSIZE);
    4b04:	48 8b 45 c8          	mov    -0x38(%rbp),%rax
    4b08:	48 8b 00             	mov    (%rax),%rax
    4b0b:	48 8d 90 00 04 00 00 	lea    0x400(%rax),%rdx
    4b12:	48 8b 45 c8          	mov    -0x38(%rbp),%rax
    4b16:	48 89 10             	mov    %rdx,(%rax)
    4b19:	48 8b 45 c8          	mov    -0x38(%rbp),%rax
    4b1d:	48 8b 10             	mov    (%rax),%rdx
    4b20:	48 8b 45 d8          	mov    -0x28(%rbp),%rax
    4b24:	48 8b 00             	mov    (%rax),%rax
    4b27:	48 89 d6             	mov    %rdx,%rsi
    4b2a:	48 89 c7             	mov    %rax,%rdi
    4b2d:	e8 7e c8 ff ff       	call   13b0 <realloc@plt>
    4b32:	48 8b 55 d8          	mov    -0x28(%rbp),%rdx
    4b36:	48 89 02             	mov    %rax,(%rdx)
/media/ssd-partition/Documents/RootCauseAnalysisPruning/evaluation/test_bin/22-ezXML/ezxml/ezxml.c:673 (discriminator 1)
    4b39:	48 8b 45 d0          	mov    -0x30(%rbp),%rax
    4b3d:	48 8b 00             	mov    (%rax),%rax
    4b40:	48 8d 50 0a          	lea    0xa(%rax),%rdx
    4b44:	48 8b 45 c8          	mov    -0x38(%rbp),%rax
    4b48:	48 8b 00             	mov    (%rax),%rax
    4b4b:	48 39 c2             	cmp    %rax,%rdx
    4b4e:	77 b4                	ja     4b04 <ezxml_ampencode+0x3b>
/media/ssd-partition/Documents/RootCauseAnalysisPruning/evaluation/test_bin/22-ezXML/ezxml/ezxml.c:675

        switch (*s) {
    4b50:	48 8b 45 e8          	mov    -0x18(%rbp),%rax
    4b54:	0f b6 00             	movzbl (%rax),%eax
    4b57:	0f be c0             	movsbl %al,%eax
    4b5a:	83 f8 3e             	cmp    $0x3e,%eax
    4b5d:	0f 87 19 02 00 00    	ja     4d7c <ezxml_ampencode+0x2b3>
    4b63:	89 c0                	mov    %eax,%eax
    4b65:	48 8d 14 85 00 00 00 	lea    0x0(,%rax,4),%rdx
    4b6c:	00 
    4b6d:	48 8d 05 94 26 00 00 	lea    0x2694(%rip),%rax        # 7208 <_IO_stdin_used+0x208>
    4b74:	8b 04 02             	mov    (%rdx,%rax,1),%eax
    4b77:	48 98                	cltq   
    4b79:	48 8d 15 88 26 00 00 	lea    0x2688(%rip),%rdx        # 7208 <_IO_stdin_used+0x208>
    4b80:	48 01 d0             	add    %rdx,%rax
    4b83:	3e ff e0             	notrack jmp *%rax
/media/ssd-partition/Documents/RootCauseAnalysisPruning/evaluation/test_bin/22-ezXML/ezxml/ezxml.c:676
        case '\0': return *dst;
    4b86:	48 8b 45 d8          	mov    -0x28(%rbp),%rax
    4b8a:	48 8b 00             	mov    (%rax),%rax
    4b8d:	e9 2a 02 00 00       	jmp    4dbc <ezxml_ampencode+0x2f3>
/media/ssd-partition/Documents/RootCauseAnalysisPruning/evaluation/test_bin/22-ezXML/ezxml/ezxml.c:677
        case '&': *dlen += sprintf(*dst + *dlen, "&amp;"); break;
    4b92:	48 8b 45 d8          	mov    -0x28(%rbp),%rax
    4b96:	48 8b 10             	mov    (%rax),%rdx
    4b99:	48 8b 45 d0          	mov    -0x30(%rbp),%rax
    4b9d:	48 8b 00             	mov    (%rax),%rax
    4ba0:	48 01 d0             	add    %rdx,%rax
    4ba3:	48 8d 15 2f 26 00 00 	lea    0x262f(%rip),%rdx        # 71d9 <_IO_stdin_used+0x1d9>
    4baa:	48 89 d6             	mov    %rdx,%rsi
    4bad:	48 89 c7             	mov    %rax,%rdi
    4bb0:	b8 00 00 00 00       	mov    $0x0,%eax
    4bb5:	e8 56 c8 ff ff       	call   1410 <sprintf@plt>
    4bba:	48 8b 55 d0          	mov    -0x30(%rbp),%rdx
    4bbe:	48 8b 12             	mov    (%rdx),%rdx
    4bc1:	48 98                	cltq   
    4bc3:	48 01 c2             	add    %rax,%rdx
    4bc6:	48 8b 45 d0          	mov    -0x30(%rbp),%rax
    4bca:	48 89 10             	mov    %rdx,(%rax)
    4bcd:	e9 d0 01 00 00       	jmp    4da2 <ezxml_ampencode+0x2d9>
/media/ssd-partition/Documents/RootCauseAnalysisPruning/evaluation/test_bin/22-ezXML/ezxml/ezxml.c:678
        case '<': *dlen += sprintf(*dst + *dlen, "&lt;"); break;
    4bd2:	48 8b 45 d8          	mov    -0x28(%rbp),%rax
    4bd6:	48 8b 10             	mov    (%rax),%rdx
    4bd9:	48 8b 45 d0          	mov    -0x30(%rbp),%rax
    4bdd:	48 8b 00             	mov    (%rax),%rax
    4be0:	48 01 d0             	add    %rdx,%rax
    4be3:	48 8d 15 f5 25 00 00 	lea    0x25f5(%rip),%rdx        # 71df <_IO_stdin_used+0x1df>
    4bea:	48 89 d6             	mov    %rdx,%rsi
    4bed:	48 89 c7             	mov    %rax,%rdi
    4bf0:	b8 00 00 00 00       	mov    $0x0,%eax
    4bf5:	e8 16 c8 ff ff       	call   1410 <sprintf@plt>
    4bfa:	48 8b 55 d0          	mov    -0x30(%rbp),%rdx
    4bfe:	48 8b 12             	mov    (%rdx),%rdx
    4c01:	48 98                	cltq   
    4c03:	48 01 c2             	add    %rax,%rdx
    4c06:	48 8b 45 d0          	mov    -0x30(%rbp),%rax
    4c0a:	48 89 10             	mov    %rdx,(%rax)
    4c0d:	e9 90 01 00 00       	jmp    4da2 <ezxml_ampencode+0x2d9>
/media/ssd-partition/Documents/RootCauseAnalysisPruning/evaluation/test_bin/22-ezXML/ezxml/ezxml.c:679
        case '>': *dlen += sprintf(*dst + *dlen, "&gt;"); break;
    4c12:	48 8b 45 d8          	mov    -0x28(%rbp),%rax
    4c16:	48 8b 10             	mov    (%rax),%rdx
    4c19:	48 8b 45 d0          	mov    -0x30(%rbp),%rax
    4c1d:	48 8b 00             	mov    (%rax),%rax
    4c20:	48 01 d0             	add    %rdx,%rax
    4c23:	48 8d 15 ba 25 00 00 	lea    0x25ba(%rip),%rdx        # 71e4 <_IO_stdin_used+0x1e4>
    4c2a:	48 89 d6             	mov    %rdx,%rsi
    4c2d:	48 89 c7             	mov    %rax,%rdi
    4c30:	b8 00 00 00 00       	mov    $0x0,%eax
    4c35:	e8 d6 c7 ff ff       	call   1410 <sprintf@plt>
    4c3a:	48 8b 55 d0          	mov    -0x30(%rbp),%rdx
    4c3e:	48 8b 12             	mov    (%rdx),%rdx
    4c41:	48 98                	cltq   
    4c43:	48 01 c2             	add    %rax,%rdx
    4c46:	48 8b 45 d0          	mov    -0x30(%rbp),%rax
    4c4a:	48 89 10             	mov    %rdx,(%rax)
    4c4d:	e9 50 01 00 00       	jmp    4da2 <ezxml_ampencode+0x2d9>
/media/ssd-partition/Documents/RootCauseAnalysisPruning/evaluation/test_bin/22-ezXML/ezxml/ezxml.c:680
        case '"': *dlen += sprintf(*dst + *dlen, (a) ? "&quot;" : "\""); break;
    4c52:	66 83 7d c4 00       	cmpw   $0x0,-0x3c(%rbp)
    4c57:	74 09                	je     4c62 <ezxml_ampencode+0x199>
/media/ssd-partition/Documents/RootCauseAnalysisPruning/evaluation/test_bin/22-ezXML/ezxml/ezxml.c:680 (discriminator 1)
    4c59:	48 8d 05 89 25 00 00 	lea    0x2589(%rip),%rax        # 71e9 <_IO_stdin_used+0x1e9>
    4c60:	eb 07                	jmp    4c69 <ezxml_ampencode+0x1a0>
/media/ssd-partition/Documents/RootCauseAnalysisPruning/evaluation/test_bin/22-ezXML/ezxml/ezxml.c:680 (discriminator 2)
    4c62:	48 8d 05 87 25 00 00 	lea    0x2587(%rip),%rax        # 71f0 <_IO_stdin_used+0x1f0>
/media/ssd-partition/Documents/RootCauseAnalysisPruning/evaluation/test_bin/22-ezXML/ezxml/ezxml.c:680 (discriminator 4)
    4c69:	48 8b 55 d8          	mov    -0x28(%rbp),%rdx
    4c6d:	48 8b 0a             	mov    (%rdx),%rcx
    4c70:	48 8b 55 d0          	mov    -0x30(%rbp),%rdx
    4c74:	48 8b 12             	mov    (%rdx),%rdx
    4c77:	48 01 ca             	add    %rcx,%rdx
    4c7a:	48 89 c6             	mov    %rax,%rsi
    4c7d:	48 89 d7             	mov    %rdx,%rdi
    4c80:	b8 00 00 00 00       	mov    $0x0,%eax
    4c85:	e8 86 c7 ff ff       	call   1410 <sprintf@plt>
    4c8a:	48 8b 55 d0          	mov    -0x30(%rbp),%rdx
    4c8e:	48 8b 12             	mov    (%rdx),%rdx
    4c91:	48 98                	cltq   
    4c93:	48 01 c2             	add    %rax,%rdx
    4c96:	48 8b 45 d0          	mov    -0x30(%rbp),%rax
    4c9a:	48 89 10             	mov    %rdx,(%rax)
    4c9d:	e9 00 01 00 00       	jmp    4da2 <ezxml_ampencode+0x2d9>
/media/ssd-partition/Documents/RootCauseAnalysisPruning/evaluation/test_bin/22-ezXML/ezxml/ezxml.c:681
        case '\n': *dlen += sprintf(*dst + *dlen, (a) ? "&#xA;" : "\n"); break;
    4ca2:	66 83 7d c4 00       	cmpw   $0x0,-0x3c(%rbp)
    4ca7:	74 09                	je     4cb2 <ezxml_ampencode+0x1e9>
/media/ssd-partition/Documents/RootCauseAnalysisPruning/evaluation/test_bin/22-ezXML/ezxml/ezxml.c:681 (discriminator 1)
    4ca9:	48 8d 05 42 25 00 00 	lea    0x2542(%rip),%rax        # 71f2 <_IO_stdin_used+0x1f2>
    4cb0:	eb 07                	jmp    4cb9 <ezxml_ampencode+0x1f0>
/media/ssd-partition/Documents/RootCauseAnalysisPruning/evaluation/test_bin/22-ezXML/ezxml/ezxml.c:681 (discriminator 2)
    4cb2:	48 8d 05 3f 25 00 00 	lea    0x253f(%rip),%rax        # 71f8 <_IO_stdin_used+0x1f8>
/media/ssd-partition/Documents/RootCauseAnalysisPruning/evaluation/test_bin/22-ezXML/ezxml/ezxml.c:681 (discriminator 4)
    4cb9:	48 8b 55 d8          	mov    -0x28(%rbp),%rdx
    4cbd:	48 8b 0a             	mov    (%rdx),%rcx
    4cc0:	48 8b 55 d0          	mov    -0x30(%rbp),%rdx
    4cc4:	48 8b 12             	mov    (%rdx),%rdx
    4cc7:	48 01 ca             	add    %rcx,%rdx
    4cca:	48 89 c6             	mov    %rax,%rsi
    4ccd:	48 89 d7             	mov    %rdx,%rdi
    4cd0:	b8 00 00 00 00       	mov    $0x0,%eax
    4cd5:	e8 36 c7 ff ff       	call   1410 <sprintf@plt>
    4cda:	48 8b 55 d0          	mov    -0x30(%rbp),%rdx
    4cde:	48 8b 12             	mov    (%rdx),%rdx
    4ce1:	48 98                	cltq   
    4ce3:	48 01 c2             	add    %rax,%rdx
    4ce6:	48 8b 45 d0          	mov    -0x30(%rbp),%rax
    4cea:	48 89 10             	mov    %rdx,(%rax)
    4ced:	e9 b0 00 00 00       	jmp    4da2 <ezxml_ampencode+0x2d9>
/media/ssd-partition/Documents/RootCauseAnalysisPruning/evaluation/test_bin/22-ezXML/ezxml/ezxml.c:682
        case '\t': *dlen += sprintf(*dst + *dlen, (a) ? "&#x9;" : "\t"); break;
    4cf2:	66 83 7d c4 00       	cmpw   $0x0,-0x3c(%rbp)
    4cf7:	74 09                	je     4d02 <ezxml_ampencode+0x239>
/media/ssd-partition/Documents/RootCauseAnalysisPruning/evaluation/test_bin/22-ezXML/ezxml/ezxml.c:682 (discriminator 1)
    4cf9:	48 8d 05 fa 24 00 00 	lea    0x24fa(%rip),%rax        # 71fa <_IO_stdin_used+0x1fa>
    4d00:	eb 07                	jmp    4d09 <ezxml_ampencode+0x240>
/media/ssd-partition/Documents/RootCauseAnalysisPruning/evaluation/test_bin/22-ezXML/ezxml/ezxml.c:682 (discriminator 2)
    4d02:	48 8d 05 f7 24 00 00 	lea    0x24f7(%rip),%rax        # 7200 <_IO_stdin_used+0x200>
/media/ssd-partition/Documents/RootCauseAnalysisPruning/evaluation/test_bin/22-ezXML/ezxml/ezxml.c:682 (discriminator 4)
    4d09:	48 8b 55 d8          	mov    -0x28(%rbp),%rdx
    4d0d:	48 8b 0a             	mov    (%rdx),%rcx
    4d10:	48 8b 55 d0          	mov    -0x30(%rbp),%rdx
    4d14:	48 8b 12             	mov    (%rdx),%rdx
    4d17:	48 01 ca             	add    %rcx,%rdx
    4d1a:	48 89 c6             	mov    %rax,%rsi
    4d1d:	48 89 d7             	mov    %rdx,%rdi
    4d20:	b8 00 00 00 00       	mov    $0x0,%eax
    4d25:	e8 e6 c6 ff ff       	call   1410 <sprintf@plt>
    4d2a:	48 8b 55 d0          	mov    -0x30(%rbp),%rdx
    4d2e:	48 8b 12             	mov    (%rdx),%rdx
    4d31:	48 98                	cltq   
    4d33:	48 01 c2             	add    %rax,%rdx
    4d36:	48 8b 45 d0          	mov    -0x30(%rbp),%rax
    4d3a:	48 89 10             	mov    %rdx,(%rax)
    4d3d:	eb 63                	jmp    4da2 <ezxml_ampencode+0x2d9>
/media/ssd-partition/Documents/RootCauseAnalysisPruning/evaluation/test_bin/22-ezXML/ezxml/ezxml.c:683
        case '\r': *dlen += sprintf(*dst + *dlen, "&#xD;"); break;
    4d3f:	48 8b 45 d8          	mov    -0x28(%rbp),%rax
    4d43:	48 8b 10             	mov    (%rax),%rdx
    4d46:	48 8b 45 d0          	mov    -0x30(%rbp),%rax
    4d4a:	48 8b 00             	mov    (%rax),%rax
    4d4d:	48 01 d0             	add    %rdx,%rax
    4d50:	48 8d 15 ab 24 00 00 	lea    0x24ab(%rip),%rdx        # 7202 <_IO_stdin_used+0x202>
    4d57:	48 89 d6             	mov    %rdx,%rsi
    4d5a:	48 89 c7             	mov    %rax,%rdi
    4d5d:	b8 00 00 00 00       	mov    $0x0,%eax
    4d62:	e8 a9 c6 ff ff       	call   1410 <sprintf@plt>
    4d67:	48 8b 55 d0          	mov    -0x30(%rbp),%rdx
    4d6b:	48 8b 12             	mov    (%rdx),%rdx
    4d6e:	48 98                	cltq   
    4d70:	48 01 c2             	add    %rax,%rdx
    4d73:	48 8b 45 d0          	mov    -0x30(%rbp),%rax
    4d77:	48 89 10             	mov    %rdx,(%rax)
    4d7a:	eb 26                	jmp    4da2 <ezxml_ampencode+0x2d9>
/media/ssd-partition/Documents/RootCauseAnalysisPruning/evaluation/test_bin/22-ezXML/ezxml/ezxml.c:684
        default: (*dst)[(*dlen)++] = *s;
    4d7c:	48 8b 45 d8          	mov    -0x28(%rbp),%rax
    4d80:	48 8b 30             	mov    (%rax),%rsi
    4d83:	48 8b 45 d0          	mov    -0x30(%rbp),%rax
    4d87:	48 8b 00             	mov    (%rax),%rax
    4d8a:	48 8d 48 01          	lea    0x1(%rax),%rcx
    4d8e:	48 8b 55 d0          	mov    -0x30(%rbp),%rdx
    4d92:	48 89 0a             	mov    %rcx,(%rdx)
    4d95:	48 8d 14 06          	lea    (%rsi,%rax,1),%rdx
    4d99:	48 8b 45 e8          	mov    -0x18(%rbp),%rax
    4d9d:	0f b6 00             	movzbl (%rax),%eax
    4da0:	88 02                	mov    %al,(%rdx)
/media/ssd-partition/Documents/RootCauseAnalysisPruning/evaluation/test_bin/22-ezXML/ezxml/ezxml.c:672 (discriminator 2)
    for (e = s + len; s != e; s++) {
    4da2:	48 83 45 e8 01       	addq   $0x1,-0x18(%rbp)
/media/ssd-partition/Documents/RootCauseAnalysisPruning/evaluation/test_bin/22-ezXML/ezxml/ezxml.c:672 (discriminator 1)
    4da7:	48 8b 45 e8          	mov    -0x18(%rbp),%rax
    4dab:	48 3b 45 f8          	cmp    -0x8(%rbp),%rax
    4daf:	0f 85 84 fd ff ff    	jne    4b39 <ezxml_ampencode+0x70>
/media/ssd-partition/Documents/RootCauseAnalysisPruning/evaluation/test_bin/22-ezXML/ezxml/ezxml.c:687
        }
    }
    return *dst;
    4db5:	48 8b 45 d8          	mov    -0x28(%rbp),%rax
    4db9:	48 8b 00             	mov    (%rax),%rax
/media/ssd-partition/Documents/RootCauseAnalysisPruning/evaluation/test_bin/22-ezXML/ezxml/ezxml.c:688
}
    4dbc:	c9                   	leave  
    4dbd:	c3                   	ret    

0000000000004dbe <ezxml_toxml_r>:
ezxml_toxml_r():
/media/ssd-partition/Documents/RootCauseAnalysisPruning/evaluation/test_bin/22-ezXML/ezxml/ezxml.c:695
// Recursively converts each tag to xml appending it to *s. Reallocates *s if
// its length excedes max. start is the location of the previous tag in the
// parent tag's character content. Returns *s.
char *ezxml_toxml_r(ezxml_t xml, char **s, size_t *len, size_t *max,
                    size_t start, char ***attr)
{
    4dbe:	f3 0f 1e fa          	endbr64 
    4dc2:	55                   	push   %rbp
    4dc3:	48 89 e5             	mov    %rsp,%rbp
    4dc6:	53                   	push   %rbx
    4dc7:	48 83 ec 58          	sub    $0x58,%rsp
    4dcb:	48 89 7d c8          	mov    %rdi,-0x38(%rbp)
    4dcf:	48 89 75 c0          	mov    %rsi,-0x40(%rbp)
    4dd3:	48 89 55 b8          	mov    %rdx,-0x48(%rbp)
    4dd7:	48 89 4d b0          	mov    %rcx,-0x50(%rbp)
    4ddb:	4c 89 45 a8          	mov    %r8,-0x58(%rbp)
    4ddf:	4c 89 4d a0          	mov    %r9,-0x60(%rbp)
/media/ssd-partition/Documents/RootCauseAnalysisPruning/evaluation/test_bin/22-ezXML/ezxml/ezxml.c:697
    int i, j;
    char *txt = (xml->parent) ? xml->parent->txt : "";
    4de3:	48 8b 45 c8          	mov    -0x38(%rbp),%rax
    4de7:	48 8b 40 40          	mov    0x40(%rax),%rax
    4deb:	48 85 c0             	test   %rax,%rax
    4dee:	74 0e                	je     4dfe <ezxml_toxml_r+0x40>
/media/ssd-partition/Documents/RootCauseAnalysisPruning/evaluation/test_bin/22-ezXML/ezxml/ezxml.c:697 (discriminator 1)
    4df0:	48 8b 45 c8          	mov    -0x38(%rbp),%rax
    4df4:	48 8b 40 40          	mov    0x40(%rax),%rax
    4df8:	48 8b 40 10          	mov    0x10(%rax),%rax
    4dfc:	eb 07                	jmp    4e05 <ezxml_toxml_r+0x47>
/media/ssd-partition/Documents/RootCauseAnalysisPruning/evaluation/test_bin/22-ezXML/ezxml/ezxml.c:697 (discriminator 2)
    4dfe:	48 8d 05 5e 22 00 00 	lea    0x225e(%rip),%rax        # 7063 <_IO_stdin_used+0x63>
/media/ssd-partition/Documents/RootCauseAnalysisPruning/evaluation/test_bin/22-ezXML/ezxml/ezxml.c:697 (discriminator 4)
    4e05:	48 89 45 e8          	mov    %rax,-0x18(%rbp)
/media/ssd-partition/Documents/RootCauseAnalysisPruning/evaluation/test_bin/22-ezXML/ezxml/ezxml.c:698 (discriminator 4)
    size_t off = 0;
    4e09:	48 c7 45 e0 00 00 00 	movq   $0x0,-0x20(%rbp)
    4e10:	00 
/media/ssd-partition/Documents/RootCauseAnalysisPruning/evaluation/test_bin/22-ezXML/ezxml/ezxml.c:701 (discriminator 4)

    // parent character content up to this tag
    *s = ezxml_ampencode(txt + start, xml->off - start, s, len, max, 0);
    4e11:	48 8b 45 c8          	mov    -0x38(%rbp),%rax
    4e15:	48 8b 40 18          	mov    0x18(%rax),%rax
    4e19:	48 2b 45 a8          	sub    -0x58(%rbp),%rax
    4e1d:	48 8b 4d e8          	mov    -0x18(%rbp),%rcx
    4e21:	48 8b 55 a8          	mov    -0x58(%rbp),%rdx
    4e25:	48 8d 3c 11          	lea    (%rcx,%rdx,1),%rdi
    4e29:	48 8b 75 b0          	mov    -0x50(%rbp),%rsi
    4e2d:	48 8b 4d b8          	mov    -0x48(%rbp),%rcx
    4e31:	48 8b 55 c0          	mov    -0x40(%rbp),%rdx
    4e35:	41 b9 00 00 00 00    	mov    $0x0,%r9d
    4e3b:	49 89 f0             	mov    %rsi,%r8
    4e3e:	48 89 c6             	mov    %rax,%rsi
    4e41:	e8 83 fc ff ff       	call   4ac9 <ezxml_ampencode>
    4e46:	48 8b 55 c0          	mov    -0x40(%rbp),%rdx
    4e4a:	48 89 02             	mov    %rax,(%rdx)
/media/ssd-partition/Documents/RootCauseAnalysisPruning/evaluation/test_bin/22-ezXML/ezxml/ezxml.c:703 (discriminator 4)

    while (*len + strlen(xml->name) + 4 > *max) // reallocate s
    4e4d:	eb 35                	jmp    4e84 <ezxml_toxml_r+0xc6>
/media/ssd-partition/Documents/RootCauseAnalysisPruning/evaluation/test_bin/22-ezXML/ezxml/ezxml.c:704
        *s = realloc(*s, *max += EZXML_BUFSIZE);
    4e4f:	48 8b 45 b0          	mov    -0x50(%rbp),%rax
    4e53:	48 8b 00             	mov    (%rax),%rax
    4e56:	48 8d 90 00 04 00 00 	lea    0x400(%rax),%rdx
    4e5d:	48 8b 45 b0          	mov    -0x50(%rbp),%rax
    4e61:	48 89 10             	mov    %rdx,(%rax)
    4e64:	48 8b 45 b0          	mov    -0x50(%rbp),%rax
    4e68:	48 8b 10             	mov    (%rax),%rdx
    4e6b:	48 8b 45 c0          	mov    -0x40(%rbp),%rax
    4e6f:	48 8b 00             	mov    (%rax),%rax
    4e72:	48 89 d6             	mov    %rdx,%rsi
    4e75:	48 89 c7             	mov    %rax,%rdi
    4e78:	e8 33 c5 ff ff       	call   13b0 <realloc@plt>
    4e7d:	48 8b 55 c0          	mov    -0x40(%rbp),%rdx
    4e81:	48 89 02             	mov    %rax,(%rdx)
/media/ssd-partition/Documents/RootCauseAnalysisPruning/evaluation/test_bin/22-ezXML/ezxml/ezxml.c:703
    while (*len + strlen(xml->name) + 4 > *max) // reallocate s
    4e84:	48 8b 45 b8          	mov    -0x48(%rbp),%rax
    4e88:	48 8b 18             	mov    (%rax),%rbx
    4e8b:	48 8b 45 c8          	mov    -0x38(%rbp),%rax
    4e8f:	48 8b 00             	mov    (%rax),%rax
    4e92:	48 89 c7             	mov    %rax,%rdi
    4e95:	e8 26 c4 ff ff       	call   12c0 <strlen@plt>
    4e9a:	48 01 d8             	add    %rbx,%rax
    4e9d:	48 8d 50 04          	lea    0x4(%rax),%rdx
    4ea1:	48 8b 45 b0          	mov    -0x50(%rbp),%rax
    4ea5:	48 8b 00             	mov    (%rax),%rax
    4ea8:	48 39 c2             	cmp    %rax,%rdx
    4eab:	77 a2                	ja     4e4f <ezxml_toxml_r+0x91>
/media/ssd-partition/Documents/RootCauseAnalysisPruning/evaluation/test_bin/22-ezXML/ezxml/ezxml.c:706

    *len += sprintf(*s + *len, "<%s", xml->name); // open tag
    4ead:	48 8b 45 c8          	mov    -0x38(%rbp),%rax
    4eb1:	48 8b 00             	mov    (%rax),%rax
    4eb4:	48 8b 55 c0          	mov    -0x40(%rbp),%rdx
    4eb8:	48 8b 0a             	mov    (%rdx),%rcx
    4ebb:	48 8b 55 b8          	mov    -0x48(%rbp),%rdx
    4ebf:	48 8b 12             	mov    (%rdx),%rdx
    4ec2:	48 01 d1             	add    %rdx,%rcx
    4ec5:	48 89 c2             	mov    %rax,%rdx
    4ec8:	48 8d 05 35 24 00 00 	lea    0x2435(%rip),%rax        # 7304 <_IO_stdin_used+0x304>
    4ecf:	48 89 c6             	mov    %rax,%rsi
    4ed2:	48 89 cf             	mov    %rcx,%rdi
    4ed5:	b8 00 00 00 00       	mov    $0x0,%eax
    4eda:	e8 31 c5 ff ff       	call   1410 <sprintf@plt>
    4edf:	48 8b 55 b8          	mov    -0x48(%rbp),%rdx
    4ee3:	48 8b 12             	mov    (%rdx),%rdx
    4ee6:	48 98                	cltq   
    4ee8:	48 01 c2             	add    %rax,%rdx
    4eeb:	48 8b 45 b8          	mov    -0x48(%rbp),%rax
    4eef:	48 89 10             	mov    %rdx,(%rax)
/media/ssd-partition/Documents/RootCauseAnalysisPruning/evaluation/test_bin/22-ezXML/ezxml/ezxml.c:707
    for (i = 0; xml->attr[i]; i += 2) { // tag attributes
    4ef2:	c7 45 d8 00 00 00 00 	movl   $0x0,-0x28(%rbp)
    4ef9:	e9 91 01 00 00       	jmp    508f <ezxml_toxml_r+0x2d1>
/media/ssd-partition/Documents/RootCauseAnalysisPruning/evaluation/test_bin/22-ezXML/ezxml/ezxml.c:708
        if (ezxml_attr(xml, xml->attr[i]) != xml->attr[i + 1]) continue;
    4efe:	48 8b 45 c8          	mov    -0x38(%rbp),%rax
    4f02:	48 8b 50 08          	mov    0x8(%rax),%rdx
    4f06:	8b 45 d8             	mov    -0x28(%rbp),%eax
    4f09:	48 98                	cltq   
    4f0b:	48 c1 e0 03          	shl    $0x3,%rax
    4f0f:	48 01 d0             	add    %rdx,%rax
    4f12:	48 8b 10             	mov    (%rax),%rdx
    4f15:	48 8b 45 c8          	mov    -0x38(%rbp),%rax
    4f19:	48 89 d6             	mov    %rdx,%rsi
    4f1c:	48 89 c7             	mov    %rax,%rdi
    4f1f:	e8 bc c6 ff ff       	call   15e0 <ezxml_attr>
    4f24:	48 8b 55 c8          	mov    -0x38(%rbp),%rdx
    4f28:	48 8b 4a 08          	mov    0x8(%rdx),%rcx
    4f2c:	8b 55 d8             	mov    -0x28(%rbp),%edx
    4f2f:	48 63 d2             	movslq %edx,%rdx
    4f32:	48 83 c2 01          	add    $0x1,%rdx
    4f36:	48 c1 e2 03          	shl    $0x3,%rdx
    4f3a:	48 01 ca             	add    %rcx,%rdx
    4f3d:	48 8b 12             	mov    (%rdx),%rdx
    4f40:	48 39 d0             	cmp    %rdx,%rax
    4f43:	0f 85 41 01 00 00    	jne    508a <ezxml_toxml_r+0x2cc>
/media/ssd-partition/Documents/RootCauseAnalysisPruning/evaluation/test_bin/22-ezXML/ezxml/ezxml.c:709
        while (*len + strlen(xml->attr[i]) + 7 > *max) // reallocate s
    4f49:	eb 35                	jmp    4f80 <ezxml_toxml_r+0x1c2>
/media/ssd-partition/Documents/RootCauseAnalysisPruning/evaluation/test_bin/22-ezXML/ezxml/ezxml.c:710
            *s = realloc(*s, *max += EZXML_BUFSIZE);
    4f4b:	48 8b 45 b0          	mov    -0x50(%rbp),%rax
    4f4f:	48 8b 00             	mov    (%rax),%rax
    4f52:	48 8d 90 00 04 00 00 	lea    0x400(%rax),%rdx
    4f59:	48 8b 45 b0          	mov    -0x50(%rbp),%rax
    4f5d:	48 89 10             	mov    %rdx,(%rax)
    4f60:	48 8b 45 b0          	mov    -0x50(%rbp),%rax
    4f64:	48 8b 10             	mov    (%rax),%rdx
    4f67:	48 8b 45 c0          	mov    -0x40(%rbp),%rax
    4f6b:	48 8b 00             	mov    (%rax),%rax
    4f6e:	48 89 d6             	mov    %rdx,%rsi
    4f71:	48 89 c7             	mov    %rax,%rdi
    4f74:	e8 37 c4 ff ff       	call   13b0 <realloc@plt>
    4f79:	48 8b 55 c0          	mov    -0x40(%rbp),%rdx
    4f7d:	48 89 02             	mov    %rax,(%rdx)
/media/ssd-partition/Documents/RootCauseAnalysisPruning/evaluation/test_bin/22-ezXML/ezxml/ezxml.c:709
        while (*len + strlen(xml->attr[i]) + 7 > *max) // reallocate s
    4f80:	48 8b 45 b8          	mov    -0x48(%rbp),%rax
    4f84:	48 8b 18             	mov    (%rax),%rbx
    4f87:	48 8b 45 c8          	mov    -0x38(%rbp),%rax
    4f8b:	48 8b 50 08          	mov    0x8(%rax),%rdx
    4f8f:	8b 45 d8             	mov    -0x28(%rbp),%eax
    4f92:	48 98                	cltq   
    4f94:	48 c1 e0 03          	shl    $0x3,%rax
    4f98:	48 01 d0             	add    %rdx,%rax
    4f9b:	48 8b 00             	mov    (%rax),%rax
    4f9e:	48 89 c7             	mov    %rax,%rdi
    4fa1:	e8 1a c3 ff ff       	call   12c0 <strlen@plt>
    4fa6:	48 01 d8             	add    %rbx,%rax
    4fa9:	48 8d 50 07          	lea    0x7(%rax),%rdx
    4fad:	48 8b 45 b0          	mov    -0x50(%rbp),%rax
    4fb1:	48 8b 00             	mov    (%rax),%rax
    4fb4:	48 39 c2             	cmp    %rax,%rdx
    4fb7:	77 92                	ja     4f4b <ezxml_toxml_r+0x18d>
/media/ssd-partition/Documents/RootCauseAnalysisPruning/evaluation/test_bin/22-ezXML/ezxml/ezxml.c:712

        *len += sprintf(*s + *len, " %s=\"", xml->attr[i]);
    4fb9:	48 8b 45 c8          	mov    -0x38(%rbp),%rax
    4fbd:	48 8b 50 08          	mov    0x8(%rax),%rdx
    4fc1:	8b 45 d8             	mov    -0x28(%rbp),%eax
    4fc4:	48 98                	cltq   
    4fc6:	48 c1 e0 03          	shl    $0x3,%rax
    4fca:	48 01 d0             	add    %rdx,%rax
    4fcd:	48 8b 00             	mov    (%rax),%rax
    4fd0:	48 8b 55 c0          	mov    -0x40(%rbp),%rdx
    4fd4:	48 8b 0a             	mov    (%rdx),%rcx
    4fd7:	48 8b 55 b8          	mov    -0x48(%rbp),%rdx
    4fdb:	48 8b 12             	mov    (%rdx),%rdx
    4fde:	48 01 d1             	add    %rdx,%rcx
    4fe1:	48 89 c2             	mov    %rax,%rdx
    4fe4:	48 8d 05 1d 23 00 00 	lea    0x231d(%rip),%rax        # 7308 <_IO_stdin_used+0x308>
    4feb:	48 89 c6             	mov    %rax,%rsi
    4fee:	48 89 cf             	mov    %rcx,%rdi
    4ff1:	b8 00 00 00 00       	mov    $0x0,%eax
    4ff6:	e8 15 c4 ff ff       	call   1410 <sprintf@plt>
    4ffb:	48 8b 55 b8          	mov    -0x48(%rbp),%rdx
    4fff:	48 8b 12             	mov    (%rdx),%rdx
    5002:	48 98                	cltq   
    5004:	48 01 c2             	add    %rax,%rdx
    5007:	48 8b 45 b8          	mov    -0x48(%rbp),%rax
    500b:	48 89 10             	mov    %rdx,(%rax)
/media/ssd-partition/Documents/RootCauseAnalysisPruning/evaluation/test_bin/22-ezXML/ezxml/ezxml.c:713
        ezxml_ampencode(xml->attr[i + 1], -1, s, len, max, 1);
    500e:	48 8b 45 c8          	mov    -0x38(%rbp),%rax
    5012:	48 8b 50 08          	mov    0x8(%rax),%rdx
    5016:	8b 45 d8             	mov    -0x28(%rbp),%eax
    5019:	48 98                	cltq   
    501b:	48 83 c0 01          	add    $0x1,%rax
    501f:	48 c1 e0 03          	shl    $0x3,%rax
    5023:	48 01 d0             	add    %rdx,%rax
    5026:	48 8b 00             	mov    (%rax),%rax
    5029:	48 8b 75 b0          	mov    -0x50(%rbp),%rsi
    502d:	48 8b 4d b8          	mov    -0x48(%rbp),%rcx
    5031:	48 8b 55 c0          	mov    -0x40(%rbp),%rdx
    5035:	41 b9 01 00 00 00    	mov    $0x1,%r9d
    503b:	49 89 f0             	mov    %rsi,%r8
    503e:	48 c7 c6 ff ff ff ff 	mov    $0xffffffffffffffff,%rsi
    5045:	48 89 c7             	mov    %rax,%rdi
    5048:	e8 7c fa ff ff       	call   4ac9 <ezxml_ampencode>
/media/ssd-partition/Documents/RootCauseAnalysisPruning/evaluation/test_bin/22-ezXML/ezxml/ezxml.c:714
        *len += sprintf(*s + *len, "\"");
    504d:	48 8b 45 c0          	mov    -0x40(%rbp),%rax
    5051:	48 8b 10             	mov    (%rax),%rdx
    5054:	48 8b 45 b8          	mov    -0x48(%rbp),%rax
    5058:	48 8b 00             	mov    (%rax),%rax
    505b:	48 01 d0             	add    %rdx,%rax
    505e:	48 8d 15 8b 21 00 00 	lea    0x218b(%rip),%rdx        # 71f0 <_IO_stdin_used+0x1f0>
    5065:	48 89 d6             	mov    %rdx,%rsi
    5068:	48 89 c7             	mov    %rax,%rdi
    506b:	b8 00 00 00 00       	mov    $0x0,%eax
    5070:	e8 9b c3 ff ff       	call   1410 <sprintf@plt>
    5075:	48 8b 55 b8          	mov    -0x48(%rbp),%rdx
    5079:	48 8b 12             	mov    (%rdx),%rdx
    507c:	48 98                	cltq   
    507e:	48 01 c2             	add    %rax,%rdx
    5081:	48 8b 45 b8          	mov    -0x48(%rbp),%rax
    5085:	48 89 10             	mov    %rdx,(%rax)
    5088:	eb 01                	jmp    508b <ezxml_toxml_r+0x2cd>
/media/ssd-partition/Documents/RootCauseAnalysisPruning/evaluation/test_bin/22-ezXML/ezxml/ezxml.c:708
        if (ezxml_attr(xml, xml->attr[i]) != xml->attr[i + 1]) continue;
    508a:	90                   	nop
/media/ssd-partition/Documents/RootCauseAnalysisPruning/evaluation/test_bin/22-ezXML/ezxml/ezxml.c:707 (discriminator 2)
    for (i = 0; xml->attr[i]; i += 2) { // tag attributes
    508b:	83 45 d8 02          	addl   $0x2,-0x28(%rbp)
/media/ssd-partition/Documents/RootCauseAnalysisPruning/evaluation/test_bin/22-ezXML/ezxml/ezxml.c:707 (discriminator 1)
    508f:	48 8b 45 c8          	mov    -0x38(%rbp),%rax
    5093:	48 8b 50 08          	mov    0x8(%rax),%rdx
    5097:	8b 45 d8             	mov    -0x28(%rbp),%eax
    509a:	48 98                	cltq   
    509c:	48 c1 e0 03          	shl    $0x3,%rax
    50a0:	48 01 d0             	add    %rdx,%rax
    50a3:	48 8b 00             	mov    (%rax),%rax
    50a6:	48 85 c0             	test   %rax,%rax
    50a9:	0f 85 4f fe ff ff    	jne    4efe <ezxml_toxml_r+0x140>
/media/ssd-partition/Documents/RootCauseAnalysisPruning/evaluation/test_bin/22-ezXML/ezxml/ezxml.c:717
    }

    for (i = 0; attr[i] && strcmp(attr[i][0], xml->name); i++);
    50af:	c7 45 d8 00 00 00 00 	movl   $0x0,-0x28(%rbp)
    50b6:	eb 04                	jmp    50bc <ezxml_toxml_r+0x2fe>
/media/ssd-partition/Documents/RootCauseAnalysisPruning/evaluation/test_bin/22-ezXML/ezxml/ezxml.c:717 (discriminator 4)
    50b8:	83 45 d8 01          	addl   $0x1,-0x28(%rbp)
/media/ssd-partition/Documents/RootCauseAnalysisPruning/evaluation/test_bin/22-ezXML/ezxml/ezxml.c:717 (discriminator 1)
    50bc:	8b 45 d8             	mov    -0x28(%rbp),%eax
    50bf:	48 98                	cltq   
    50c1:	48 8d 14 c5 00 00 00 	lea    0x0(,%rax,8),%rdx
    50c8:	00 
    50c9:	48 8b 45 a0          	mov    -0x60(%rbp),%rax
    50cd:	48 01 d0             	add    %rdx,%rax
    50d0:	48 8b 00             	mov    (%rax),%rax
    50d3:	48 85 c0             	test   %rax,%rax
    50d6:	74 30                	je     5108 <ezxml_toxml_r+0x34a>
/media/ssd-partition/Documents/RootCauseAnalysisPruning/evaluation/test_bin/22-ezXML/ezxml/ezxml.c:717 (discriminator 3)
    50d8:	48 8b 45 c8          	mov    -0x38(%rbp),%rax
    50dc:	48 8b 10             	mov    (%rax),%rdx
    50df:	8b 45 d8             	mov    -0x28(%rbp),%eax
    50e2:	48 98                	cltq   
    50e4:	48 8d 0c c5 00 00 00 	lea    0x0(,%rax,8),%rcx
    50eb:	00 
    50ec:	48 8b 45 a0          	mov    -0x60(%rbp),%rax
    50f0:	48 01 c8             	add    %rcx,%rax
    50f3:	48 8b 00             	mov    (%rax),%rax
    50f6:	48 8b 00             	mov    (%rax),%rax
    50f9:	48 89 d6             	mov    %rdx,%rsi
    50fc:	48 89 c7             	mov    %rax,%rdi
    50ff:	e8 5c c2 ff ff       	call   1360 <strcmp@plt>
    5104:	85 c0                	test   %eax,%eax
    5106:	75 b0                	jne    50b8 <ezxml_toxml_r+0x2fa>
/media/ssd-partition/Documents/RootCauseAnalysisPruning/evaluation/test_bin/22-ezXML/ezxml/ezxml.c:718
    for (j = 1; attr[i] && attr[i][j]; j += 3) { // default attributes
    5108:	c7 45 dc 01 00 00 00 	movl   $0x1,-0x24(%rbp)
    510f:	e9 10 02 00 00       	jmp    5324 <ezxml_toxml_r+0x566>
/media/ssd-partition/Documents/RootCauseAnalysisPruning/evaluation/test_bin/22-ezXML/ezxml/ezxml.c:719
        if (! attr[i][j + 1] || ezxml_attr(xml, attr[i][j]) != attr[i][j + 1])
    5114:	8b 45 d8             	mov    -0x28(%rbp),%eax
    5117:	48 98                	cltq   
    5119:	48 8d 14 c5 00 00 00 	lea    0x0(,%rax,8),%rdx
    5120:	00 
    5121:	48 8b 45 a0          	mov    -0x60(%rbp),%rax
    5125:	48 01 d0             	add    %rdx,%rax
    5128:	48 8b 10             	mov    (%rax),%rdx
    512b:	8b 45 dc             	mov    -0x24(%rbp),%eax
    512e:	48 98                	cltq   
    5130:	48 83 c0 01          	add    $0x1,%rax
    5134:	48 c1 e0 03          	shl    $0x3,%rax
    5138:	48 01 d0             	add    %rdx,%rax
    513b:	48 8b 00             	mov    (%rax),%rax
    513e:	48 85 c0             	test   %rax,%rax
    5141:	0f 84 d8 01 00 00    	je     531f <ezxml_toxml_r+0x561>
/media/ssd-partition/Documents/RootCauseAnalysisPruning/evaluation/test_bin/22-ezXML/ezxml/ezxml.c:719 (discriminator 2)
    5147:	8b 45 d8             	mov    -0x28(%rbp),%eax
    514a:	48 98                	cltq   
    514c:	48 8d 14 c5 00 00 00 	lea    0x0(,%rax,8),%rdx
    5153:	00 
    5154:	48 8b 45 a0          	mov    -0x60(%rbp),%rax
    5158:	48 01 d0             	add    %rdx,%rax
    515b:	48 8b 10             	mov    (%rax),%rdx
    515e:	8b 45 dc             	mov    -0x24(%rbp),%eax
    5161:	48 98                	cltq   
    5163:	48 c1 e0 03          	shl    $0x3,%rax
    5167:	48 01 d0             	add    %rdx,%rax
    516a:	48 8b 10             	mov    (%rax),%rdx
    516d:	48 8b 45 c8          	mov    -0x38(%rbp),%rax
    5171:	48 89 d6             	mov    %rdx,%rsi
    5174:	48 89 c7             	mov    %rax,%rdi
    5177:	e8 64 c4 ff ff       	call   15e0 <ezxml_attr>
    517c:	8b 55 d8             	mov    -0x28(%rbp),%edx
    517f:	48 63 d2             	movslq %edx,%rdx
    5182:	48 8d 0c d5 00 00 00 	lea    0x0(,%rdx,8),%rcx
    5189:	00 
    518a:	48 8b 55 a0          	mov    -0x60(%rbp),%rdx
    518e:	48 01 ca             	add    %rcx,%rdx
    5191:	48 8b 0a             	mov    (%rdx),%rcx
    5194:	8b 55 dc             	mov    -0x24(%rbp),%edx
    5197:	48 63 d2             	movslq %edx,%rdx
    519a:	48 83 c2 01          	add    $0x1,%rdx
    519e:	48 c1 e2 03          	shl    $0x3,%rdx
    51a2:	48 01 ca             	add    %rcx,%rdx
    51a5:	48 8b 12             	mov    (%rdx),%rdx
    51a8:	48 39 d0             	cmp    %rdx,%rax
    51ab:	0f 85 6e 01 00 00    	jne    531f <ezxml_toxml_r+0x561>
/media/ssd-partition/Documents/RootCauseAnalysisPruning/evaluation/test_bin/22-ezXML/ezxml/ezxml.c:721
            continue; // skip duplicates and non-values
        while (*len + strlen(attr[i][j]) + 7 > *max) // reallocate s
    51b1:	eb 35                	jmp    51e8 <ezxml_toxml_r+0x42a>
/media/ssd-partition/Documents/RootCauseAnalysisPruning/evaluation/test_bin/22-ezXML/ezxml/ezxml.c:722
            *s = realloc(*s, *max += EZXML_BUFSIZE);
    51b3:	48 8b 45 b0          	mov    -0x50(%rbp),%rax
    51b7:	48 8b 00             	mov    (%rax),%rax
    51ba:	48 8d 90 00 04 00 00 	lea    0x400(%rax),%rdx
    51c1:	48 8b 45 b0          	mov    -0x50(%rbp),%rax
    51c5:	48 89 10             	mov    %rdx,(%rax)
    51c8:	48 8b 45 b0          	mov    -0x50(%rbp),%rax
    51cc:	48 8b 10             	mov    (%rax),%rdx
    51cf:	48 8b 45 c0          	mov    -0x40(%rbp),%rax
    51d3:	48 8b 00             	mov    (%rax),%rax
    51d6:	48 89 d6             	mov    %rdx,%rsi
    51d9:	48 89 c7             	mov    %rax,%rdi
    51dc:	e8 cf c1 ff ff       	call   13b0 <realloc@plt>
    51e1:	48 8b 55 c0          	mov    -0x40(%rbp),%rdx
    51e5:	48 89 02             	mov    %rax,(%rdx)
/media/ssd-partition/Documents/RootCauseAnalysisPruning/evaluation/test_bin/22-ezXML/ezxml/ezxml.c:721
        while (*len + strlen(attr[i][j]) + 7 > *max) // reallocate s
    51e8:	48 8b 45 b8          	mov    -0x48(%rbp),%rax
    51ec:	48 8b 18             	mov    (%rax),%rbx
    51ef:	8b 45 d8             	mov    -0x28(%rbp),%eax
    51f2:	48 98                	cltq   
    51f4:	48 8d 14 c5 00 00 00 	lea    0x0(,%rax,8),%rdx
    51fb:	00 
    51fc:	48 8b 45 a0          	mov    -0x60(%rbp),%rax
    5200:	48 01 d0             	add    %rdx,%rax
    5203:	48 8b 10             	mov    (%rax),%rdx
    5206:	8b 45 dc             	mov    -0x24(%rbp),%eax
    5209:	48 98                	cltq   
    520b:	48 c1 e0 03          	shl    $0x3,%rax
    520f:	48 01 d0             	add    %rdx,%rax
    5212:	48 8b 00             	mov    (%rax),%rax
    5215:	48 89 c7             	mov    %rax,%rdi
    5218:	e8 a3 c0 ff ff       	call   12c0 <strlen@plt>
    521d:	48 01 d8             	add    %rbx,%rax
    5220:	48 8d 50 07          	lea    0x7(%rax),%rdx
    5224:	48 8b 45 b0          	mov    -0x50(%rbp),%rax
    5228:	48 8b 00             	mov    (%rax),%rax
    522b:	48 39 c2             	cmp    %rax,%rdx
    522e:	77 83                	ja     51b3 <ezxml_toxml_r+0x3f5>
/media/ssd-partition/Documents/RootCauseAnalysisPruning/evaluation/test_bin/22-ezXML/ezxml/ezxml.c:724

        *len += sprintf(*s + *len, " %s=\"", attr[i][j]);
    5230:	8b 45 d8             	mov    -0x28(%rbp),%eax
    5233:	48 98                	cltq   
    5235:	48 8d 14 c5 00 00 00 	lea    0x0(,%rax,8),%rdx
    523c:	00 
    523d:	48 8b 45 a0          	mov    -0x60(%rbp),%rax
    5241:	48 01 d0             	add    %rdx,%rax
    5244:	48 8b 10             	mov    (%rax),%rdx
    5247:	8b 45 dc             	mov    -0x24(%rbp),%eax
    524a:	48 98                	cltq   
    524c:	48 c1 e0 03          	shl    $0x3,%rax
    5250:	48 01 d0             	add    %rdx,%rax
    5253:	48 8b 00             	mov    (%rax),%rax
    5256:	48 8b 55 c0          	mov    -0x40(%rbp),%rdx
    525a:	48 8b 0a             	mov    (%rdx),%rcx
    525d:	48 8b 55 b8          	mov    -0x48(%rbp),%rdx
    5261:	48 8b 12             	mov    (%rdx),%rdx
    5264:	48 01 d1             	add    %rdx,%rcx
    5267:	48 89 c2             	mov    %rax,%rdx
    526a:	48 8d 05 97 20 00 00 	lea    0x2097(%rip),%rax        # 7308 <_IO_stdin_used+0x308>
    5271:	48 89 c6             	mov    %rax,%rsi
    5274:	48 89 cf             	mov    %rcx,%rdi
    5277:	b8 00 00 00 00       	mov    $0x0,%eax
    527c:	e8 8f c1 ff ff       	call   1410 <sprintf@plt>
    5281:	48 8b 55 b8          	mov    -0x48(%rbp),%rdx
    5285:	48 8b 12             	mov    (%rdx),%rdx
    5288:	48 98                	cltq   
    528a:	48 01 c2             	add    %rax,%rdx
    528d:	48 8b 45 b8          	mov    -0x48(%rbp),%rax
    5291:	48 89 10             	mov    %rdx,(%rax)
/media/ssd-partition/Documents/RootCauseAnalysisPruning/evaluation/test_bin/22-ezXML/ezxml/ezxml.c:725
        ezxml_ampencode(attr[i][j + 1], -1, s, len, max, 1);
    5294:	8b 45 d8             	mov    -0x28(%rbp),%eax
    5297:	48 98                	cltq   
    5299:	48 8d 14 c5 00 00 00 	lea    0x0(,%rax,8),%rdx
    52a0:	00 
    52a1:	48 8b 45 a0          	mov    -0x60(%rbp),%rax
    52a5:	48 01 d0             	add    %rdx,%rax
    52a8:	48 8b 10             	mov    (%rax),%rdx
    52ab:	8b 45 dc             	mov    -0x24(%rbp),%eax
    52ae:	48 98                	cltq   
    52b0:	48 83 c0 01          	add    $0x1,%rax
    52b4:	48 c1 e0 03          	shl    $0x3,%rax
    52b8:	48 01 d0             	add    %rdx,%rax
    52bb:	48 8b 00             	mov    (%rax),%rax
    52be:	48 8b 75 b0          	mov    -0x50(%rbp),%rsi
    52c2:	48 8b 4d b8          	mov    -0x48(%rbp),%rcx
    52c6:	48 8b 55 c0          	mov    -0x40(%rbp),%rdx
    52ca:	41 b9 01 00 00 00    	mov    $0x1,%r9d
    52d0:	49 89 f0             	mov    %rsi,%r8
    52d3:	48 c7 c6 ff ff ff ff 	mov    $0xffffffffffffffff,%rsi
    52da:	48 89 c7             	mov    %rax,%rdi
    52dd:	e8 e7 f7 ff ff       	call   4ac9 <ezxml_ampencode>
/media/ssd-partition/Documents/RootCauseAnalysisPruning/evaluation/test_bin/22-ezXML/ezxml/ezxml.c:726
        *len += sprintf(*s + *len, "\"");
    52e2:	48 8b 45 c0          	mov    -0x40(%rbp),%rax
    52e6:	48 8b 10             	mov    (%rax),%rdx
    52e9:	48 8b 45 b8          	mov    -0x48(%rbp),%rax
    52ed:	48 8b 00             	mov    (%rax),%rax
    52f0:	48 01 d0             	add    %rdx,%rax
    52f3:	48 8d 15 f6 1e 00 00 	lea    0x1ef6(%rip),%rdx        # 71f0 <_IO_stdin_used+0x1f0>
    52fa:	48 89 d6             	mov    %rdx,%rsi
    52fd:	48 89 c7             	mov    %rax,%rdi
    5300:	b8 00 00 00 00       	mov    $0x0,%eax
    5305:	e8 06 c1 ff ff       	call   1410 <sprintf@plt>
    530a:	48 8b 55 b8          	mov    -0x48(%rbp),%rdx
    530e:	48 8b 12             	mov    (%rdx),%rdx
    5311:	48 98                	cltq   
    5313:	48 01 c2             	add    %rax,%rdx
    5316:	48 8b 45 b8          	mov    -0x48(%rbp),%rax
    531a:	48 89 10             	mov    %rdx,(%rax)
    531d:	eb 01                	jmp    5320 <ezxml_toxml_r+0x562>
/media/ssd-partition/Documents/RootCauseAnalysisPruning/evaluation/test_bin/22-ezXML/ezxml/ezxml.c:720
            continue; // skip duplicates and non-values
    531f:	90                   	nop
/media/ssd-partition/Documents/RootCauseAnalysisPruning/evaluation/test_bin/22-ezXML/ezxml/ezxml.c:718 (discriminator 2)
    for (j = 1; attr[i] && attr[i][j]; j += 3) { // default attributes
    5320:	83 45 dc 03          	addl   $0x3,-0x24(%rbp)
/media/ssd-partition/Documents/RootCauseAnalysisPruning/evaluation/test_bin/22-ezXML/ezxml/ezxml.c:718 (discriminator 1)
    5324:	8b 45 d8             	mov    -0x28(%rbp),%eax
    5327:	48 98                	cltq   
    5329:	48 8d 14 c5 00 00 00 	lea    0x0(,%rax,8),%rdx
    5330:	00 
    5331:	48 8b 45 a0          	mov    -0x60(%rbp),%rax
    5335:	48 01 d0             	add    %rdx,%rax
    5338:	48 8b 00             	mov    (%rax),%rax
    533b:	48 85 c0             	test   %rax,%rax
    533e:	74 2f                	je     536f <ezxml_toxml_r+0x5b1>
/media/ssd-partition/Documents/RootCauseAnalysisPruning/evaluation/test_bin/22-ezXML/ezxml/ezxml.c:718 (discriminator 3)
    5340:	8b 45 d8             	mov    -0x28(%rbp),%eax
    5343:	48 98                	cltq   
    5345:	48 8d 14 c5 00 00 00 	lea    0x0(,%rax,8),%rdx
    534c:	00 
    534d:	48 8b 45 a0          	mov    -0x60(%rbp),%rax
    5351:	48 01 d0             	add    %rdx,%rax
    5354:	48 8b 10             	mov    (%rax),%rdx
    5357:	8b 45 dc             	mov    -0x24(%rbp),%eax
    535a:	48 98                	cltq   
    535c:	48 c1 e0 03          	shl    $0x3,%rax
    5360:	48 01 d0             	add    %rdx,%rax
    5363:	48 8b 00             	mov    (%rax),%rax
    5366:	48 85 c0             	test   %rax,%rax
    5369:	0f 85 a5 fd ff ff    	jne    5114 <ezxml_toxml_r+0x356>
/media/ssd-partition/Documents/RootCauseAnalysisPruning/evaluation/test_bin/22-ezXML/ezxml/ezxml.c:728
    }
    *len += sprintf(*s + *len, ">");
    536f:	48 8b 45 c0          	mov    -0x40(%rbp),%rax
    5373:	48 8b 10             	mov    (%rax),%rdx
    5376:	48 8b 45 b8          	mov    -0x48(%rbp),%rax
    537a:	48 8b 00             	mov    (%rax),%rax
    537d:	48 01 d0             	add    %rdx,%rax
    5380:	48 8d 15 dd 1c 00 00 	lea    0x1cdd(%rip),%rdx        # 7064 <_IO_stdin_used+0x64>
    5387:	48 89 d6             	mov    %rdx,%rsi
    538a:	48 89 c7             	mov    %rax,%rdi
    538d:	b8 00 00 00 00       	mov    $0x0,%eax
    5392:	e8 79 c0 ff ff       	call   1410 <sprintf@plt>
    5397:	48 8b 55 b8          	mov    -0x48(%rbp),%rdx
    539b:	48 8b 12             	mov    (%rdx),%rdx
    539e:	48 98                	cltq   
    53a0:	48 01 c2             	add    %rax,%rdx
    53a3:	48 8b 45 b8          	mov    -0x48(%rbp),%rax
    53a7:	48 89 10             	mov    %rdx,(%rax)
/media/ssd-partition/Documents/RootCauseAnalysisPruning/evaluation/test_bin/22-ezXML/ezxml/ezxml.c:730

    *s = (xml->child) ? ezxml_toxml_r(xml->child, s, len, max, 0, attr) //child
    53aa:	48 8b 45 c8          	mov    -0x38(%rbp),%rax
    53ae:	48 8b 40 38          	mov    0x38(%rax),%rax
/media/ssd-partition/Documents/RootCauseAnalysisPruning/evaluation/test_bin/22-ezXML/ezxml/ezxml.c:731
                      : ezxml_ampencode(xml->txt, -1, s, len, max, 0);  //data
    53b2:	48 85 c0             	test   %rax,%rax
    53b5:	74 2b                	je     53e2 <ezxml_toxml_r+0x624>
/media/ssd-partition/Documents/RootCauseAnalysisPruning/evaluation/test_bin/22-ezXML/ezxml/ezxml.c:730
    *s = (xml->child) ? ezxml_toxml_r(xml->child, s, len, max, 0, attr) //child
    53b7:	48 8b 45 c8          	mov    -0x38(%rbp),%rax
    53bb:	48 8b 40 38          	mov    0x38(%rax),%rax
    53bf:	48 8b 7d a0          	mov    -0x60(%rbp),%rdi
    53c3:	48 8b 4d b0          	mov    -0x50(%rbp),%rcx
    53c7:	48 8b 55 b8          	mov    -0x48(%rbp),%rdx
    53cb:	48 8b 75 c0          	mov    -0x40(%rbp),%rsi
    53cf:	49 89 f9             	mov    %rdi,%r9
    53d2:	41 b8 00 00 00 00    	mov    $0x0,%r8d
    53d8:	48 89 c7             	mov    %rax,%rdi
    53db:	e8 de f9 ff ff       	call   4dbe <ezxml_toxml_r>
    53e0:	eb 2c                	jmp    540e <ezxml_toxml_r+0x650>
/media/ssd-partition/Documents/RootCauseAnalysisPruning/evaluation/test_bin/22-ezXML/ezxml/ezxml.c:731 (discriminator 1)
                      : ezxml_ampencode(xml->txt, -1, s, len, max, 0);  //data
    53e2:	48 8b 45 c8          	mov    -0x38(%rbp),%rax
    53e6:	48 8b 40 10          	mov    0x10(%rax),%rax
    53ea:	48 8b 75 b0          	mov    -0x50(%rbp),%rsi
    53ee:	48 8b 4d b8          	mov    -0x48(%rbp),%rcx
    53f2:	48 8b 55 c0          	mov    -0x40(%rbp),%rdx
    53f6:	41 b9 00 00 00 00    	mov    $0x0,%r9d
    53fc:	49 89 f0             	mov    %rsi,%r8
    53ff:	48 c7 c6 ff ff ff ff 	mov    $0xffffffffffffffff,%rsi
    5406:	48 89 c7             	mov    %rax,%rdi
    5409:	e8 bb f6 ff ff       	call   4ac9 <ezxml_ampencode>
/media/ssd-partition/Documents/RootCauseAnalysisPruning/evaluation/test_bin/22-ezXML/ezxml/ezxml.c:730 (discriminator 1)
    *s = (xml->child) ? ezxml_toxml_r(xml->child, s, len, max, 0, attr) //child
    540e:	48 8b 55 c0          	mov    -0x40(%rbp),%rdx
    5412:	48 89 02             	mov    %rax,(%rdx)
/media/ssd-partition/Documents/RootCauseAnalysisPruning/evaluation/test_bin/22-ezXML/ezxml/ezxml.c:733 (discriminator 1)
    
    while (*len + strlen(xml->name) + 4 > *max) // reallocate s
    5415:	eb 35                	jmp    544c <ezxml_toxml_r+0x68e>
/media/ssd-partition/Documents/RootCauseAnalysisPruning/evaluation/test_bin/22-ezXML/ezxml/ezxml.c:734
        *s = realloc(*s, *max += EZXML_BUFSIZE);
    5417:	48 8b 45 b0          	mov    -0x50(%rbp),%rax
    541b:	48 8b 00             	mov    (%rax),%rax
    541e:	48 8d 90 00 04 00 00 	lea    0x400(%rax),%rdx
    5425:	48 8b 45 b0          	mov    -0x50(%rbp),%rax
    5429:	48 89 10             	mov    %rdx,(%rax)
    542c:	48 8b 45 b0          	mov    -0x50(%rbp),%rax
    5430:	48 8b 10             	mov    (%rax),%rdx
    5433:	48 8b 45 c0          	mov    -0x40(%rbp),%rax
    5437:	48 8b 00             	mov    (%rax),%rax
    543a:	48 89 d6             	mov    %rdx,%rsi
    543d:	48 89 c7             	mov    %rax,%rdi
    5440:	e8 6b bf ff ff       	call   13b0 <realloc@plt>
    5445:	48 8b 55 c0          	mov    -0x40(%rbp),%rdx
    5449:	48 89 02             	mov    %rax,(%rdx)
/media/ssd-partition/Documents/RootCauseAnalysisPruning/evaluation/test_bin/22-ezXML/ezxml/ezxml.c:733
    while (*len + strlen(xml->name) + 4 > *max) // reallocate s
    544c:	48 8b 45 b8          	mov    -0x48(%rbp),%rax
    5450:	48 8b 18             	mov    (%rax),%rbx
    5453:	48 8b 45 c8          	mov    -0x38(%rbp),%rax
    5457:	48 8b 00             	mov    (%rax),%rax
    545a:	48 89 c7             	mov    %rax,%rdi
    545d:	e8 5e be ff ff       	call   12c0 <strlen@plt>
    5462:	48 01 d8             	add    %rbx,%rax
    5465:	48 8d 50 04          	lea    0x4(%rax),%rdx
    5469:	48 8b 45 b0          	mov    -0x50(%rbp),%rax
    546d:	48 8b 00             	mov    (%rax),%rax
    5470:	48 39 c2             	cmp    %rax,%rdx
    5473:	77 a2                	ja     5417 <ezxml_toxml_r+0x659>
/media/ssd-partition/Documents/RootCauseAnalysisPruning/evaluation/test_bin/22-ezXML/ezxml/ezxml.c:736

    *len += sprintf(*s + *len, "</%s>", xml->name); // close tag
    5475:	48 8b 45 c8          	mov    -0x38(%rbp),%rax
    5479:	48 8b 00             	mov    (%rax),%rax
    547c:	48 8b 55 c0          	mov    -0x40(%rbp),%rdx
    5480:	48 8b 0a             	mov    (%rdx),%rcx
    5483:	48 8b 55 b8          	mov    -0x48(%rbp),%rdx
    5487:	48 8b 12             	mov    (%rdx),%rdx
    548a:	48 01 d1             	add    %rdx,%rcx
    548d:	48 89 c2             	mov    %rax,%rdx
    5490:	48 8d 05 77 1e 00 00 	lea    0x1e77(%rip),%rax        # 730e <_IO_stdin_used+0x30e>
    5497:	48 89 c6             	mov    %rax,%rsi
    549a:	48 89 cf             	mov    %rcx,%rdi
    549d:	b8 00 00 00 00       	mov    $0x0,%eax
    54a2:	e8 69 bf ff ff       	call   1410 <sprintf@plt>
    54a7:	48 8b 55 b8          	mov    -0x48(%rbp),%rdx
    54ab:	48 8b 12             	mov    (%rdx),%rdx
    54ae:	48 98                	cltq   
    54b0:	48 01 c2             	add    %rax,%rdx
    54b3:	48 8b 45 b8          	mov    -0x48(%rbp),%rax
    54b7:	48 89 10             	mov    %rdx,(%rax)
/media/ssd-partition/Documents/RootCauseAnalysisPruning/evaluation/test_bin/22-ezXML/ezxml/ezxml.c:738

    while (txt[off] && off < xml->off) off++; // make sure off is within bounds
    54ba:	eb 05                	jmp    54c1 <ezxml_toxml_r+0x703>
/media/ssd-partition/Documents/RootCauseAnalysisPruning/evaluation/test_bin/22-ezXML/ezxml/ezxml.c:738 (discriminator 3)
    54bc:	48 83 45 e0 01       	addq   $0x1,-0x20(%rbp)
/media/ssd-partition/Documents/RootCauseAnalysisPruning/evaluation/test_bin/22-ezXML/ezxml/ezxml.c:738 (discriminator 1)
    54c1:	48 8b 55 e8          	mov    -0x18(%rbp),%rdx
    54c5:	48 8b 45 e0          	mov    -0x20(%rbp),%rax
    54c9:	48 01 d0             	add    %rdx,%rax
    54cc:	0f b6 00             	movzbl (%rax),%eax
    54cf:	84 c0                	test   %al,%al
    54d1:	74 0e                	je     54e1 <ezxml_toxml_r+0x723>
/media/ssd-partition/Documents/RootCauseAnalysisPruning/evaluation/test_bin/22-ezXML/ezxml/ezxml.c:738 (discriminator 2)
    54d3:	48 8b 45 c8          	mov    -0x38(%rbp),%rax
    54d7:	48 8b 40 18          	mov    0x18(%rax),%rax
    54db:	48 39 45 e0          	cmp    %rax,-0x20(%rbp)
    54df:	72 db                	jb     54bc <ezxml_toxml_r+0x6fe>
/media/ssd-partition/Documents/RootCauseAnalysisPruning/evaluation/test_bin/22-ezXML/ezxml/ezxml.c:739
    return (xml->ordered) ? ezxml_toxml_r(xml->ordered, s, len, max, off, attr)
    54e1:	48 8b 45 c8          	mov    -0x38(%rbp),%rax
    54e5:	48 8b 40 30          	mov    0x30(%rax),%rax
/media/ssd-partition/Documents/RootCauseAnalysisPruning/evaluation/test_bin/22-ezXML/ezxml/ezxml.c:740
                          : ezxml_ampencode(txt + off, -1, s, len, max, 0);
    54e9:	48 85 c0             	test   %rax,%rax
    54ec:	74 2c                	je     551a <ezxml_toxml_r+0x75c>
/media/ssd-partition/Documents/RootCauseAnalysisPruning/evaluation/test_bin/22-ezXML/ezxml/ezxml.c:739
    return (xml->ordered) ? ezxml_toxml_r(xml->ordered, s, len, max, off, attr)
    54ee:	48 8b 45 c8          	mov    -0x38(%rbp),%rax
    54f2:	48 8b 40 30          	mov    0x30(%rax),%rax
    54f6:	4c 8b 45 a0          	mov    -0x60(%rbp),%r8
    54fa:	48 8b 7d e0          	mov    -0x20(%rbp),%rdi
    54fe:	48 8b 4d b0          	mov    -0x50(%rbp),%rcx
    5502:	48 8b 55 b8          	mov    -0x48(%rbp),%rdx
    5506:	48 8b 75 c0          	mov    -0x40(%rbp),%rsi
    550a:	4d 89 c1             	mov    %r8,%r9
    550d:	49 89 f8             	mov    %rdi,%r8
    5510:	48 89 c7             	mov    %rax,%rdi
    5513:	e8 a6 f8 ff ff       	call   4dbe <ezxml_toxml_r>
/media/ssd-partition/Documents/RootCauseAnalysisPruning/evaluation/test_bin/22-ezXML/ezxml/ezxml.c:740
                          : ezxml_ampencode(txt + off, -1, s, len, max, 0);
    5518:	eb 33                	jmp    554d <ezxml_toxml_r+0x78f>
/media/ssd-partition/Documents/RootCauseAnalysisPruning/evaluation/test_bin/22-ezXML/ezxml/ezxml.c:740 (discriminator 1)
    551a:	48 8b 55 e8          	mov    -0x18(%rbp),%rdx
    551e:	48 8b 45 e0          	mov    -0x20(%rbp),%rax
    5522:	48 8d 3c 02          	lea    (%rdx,%rax,1),%rdi
    5526:	48 8b 4d b0          	mov    -0x50(%rbp),%rcx
    552a:	48 8b 55 b8          	mov    -0x48(%rbp),%rdx
    552e:	48 8b 45 c0          	mov    -0x40(%rbp),%rax
    5532:	41 b9 00 00 00 00    	mov    $0x0,%r9d
    5538:	49 89 c8             	mov    %rcx,%r8
    553b:	48 89 d1             	mov    %rdx,%rcx
    553e:	48 89 c2             	mov    %rax,%rdx
    5541:	48 c7 c6 ff ff ff ff 	mov    $0xffffffffffffffff,%rsi
    5548:	e8 7c f5 ff ff       	call   4ac9 <ezxml_ampencode>
/media/ssd-partition/Documents/RootCauseAnalysisPruning/evaluation/test_bin/22-ezXML/ezxml/ezxml.c:741 (discriminator 3)
}
    554d:	48 8b 5d f8          	mov    -0x8(%rbp),%rbx
    5551:	c9                   	leave  
    5552:	c3                   	ret    

0000000000005553 <ezxml_toxml>:
ezxml_toxml():
/media/ssd-partition/Documents/RootCauseAnalysisPruning/evaluation/test_bin/22-ezXML/ezxml/ezxml.c:746

// Converts an ezxml structure back to xml. Returns a string of xml data that
// must be freed.
char *ezxml_toxml(ezxml_t xml)
{
    5553:	f3 0f 1e fa          	endbr64 
    5557:	55                   	push   %rbp
    5558:	48 89 e5             	mov    %rsp,%rbp
    555b:	53                   	push   %rbx
    555c:	48 83 ec 78          	sub    $0x78,%rsp
    5560:	48 89 7d 88          	mov    %rdi,-0x78(%rbp)
    5564:	64 48 8b 04 25 28 00 	mov    %fs:0x28,%rax
    556b:	00 00 
    556d:	48 89 45 e8          	mov    %rax,-0x18(%rbp)
    5571:	31 c0                	xor    %eax,%eax
/media/ssd-partition/Documents/RootCauseAnalysisPruning/evaluation/test_bin/22-ezXML/ezxml/ezxml.c:747
    ezxml_t p = (xml) ? xml->parent : NULL, o = (xml) ? xml->ordered : NULL;
    5573:	48 83 7d 88 00       	cmpq   $0x0,-0x78(%rbp)
    5578:	74 0a                	je     5584 <ezxml_toxml+0x31>
/media/ssd-partition/Documents/RootCauseAnalysisPruning/evaluation/test_bin/22-ezXML/ezxml/ezxml.c:747 (discriminator 1)
    557a:	48 8b 45 88          	mov    -0x78(%rbp),%rax
    557e:	48 8b 40 40          	mov    0x40(%rax),%rax
    5582:	eb 05                	jmp    5589 <ezxml_toxml+0x36>
/media/ssd-partition/Documents/RootCauseAnalysisPruning/evaluation/test_bin/22-ezXML/ezxml/ezxml.c:747 (discriminator 2)
    5584:	b8 00 00 00 00       	mov    $0x0,%eax
/media/ssd-partition/Documents/RootCauseAnalysisPruning/evaluation/test_bin/22-ezXML/ezxml/ezxml.c:747 (discriminator 4)
    5589:	48 89 45 c8          	mov    %rax,-0x38(%rbp)
    558d:	48 83 7d 88 00       	cmpq   $0x0,-0x78(%rbp)
    5592:	74 0a                	je     559e <ezxml_toxml+0x4b>
/media/ssd-partition/Documents/RootCauseAnalysisPruning/evaluation/test_bin/22-ezXML/ezxml/ezxml.c:747 (discriminator 5)
    5594:	48 8b 45 88          	mov    -0x78(%rbp),%rax
    5598:	48 8b 40 30          	mov    0x30(%rax),%rax
    559c:	eb 05                	jmp    55a3 <ezxml_toxml+0x50>
/media/ssd-partition/Documents/RootCauseAnalysisPruning/evaluation/test_bin/22-ezXML/ezxml/ezxml.c:747 (discriminator 6)
    559e:	b8 00 00 00 00       	mov    $0x0,%eax
/media/ssd-partition/Documents/RootCauseAnalysisPruning/evaluation/test_bin/22-ezXML/ezxml/ezxml.c:747 (discriminator 8)
    55a3:	48 89 45 d0          	mov    %rax,-0x30(%rbp)
/media/ssd-partition/Documents/RootCauseAnalysisPruning/evaluation/test_bin/22-ezXML/ezxml/ezxml.c:748 (discriminator 8)
    ezxml_root_t root = (ezxml_root_t)xml;
    55a7:	48 8b 45 88          	mov    -0x78(%rbp),%rax
    55ab:	48 89 45 c0          	mov    %rax,-0x40(%rbp)
/media/ssd-partition/Documents/RootCauseAnalysisPruning/evaluation/test_bin/22-ezXML/ezxml/ezxml.c:749 (discriminator 8)
    size_t len = 0, max = EZXML_BUFSIZE;
    55af:	48 c7 45 a8 00 00 00 	movq   $0x0,-0x58(%rbp)
    55b6:	00 
    55b7:	48 c7 45 b0 00 04 00 	movq   $0x400,-0x50(%rbp)
    55be:	00 
/media/ssd-partition/Documents/RootCauseAnalysisPruning/evaluation/test_bin/22-ezXML/ezxml/ezxml.c:750 (discriminator 8)
    char *s = strcpy(malloc(max), ""), *t, *n;
    55bf:	48 8b 45 b0          	mov    -0x50(%rbp),%rax
    55c3:	48 89 c7             	mov    %rax,%rdi
    55c6:	e8 d5 bd ff ff       	call   13a0 <malloc@plt>
    55cb:	c6 00 00             	movb   $0x0,(%rax)
    55ce:	48 89 45 b8          	mov    %rax,-0x48(%rbp)
/media/ssd-partition/Documents/RootCauseAnalysisPruning/evaluation/test_bin/22-ezXML/ezxml/ezxml.c:753 (discriminator 8)
    int i, j, k;

    if (! xml || ! xml->name) return realloc(s, len + 1);
    55d2:	48 83 7d 88 00       	cmpq   $0x0,-0x78(%rbp)
    55d7:	74 0c                	je     55e5 <ezxml_toxml+0x92>
/media/ssd-partition/Documents/RootCauseAnalysisPruning/evaluation/test_bin/22-ezXML/ezxml/ezxml.c:753 (discriminator 2)
    55d9:	48 8b 45 88          	mov    -0x78(%rbp),%rax
    55dd:	48 8b 00             	mov    (%rax),%rax
    55e0:	48 85 c0             	test   %rax,%rax
    55e3:	75 28                	jne    560d <ezxml_toxml+0xba>
/media/ssd-partition/Documents/RootCauseAnalysisPruning/evaluation/test_bin/22-ezXML/ezxml/ezxml.c:753 (discriminator 3)
    55e5:	48 8b 45 a8          	mov    -0x58(%rbp),%rax
    55e9:	48 8d 50 01          	lea    0x1(%rax),%rdx
    55ed:	48 8b 45 b8          	mov    -0x48(%rbp),%rax
    55f1:	48 89 d6             	mov    %rdx,%rsi
    55f4:	48 89 c7             	mov    %rax,%rdi
    55f7:	e8 b4 bd ff ff       	call   13b0 <realloc@plt>
    55fc:	e9 3a 04 00 00       	jmp    5a3b <ezxml_toxml+0x4e8>
/media/ssd-partition/Documents/RootCauseAnalysisPruning/evaluation/test_bin/22-ezXML/ezxml/ezxml.c:754 (discriminator 2)
    while (root->xml.parent) root = (ezxml_root_t)root->xml.parent; // root tag
    5601:	48 8b 45 c0          	mov    -0x40(%rbp),%rax
    5605:	48 8b 40 40          	mov    0x40(%rax),%rax
    5609:	48 89 45 c0          	mov    %rax,-0x40(%rbp)
/media/ssd-partition/Documents/RootCauseAnalysisPruning/evaluation/test_bin/22-ezXML/ezxml/ezxml.c:754 (discriminator 1)
    560d:	48 8b 45 c0          	mov    -0x40(%rbp),%rax
    5611:	48 8b 40 40          	mov    0x40(%rax),%rax
    5615:	48 85 c0             	test   %rax,%rax
    5618:	75 e7                	jne    5601 <ezxml_toxml+0xae>
/media/ssd-partition/Documents/RootCauseAnalysisPruning/evaluation/test_bin/22-ezXML/ezxml/ezxml.c:756

    for (i = 0; ! p && root->pi[i]; i++) { // pre-root processing instructions
    561a:	c7 45 9c 00 00 00 00 	movl   $0x0,-0x64(%rbp)
    5621:	e9 9d 01 00 00       	jmp    57c3 <ezxml_toxml+0x270>
/media/ssd-partition/Documents/RootCauseAnalysisPruning/evaluation/test_bin/22-ezXML/ezxml/ezxml.c:757
        for (k = 2; root->pi[i][k - 1]; k++);
    5626:	c7 45 a4 02 00 00 00 	movl   $0x2,-0x5c(%rbp)
    562d:	eb 04                	jmp    5633 <ezxml_toxml+0xe0>
/media/ssd-partition/Documents/RootCauseAnalysisPruning/evaluation/test_bin/22-ezXML/ezxml/ezxml.c:757 (discriminator 3)
    562f:	83 45 a4 01          	addl   $0x1,-0x5c(%rbp)
/media/ssd-partition/Documents/RootCauseAnalysisPruning/evaluation/test_bin/22-ezXML/ezxml/ezxml.c:757 (discriminator 1)
    5633:	48 8b 45 c0          	mov    -0x40(%rbp),%rax
    5637:	48 8b 90 90 00 00 00 	mov    0x90(%rax),%rdx
    563e:	8b 45 9c             	mov    -0x64(%rbp),%eax
    5641:	48 98                	cltq   
    5643:	48 c1 e0 03          	shl    $0x3,%rax
    5647:	48 01 d0             	add    %rdx,%rax
    564a:	48 8b 10             	mov    (%rax),%rdx
    564d:	8b 45 a4             	mov    -0x5c(%rbp),%eax
    5650:	48 98                	cltq   
    5652:	48 c1 e0 03          	shl    $0x3,%rax
    5656:	48 83 e8 08          	sub    $0x8,%rax
    565a:	48 01 d0             	add    %rdx,%rax
    565d:	48 8b 00             	mov    (%rax),%rax
    5660:	48 85 c0             	test   %rax,%rax
    5663:	75 ca                	jne    562f <ezxml_toxml+0xdc>
/media/ssd-partition/Documents/RootCauseAnalysisPruning/evaluation/test_bin/22-ezXML/ezxml/ezxml.c:758
        for (j = 1; (n = root->pi[i][j]); j++) {
    5665:	c7 45 a0 01 00 00 00 	movl   $0x1,-0x60(%rbp)
    566c:	e9 16 01 00 00       	jmp    5787 <ezxml_toxml+0x234>
/media/ssd-partition/Documents/RootCauseAnalysisPruning/evaluation/test_bin/22-ezXML/ezxml/ezxml.c:759
            if (root->pi[i][k][j - 1] == '>') continue; // not pre-root
    5671:	48 8b 45 c0          	mov    -0x40(%rbp),%rax
    5675:	48 8b 90 90 00 00 00 	mov    0x90(%rax),%rdx
    567c:	8b 45 9c             	mov    -0x64(%rbp),%eax
    567f:	48 98                	cltq   
    5681:	48 c1 e0 03          	shl    $0x3,%rax
    5685:	48 01 d0             	add    %rdx,%rax
    5688:	48 8b 10             	mov    (%rax),%rdx
    568b:	8b 45 a4             	mov    -0x5c(%rbp),%eax
    568e:	48 98                	cltq   
    5690:	48 c1 e0 03          	shl    $0x3,%rax
    5694:	48 01 d0             	add    %rdx,%rax
    5697:	48 8b 10             	mov    (%rax),%rdx
    569a:	8b 45 a0             	mov    -0x60(%rbp),%eax
    569d:	48 98                	cltq   
    569f:	48 83 e8 01          	sub    $0x1,%rax
    56a3:	48 01 d0             	add    %rdx,%rax
    56a6:	0f b6 00             	movzbl (%rax),%eax
    56a9:	3c 3e                	cmp    $0x3e,%al
    56ab:	0f 84 d1 00 00 00    	je     5782 <ezxml_toxml+0x22f>
/media/ssd-partition/Documents/RootCauseAnalysisPruning/evaluation/test_bin/22-ezXML/ezxml/ezxml.c:760
            while (len + strlen(t = root->pi[i][0]) + strlen(n) + 7 > max)
    56b1:	eb 25                	jmp    56d8 <ezxml_toxml+0x185>
/media/ssd-partition/Documents/RootCauseAnalysisPruning/evaluation/test_bin/22-ezXML/ezxml/ezxml.c:761
                s = realloc(s, max += EZXML_BUFSIZE);
    56b3:	48 8b 45 b0          	mov    -0x50(%rbp),%rax
    56b7:	48 05 00 04 00 00    	add    $0x400,%rax
    56bd:	48 89 45 b0          	mov    %rax,-0x50(%rbp)
    56c1:	48 8b 55 b0          	mov    -0x50(%rbp),%rdx
    56c5:	48 8b 45 b8          	mov    -0x48(%rbp),%rax
    56c9:	48 89 d6             	mov    %rdx,%rsi
    56cc:	48 89 c7             	mov    %rax,%rdi
    56cf:	e8 dc bc ff ff       	call   13b0 <realloc@plt>
    56d4:	48 89 45 b8          	mov    %rax,-0x48(%rbp)
/media/ssd-partition/Documents/RootCauseAnalysisPruning/evaluation/test_bin/22-ezXML/ezxml/ezxml.c:760
            while (len + strlen(t = root->pi[i][0]) + strlen(n) + 7 > max)
    56d8:	48 8b 45 c0          	mov    -0x40(%rbp),%rax
    56dc:	48 8b 90 90 00 00 00 	mov    0x90(%rax),%rdx
    56e3:	8b 45 9c             	mov    -0x64(%rbp),%eax
    56e6:	48 98                	cltq   
    56e8:	48 c1 e0 03          	shl    $0x3,%rax
    56ec:	48 01 d0             	add    %rdx,%rax
    56ef:	48 8b 00             	mov    (%rax),%rax
    56f2:	48 8b 00             	mov    (%rax),%rax
    56f5:	48 89 45 e0          	mov    %rax,-0x20(%rbp)
    56f9:	48 8b 45 e0          	mov    -0x20(%rbp),%rax
    56fd:	48 89 c7             	mov    %rax,%rdi
    5700:	e8 bb bb ff ff       	call   12c0 <strlen@plt>
    5705:	48 8b 55 a8          	mov    -0x58(%rbp),%rdx
    5709:	48 8d 1c 10          	lea    (%rax,%rdx,1),%rbx
    570d:	48 8b 45 d8          	mov    -0x28(%rbp),%rax
    5711:	48 89 c7             	mov    %rax,%rdi
    5714:	e8 a7 bb ff ff       	call   12c0 <strlen@plt>
    5719:	48 01 d8             	add    %rbx,%rax
    571c:	48 8d 50 07          	lea    0x7(%rax),%rdx
    5720:	48 8b 45 b0          	mov    -0x50(%rbp),%rax
    5724:	48 39 c2             	cmp    %rax,%rdx
    5727:	77 8a                	ja     56b3 <ezxml_toxml+0x160>
/media/ssd-partition/Documents/RootCauseAnalysisPruning/evaluation/test_bin/22-ezXML/ezxml/ezxml.c:762
            len += sprintf(s + len, "<?%s%s%s?>\n", t, *n ? " " : "", n);
    5729:	48 8b 45 d8          	mov    -0x28(%rbp),%rax
    572d:	0f b6 00             	movzbl (%rax),%eax
    5730:	84 c0                	test   %al,%al
    5732:	74 09                	je     573d <ezxml_toxml+0x1ea>
/media/ssd-partition/Documents/RootCauseAnalysisPruning/evaluation/test_bin/22-ezXML/ezxml/ezxml.c:762 (discriminator 1)
    5734:	48 8d 05 e9 18 00 00 	lea    0x18e9(%rip),%rax        # 7024 <_IO_stdin_used+0x24>
    573b:	eb 07                	jmp    5744 <ezxml_toxml+0x1f1>
/media/ssd-partition/Documents/RootCauseAnalysisPruning/evaluation/test_bin/22-ezXML/ezxml/ezxml.c:762 (discriminator 2)
    573d:	48 8d 05 1f 19 00 00 	lea    0x191f(%rip),%rax        # 7063 <_IO_stdin_used+0x63>
/media/ssd-partition/Documents/RootCauseAnalysisPruning/evaluation/test_bin/22-ezXML/ezxml/ezxml.c:762 (discriminator 4)
    5744:	48 8b 4d b8          	mov    -0x48(%rbp),%rcx
    5748:	48 8b 55 a8          	mov    -0x58(%rbp),%rdx
    574c:	48 8d 3c 11          	lea    (%rcx,%rdx,1),%rdi
    5750:	48 8b 4d d8          	mov    -0x28(%rbp),%rcx
    5754:	48 8b 55 e0          	mov    -0x20(%rbp),%rdx
    5758:	49 89 c8             	mov    %rcx,%r8
    575b:	48 89 c1             	mov    %rax,%rcx
    575e:	48 8d 05 af 1b 00 00 	lea    0x1baf(%rip),%rax        # 7314 <_IO_stdin_used+0x314>
    5765:	48 89 c6             	mov    %rax,%rsi
    5768:	b8 00 00 00 00       	mov    $0x0,%eax
    576d:	e8 9e bc ff ff       	call   1410 <sprintf@plt>
    5772:	48 63 d0             	movslq %eax,%rdx
    5775:	48 8b 45 a8          	mov    -0x58(%rbp),%rax
    5779:	48 01 d0             	add    %rdx,%rax
    577c:	48 89 45 a8          	mov    %rax,-0x58(%rbp)
    5780:	eb 01                	jmp    5783 <ezxml_toxml+0x230>
/media/ssd-partition/Documents/RootCauseAnalysisPruning/evaluation/test_bin/22-ezXML/ezxml/ezxml.c:759
            if (root->pi[i][k][j - 1] == '>') continue; // not pre-root
    5782:	90                   	nop
/media/ssd-partition/Documents/RootCauseAnalysisPruning/evaluation/test_bin/22-ezXML/ezxml/ezxml.c:758 (discriminator 2)
        for (j = 1; (n = root->pi[i][j]); j++) {
    5783:	83 45 a0 01          	addl   $0x1,-0x60(%rbp)
/media/ssd-partition/Documents/RootCauseAnalysisPruning/evaluation/test_bin/22-ezXML/ezxml/ezxml.c:758 (discriminator 1)
    5787:	48 8b 45 c0          	mov    -0x40(%rbp),%rax
    578b:	48 8b 90 90 00 00 00 	mov    0x90(%rax),%rdx
    5792:	8b 45 9c             	mov    -0x64(%rbp),%eax
    5795:	48 98                	cltq   
    5797:	48 c1 e0 03          	shl    $0x3,%rax
    579b:	48 01 d0             	add    %rdx,%rax
    579e:	48 8b 10             	mov    (%rax),%rdx
    57a1:	8b 45 a0             	mov    -0x60(%rbp),%eax
    57a4:	48 98                	cltq   
    57a6:	48 c1 e0 03          	shl    $0x3,%rax
    57aa:	48 01 d0             	add    %rdx,%rax
    57ad:	48 8b 00             	mov    (%rax),%rax
    57b0:	48 89 45 d8          	mov    %rax,-0x28(%rbp)
    57b4:	48 83 7d d8 00       	cmpq   $0x0,-0x28(%rbp)
    57b9:	0f 85 b2 fe ff ff    	jne    5671 <ezxml_toxml+0x11e>
/media/ssd-partition/Documents/RootCauseAnalysisPruning/evaluation/test_bin/22-ezXML/ezxml/ezxml.c:756 (discriminator 2)
    for (i = 0; ! p && root->pi[i]; i++) { // pre-root processing instructions
    57bf:	83 45 9c 01          	addl   $0x1,-0x64(%rbp)
/media/ssd-partition/Documents/RootCauseAnalysisPruning/evaluation/test_bin/22-ezXML/ezxml/ezxml.c:756 (discriminator 1)
    57c3:	48 83 7d c8 00       	cmpq   $0x0,-0x38(%rbp)
    57c8:	75 23                	jne    57ed <ezxml_toxml+0x29a>
/media/ssd-partition/Documents/RootCauseAnalysisPruning/evaluation/test_bin/22-ezXML/ezxml/ezxml.c:756 (discriminator 3)
    57ca:	48 8b 45 c0          	mov    -0x40(%rbp),%rax
    57ce:	48 8b 90 90 00 00 00 	mov    0x90(%rax),%rdx
    57d5:	8b 45 9c             	mov    -0x64(%rbp),%eax
    57d8:	48 98                	cltq   
    57da:	48 c1 e0 03          	shl    $0x3,%rax
    57de:	48 01 d0             	add    %rdx,%rax
    57e1:	48 8b 00             	mov    (%rax),%rax
    57e4:	48 85 c0             	test   %rax,%rax
    57e7:	0f 85 39 fe ff ff    	jne    5626 <ezxml_toxml+0xd3>
/media/ssd-partition/Documents/RootCauseAnalysisPruning/evaluation/test_bin/22-ezXML/ezxml/ezxml.c:766
        }
    }

    xml->parent = xml->ordered = NULL;
    57ed:	48 8b 45 88          	mov    -0x78(%rbp),%rax
    57f1:	48 c7 40 30 00 00 00 	movq   $0x0,0x30(%rax)
    57f8:	00 
    57f9:	48 8b 45 88          	mov    -0x78(%rbp),%rax
    57fd:	48 8b 50 30          	mov    0x30(%rax),%rdx
    5801:	48 8b 45 88          	mov    -0x78(%rbp),%rax
    5805:	48 89 50 40          	mov    %rdx,0x40(%rax)
/media/ssd-partition/Documents/RootCauseAnalysisPruning/evaluation/test_bin/22-ezXML/ezxml/ezxml.c:767
    s = ezxml_toxml_r(xml, &s, &len, &max, 0, root->attr);
    5809:	48 8b 45 c0          	mov    -0x40(%rbp),%rax
    580d:	48 8b b8 88 00 00 00 	mov    0x88(%rax),%rdi
    5814:	48 8d 4d b0          	lea    -0x50(%rbp),%rcx
    5818:	48 8d 55 a8          	lea    -0x58(%rbp),%rdx
    581c:	48 8d 75 b8          	lea    -0x48(%rbp),%rsi
    5820:	48 8b 45 88          	mov    -0x78(%rbp),%rax
    5824:	49 89 f9             	mov    %rdi,%r9
    5827:	41 b8 00 00 00 00    	mov    $0x0,%r8d
    582d:	48 89 c7             	mov    %rax,%rdi
    5830:	e8 89 f5 ff ff       	call   4dbe <ezxml_toxml_r>
    5835:	48 89 45 b8          	mov    %rax,-0x48(%rbp)
/media/ssd-partition/Documents/RootCauseAnalysisPruning/evaluation/test_bin/22-ezXML/ezxml/ezxml.c:768
    xml->parent = p;
    5839:	48 8b 45 88          	mov    -0x78(%rbp),%rax
    583d:	48 8b 55 c8          	mov    -0x38(%rbp),%rdx
    5841:	48 89 50 40          	mov    %rdx,0x40(%rax)
/media/ssd-partition/Documents/RootCauseAnalysisPruning/evaluation/test_bin/22-ezXML/ezxml/ezxml.c:769
    xml->ordered = o;
    5845:	48 8b 45 88          	mov    -0x78(%rbp),%rax
    5849:	48 8b 55 d0          	mov    -0x30(%rbp),%rdx
    584d:	48 89 50 30          	mov    %rdx,0x30(%rax)
/media/ssd-partition/Documents/RootCauseAnalysisPruning/evaluation/test_bin/22-ezXML/ezxml/ezxml.c:771

    for (i = 0; ! p && root->pi[i]; i++) { // post-root processing instructions
    5851:	c7 45 9c 00 00 00 00 	movl   $0x0,-0x64(%rbp)
    5858:	e9 9d 01 00 00       	jmp    59fa <ezxml_toxml+0x4a7>
/media/ssd-partition/Documents/RootCauseAnalysisPruning/evaluation/test_bin/22-ezXML/ezxml/ezxml.c:772
        for (k = 2; root->pi[i][k - 1]; k++);
    585d:	c7 45 a4 02 00 00 00 	movl   $0x2,-0x5c(%rbp)
    5864:	eb 04                	jmp    586a <ezxml_toxml+0x317>
/media/ssd-partition/Documents/RootCauseAnalysisPruning/evaluation/test_bin/22-ezXML/ezxml/ezxml.c:772 (discriminator 3)
    5866:	83 45 a4 01          	addl   $0x1,-0x5c(%rbp)
/media/ssd-partition/Documents/RootCauseAnalysisPruning/evaluation/test_bin/22-ezXML/ezxml/ezxml.c:772 (discriminator 1)
    586a:	48 8b 45 c0          	mov    -0x40(%rbp),%rax
    586e:	48 8b 90 90 00 00 00 	mov    0x90(%rax),%rdx
    5875:	8b 45 9c             	mov    -0x64(%rbp),%eax
    5878:	48 98                	cltq   
    587a:	48 c1 e0 03          	shl    $0x3,%rax
    587e:	48 01 d0             	add    %rdx,%rax
    5881:	48 8b 10             	mov    (%rax),%rdx
    5884:	8b 45 a4             	mov    -0x5c(%rbp),%eax
    5887:	48 98                	cltq   
    5889:	48 c1 e0 03          	shl    $0x3,%rax
    588d:	48 83 e8 08          	sub    $0x8,%rax
    5891:	48 01 d0             	add    %rdx,%rax
    5894:	48 8b 00             	mov    (%rax),%rax
    5897:	48 85 c0             	test   %rax,%rax
    589a:	75 ca                	jne    5866 <ezxml_toxml+0x313>
/media/ssd-partition/Documents/RootCauseAnalysisPruning/evaluation/test_bin/22-ezXML/ezxml/ezxml.c:773
        for (j = 1; (n = root->pi[i][j]); j++) {
    589c:	c7 45 a0 01 00 00 00 	movl   $0x1,-0x60(%rbp)
    58a3:	e9 16 01 00 00       	jmp    59be <ezxml_toxml+0x46b>
/media/ssd-partition/Documents/RootCauseAnalysisPruning/evaluation/test_bin/22-ezXML/ezxml/ezxml.c:774
            if (root->pi[i][k][j - 1] == '<') continue; // not post-root
    58a8:	48 8b 45 c0          	mov    -0x40(%rbp),%rax
    58ac:	48 8b 90 90 00 00 00 	mov    0x90(%rax),%rdx
    58b3:	8b 45 9c             	mov    -0x64(%rbp),%eax
    58b6:	48 98                	cltq   
    58b8:	48 c1 e0 03          	shl    $0x3,%rax
    58bc:	48 01 d0             	add    %rdx,%rax
    58bf:	48 8b 10             	mov    (%rax),%rdx
    58c2:	8b 45 a4             	mov    -0x5c(%rbp),%eax
    58c5:	48 98                	cltq   
    58c7:	48 c1 e0 03          	shl    $0x3,%rax
    58cb:	48 01 d0             	add    %rdx,%rax
    58ce:	48 8b 10             	mov    (%rax),%rdx
    58d1:	8b 45 a0             	mov    -0x60(%rbp),%eax
    58d4:	48 98                	cltq   
    58d6:	48 83 e8 01          	sub    $0x1,%rax
    58da:	48 01 d0             	add    %rdx,%rax
    58dd:	0f b6 00             	movzbl (%rax),%eax
    58e0:	3c 3c                	cmp    $0x3c,%al
    58e2:	0f 84 d1 00 00 00    	je     59b9 <ezxml_toxml+0x466>
/media/ssd-partition/Documents/RootCauseAnalysisPruning/evaluation/test_bin/22-ezXML/ezxml/ezxml.c:775
            while (len + strlen(t = root->pi[i][0]) + strlen(n) + 7 > max)
    58e8:	eb 25                	jmp    590f <ezxml_toxml+0x3bc>
/media/ssd-partition/Documents/RootCauseAnalysisPruning/evaluation/test_bin/22-ezXML/ezxml/ezxml.c:776
                s = realloc(s, max += EZXML_BUFSIZE);
    58ea:	48 8b 45 b0          	mov    -0x50(%rbp),%rax
    58ee:	48 05 00 04 00 00    	add    $0x400,%rax
    58f4:	48 89 45 b0          	mov    %rax,-0x50(%rbp)
    58f8:	48 8b 55 b0          	mov    -0x50(%rbp),%rdx
    58fc:	48 8b 45 b8          	mov    -0x48(%rbp),%rax
    5900:	48 89 d6             	mov    %rdx,%rsi
    5903:	48 89 c7             	mov    %rax,%rdi
    5906:	e8 a5 ba ff ff       	call   13b0 <realloc@plt>
    590b:	48 89 45 b8          	mov    %rax,-0x48(%rbp)
/media/ssd-partition/Documents/RootCauseAnalysisPruning/evaluation/test_bin/22-ezXML/ezxml/ezxml.c:775
            while (len + strlen(t = root->pi[i][0]) + strlen(n) + 7 > max)
    590f:	48 8b 45 c0          	mov    -0x40(%rbp),%rax
    5913:	48 8b 90 90 00 00 00 	mov    0x90(%rax),%rdx
    591a:	8b 45 9c             	mov    -0x64(%rbp),%eax
    591d:	48 98                	cltq   
    591f:	48 c1 e0 03          	shl    $0x3,%rax
    5923:	48 01 d0             	add    %rdx,%rax
    5926:	48 8b 00             	mov    (%rax),%rax
    5929:	48 8b 00             	mov    (%rax),%rax
    592c:	48 89 45 e0          	mov    %rax,-0x20(%rbp)
    5930:	48 8b 45 e0          	mov    -0x20(%rbp),%rax
    5934:	48 89 c7             	mov    %rax,%rdi
    5937:	e8 84 b9 ff ff       	call   12c0 <strlen@plt>
    593c:	48 8b 55 a8          	mov    -0x58(%rbp),%rdx
    5940:	48 8d 1c 10          	lea    (%rax,%rdx,1),%rbx
    5944:	48 8b 45 d8          	mov    -0x28(%rbp),%rax
    5948:	48 89 c7             	mov    %rax,%rdi
    594b:	e8 70 b9 ff ff       	call   12c0 <strlen@plt>
    5950:	48 01 d8             	add    %rbx,%rax
    5953:	48 8d 50 07          	lea    0x7(%rax),%rdx
    5957:	48 8b 45 b0          	mov    -0x50(%rbp),%rax
    595b:	48 39 c2             	cmp    %rax,%rdx
    595e:	77 8a                	ja     58ea <ezxml_toxml+0x397>
/media/ssd-partition/Documents/RootCauseAnalysisPruning/evaluation/test_bin/22-ezXML/ezxml/ezxml.c:777
            len += sprintf(s + len, "\n<?%s%s%s?>", t, *n ? " " : "", n);
    5960:	48 8b 45 d8          	mov    -0x28(%rbp),%rax
    5964:	0f b6 00             	movzbl (%rax),%eax
    5967:	84 c0                	test   %al,%al
    5969:	74 09                	je     5974 <ezxml_toxml+0x421>
/media/ssd-partition/Documents/RootCauseAnalysisPruning/evaluation/test_bin/22-ezXML/ezxml/ezxml.c:777 (discriminator 1)
    596b:	48 8d 05 b2 16 00 00 	lea    0x16b2(%rip),%rax        # 7024 <_IO_stdin_used+0x24>
    5972:	eb 07                	jmp    597b <ezxml_toxml+0x428>
/media/ssd-partition/Documents/RootCauseAnalysisPruning/evaluation/test_bin/22-ezXML/ezxml/ezxml.c:777 (discriminator 2)
    5974:	48 8d 05 e8 16 00 00 	lea    0x16e8(%rip),%rax        # 7063 <_IO_stdin_used+0x63>
/media/ssd-partition/Documents/RootCauseAnalysisPruning/evaluation/test_bin/22-ezXML/ezxml/ezxml.c:777 (discriminator 4)
    597b:	48 8b 4d b8          	mov    -0x48(%rbp),%rcx
    597f:	48 8b 55 a8          	mov    -0x58(%rbp),%rdx
    5983:	48 8d 3c 11          	lea    (%rcx,%rdx,1),%rdi
    5987:	48 8b 4d d8          	mov    -0x28(%rbp),%rcx
    598b:	48 8b 55 e0          	mov    -0x20(%rbp),%rdx
    598f:	49 89 c8             	mov    %rcx,%r8
    5992:	48 89 c1             	mov    %rax,%rcx
    5995:	48 8d 05 84 19 00 00 	lea    0x1984(%rip),%rax        # 7320 <_IO_stdin_used+0x320>
    599c:	48 89 c6             	mov    %rax,%rsi
    599f:	b8 00 00 00 00       	mov    $0x0,%eax
    59a4:	e8 67 ba ff ff       	call   1410 <sprintf@plt>
    59a9:	48 63 d0             	movslq %eax,%rdx
    59ac:	48 8b 45 a8          	mov    -0x58(%rbp),%rax
    59b0:	48 01 d0             	add    %rdx,%rax
    59b3:	48 89 45 a8          	mov    %rax,-0x58(%rbp)
    59b7:	eb 01                	jmp    59ba <ezxml_toxml+0x467>
/media/ssd-partition/Documents/RootCauseAnalysisPruning/evaluation/test_bin/22-ezXML/ezxml/ezxml.c:774
            if (root->pi[i][k][j - 1] == '<') continue; // not post-root
    59b9:	90                   	nop
/media/ssd-partition/Documents/RootCauseAnalysisPruning/evaluation/test_bin/22-ezXML/ezxml/ezxml.c:773 (discriminator 2)
        for (j = 1; (n = root->pi[i][j]); j++) {
    59ba:	83 45 a0 01          	addl   $0x1,-0x60(%rbp)
/media/ssd-partition/Documents/RootCauseAnalysisPruning/evaluation/test_bin/22-ezXML/ezxml/ezxml.c:773 (discriminator 1)
    59be:	48 8b 45 c0          	mov    -0x40(%rbp),%rax
    59c2:	48 8b 90 90 00 00 00 	mov    0x90(%rax),%rdx
    59c9:	8b 45 9c             	mov    -0x64(%rbp),%eax
    59cc:	48 98                	cltq   
    59ce:	48 c1 e0 03          	shl    $0x3,%rax
    59d2:	48 01 d0             	add    %rdx,%rax
    59d5:	48 8b 10             	mov    (%rax),%rdx
    59d8:	8b 45 a0             	mov    -0x60(%rbp),%eax
    59db:	48 98                	cltq   
    59dd:	48 c1 e0 03          	shl    $0x3,%rax
    59e1:	48 01 d0             	add    %rdx,%rax
    59e4:	48 8b 00             	mov    (%rax),%rax
    59e7:	48 89 45 d8          	mov    %rax,-0x28(%rbp)
    59eb:	48 83 7d d8 00       	cmpq   $0x0,-0x28(%rbp)
    59f0:	0f 85 b2 fe ff ff    	jne    58a8 <ezxml_toxml+0x355>
/media/ssd-partition/Documents/RootCauseAnalysisPruning/evaluation/test_bin/22-ezXML/ezxml/ezxml.c:771 (discriminator 2)
    for (i = 0; ! p && root->pi[i]; i++) { // post-root processing instructions
    59f6:	83 45 9c 01          	addl   $0x1,-0x64(%rbp)
/media/ssd-partition/Documents/RootCauseAnalysisPruning/evaluation/test_bin/22-ezXML/ezxml/ezxml.c:771 (discriminator 1)
    59fa:	48 83 7d c8 00       	cmpq   $0x0,-0x38(%rbp)
    59ff:	75 23                	jne    5a24 <ezxml_toxml+0x4d1>
/media/ssd-partition/Documents/RootCauseAnalysisPruning/evaluation/test_bin/22-ezXML/ezxml/ezxml.c:771 (discriminator 3)
    5a01:	48 8b 45 c0          	mov    -0x40(%rbp),%rax
    5a05:	48 8b 90 90 00 00 00 	mov    0x90(%rax),%rdx
    5a0c:	8b 45 9c             	mov    -0x64(%rbp),%eax
    5a0f:	48 98                	cltq   
    5a11:	48 c1 e0 03          	shl    $0x3,%rax
    5a15:	48 01 d0             	add    %rdx,%rax
    5a18:	48 8b 00             	mov    (%rax),%rax
    5a1b:	48 85 c0             	test   %rax,%rax
    5a1e:	0f 85 39 fe ff ff    	jne    585d <ezxml_toxml+0x30a>
/media/ssd-partition/Documents/RootCauseAnalysisPruning/evaluation/test_bin/22-ezXML/ezxml/ezxml.c:780
        }
    }
    return realloc(s, len + 1);
    5a24:	48 8b 45 a8          	mov    -0x58(%rbp),%rax
    5a28:	48 8d 50 01          	lea    0x1(%rax),%rdx
    5a2c:	48 8b 45 b8          	mov    -0x48(%rbp),%rax
    5a30:	48 89 d6             	mov    %rdx,%rsi
    5a33:	48 89 c7             	mov    %rax,%rdi
    5a36:	e8 75 b9 ff ff       	call   13b0 <realloc@plt>
/media/ssd-partition/Documents/RootCauseAnalysisPruning/evaluation/test_bin/22-ezXML/ezxml/ezxml.c:781 (discriminator 1)
}
    5a3b:	48 8b 55 e8          	mov    -0x18(%rbp),%rdx
    5a3f:	64 48 2b 14 25 28 00 	sub    %fs:0x28,%rdx
    5a46:	00 00 
    5a48:	74 05                	je     5a4f <ezxml_toxml+0x4fc>
/media/ssd-partition/Documents/RootCauseAnalysisPruning/evaluation/test_bin/22-ezXML/ezxml/ezxml.c:781
    5a4a:	e8 81 b8 ff ff       	call   12d0 <__stack_chk_fail@plt>
    5a4f:	48 8b 5d f8          	mov    -0x8(%rbp),%rbx
    5a53:	c9                   	leave  
    5a54:	c3                   	ret    

0000000000005a55 <ezxml_free>:
ezxml_free():
/media/ssd-partition/Documents/RootCauseAnalysisPruning/evaluation/test_bin/22-ezXML/ezxml/ezxml.c:785

// free the memory allocated for the ezxml structure
void ezxml_free(ezxml_t xml)
{
    5a55:	f3 0f 1e fa          	endbr64 
    5a59:	55                   	push   %rbp
    5a5a:	48 89 e5             	mov    %rsp,%rbp
    5a5d:	48 83 ec 30          	sub    $0x30,%rsp
    5a61:	48 89 7d d8          	mov    %rdi,-0x28(%rbp)
/media/ssd-partition/Documents/RootCauseAnalysisPruning/evaluation/test_bin/22-ezXML/ezxml/ezxml.c:786
    ezxml_root_t root = (ezxml_root_t)xml;
    5a65:	48 8b 45 d8          	mov    -0x28(%rbp),%rax
    5a69:	48 89 45 e8          	mov    %rax,-0x18(%rbp)
/media/ssd-partition/Documents/RootCauseAnalysisPruning/evaluation/test_bin/22-ezXML/ezxml/ezxml.c:790
    int i, j;
    char **a, *s;

    if (! xml) return;
    5a6d:	48 83 7d d8 00       	cmpq   $0x0,-0x28(%rbp)
    5a72:	0f 84 8d 03 00 00    	je     5e05 <ezxml_free+0x3b0>
/media/ssd-partition/Documents/RootCauseAnalysisPruning/evaluation/test_bin/22-ezXML/ezxml/ezxml.c:791
    ezxml_free(xml->child);
    5a78:	48 8b 45 d8          	mov    -0x28(%rbp),%rax
    5a7c:	48 8b 40 38          	mov    0x38(%rax),%rax
    5a80:	48 89 c7             	mov    %rax,%rdi
    5a83:	e8 cd ff ff ff       	call   5a55 <ezxml_free>
/media/ssd-partition/Documents/RootCauseAnalysisPruning/evaluation/test_bin/22-ezXML/ezxml/ezxml.c:792
    ezxml_free(xml->ordered);
    5a88:	48 8b 45 d8          	mov    -0x28(%rbp),%rax
    5a8c:	48 8b 40 30          	mov    0x30(%rax),%rax
    5a90:	48 89 c7             	mov    %rax,%rdi
    5a93:	e8 bd ff ff ff       	call   5a55 <ezxml_free>
/media/ssd-partition/Documents/RootCauseAnalysisPruning/evaluation/test_bin/22-ezXML/ezxml/ezxml.c:794

    if (! xml->parent) { // free root tag allocations
    5a98:	48 8b 45 d8          	mov    -0x28(%rbp),%rax
    5a9c:	48 8b 40 40          	mov    0x40(%rax),%rax
    5aa0:	48 85 c0             	test   %rax,%rax
    5aa3:	0f 85 fd 02 00 00    	jne    5da6 <ezxml_free+0x351>
/media/ssd-partition/Documents/RootCauseAnalysisPruning/evaluation/test_bin/22-ezXML/ezxml/ezxml.c:795
        for (i = 10; root->ent[i]; i += 2) // 0 - 9 are default entites (<>&"')
    5aa9:	c7 45 e0 0a 00 00 00 	movl   $0xa,-0x20(%rbp)
    5ab0:	eb 4e                	jmp    5b00 <ezxml_free+0xab>
/media/ssd-partition/Documents/RootCauseAnalysisPruning/evaluation/test_bin/22-ezXML/ezxml/ezxml.c:796
            if ((s = root->ent[i + 1]) < root->s || s > root->e) free(s);
    5ab2:	48 8b 45 e8          	mov    -0x18(%rbp),%rax
    5ab6:	48 8b 90 80 00 00 00 	mov    0x80(%rax),%rdx
    5abd:	8b 45 e0             	mov    -0x20(%rbp),%eax
    5ac0:	48 98                	cltq   
    5ac2:	48 83 c0 01          	add    $0x1,%rax
    5ac6:	48 c1 e0 03          	shl    $0x3,%rax
    5aca:	48 01 d0             	add    %rdx,%rax
    5acd:	48 8b 00             	mov    (%rax),%rax
    5ad0:	48 89 45 f8          	mov    %rax,-0x8(%rbp)
    5ad4:	48 8b 45 e8          	mov    -0x18(%rbp),%rax
    5ad8:	48 8b 40 70          	mov    0x70(%rax),%rax
    5adc:	48 39 45 f8          	cmp    %rax,-0x8(%rbp)
    5ae0:	72 0e                	jb     5af0 <ezxml_free+0x9b>
/media/ssd-partition/Documents/RootCauseAnalysisPruning/evaluation/test_bin/22-ezXML/ezxml/ezxml.c:796 (discriminator 2)
    5ae2:	48 8b 45 e8          	mov    -0x18(%rbp),%rax
    5ae6:	48 8b 40 78          	mov    0x78(%rax),%rax
    5aea:	48 39 45 f8          	cmp    %rax,-0x8(%rbp)
    5aee:	76 0c                	jbe    5afc <ezxml_free+0xa7>
/media/ssd-partition/Documents/RootCauseAnalysisPruning/evaluation/test_bin/22-ezXML/ezxml/ezxml.c:796 (discriminator 3)
    5af0:	48 8b 45 f8          	mov    -0x8(%rbp),%rax
    5af4:	48 89 c7             	mov    %rax,%rdi
    5af7:	e8 54 b7 ff ff       	call   1250 <free@plt>
/media/ssd-partition/Documents/RootCauseAnalysisPruning/evaluation/test_bin/22-ezXML/ezxml/ezxml.c:795 (discriminator 2)
        for (i = 10; root->ent[i]; i += 2) // 0 - 9 are default entites (<>&"')
    5afc:	83 45 e0 02          	addl   $0x2,-0x20(%rbp)
/media/ssd-partition/Documents/RootCauseAnalysisPruning/evaluation/test_bin/22-ezXML/ezxml/ezxml.c:795 (discriminator 1)
    5b00:	48 8b 45 e8          	mov    -0x18(%rbp),%rax
    5b04:	48 8b 90 80 00 00 00 	mov    0x80(%rax),%rdx
    5b0b:	8b 45 e0             	mov    -0x20(%rbp),%eax
    5b0e:	48 98                	cltq   
    5b10:	48 c1 e0 03          	shl    $0x3,%rax
    5b14:	48 01 d0             	add    %rdx,%rax
    5b17:	48 8b 00             	mov    (%rax),%rax
    5b1a:	48 85 c0             	test   %rax,%rax
    5b1d:	75 93                	jne    5ab2 <ezxml_free+0x5d>
/media/ssd-partition/Documents/RootCauseAnalysisPruning/evaluation/test_bin/22-ezXML/ezxml/ezxml.c:797
        free(root->ent); // free list of general entities
    5b1f:	48 8b 45 e8          	mov    -0x18(%rbp),%rax
    5b23:	48 8b 80 80 00 00 00 	mov    0x80(%rax),%rax
    5b2a:	48 89 c7             	mov    %rax,%rdi
    5b2d:	e8 1e b7 ff ff       	call   1250 <free@plt>
/media/ssd-partition/Documents/RootCauseAnalysisPruning/evaluation/test_bin/22-ezXML/ezxml/ezxml.c:799

        for (i = 0; (a = root->attr[i]); i++) {
    5b32:	c7 45 e0 00 00 00 00 	movl   $0x0,-0x20(%rbp)
    5b39:	e9 c9 00 00 00       	jmp    5c07 <ezxml_free+0x1b2>
/media/ssd-partition/Documents/RootCauseAnalysisPruning/evaluation/test_bin/22-ezXML/ezxml/ezxml.c:800
            for (j = 1; a[j++]; j += 2) // free malloced attribute values
    5b3e:	c7 45 e4 01 00 00 00 	movl   $0x1,-0x1c(%rbp)
    5b45:	e9 87 00 00 00       	jmp    5bd1 <ezxml_free+0x17c>
/media/ssd-partition/Documents/RootCauseAnalysisPruning/evaluation/test_bin/22-ezXML/ezxml/ezxml.c:801
                if (a[j] && (a[j] < root->s || a[j] > root->e)) free(a[j]);
    5b4a:	8b 45 e4             	mov    -0x1c(%rbp),%eax
    5b4d:	48 98                	cltq   
    5b4f:	48 8d 14 c5 00 00 00 	lea    0x0(,%rax,8),%rdx
    5b56:	00 
    5b57:	48 8b 45 f0          	mov    -0x10(%rbp),%rax
    5b5b:	48 01 d0             	add    %rdx,%rax
    5b5e:	48 8b 00             	mov    (%rax),%rax
    5b61:	48 85 c0             	test   %rax,%rax
    5b64:	74 67                	je     5bcd <ezxml_free+0x178>
/media/ssd-partition/Documents/RootCauseAnalysisPruning/evaluation/test_bin/22-ezXML/ezxml/ezxml.c:801 (discriminator 1)
    5b66:	8b 45 e4             	mov    -0x1c(%rbp),%eax
    5b69:	48 98                	cltq   
    5b6b:	48 8d 14 c5 00 00 00 	lea    0x0(,%rax,8),%rdx
    5b72:	00 
    5b73:	48 8b 45 f0          	mov    -0x10(%rbp),%rax
    5b77:	48 01 d0             	add    %rdx,%rax
    5b7a:	48 8b 10             	mov    (%rax),%rdx
    5b7d:	48 8b 45 e8          	mov    -0x18(%rbp),%rax
    5b81:	48 8b 40 70          	mov    0x70(%rax),%rax
    5b85:	48 39 c2             	cmp    %rax,%rdx
    5b88:	72 24                	jb     5bae <ezxml_free+0x159>
/media/ssd-partition/Documents/RootCauseAnalysisPruning/evaluation/test_bin/22-ezXML/ezxml/ezxml.c:801 (discriminator 3)
    5b8a:	8b 45 e4             	mov    -0x1c(%rbp),%eax
    5b8d:	48 98                	cltq   
    5b8f:	48 8d 14 c5 00 00 00 	lea    0x0(,%rax,8),%rdx
    5b96:	00 
    5b97:	48 8b 45 f0          	mov    -0x10(%rbp),%rax
    5b9b:	48 01 d0             	add    %rdx,%rax
    5b9e:	48 8b 10             	mov    (%rax),%rdx
    5ba1:	48 8b 45 e8          	mov    -0x18(%rbp),%rax
    5ba5:	48 8b 40 78          	mov    0x78(%rax),%rax
    5ba9:	48 39 c2             	cmp    %rax,%rdx
    5bac:	76 1f                	jbe    5bcd <ezxml_free+0x178>
/media/ssd-partition/Documents/RootCauseAnalysisPruning/evaluation/test_bin/22-ezXML/ezxml/ezxml.c:801 (discriminator 4)
    5bae:	8b 45 e4             	mov    -0x1c(%rbp),%eax
    5bb1:	48 98                	cltq   
    5bb3:	48 8d 14 c5 00 00 00 	lea    0x0(,%rax,8),%rdx
    5bba:	00 
    5bbb:	48 8b 45 f0          	mov    -0x10(%rbp),%rax
    5bbf:	48 01 d0             	add    %rdx,%rax
    5bc2:	48 8b 00             	mov    (%rax),%rax
    5bc5:	48 89 c7             	mov    %rax,%rdi
    5bc8:	e8 83 b6 ff ff       	call   1250 <free@plt>
/media/ssd-partition/Documents/RootCauseAnalysisPruning/evaluation/test_bin/22-ezXML/ezxml/ezxml.c:800 (discriminator 2)
            for (j = 1; a[j++]; j += 2) // free malloced attribute values
    5bcd:	83 45 e4 02          	addl   $0x2,-0x1c(%rbp)
/media/ssd-partition/Documents/RootCauseAnalysisPruning/evaluation/test_bin/22-ezXML/ezxml/ezxml.c:800 (discriminator 1)
    5bd1:	8b 45 e4             	mov    -0x1c(%rbp),%eax
    5bd4:	8d 50 01             	lea    0x1(%rax),%edx
    5bd7:	89 55 e4             	mov    %edx,-0x1c(%rbp)
    5bda:	48 98                	cltq   
    5bdc:	48 8d 14 c5 00 00 00 	lea    0x0(,%rax,8),%rdx
    5be3:	00 
    5be4:	48 8b 45 f0          	mov    -0x10(%rbp),%rax
    5be8:	48 01 d0             	add    %rdx,%rax
    5beb:	48 8b 00             	mov    (%rax),%rax
    5bee:	48 85 c0             	test   %rax,%rax
    5bf1:	0f 85 53 ff ff ff    	jne    5b4a <ezxml_free+0xf5>
/media/ssd-partition/Documents/RootCauseAnalysisPruning/evaluation/test_bin/22-ezXML/ezxml/ezxml.c:802 (discriminator 2)
            free(a);
    5bf7:	48 8b 45 f0          	mov    -0x10(%rbp),%rax
    5bfb:	48 89 c7             	mov    %rax,%rdi
    5bfe:	e8 4d b6 ff ff       	call   1250 <free@plt>
/media/ssd-partition/Documents/RootCauseAnalysisPruning/evaluation/test_bin/22-ezXML/ezxml/ezxml.c:799 (discriminator 2)
        for (i = 0; (a = root->attr[i]); i++) {
    5c03:	83 45 e0 01          	addl   $0x1,-0x20(%rbp)
/media/ssd-partition/Documents/RootCauseAnalysisPruning/evaluation/test_bin/22-ezXML/ezxml/ezxml.c:799 (discriminator 1)
    5c07:	48 8b 45 e8          	mov    -0x18(%rbp),%rax
    5c0b:	48 8b 90 88 00 00 00 	mov    0x88(%rax),%rdx
    5c12:	8b 45 e0             	mov    -0x20(%rbp),%eax
    5c15:	48 98                	cltq   
    5c17:	48 c1 e0 03          	shl    $0x3,%rax
    5c1b:	48 01 d0             	add    %rdx,%rax
    5c1e:	48 8b 00             	mov    (%rax),%rax
    5c21:	48 89 45 f0          	mov    %rax,-0x10(%rbp)
    5c25:	48 83 7d f0 00       	cmpq   $0x0,-0x10(%rbp)
    5c2a:	0f 85 0e ff ff ff    	jne    5b3e <ezxml_free+0xe9>
/media/ssd-partition/Documents/RootCauseAnalysisPruning/evaluation/test_bin/22-ezXML/ezxml/ezxml.c:804
        }
        if (root->attr[0]) free(root->attr); // free default attribute list
    5c30:	48 8b 45 e8          	mov    -0x18(%rbp),%rax
    5c34:	48 8b 80 88 00 00 00 	mov    0x88(%rax),%rax
    5c3b:	48 8b 00             	mov    (%rax),%rax
    5c3e:	48 85 c0             	test   %rax,%rax
    5c41:	74 13                	je     5c56 <ezxml_free+0x201>
/media/ssd-partition/Documents/RootCauseAnalysisPruning/evaluation/test_bin/22-ezXML/ezxml/ezxml.c:804 (discriminator 1)
    5c43:	48 8b 45 e8          	mov    -0x18(%rbp),%rax
    5c47:	48 8b 80 88 00 00 00 	mov    0x88(%rax),%rax
    5c4e:	48 89 c7             	mov    %rax,%rdi
    5c51:	e8 fa b5 ff ff       	call   1250 <free@plt>
/media/ssd-partition/Documents/RootCauseAnalysisPruning/evaluation/test_bin/22-ezXML/ezxml/ezxml.c:806

        for (i = 0; root->pi[i]; i++) {
    5c56:	c7 45 e0 00 00 00 00 	movl   $0x0,-0x20(%rbp)
    5c5d:	e9 96 00 00 00       	jmp    5cf8 <ezxml_free+0x2a3>
/media/ssd-partition/Documents/RootCauseAnalysisPruning/evaluation/test_bin/22-ezXML/ezxml/ezxml.c:807
            for (j = 1; root->pi[i][j]; j++);
    5c62:	c7 45 e4 01 00 00 00 	movl   $0x1,-0x1c(%rbp)
    5c69:	eb 04                	jmp    5c6f <ezxml_free+0x21a>
/media/ssd-partition/Documents/RootCauseAnalysisPruning/evaluation/test_bin/22-ezXML/ezxml/ezxml.c:807 (discriminator 3)
    5c6b:	83 45 e4 01          	addl   $0x1,-0x1c(%rbp)
/media/ssd-partition/Documents/RootCauseAnalysisPruning/evaluation/test_bin/22-ezXML/ezxml/ezxml.c:807 (discriminator 1)
    5c6f:	48 8b 45 e8          	mov    -0x18(%rbp),%rax
    5c73:	48 8b 90 90 00 00 00 	mov    0x90(%rax),%rdx
    5c7a:	8b 45 e0             	mov    -0x20(%rbp),%eax
    5c7d:	48 98                	cltq   
    5c7f:	48 c1 e0 03          	shl    $0x3,%rax
    5c83:	48 01 d0             	add    %rdx,%rax
    5c86:	48 8b 10             	mov    (%rax),%rdx
    5c89:	8b 45 e4             	mov    -0x1c(%rbp),%eax
    5c8c:	48 98                	cltq   
    5c8e:	48 c1 e0 03          	shl    $0x3,%rax
    5c92:	48 01 d0             	add    %rdx,%rax
    5c95:	48 8b 00             	mov    (%rax),%rax
    5c98:	48 85 c0             	test   %rax,%rax
    5c9b:	75 ce                	jne    5c6b <ezxml_free+0x216>
/media/ssd-partition/Documents/RootCauseAnalysisPruning/evaluation/test_bin/22-ezXML/ezxml/ezxml.c:808 (discriminator 2)
            free(root->pi[i][j + 1]);
    5c9d:	48 8b 45 e8          	mov    -0x18(%rbp),%rax
    5ca1:	48 8b 90 90 00 00 00 	mov    0x90(%rax),%rdx
    5ca8:	8b 45 e0             	mov    -0x20(%rbp),%eax
    5cab:	48 98                	cltq   
    5cad:	48 c1 e0 03          	shl    $0x3,%rax
    5cb1:	48 01 d0             	add    %rdx,%rax
    5cb4:	48 8b 10             	mov    (%rax),%rdx
    5cb7:	8b 45 e4             	mov    -0x1c(%rbp),%eax
    5cba:	48 98                	cltq   
    5cbc:	48 83 c0 01          	add    $0x1,%rax
    5cc0:	48 c1 e0 03          	shl    $0x3,%rax
    5cc4:	48 01 d0             	add    %rdx,%rax
    5cc7:	48 8b 00             	mov    (%rax),%rax
    5cca:	48 89 c7             	mov    %rax,%rdi
    5ccd:	e8 7e b5 ff ff       	call   1250 <free@plt>
/media/ssd-partition/Documents/RootCauseAnalysisPruning/evaluation/test_bin/22-ezXML/ezxml/ezxml.c:809 (discriminator 2)
            free(root->pi[i]);
    5cd2:	48 8b 45 e8          	mov    -0x18(%rbp),%rax
    5cd6:	48 8b 90 90 00 00 00 	mov    0x90(%rax),%rdx
    5cdd:	8b 45 e0             	mov    -0x20(%rbp),%eax
    5ce0:	48 98                	cltq   
    5ce2:	48 c1 e0 03          	shl    $0x3,%rax
    5ce6:	48 01 d0             	add    %rdx,%rax
    5ce9:	48 8b 00             	mov    (%rax),%rax
    5cec:	48 89 c7             	mov    %rax,%rdi
    5cef:	e8 5c b5 ff ff       	call   1250 <free@plt>
/media/ssd-partition/Documents/RootCauseAnalysisPruning/evaluation/test_bin/22-ezXML/ezxml/ezxml.c:806 (discriminator 2)
        for (i = 0; root->pi[i]; i++) {
    5cf4:	83 45 e0 01          	addl   $0x1,-0x20(%rbp)
/media/ssd-partition/Documents/RootCauseAnalysisPruning/evaluation/test_bin/22-ezXML/ezxml/ezxml.c:806 (discriminator 1)
    5cf8:	48 8b 45 e8          	mov    -0x18(%rbp),%rax
    5cfc:	48 8b 90 90 00 00 00 	mov    0x90(%rax),%rdx
    5d03:	8b 45 e0             	mov    -0x20(%rbp),%eax
    5d06:	48 98                	cltq   
    5d08:	48 c1 e0 03          	shl    $0x3,%rax
    5d0c:	48 01 d0             	add    %rdx,%rax
    5d0f:	48 8b 00             	mov    (%rax),%rax
    5d12:	48 85 c0             	test   %rax,%rax
    5d15:	0f 85 47 ff ff ff    	jne    5c62 <ezxml_free+0x20d>
/media/ssd-partition/Documents/RootCauseAnalysisPruning/evaluation/test_bin/22-ezXML/ezxml/ezxml.c:811
        }            
        if (root->pi[0]) free(root->pi); // free processing instructions
    5d1b:	48 8b 45 e8          	mov    -0x18(%rbp),%rax
    5d1f:	48 8b 80 90 00 00 00 	mov    0x90(%rax),%rax
    5d26:	48 8b 00             	mov    (%rax),%rax
    5d29:	48 85 c0             	test   %rax,%rax
    5d2c:	74 13                	je     5d41 <ezxml_free+0x2ec>
/media/ssd-partition/Documents/RootCauseAnalysisPruning/evaluation/test_bin/22-ezXML/ezxml/ezxml.c:811 (discriminator 1)
    5d2e:	48 8b 45 e8          	mov    -0x18(%rbp),%rax
    5d32:	48 8b 80 90 00 00 00 	mov    0x90(%rax),%rax
    5d39:	48 89 c7             	mov    %rax,%rdi
    5d3c:	e8 0f b5 ff ff       	call   1250 <free@plt>
/media/ssd-partition/Documents/RootCauseAnalysisPruning/evaluation/test_bin/22-ezXML/ezxml/ezxml.c:813

        if (root->len == -1) free(root->m); // malloced xml data
    5d41:	48 8b 45 e8          	mov    -0x18(%rbp),%rax
    5d45:	48 8b 40 60          	mov    0x60(%rax),%rax
    5d49:	48 83 f8 ff          	cmp    $0xffffffffffffffff,%rax
    5d4d:	75 12                	jne    5d61 <ezxml_free+0x30c>
/media/ssd-partition/Documents/RootCauseAnalysisPruning/evaluation/test_bin/22-ezXML/ezxml/ezxml.c:813 (discriminator 1)
    5d4f:	48 8b 45 e8          	mov    -0x18(%rbp),%rax
    5d53:	48 8b 40 58          	mov    0x58(%rax),%rax
    5d57:	48 89 c7             	mov    %rax,%rdi
    5d5a:	e8 f1 b4 ff ff       	call   1250 <free@plt>
    5d5f:	eb 28                	jmp    5d89 <ezxml_free+0x334>
/media/ssd-partition/Documents/RootCauseAnalysisPruning/evaluation/test_bin/22-ezXML/ezxml/ezxml.c:815
#ifndef EZXML_NOMMAP
        else if (root->len) munmap(root->m, root->len); // mem mapped xml data
    5d61:	48 8b 45 e8          	mov    -0x18(%rbp),%rax
    5d65:	48 8b 40 60          	mov    0x60(%rax),%rax
    5d69:	48 85 c0             	test   %rax,%rax
    5d6c:	74 1b                	je     5d89 <ezxml_free+0x334>
/media/ssd-partition/Documents/RootCauseAnalysisPruning/evaluation/test_bin/22-ezXML/ezxml/ezxml.c:815 (discriminator 1)
    5d6e:	48 8b 45 e8          	mov    -0x18(%rbp),%rax
    5d72:	48 8b 50 60          	mov    0x60(%rax),%rdx
    5d76:	48 8b 45 e8          	mov    -0x18(%rbp),%rax
    5d7a:	48 8b 40 58          	mov    0x58(%rax),%rax
    5d7e:	48 89 d6             	mov    %rdx,%rsi
    5d81:	48 89 c7             	mov    %rax,%rdi
    5d84:	e8 37 b6 ff ff       	call   13c0 <munmap@plt>
/media/ssd-partition/Documents/RootCauseAnalysisPruning/evaluation/test_bin/22-ezXML/ezxml/ezxml.c:817
#endif // EZXML_NOMMAP
        if (root->u) free(root->u); // utf8 conversion
    5d89:	48 8b 45 e8          	mov    -0x18(%rbp),%rax
    5d8d:	48 8b 40 68          	mov    0x68(%rax),%rax
    5d91:	48 85 c0             	test   %rax,%rax
    5d94:	74 10                	je     5da6 <ezxml_free+0x351>
/media/ssd-partition/Documents/RootCauseAnalysisPruning/evaluation/test_bin/22-ezXML/ezxml/ezxml.c:817 (discriminator 1)
    5d96:	48 8b 45 e8          	mov    -0x18(%rbp),%rax
    5d9a:	48 8b 40 68          	mov    0x68(%rax),%rax
    5d9e:	48 89 c7             	mov    %rax,%rdi
    5da1:	e8 aa b4 ff ff       	call   1250 <free@plt>
/media/ssd-partition/Documents/RootCauseAnalysisPruning/evaluation/test_bin/22-ezXML/ezxml/ezxml.c:820
    }

    ezxml_free_attr(xml->attr); // tag attributes
    5da6:	48 8b 45 d8          	mov    -0x28(%rbp),%rax
    5daa:	48 8b 40 08          	mov    0x8(%rax),%rax
    5dae:	48 89 c7             	mov    %rax,%rdi
    5db1:	e8 5f db ff ff       	call   3915 <ezxml_free_attr>
/media/ssd-partition/Documents/RootCauseAnalysisPruning/evaluation/test_bin/22-ezXML/ezxml/ezxml.c:821
    if ((xml->flags & EZXML_TXTM)) free(xml->txt); // character content
    5db6:	48 8b 45 d8          	mov    -0x28(%rbp),%rax
    5dba:	0f b7 40 48          	movzwl 0x48(%rax),%eax
    5dbe:	98                   	cwtl   
    5dbf:	83 e0 40             	and    $0x40,%eax
    5dc2:	85 c0                	test   %eax,%eax
    5dc4:	74 10                	je     5dd6 <ezxml_free+0x381>
/media/ssd-partition/Documents/RootCauseAnalysisPruning/evaluation/test_bin/22-ezXML/ezxml/ezxml.c:821 (discriminator 1)
    5dc6:	48 8b 45 d8          	mov    -0x28(%rbp),%rax
    5dca:	48 8b 40 10          	mov    0x10(%rax),%rax
    5dce:	48 89 c7             	mov    %rax,%rdi
    5dd1:	e8 7a b4 ff ff       	call   1250 <free@plt>
/media/ssd-partition/Documents/RootCauseAnalysisPruning/evaluation/test_bin/22-ezXML/ezxml/ezxml.c:822
    if ((xml->flags & EZXML_NAMEM)) free(xml->name); // tag name
    5dd6:	48 8b 45 d8          	mov    -0x28(%rbp),%rax
    5dda:	0f b7 40 48          	movzwl 0x48(%rax),%eax
    5dde:	98                   	cwtl   
    5ddf:	25 80 00 00 00       	and    $0x80,%eax
    5de4:	85 c0                	test   %eax,%eax
    5de6:	74 0f                	je     5df7 <ezxml_free+0x3a2>
/media/ssd-partition/Documents/RootCauseAnalysisPruning/evaluation/test_bin/22-ezXML/ezxml/ezxml.c:822 (discriminator 1)
    5de8:	48 8b 45 d8          	mov    -0x28(%rbp),%rax
    5dec:	48 8b 00             	mov    (%rax),%rax
    5def:	48 89 c7             	mov    %rax,%rdi
    5df2:	e8 59 b4 ff ff       	call   1250 <free@plt>
/media/ssd-partition/Documents/RootCauseAnalysisPruning/evaluation/test_bin/22-ezXML/ezxml/ezxml.c:823
    free(xml);
    5df7:	48 8b 45 d8          	mov    -0x28(%rbp),%rax
    5dfb:	48 89 c7             	mov    %rax,%rdi
    5dfe:	e8 4d b4 ff ff       	call   1250 <free@plt>
    5e03:	eb 01                	jmp    5e06 <ezxml_free+0x3b1>
/media/ssd-partition/Documents/RootCauseAnalysisPruning/evaluation/test_bin/22-ezXML/ezxml/ezxml.c:790
    if (! xml) return;
    5e05:	90                   	nop
/media/ssd-partition/Documents/RootCauseAnalysisPruning/evaluation/test_bin/22-ezXML/ezxml/ezxml.c:824
}
    5e06:	c9                   	leave  
    5e07:	c3                   	ret    

0000000000005e08 <ezxml_error>:
ezxml_error():
/media/ssd-partition/Documents/RootCauseAnalysisPruning/evaluation/test_bin/22-ezXML/ezxml/ezxml.c:828

// return parser error message or empty string if none
const char *ezxml_error(ezxml_t xml)
{
    5e08:	f3 0f 1e fa          	endbr64 
    5e0c:	55                   	push   %rbp
    5e0d:	48 89 e5             	mov    %rsp,%rbp
    5e10:	48 89 7d f8          	mov    %rdi,-0x8(%rbp)
/media/ssd-partition/Documents/RootCauseAnalysisPruning/evaluation/test_bin/22-ezXML/ezxml/ezxml.c:829
    while (xml && xml->parent) xml = xml->parent; // find root tag
    5e14:	eb 0c                	jmp    5e22 <ezxml_error+0x1a>
/media/ssd-partition/Documents/RootCauseAnalysisPruning/evaluation/test_bin/22-ezXML/ezxml/ezxml.c:829 (discriminator 3)
    5e16:	48 8b 45 f8          	mov    -0x8(%rbp),%rax
    5e1a:	48 8b 40 40          	mov    0x40(%rax),%rax
    5e1e:	48 89 45 f8          	mov    %rax,-0x8(%rbp)
/media/ssd-partition/Documents/RootCauseAnalysisPruning/evaluation/test_bin/22-ezXML/ezxml/ezxml.c:829 (discriminator 1)
    5e22:	48 83 7d f8 00       	cmpq   $0x0,-0x8(%rbp)
    5e27:	74 0d                	je     5e36 <ezxml_error+0x2e>
/media/ssd-partition/Documents/RootCauseAnalysisPruning/evaluation/test_bin/22-ezXML/ezxml/ezxml.c:829 (discriminator 2)
    5e29:	48 8b 45 f8          	mov    -0x8(%rbp),%rax
    5e2d:	48 8b 40 40          	mov    0x40(%rax),%rax
    5e31:	48 85 c0             	test   %rax,%rax
    5e34:	75 e0                	jne    5e16 <ezxml_error+0xe>
/media/ssd-partition/Documents/RootCauseAnalysisPruning/evaluation/test_bin/22-ezXML/ezxml/ezxml.c:830
    return (xml) ? ((ezxml_root_t)xml)->err : "";
    5e36:	48 83 7d f8 00       	cmpq   $0x0,-0x8(%rbp)
    5e3b:	74 0c                	je     5e49 <ezxml_error+0x41>
/media/ssd-partition/Documents/RootCauseAnalysisPruning/evaluation/test_bin/22-ezXML/ezxml/ezxml.c:830 (discriminator 1)
    5e3d:	48 8b 45 f8          	mov    -0x8(%rbp),%rax
    5e41:	48 05 9a 00 00 00    	add    $0x9a,%rax
    5e47:	eb 07                	jmp    5e50 <ezxml_error+0x48>
/media/ssd-partition/Documents/RootCauseAnalysisPruning/evaluation/test_bin/22-ezXML/ezxml/ezxml.c:830 (discriminator 2)
    5e49:	48 8d 05 13 12 00 00 	lea    0x1213(%rip),%rax        # 7063 <_IO_stdin_used+0x63>
/media/ssd-partition/Documents/RootCauseAnalysisPruning/evaluation/test_bin/22-ezXML/ezxml/ezxml.c:831 (discriminator 5)
}
    5e50:	5d                   	pop    %rbp
    5e51:	c3                   	ret    

0000000000005e52 <ezxml_new>:
ezxml_new():
/media/ssd-partition/Documents/RootCauseAnalysisPruning/evaluation/test_bin/22-ezXML/ezxml/ezxml.c:835

// returns a new empty ezxml structure with the given root tag name
ezxml_t ezxml_new(const char *name)
{
    5e52:	f3 0f 1e fa          	endbr64 
    5e56:	55                   	push   %rbp
    5e57:	48 89 e5             	mov    %rsp,%rbp
    5e5a:	48 83 ec 20          	sub    $0x20,%rsp
    5e5e:	48 89 7d e8          	mov    %rdi,-0x18(%rbp)
/media/ssd-partition/Documents/RootCauseAnalysisPruning/evaluation/test_bin/22-ezXML/ezxml/ezxml.c:838
    static char *ent[] = { "lt;", "&#60;", "gt;", "&#62;", "quot;", "&#34;",
                           "apos;", "&#39;", "amp;", "&#38;", NULL };
    ezxml_root_t root = (ezxml_root_t)memset(malloc(sizeof(struct ezxml_root)), 
    5e62:	bf 20 01 00 00       	mov    $0x120,%edi
    5e67:	e8 34 b5 ff ff       	call   13a0 <malloc@plt>
    5e6c:	ba 20 01 00 00       	mov    $0x120,%edx
    5e71:	be 00 00 00 00       	mov    $0x0,%esi
    5e76:	48 89 c7             	mov    %rax,%rdi
    5e79:	e8 92 b4 ff ff       	call   1310 <memset@plt>
    5e7e:	48 89 45 f8          	mov    %rax,-0x8(%rbp)
/media/ssd-partition/Documents/RootCauseAnalysisPruning/evaluation/test_bin/22-ezXML/ezxml/ezxml.c:840
                                             '\0', sizeof(struct ezxml_root));
    root->xml.name = (char *)name;
    5e82:	48 8b 45 f8          	mov    -0x8(%rbp),%rax
    5e86:	48 8b 55 e8          	mov    -0x18(%rbp),%rdx
    5e8a:	48 89 10             	mov    %rdx,(%rax)
/media/ssd-partition/Documents/RootCauseAnalysisPruning/evaluation/test_bin/22-ezXML/ezxml/ezxml.c:841
    root->cur = &root->xml;
    5e8d:	48 8b 55 f8          	mov    -0x8(%rbp),%rdx
    5e91:	48 8b 45 f8          	mov    -0x8(%rbp),%rax
    5e95:	48 89 50 50          	mov    %rdx,0x50(%rax)
/media/ssd-partition/Documents/RootCauseAnalysisPruning/evaluation/test_bin/22-ezXML/ezxml/ezxml.c:842
    strcpy(root->err, root->xml.txt = "");
    5e99:	48 8b 45 f8          	mov    -0x8(%rbp),%rax
    5e9d:	48 8d 15 bf 11 00 00 	lea    0x11bf(%rip),%rdx        # 7063 <_IO_stdin_used+0x63>
    5ea4:	48 89 50 10          	mov    %rdx,0x10(%rax)
    5ea8:	48 8b 45 f8          	mov    -0x8(%rbp),%rax
    5eac:	48 05 9a 00 00 00    	add    $0x9a,%rax
    5eb2:	c6 00 00             	movb   $0x0,(%rax)
/media/ssd-partition/Documents/RootCauseAnalysisPruning/evaluation/test_bin/22-ezXML/ezxml/ezxml.c:843
    root->ent = memcpy(malloc(sizeof(ent)), ent, sizeof(ent));
    5eb5:	bf 58 00 00 00       	mov    $0x58,%edi
    5eba:	e8 e1 b4 ff ff       	call   13a0 <malloc@plt>
    5ebf:	48 89 c1             	mov    %rax,%rcx
    5ec2:	ba 58 00 00 00       	mov    $0x58,%edx
    5ec7:	48 8d 05 52 31 00 00 	lea    0x3152(%rip),%rax        # 9020 <ent.0>
    5ece:	48 89 c6             	mov    %rax,%rsi
    5ed1:	48 89 cf             	mov    %rcx,%rdi
    5ed4:	e8 b7 b4 ff ff       	call   1390 <memcpy@plt>
    5ed9:	48 8b 55 f8          	mov    -0x8(%rbp),%rdx
    5edd:	48 89 82 80 00 00 00 	mov    %rax,0x80(%rdx)
/media/ssd-partition/Documents/RootCauseAnalysisPruning/evaluation/test_bin/22-ezXML/ezxml/ezxml.c:844
    root->attr = root->pi = (char ***)(root->xml.attr = EZXML_NIL);
    5ee4:	48 8b 45 f8          	mov    -0x8(%rbp),%rax
    5ee8:	48 8d 15 a1 31 00 00 	lea    0x31a1(%rip),%rdx        # 9090 <EZXML_NIL>
    5eef:	48 89 50 08          	mov    %rdx,0x8(%rax)
    5ef3:	48 8b 45 f8          	mov    -0x8(%rbp),%rax
    5ef7:	48 8d 15 92 31 00 00 	lea    0x3192(%rip),%rdx        # 9090 <EZXML_NIL>
    5efe:	48 89 90 90 00 00 00 	mov    %rdx,0x90(%rax)
    5f05:	48 8b 45 f8          	mov    -0x8(%rbp),%rax
    5f09:	48 8b 90 90 00 00 00 	mov    0x90(%rax),%rdx
    5f10:	48 8b 45 f8          	mov    -0x8(%rbp),%rax
    5f14:	48 89 90 88 00 00 00 	mov    %rdx,0x88(%rax)
/media/ssd-partition/Documents/RootCauseAnalysisPruning/evaluation/test_bin/22-ezXML/ezxml/ezxml.c:845
    return &root->xml;
    5f1b:	48 8b 45 f8          	mov    -0x8(%rbp),%rax
/media/ssd-partition/Documents/RootCauseAnalysisPruning/evaluation/test_bin/22-ezXML/ezxml/ezxml.c:846
}
    5f1f:	c9                   	leave  
    5f20:	c3                   	ret    

0000000000005f21 <ezxml_insert>:
ezxml_insert():
/media/ssd-partition/Documents/RootCauseAnalysisPruning/evaluation/test_bin/22-ezXML/ezxml/ezxml.c:850

// inserts an existing tag into an ezxml structure
ezxml_t ezxml_insert(ezxml_t xml, ezxml_t dest, size_t off)
{
    5f21:	f3 0f 1e fa          	endbr64 
    5f25:	55                   	push   %rbp
    5f26:	48 89 e5             	mov    %rsp,%rbp
    5f29:	48 83 ec 40          	sub    $0x40,%rsp
    5f2d:	48 89 7d d8          	mov    %rdi,-0x28(%rbp)
    5f31:	48 89 75 d0          	mov    %rsi,-0x30(%rbp)
    5f35:	48 89 55 c8          	mov    %rdx,-0x38(%rbp)
/media/ssd-partition/Documents/RootCauseAnalysisPruning/evaluation/test_bin/22-ezXML/ezxml/ezxml.c:853
    ezxml_t cur, prev, head;

    xml->next = xml->sibling = xml->ordered = NULL;
    5f39:	48 8b 45 d8          	mov    -0x28(%rbp),%rax
    5f3d:	48 c7 40 30 00 00 00 	movq   $0x0,0x30(%rax)
    5f44:	00 
    5f45:	48 8b 45 d8          	mov    -0x28(%rbp),%rax
    5f49:	48 8b 50 30          	mov    0x30(%rax),%rdx
    5f4d:	48 8b 45 d8          	mov    -0x28(%rbp),%rax
    5f51:	48 89 50 28          	mov    %rdx,0x28(%rax)
    5f55:	48 8b 45 d8          	mov    -0x28(%rbp),%rax
    5f59:	48 8b 50 28          	mov    0x28(%rax),%rdx
    5f5d:	48 8b 45 d8          	mov    -0x28(%rbp),%rax
    5f61:	48 89 50 20          	mov    %rdx,0x20(%rax)
/media/ssd-partition/Documents/RootCauseAnalysisPruning/evaluation/test_bin/22-ezXML/ezxml/ezxml.c:854
    xml->off = off;
    5f65:	48 8b 45 d8          	mov    -0x28(%rbp),%rax
    5f69:	48 8b 55 c8          	mov    -0x38(%rbp),%rdx
    5f6d:	48 89 50 18          	mov    %rdx,0x18(%rax)
/media/ssd-partition/Documents/RootCauseAnalysisPruning/evaluation/test_bin/22-ezXML/ezxml/ezxml.c:855
    xml->parent = dest;
    5f71:	48 8b 45 d8          	mov    -0x28(%rbp),%rax
    5f75:	48 8b 55 d0          	mov    -0x30(%rbp),%rdx
    5f79:	48 89 50 40          	mov    %rdx,0x40(%rax)
/media/ssd-partition/Documents/RootCauseAnalysisPruning/evaluation/test_bin/22-ezXML/ezxml/ezxml.c:857

    if ((head = dest->child)) { // already have sub tags
    5f7d:	48 8b 45 d0          	mov    -0x30(%rbp),%rax
    5f81:	48 8b 40 38          	mov    0x38(%rax),%rax
    5f85:	48 89 45 f8          	mov    %rax,-0x8(%rbp)
    5f89:	48 83 7d f8 00       	cmpq   $0x0,-0x8(%rbp)
    5f8e:	0f 84 ac 01 00 00    	je     6140 <ezxml_insert+0x21f>
/media/ssd-partition/Documents/RootCauseAnalysisPruning/evaluation/test_bin/22-ezXML/ezxml/ezxml.c:858
        if (head->off <= off) { // not first subtag
    5f94:	48 8b 45 f8          	mov    -0x8(%rbp),%rax
    5f98:	48 8b 40 18          	mov    0x18(%rax),%rax
    5f9c:	48 39 45 c8          	cmp    %rax,-0x38(%rbp)
    5fa0:	72 53                	jb     5ff5 <ezxml_insert+0xd4>
/media/ssd-partition/Documents/RootCauseAnalysisPruning/evaluation/test_bin/22-ezXML/ezxml/ezxml.c:859
            for (cur = head; cur->ordered && cur->ordered->off <= off;
    5fa2:	48 8b 45 f8          	mov    -0x8(%rbp),%rax
    5fa6:	48 89 45 e8          	mov    %rax,-0x18(%rbp)
    5faa:	eb 0c                	jmp    5fb8 <ezxml_insert+0x97>
/media/ssd-partition/Documents/RootCauseAnalysisPruning/evaluation/test_bin/22-ezXML/ezxml/ezxml.c:860
                 cur = cur->ordered);
    5fac:	48 8b 45 e8          	mov    -0x18(%rbp),%rax
    5fb0:	48 8b 40 30          	mov    0x30(%rax),%rax
    5fb4:	48 89 45 e8          	mov    %rax,-0x18(%rbp)
/media/ssd-partition/Documents/RootCauseAnalysisPruning/evaluation/test_bin/22-ezXML/ezxml/ezxml.c:859 (discriminator 1)
            for (cur = head; cur->ordered && cur->ordered->off <= off;
    5fb8:	48 8b 45 e8          	mov    -0x18(%rbp),%rax
    5fbc:	48 8b 40 30          	mov    0x30(%rax),%rax
    5fc0:	48 85 c0             	test   %rax,%rax
    5fc3:	74 12                	je     5fd7 <ezxml_insert+0xb6>
/media/ssd-partition/Documents/RootCauseAnalysisPruning/evaluation/test_bin/22-ezXML/ezxml/ezxml.c:859 (discriminator 2)
    5fc5:	48 8b 45 e8          	mov    -0x18(%rbp),%rax
    5fc9:	48 8b 40 30          	mov    0x30(%rax),%rax
    5fcd:	48 8b 40 18          	mov    0x18(%rax),%rax
    5fd1:	48 39 45 c8          	cmp    %rax,-0x38(%rbp)
    5fd5:	73 d5                	jae    5fac <ezxml_insert+0x8b>
/media/ssd-partition/Documents/RootCauseAnalysisPruning/evaluation/test_bin/22-ezXML/ezxml/ezxml.c:861
            xml->ordered = cur->ordered;
    5fd7:	48 8b 45 e8          	mov    -0x18(%rbp),%rax
    5fdb:	48 8b 50 30          	mov    0x30(%rax),%rdx
    5fdf:	48 8b 45 d8          	mov    -0x28(%rbp),%rax
    5fe3:	48 89 50 30          	mov    %rdx,0x30(%rax)
/media/ssd-partition/Documents/RootCauseAnalysisPruning/evaluation/test_bin/22-ezXML/ezxml/ezxml.c:862
            cur->ordered = xml;
    5fe7:	48 8b 45 e8          	mov    -0x18(%rbp),%rax
    5feb:	48 8b 55 d8          	mov    -0x28(%rbp),%rdx
    5fef:	48 89 50 30          	mov    %rdx,0x30(%rax)
    5ff3:	eb 18                	jmp    600d <ezxml_insert+0xec>
/media/ssd-partition/Documents/RootCauseAnalysisPruning/evaluation/test_bin/22-ezXML/ezxml/ezxml.c:865
        }
        else { // first subtag
            xml->ordered = head;
    5ff5:	48 8b 45 d8          	mov    -0x28(%rbp),%rax
    5ff9:	48 8b 55 f8          	mov    -0x8(%rbp),%rdx
    5ffd:	48 89 50 30          	mov    %rdx,0x30(%rax)
/media/ssd-partition/Documents/RootCauseAnalysisPruning/evaluation/test_bin/22-ezXML/ezxml/ezxml.c:866
            dest->child = xml;
    6001:	48 8b 45 d0          	mov    -0x30(%rbp),%rax
    6005:	48 8b 55 d8          	mov    -0x28(%rbp),%rdx
    6009:	48 89 50 38          	mov    %rdx,0x38(%rax)
/media/ssd-partition/Documents/RootCauseAnalysisPruning/evaluation/test_bin/22-ezXML/ezxml/ezxml.c:869
        }

        for (cur = head, prev = NULL; cur && strcmp(cur->name, xml->name);
    600d:	48 8b 45 f8          	mov    -0x8(%rbp),%rax
    6011:	48 89 45 e8          	mov    %rax,-0x18(%rbp)
    6015:	48 c7 45 f0 00 00 00 	movq   $0x0,-0x10(%rbp)
    601c:	00 
    601d:	eb 14                	jmp    6033 <ezxml_insert+0x112>
/media/ssd-partition/Documents/RootCauseAnalysisPruning/evaluation/test_bin/22-ezXML/ezxml/ezxml.c:870
             prev = cur, cur = cur->sibling); // find tag type
    601f:	48 8b 45 e8          	mov    -0x18(%rbp),%rax
    6023:	48 89 45 f0          	mov    %rax,-0x10(%rbp)
    6027:	48 8b 45 e8          	mov    -0x18(%rbp),%rax
    602b:	48 8b 40 28          	mov    0x28(%rax),%rax
    602f:	48 89 45 e8          	mov    %rax,-0x18(%rbp)
/media/ssd-partition/Documents/RootCauseAnalysisPruning/evaluation/test_bin/22-ezXML/ezxml/ezxml.c:869 (discriminator 1)
        for (cur = head, prev = NULL; cur && strcmp(cur->name, xml->name);
    6033:	48 83 7d e8 00       	cmpq   $0x0,-0x18(%rbp)
    6038:	74 1d                	je     6057 <ezxml_insert+0x136>
/media/ssd-partition/Documents/RootCauseAnalysisPruning/evaluation/test_bin/22-ezXML/ezxml/ezxml.c:869 (discriminator 2)
    603a:	48 8b 45 d8          	mov    -0x28(%rbp),%rax
    603e:	48 8b 10             	mov    (%rax),%rdx
    6041:	48 8b 45 e8          	mov    -0x18(%rbp),%rax
    6045:	48 8b 00             	mov    (%rax),%rax
    6048:	48 89 d6             	mov    %rdx,%rsi
    604b:	48 89 c7             	mov    %rax,%rdi
    604e:	e8 0d b3 ff ff       	call   1360 <strcmp@plt>
    6053:	85 c0                	test   %eax,%eax
    6055:	75 c8                	jne    601f <ezxml_insert+0xfe>
/media/ssd-partition/Documents/RootCauseAnalysisPruning/evaluation/test_bin/22-ezXML/ezxml/ezxml.c:871
        if (cur && cur->off <= off) { // not first of type
    6057:	48 83 7d e8 00       	cmpq   $0x0,-0x18(%rbp)
    605c:	74 5c                	je     60ba <ezxml_insert+0x199>
/media/ssd-partition/Documents/RootCauseAnalysisPruning/evaluation/test_bin/22-ezXML/ezxml/ezxml.c:871 (discriminator 1)
    605e:	48 8b 45 e8          	mov    -0x18(%rbp),%rax
    6062:	48 8b 40 18          	mov    0x18(%rax),%rax
    6066:	48 39 45 c8          	cmp    %rax,-0x38(%rbp)
    606a:	72 4e                	jb     60ba <ezxml_insert+0x199>
/media/ssd-partition/Documents/RootCauseAnalysisPruning/evaluation/test_bin/22-ezXML/ezxml/ezxml.c:872
            while (cur->next && cur->next->off <= off) cur = cur->next;
    606c:	eb 0c                	jmp    607a <ezxml_insert+0x159>
/media/ssd-partition/Documents/RootCauseAnalysisPruning/evaluation/test_bin/22-ezXML/ezxml/ezxml.c:872 (discriminator 3)
    606e:	48 8b 45 e8          	mov    -0x18(%rbp),%rax
    6072:	48 8b 40 20          	mov    0x20(%rax),%rax
    6076:	48 89 45 e8          	mov    %rax,-0x18(%rbp)
/media/ssd-partition/Documents/RootCauseAnalysisPruning/evaluation/test_bin/22-ezXML/ezxml/ezxml.c:872 (discriminator 1)
    607a:	48 8b 45 e8          	mov    -0x18(%rbp),%rax
    607e:	48 8b 40 20          	mov    0x20(%rax),%rax
    6082:	48 85 c0             	test   %rax,%rax
    6085:	74 12                	je     6099 <ezxml_insert+0x178>
/media/ssd-partition/Documents/RootCauseAnalysisPruning/evaluation/test_bin/22-ezXML/ezxml/ezxml.c:872 (discriminator 2)
    6087:	48 8b 45 e8          	mov    -0x18(%rbp),%rax
    608b:	48 8b 40 20          	mov    0x20(%rax),%rax
    608f:	48 8b 40 18          	mov    0x18(%rax),%rax
    6093:	48 39 45 c8          	cmp    %rax,-0x38(%rbp)
    6097:	73 d5                	jae    606e <ezxml_insert+0x14d>
/media/ssd-partition/Documents/RootCauseAnalysisPruning/evaluation/test_bin/22-ezXML/ezxml/ezxml.c:873
            xml->next = cur->next;
    6099:	48 8b 45 e8          	mov    -0x18(%rbp),%rax
    609d:	48 8b 50 20          	mov    0x20(%rax),%rdx
    60a1:	48 8b 45 d8          	mov    -0x28(%rbp),%rax
    60a5:	48 89 50 20          	mov    %rdx,0x20(%rax)
/media/ssd-partition/Documents/RootCauseAnalysisPruning/evaluation/test_bin/22-ezXML/ezxml/ezxml.c:874
            cur->next = xml;
    60a9:	48 8b 45 e8          	mov    -0x18(%rbp),%rax
    60ad:	48 8b 55 d8          	mov    -0x28(%rbp),%rdx
    60b1:	48 89 50 20          	mov    %rdx,0x20(%rax)
    60b5:	e9 92 00 00 00       	jmp    614c <ezxml_insert+0x22b>
/media/ssd-partition/Documents/RootCauseAnalysisPruning/evaluation/test_bin/22-ezXML/ezxml/ezxml.c:877
        }
        else { // first tag of this type
            if (prev && cur) prev->sibling = cur->sibling; // remove old first
    60ba:	48 83 7d f0 00       	cmpq   $0x0,-0x10(%rbp)
    60bf:	74 17                	je     60d8 <ezxml_insert+0x1b7>
/media/ssd-partition/Documents/RootCauseAnalysisPruning/evaluation/test_bin/22-ezXML/ezxml/ezxml.c:877 (discriminator 1)
    60c1:	48 83 7d e8 00       	cmpq   $0x0,-0x18(%rbp)
    60c6:	74 10                	je     60d8 <ezxml_insert+0x1b7>
/media/ssd-partition/Documents/RootCauseAnalysisPruning/evaluation/test_bin/22-ezXML/ezxml/ezxml.c:877 (discriminator 2)
    60c8:	48 8b 45 e8          	mov    -0x18(%rbp),%rax
    60cc:	48 8b 50 28          	mov    0x28(%rax),%rdx
    60d0:	48 8b 45 f0          	mov    -0x10(%rbp),%rax
    60d4:	48 89 50 28          	mov    %rdx,0x28(%rax)
/media/ssd-partition/Documents/RootCauseAnalysisPruning/evaluation/test_bin/22-ezXML/ezxml/ezxml.c:878
            xml->next = cur; // old first tag is now next
    60d8:	48 8b 45 d8          	mov    -0x28(%rbp),%rax
    60dc:	48 8b 55 e8          	mov    -0x18(%rbp),%rdx
    60e0:	48 89 50 20          	mov    %rdx,0x20(%rax)
/media/ssd-partition/Documents/RootCauseAnalysisPruning/evaluation/test_bin/22-ezXML/ezxml/ezxml.c:879
            for (cur = head, prev = NULL; cur && cur->off <= off;
    60e4:	48 8b 45 f8          	mov    -0x8(%rbp),%rax
    60e8:	48 89 45 e8          	mov    %rax,-0x18(%rbp)
    60ec:	48 c7 45 f0 00 00 00 	movq   $0x0,-0x10(%rbp)
    60f3:	00 
    60f4:	eb 14                	jmp    610a <ezxml_insert+0x1e9>
/media/ssd-partition/Documents/RootCauseAnalysisPruning/evaluation/test_bin/22-ezXML/ezxml/ezxml.c:880
                 prev = cur, cur = cur->sibling); // new sibling insert point
    60f6:	48 8b 45 e8          	mov    -0x18(%rbp),%rax
    60fa:	48 89 45 f0          	mov    %rax,-0x10(%rbp)
    60fe:	48 8b 45 e8          	mov    -0x18(%rbp),%rax
    6102:	48 8b 40 28          	mov    0x28(%rax),%rax
    6106:	48 89 45 e8          	mov    %rax,-0x18(%rbp)
/media/ssd-partition/Documents/RootCauseAnalysisPruning/evaluation/test_bin/22-ezXML/ezxml/ezxml.c:879 (discriminator 1)
            for (cur = head, prev = NULL; cur && cur->off <= off;
    610a:	48 83 7d e8 00       	cmpq   $0x0,-0x18(%rbp)
    610f:	74 0e                	je     611f <ezxml_insert+0x1fe>
/media/ssd-partition/Documents/RootCauseAnalysisPruning/evaluation/test_bin/22-ezXML/ezxml/ezxml.c:879 (discriminator 2)
    6111:	48 8b 45 e8          	mov    -0x18(%rbp),%rax
    6115:	48 8b 40 18          	mov    0x18(%rax),%rax
    6119:	48 39 45 c8          	cmp    %rax,-0x38(%rbp)
    611d:	73 d7                	jae    60f6 <ezxml_insert+0x1d5>
/media/ssd-partition/Documents/RootCauseAnalysisPruning/evaluation/test_bin/22-ezXML/ezxml/ezxml.c:881
            xml->sibling = cur;
    611f:	48 8b 45 d8          	mov    -0x28(%rbp),%rax
    6123:	48 8b 55 e8          	mov    -0x18(%rbp),%rdx
    6127:	48 89 50 28          	mov    %rdx,0x28(%rax)
/media/ssd-partition/Documents/RootCauseAnalysisPruning/evaluation/test_bin/22-ezXML/ezxml/ezxml.c:882
            if (prev) prev->sibling = xml;
    612b:	48 83 7d f0 00       	cmpq   $0x0,-0x10(%rbp)
    6130:	74 1a                	je     614c <ezxml_insert+0x22b>
/media/ssd-partition/Documents/RootCauseAnalysisPruning/evaluation/test_bin/22-ezXML/ezxml/ezxml.c:882 (discriminator 1)
    6132:	48 8b 45 f0          	mov    -0x10(%rbp),%rax
    6136:	48 8b 55 d8          	mov    -0x28(%rbp),%rdx
    613a:	48 89 50 28          	mov    %rdx,0x28(%rax)
    613e:	eb 0c                	jmp    614c <ezxml_insert+0x22b>
/media/ssd-partition/Documents/RootCauseAnalysisPruning/evaluation/test_bin/22-ezXML/ezxml/ezxml.c:885
        }
    }
    else dest->child = xml; // only sub tag
    6140:	48 8b 45 d0          	mov    -0x30(%rbp),%rax
    6144:	48 8b 55 d8          	mov    -0x28(%rbp),%rdx
    6148:	48 89 50 38          	mov    %rdx,0x38(%rax)
/media/ssd-partition/Documents/RootCauseAnalysisPruning/evaluation/test_bin/22-ezXML/ezxml/ezxml.c:887

    return xml;
    614c:	48 8b 45 d8          	mov    -0x28(%rbp),%rax
/media/ssd-partition/Documents/RootCauseAnalysisPruning/evaluation/test_bin/22-ezXML/ezxml/ezxml.c:888
}
    6150:	c9                   	leave  
    6151:	c3                   	ret    

0000000000006152 <ezxml_add_child>:
ezxml_add_child():
/media/ssd-partition/Documents/RootCauseAnalysisPruning/evaluation/test_bin/22-ezXML/ezxml/ezxml.c:893

// Adds a child tag. off is the offset of the child tag relative to the start
// of the parent tag's character content. Returns the child tag.
ezxml_t ezxml_add_child(ezxml_t xml, const char *name, size_t off)
{
    6152:	f3 0f 1e fa          	endbr64 
    6156:	55                   	push   %rbp
    6157:	48 89 e5             	mov    %rsp,%rbp
    615a:	48 83 ec 30          	sub    $0x30,%rsp
    615e:	48 89 7d e8          	mov    %rdi,-0x18(%rbp)
    6162:	48 89 75 e0          	mov    %rsi,-0x20(%rbp)
    6166:	48 89 55 d8          	mov    %rdx,-0x28(%rbp)
/media/ssd-partition/Documents/RootCauseAnalysisPruning/evaluation/test_bin/22-ezXML/ezxml/ezxml.c:896
    ezxml_t child;

    if (! xml) return NULL;
    616a:	48 83 7d e8 00       	cmpq   $0x0,-0x18(%rbp)
    616f:	75 07                	jne    6178 <ezxml_add_child+0x26>
/media/ssd-partition/Documents/RootCauseAnalysisPruning/evaluation/test_bin/22-ezXML/ezxml/ezxml.c:896 (discriminator 1)
    6171:	b8 00 00 00 00       	mov    $0x0,%eax
    6176:	eb 60                	jmp    61d8 <ezxml_add_child+0x86>
/media/ssd-partition/Documents/RootCauseAnalysisPruning/evaluation/test_bin/22-ezXML/ezxml/ezxml.c:897
    child = (ezxml_t)memset(malloc(sizeof(struct ezxml)), '\0',
    6178:	bf 50 00 00 00       	mov    $0x50,%edi
    617d:	e8 1e b2 ff ff       	call   13a0 <malloc@plt>
    6182:	ba 50 00 00 00       	mov    $0x50,%edx
    6187:	be 00 00 00 00       	mov    $0x0,%esi
    618c:	48 89 c7             	mov    %rax,%rdi
    618f:	e8 7c b1 ff ff       	call   1310 <memset@plt>
    6194:	48 89 45 f8          	mov    %rax,-0x8(%rbp)
/media/ssd-partition/Documents/RootCauseAnalysisPruning/evaluation/test_bin/22-ezXML/ezxml/ezxml.c:899
                            sizeof(struct ezxml));
    child->name = (char *)name;
    6198:	48 8b 45 f8          	mov    -0x8(%rbp),%rax
    619c:	48 8b 55 e0          	mov    -0x20(%rbp),%rdx
    61a0:	48 89 10             	mov    %rdx,(%rax)
/media/ssd-partition/Documents/RootCauseAnalysisPruning/evaluation/test_bin/22-ezXML/ezxml/ezxml.c:900
    child->attr = EZXML_NIL;
    61a3:	48 8b 45 f8          	mov    -0x8(%rbp),%rax
    61a7:	48 8d 15 e2 2e 00 00 	lea    0x2ee2(%rip),%rdx        # 9090 <EZXML_NIL>
    61ae:	48 89 50 08          	mov    %rdx,0x8(%rax)
/media/ssd-partition/Documents/RootCauseAnalysisPruning/evaluation/test_bin/22-ezXML/ezxml/ezxml.c:901
    child->txt = "";
    61b2:	48 8b 45 f8          	mov    -0x8(%rbp),%rax
    61b6:	48 8d 15 a6 0e 00 00 	lea    0xea6(%rip),%rdx        # 7063 <_IO_stdin_used+0x63>
    61bd:	48 89 50 10          	mov    %rdx,0x10(%rax)
/media/ssd-partition/Documents/RootCauseAnalysisPruning/evaluation/test_bin/22-ezXML/ezxml/ezxml.c:903

    return ezxml_insert(child, xml, off);
    61c1:	48 8b 55 d8          	mov    -0x28(%rbp),%rdx
    61c5:	48 8b 4d e8          	mov    -0x18(%rbp),%rcx
    61c9:	48 8b 45 f8          	mov    -0x8(%rbp),%rax
    61cd:	48 89 ce             	mov    %rcx,%rsi
    61d0:	48 89 c7             	mov    %rax,%rdi
    61d3:	e8 49 fd ff ff       	call   5f21 <ezxml_insert>
/media/ssd-partition/Documents/RootCauseAnalysisPruning/evaluation/test_bin/22-ezXML/ezxml/ezxml.c:904
}
    61d8:	c9                   	leave  
    61d9:	c3                   	ret    

00000000000061da <ezxml_set_txt>:
ezxml_set_txt():
/media/ssd-partition/Documents/RootCauseAnalysisPruning/evaluation/test_bin/22-ezXML/ezxml/ezxml.c:908

// sets the character content for the given tag and returns the tag
ezxml_t ezxml_set_txt(ezxml_t xml, const char *txt)
{
    61da:	f3 0f 1e fa          	endbr64 
    61de:	55                   	push   %rbp
    61df:	48 89 e5             	mov    %rsp,%rbp
    61e2:	48 83 ec 10          	sub    $0x10,%rsp
    61e6:	48 89 7d f8          	mov    %rdi,-0x8(%rbp)
    61ea:	48 89 75 f0          	mov    %rsi,-0x10(%rbp)
/media/ssd-partition/Documents/RootCauseAnalysisPruning/evaluation/test_bin/22-ezXML/ezxml/ezxml.c:909
    if (! xml) return NULL;
    61ee:	48 83 7d f8 00       	cmpq   $0x0,-0x8(%rbp)
    61f3:	75 07                	jne    61fc <ezxml_set_txt+0x22>
/media/ssd-partition/Documents/RootCauseAnalysisPruning/evaluation/test_bin/22-ezXML/ezxml/ezxml.c:909 (discriminator 1)
    61f5:	b8 00 00 00 00       	mov    $0x0,%eax
    61fa:	eb 45                	jmp    6241 <ezxml_set_txt+0x67>
/media/ssd-partition/Documents/RootCauseAnalysisPruning/evaluation/test_bin/22-ezXML/ezxml/ezxml.c:910
    if (xml->flags & EZXML_TXTM) free(xml->txt); // existing txt was malloced
    61fc:	48 8b 45 f8          	mov    -0x8(%rbp),%rax
    6200:	0f b7 40 48          	movzwl 0x48(%rax),%eax
    6204:	98                   	cwtl   
    6205:	83 e0 40             	and    $0x40,%eax
    6208:	85 c0                	test   %eax,%eax
    620a:	74 10                	je     621c <ezxml_set_txt+0x42>
/media/ssd-partition/Documents/RootCauseAnalysisPruning/evaluation/test_bin/22-ezXML/ezxml/ezxml.c:910 (discriminator 1)
    620c:	48 8b 45 f8          	mov    -0x8(%rbp),%rax
    6210:	48 8b 40 10          	mov    0x10(%rax),%rax
    6214:	48 89 c7             	mov    %rax,%rdi
    6217:	e8 34 b0 ff ff       	call   1250 <free@plt>
/media/ssd-partition/Documents/RootCauseAnalysisPruning/evaluation/test_bin/22-ezXML/ezxml/ezxml.c:911
    xml->flags &= ~EZXML_TXTM;
    621c:	48 8b 45 f8          	mov    -0x8(%rbp),%rax
    6220:	0f b7 40 48          	movzwl 0x48(%rax),%eax
    6224:	83 e0 bf             	and    $0xffffffbf,%eax
    6227:	89 c2                	mov    %eax,%edx
    6229:	48 8b 45 f8          	mov    -0x8(%rbp),%rax
    622d:	66 89 50 48          	mov    %dx,0x48(%rax)
/media/ssd-partition/Documents/RootCauseAnalysisPruning/evaluation/test_bin/22-ezXML/ezxml/ezxml.c:912
    xml->txt = (char *)txt;
    6231:	48 8b 45 f8          	mov    -0x8(%rbp),%rax
    6235:	48 8b 55 f0          	mov    -0x10(%rbp),%rdx
    6239:	48 89 50 10          	mov    %rdx,0x10(%rax)
/media/ssd-partition/Documents/RootCauseAnalysisPruning/evaluation/test_bin/22-ezXML/ezxml/ezxml.c:913
    return xml;
    623d:	48 8b 45 f8          	mov    -0x8(%rbp),%rax
/media/ssd-partition/Documents/RootCauseAnalysisPruning/evaluation/test_bin/22-ezXML/ezxml/ezxml.c:914
}
    6241:	c9                   	leave  
    6242:	c3                   	ret    

0000000000006243 <ezxml_set_attr>:
ezxml_set_attr():
/media/ssd-partition/Documents/RootCauseAnalysisPruning/evaluation/test_bin/22-ezXML/ezxml/ezxml.c:919

// Sets the given tag attribute or adds a new attribute if not found. A value
// of NULL will remove the specified attribute. Returns the tag given.
ezxml_t ezxml_set_attr(ezxml_t xml, const char *name, const char *value)
{
    6243:	f3 0f 1e fa          	endbr64 
    6247:	55                   	push   %rbp
    6248:	48 89 e5             	mov    %rsp,%rbp
    624b:	53                   	push   %rbx
    624c:	48 83 ec 38          	sub    $0x38,%rsp
    6250:	48 89 7d d8          	mov    %rdi,-0x28(%rbp)
    6254:	48 89 75 d0          	mov    %rsi,-0x30(%rbp)
    6258:	48 89 55 c8          	mov    %rdx,-0x38(%rbp)
/media/ssd-partition/Documents/RootCauseAnalysisPruning/evaluation/test_bin/22-ezXML/ezxml/ezxml.c:920
    int l = 0, c;
    625c:	c7 45 e8 00 00 00 00 	movl   $0x0,-0x18(%rbp)
/media/ssd-partition/Documents/RootCauseAnalysisPruning/evaluation/test_bin/22-ezXML/ezxml/ezxml.c:922

    if (! xml) return NULL;
    6263:	48 83 7d d8 00       	cmpq   $0x0,-0x28(%rbp)
    6268:	75 0e                	jne    6278 <ezxml_set_attr+0x35>
/media/ssd-partition/Documents/RootCauseAnalysisPruning/evaluation/test_bin/22-ezXML/ezxml/ezxml.c:922 (discriminator 1)
    626a:	b8 00 00 00 00       	mov    $0x0,%eax
    626f:	e9 f3 04 00 00       	jmp    6767 <ezxml_set_attr+0x524>
/media/ssd-partition/Documents/RootCauseAnalysisPruning/evaluation/test_bin/22-ezXML/ezxml/ezxml.c:923 (discriminator 3)
    while (xml->attr[l] && strcmp(xml->attr[l], name)) l += 2;
    6274:	83 45 e8 02          	addl   $0x2,-0x18(%rbp)
/media/ssd-partition/Documents/RootCauseAnalysisPruning/evaluation/test_bin/22-ezXML/ezxml/ezxml.c:923 (discriminator 1)
    6278:	48 8b 45 d8          	mov    -0x28(%rbp),%rax
    627c:	48 8b 50 08          	mov    0x8(%rax),%rdx
    6280:	8b 45 e8             	mov    -0x18(%rbp),%eax
    6283:	48 98                	cltq   
    6285:	48 c1 e0 03          	shl    $0x3,%rax
    6289:	48 01 d0             	add    %rdx,%rax
    628c:	48 8b 00             	mov    (%rax),%rax
    628f:	48 85 c0             	test   %rax,%rax
    6292:	74 2a                	je     62be <ezxml_set_attr+0x7b>
/media/ssd-partition/Documents/RootCauseAnalysisPruning/evaluation/test_bin/22-ezXML/ezxml/ezxml.c:923 (discriminator 2)
    6294:	48 8b 45 d8          	mov    -0x28(%rbp),%rax
    6298:	48 8b 50 08          	mov    0x8(%rax),%rdx
    629c:	8b 45 e8             	mov    -0x18(%rbp),%eax
    629f:	48 98                	cltq   
    62a1:	48 c1 e0 03          	shl    $0x3,%rax
    62a5:	48 01 d0             	add    %rdx,%rax
    62a8:	48 8b 00             	mov    (%rax),%rax
    62ab:	48 8b 55 d0          	mov    -0x30(%rbp),%rdx
    62af:	48 89 d6             	mov    %rdx,%rsi
    62b2:	48 89 c7             	mov    %rax,%rdi
    62b5:	e8 a6 b0 ff ff       	call   1360 <strcmp@plt>
    62ba:	85 c0                	test   %eax,%eax
    62bc:	75 b6                	jne    6274 <ezxml_set_attr+0x31>
/media/ssd-partition/Documents/RootCauseAnalysisPruning/evaluation/test_bin/22-ezXML/ezxml/ezxml.c:924
    if (! xml->attr[l]) { // not found, add as new attribute
    62be:	48 8b 45 d8          	mov    -0x28(%rbp),%rax
    62c2:	48 8b 50 08          	mov    0x8(%rax),%rdx
    62c6:	8b 45 e8             	mov    -0x18(%rbp),%eax
    62c9:	48 98                	cltq   
    62cb:	48 c1 e0 03          	shl    $0x3,%rax
    62cf:	48 01 d0             	add    %rdx,%rax
    62d2:	48 8b 00             	mov    (%rax),%rax
    62d5:	48 85 c0             	test   %rax,%rax
    62d8:	0f 85 90 01 00 00    	jne    646e <ezxml_set_attr+0x22b>
/media/ssd-partition/Documents/RootCauseAnalysisPruning/evaluation/test_bin/22-ezXML/ezxml/ezxml.c:925
        if (! value) return xml; // nothing to do
    62de:	48 83 7d c8 00       	cmpq   $0x0,-0x38(%rbp)
    62e3:	75 09                	jne    62ee <ezxml_set_attr+0xab>
/media/ssd-partition/Documents/RootCauseAnalysisPruning/evaluation/test_bin/22-ezXML/ezxml/ezxml.c:925 (discriminator 1)
    62e5:	48 8b 45 d8          	mov    -0x28(%rbp),%rax
    62e9:	e9 79 04 00 00       	jmp    6767 <ezxml_set_attr+0x524>
/media/ssd-partition/Documents/RootCauseAnalysisPruning/evaluation/test_bin/22-ezXML/ezxml/ezxml.c:926
        if (xml->attr == EZXML_NIL) { // first attribute
    62ee:	48 8b 45 d8          	mov    -0x28(%rbp),%rax
    62f2:	48 8b 40 08          	mov    0x8(%rax),%rax
    62f6:	48 8d 15 93 2d 00 00 	lea    0x2d93(%rip),%rdx        # 9090 <EZXML_NIL>
    62fd:	48 39 d0             	cmp    %rdx,%rax
    6300:	75 35                	jne    6337 <ezxml_set_attr+0xf4>
/media/ssd-partition/Documents/RootCauseAnalysisPruning/evaluation/test_bin/22-ezXML/ezxml/ezxml.c:927
            xml->attr = malloc(4 * sizeof(char *));
    6302:	bf 20 00 00 00       	mov    $0x20,%edi
    6307:	e8 94 b0 ff ff       	call   13a0 <malloc@plt>
    630c:	48 89 c2             	mov    %rax,%rdx
    630f:	48 8b 45 d8          	mov    -0x28(%rbp),%rax
    6313:	48 89 50 08          	mov    %rdx,0x8(%rax)
/media/ssd-partition/Documents/RootCauseAnalysisPruning/evaluation/test_bin/22-ezXML/ezxml/ezxml.c:928
            xml->attr[1] = strdup(""); // empty list of malloced names/vals
    6317:	48 8b 45 d8          	mov    -0x28(%rbp),%rax
    631b:	48 8b 40 08          	mov    0x8(%rax),%rax
    631f:	48 8d 58 08          	lea    0x8(%rax),%rbx
    6323:	48 8d 05 39 0d 00 00 	lea    0xd39(%rip),%rax        # 7063 <_IO_stdin_used+0x63>
    632a:	48 89 c7             	mov    %rax,%rdi
    632d:	e8 ee b0 ff ff       	call   1420 <strdup@plt>
    6332:	48 89 03             	mov    %rax,(%rbx)
    6335:	eb 2b                	jmp    6362 <ezxml_set_attr+0x11f>
/media/ssd-partition/Documents/RootCauseAnalysisPruning/evaluation/test_bin/22-ezXML/ezxml/ezxml.c:930
        }
        else xml->attr = realloc(xml->attr, (l + 4) * sizeof(char *));
    6337:	8b 45 e8             	mov    -0x18(%rbp),%eax
    633a:	83 c0 04             	add    $0x4,%eax
    633d:	48 98                	cltq   
    633f:	48 8d 14 c5 00 00 00 	lea    0x0(,%rax,8),%rdx
    6346:	00 
    6347:	48 8b 45 d8          	mov    -0x28(%rbp),%rax
    634b:	48 8b 40 08          	mov    0x8(%rax),%rax
    634f:	48 89 d6             	mov    %rdx,%rsi
    6352:	48 89 c7             	mov    %rax,%rdi
    6355:	e8 56 b0 ff ff       	call   13b0 <realloc@plt>
    635a:	48 8b 55 d8          	mov    -0x28(%rbp),%rdx
    635e:	48 89 42 08          	mov    %rax,0x8(%rdx)
/media/ssd-partition/Documents/RootCauseAnalysisPruning/evaluation/test_bin/22-ezXML/ezxml/ezxml.c:932

        xml->attr[l] = (char *)name; // set attribute name
    6362:	48 8b 45 d8          	mov    -0x28(%rbp),%rax
    6366:	48 8b 50 08          	mov    0x8(%rax),%rdx
    636a:	8b 45 e8             	mov    -0x18(%rbp),%eax
    636d:	48 98                	cltq   
    636f:	48 c1 e0 03          	shl    $0x3,%rax
    6373:	48 01 c2             	add    %rax,%rdx
    6376:	48 8b 45 d0          	mov    -0x30(%rbp),%rax
    637a:	48 89 02             	mov    %rax,(%rdx)
/media/ssd-partition/Documents/RootCauseAnalysisPruning/evaluation/test_bin/22-ezXML/ezxml/ezxml.c:933
        xml->attr[l + 2] = NULL; // null terminate attribute list
    637d:	48 8b 45 d8          	mov    -0x28(%rbp),%rax
    6381:	48 8b 50 08          	mov    0x8(%rax),%rdx
    6385:	8b 45 e8             	mov    -0x18(%rbp),%eax
    6388:	48 98                	cltq   
    638a:	48 83 c0 02          	add    $0x2,%rax
    638e:	48 c1 e0 03          	shl    $0x3,%rax
    6392:	48 01 d0             	add    %rdx,%rax
    6395:	48 c7 00 00 00 00 00 	movq   $0x0,(%rax)
/media/ssd-partition/Documents/RootCauseAnalysisPruning/evaluation/test_bin/22-ezXML/ezxml/ezxml.c:935
        xml->attr[l + 3] = realloc(xml->attr[l + 1],
                                   (c = strlen(xml->attr[l + 1])) + 2);
    639c:	48 8b 45 d8          	mov    -0x28(%rbp),%rax
    63a0:	48 8b 50 08          	mov    0x8(%rax),%rdx
    63a4:	8b 45 e8             	mov    -0x18(%rbp),%eax
    63a7:	48 98                	cltq   
    63a9:	48 83 c0 01          	add    $0x1,%rax
    63ad:	48 c1 e0 03          	shl    $0x3,%rax
    63b1:	48 01 d0             	add    %rdx,%rax
    63b4:	48 8b 00             	mov    (%rax),%rax
    63b7:	48 89 c7             	mov    %rax,%rdi
    63ba:	e8 01 af ff ff       	call   12c0 <strlen@plt>
    63bf:	89 45 ec             	mov    %eax,-0x14(%rbp)
    63c2:	8b 45 ec             	mov    -0x14(%rbp),%eax
    63c5:	83 c0 02             	add    $0x2,%eax
/media/ssd-partition/Documents/RootCauseAnalysisPruning/evaluation/test_bin/22-ezXML/ezxml/ezxml.c:934
        xml->attr[l + 3] = realloc(xml->attr[l + 1],
    63c8:	48 63 d0             	movslq %eax,%rdx
    63cb:	48 8b 45 d8          	mov    -0x28(%rbp),%rax
    63cf:	48 8b 48 08          	mov    0x8(%rax),%rcx
    63d3:	8b 45 e8             	mov    -0x18(%rbp),%eax
    63d6:	48 98                	cltq   
    63d8:	48 83 c0 01          	add    $0x1,%rax
    63dc:	48 c1 e0 03          	shl    $0x3,%rax
    63e0:	48 01 c8             	add    %rcx,%rax
    63e3:	48 8b 00             	mov    (%rax),%rax
    63e6:	48 8b 4d d8          	mov    -0x28(%rbp),%rcx
    63ea:	48 8b 71 08          	mov    0x8(%rcx),%rsi
    63ee:	8b 4d e8             	mov    -0x18(%rbp),%ecx
    63f1:	48 63 c9             	movslq %ecx,%rcx
    63f4:	48 83 c1 03          	add    $0x3,%rcx
    63f8:	48 c1 e1 03          	shl    $0x3,%rcx
    63fc:	48 8d 1c 0e          	lea    (%rsi,%rcx,1),%rbx
    6400:	48 89 d6             	mov    %rdx,%rsi
    6403:	48 89 c7             	mov    %rax,%rdi
    6406:	e8 a5 af ff ff       	call   13b0 <realloc@plt>
    640b:	48 89 03             	mov    %rax,(%rbx)
/media/ssd-partition/Documents/RootCauseAnalysisPruning/evaluation/test_bin/22-ezXML/ezxml/ezxml.c:936
        strcpy(xml->attr[l + 3] + c, " "); // set name/value as not malloced
    640e:	48 8b 45 d8          	mov    -0x28(%rbp),%rax
    6412:	48 8b 50 08          	mov    0x8(%rax),%rdx
    6416:	8b 45 e8             	mov    -0x18(%rbp),%eax
    6419:	48 98                	cltq   
    641b:	48 83 c0 03          	add    $0x3,%rax
    641f:	48 c1 e0 03          	shl    $0x3,%rax
    6423:	48 01 d0             	add    %rdx,%rax
    6426:	48 8b 10             	mov    (%rax),%rdx
    6429:	8b 45 ec             	mov    -0x14(%rbp),%eax
    642c:	48 98                	cltq   
    642e:	48 01 d0             	add    %rdx,%rax
    6431:	66 c7 00 20 00       	movw   $0x20,(%rax)
/media/ssd-partition/Documents/RootCauseAnalysisPruning/evaluation/test_bin/22-ezXML/ezxml/ezxml.c:937
        if (xml->flags & EZXML_DUP) xml->attr[l + 3][c] = EZXML_NAMEM;
    6436:	48 8b 45 d8          	mov    -0x28(%rbp),%rax
    643a:	0f b7 40 48          	movzwl 0x48(%rax),%eax
    643e:	98                   	cwtl   
    643f:	83 e0 20             	and    $0x20,%eax
    6442:	85 c0                	test   %eax,%eax
    6444:	74 44                	je     648a <ezxml_set_attr+0x247>
/media/ssd-partition/Documents/RootCauseAnalysisPruning/evaluation/test_bin/22-ezXML/ezxml/ezxml.c:937 (discriminator 1)
    6446:	48 8b 45 d8          	mov    -0x28(%rbp),%rax
    644a:	48 8b 50 08          	mov    0x8(%rax),%rdx
    644e:	8b 45 e8             	mov    -0x18(%rbp),%eax
    6451:	48 98                	cltq   
    6453:	48 83 c0 03          	add    $0x3,%rax
    6457:	48 c1 e0 03          	shl    $0x3,%rax
    645b:	48 01 d0             	add    %rdx,%rax
    645e:	48 8b 10             	mov    (%rax),%rdx
    6461:	8b 45 ec             	mov    -0x14(%rbp),%eax
    6464:	48 98                	cltq   
    6466:	48 01 d0             	add    %rdx,%rax
    6469:	c6 00 80             	movb   $0x80,(%rax)
    646c:	eb 1c                	jmp    648a <ezxml_set_attr+0x247>
/media/ssd-partition/Documents/RootCauseAnalysisPruning/evaluation/test_bin/22-ezXML/ezxml/ezxml.c:939
    }
    else if (xml->flags & EZXML_DUP) free((char *)name); // name was strduped
    646e:	48 8b 45 d8          	mov    -0x28(%rbp),%rax
    6472:	0f b7 40 48          	movzwl 0x48(%rax),%eax
    6476:	98                   	cwtl   
    6477:	83 e0 20             	and    $0x20,%eax
    647a:	85 c0                	test   %eax,%eax
    647c:	74 0c                	je     648a <ezxml_set_attr+0x247>
/media/ssd-partition/Documents/RootCauseAnalysisPruning/evaluation/test_bin/22-ezXML/ezxml/ezxml.c:939 (discriminator 1)
    647e:	48 8b 45 d0          	mov    -0x30(%rbp),%rax
    6482:	48 89 c7             	mov    %rax,%rdi
    6485:	e8 c6 ad ff ff       	call   1250 <free@plt>
/media/ssd-partition/Documents/RootCauseAnalysisPruning/evaluation/test_bin/22-ezXML/ezxml/ezxml.c:941

    for (c = l; xml->attr[c]; c += 2); // find end of attribute list
    648a:	8b 45 e8             	mov    -0x18(%rbp),%eax
    648d:	89 45 ec             	mov    %eax,-0x14(%rbp)
    6490:	eb 04                	jmp    6496 <ezxml_set_attr+0x253>
/media/ssd-partition/Documents/RootCauseAnalysisPruning/evaluation/test_bin/22-ezXML/ezxml/ezxml.c:941 (discriminator 3)
    6492:	83 45 ec 02          	addl   $0x2,-0x14(%rbp)
/media/ssd-partition/Documents/RootCauseAnalysisPruning/evaluation/test_bin/22-ezXML/ezxml/ezxml.c:941 (discriminator 1)
    6496:	48 8b 45 d8          	mov    -0x28(%rbp),%rax
    649a:	48 8b 50 08          	mov    0x8(%rax),%rdx
    649e:	8b 45 ec             	mov    -0x14(%rbp),%eax
    64a1:	48 98                	cltq   
    64a3:	48 c1 e0 03          	shl    $0x3,%rax
    64a7:	48 01 d0             	add    %rdx,%rax
    64aa:	48 8b 00             	mov    (%rax),%rax
    64ad:	48 85 c0             	test   %rax,%rax
    64b0:	75 e0                	jne    6492 <ezxml_set_attr+0x24f>
/media/ssd-partition/Documents/RootCauseAnalysisPruning/evaluation/test_bin/22-ezXML/ezxml/ezxml.c:942
    if (xml->attr[c + 1][l / 2] & EZXML_TXTM) free(xml->attr[l + 1]); //old val
    64b2:	48 8b 45 d8          	mov    -0x28(%rbp),%rax
    64b6:	48 8b 50 08          	mov    0x8(%rax),%rdx
    64ba:	8b 45 ec             	mov    -0x14(%rbp),%eax
    64bd:	48 98                	cltq   
    64bf:	48 83 c0 01          	add    $0x1,%rax
    64c3:	48 c1 e0 03          	shl    $0x3,%rax
    64c7:	48 01 d0             	add    %rdx,%rax
    64ca:	48 8b 10             	mov    (%rax),%rdx
    64cd:	8b 45 e8             	mov    -0x18(%rbp),%eax
    64d0:	89 c1                	mov    %eax,%ecx
    64d2:	c1 e9 1f             	shr    $0x1f,%ecx
    64d5:	01 c8                	add    %ecx,%eax
    64d7:	d1 f8                	sar    %eax
    64d9:	48 98                	cltq   
    64db:	48 01 d0             	add    %rdx,%rax
    64de:	0f b6 00             	movzbl (%rax),%eax
    64e1:	0f be c0             	movsbl %al,%eax
    64e4:	83 e0 40             	and    $0x40,%eax
    64e7:	85 c0                	test   %eax,%eax
    64e9:	74 23                	je     650e <ezxml_set_attr+0x2cb>
/media/ssd-partition/Documents/RootCauseAnalysisPruning/evaluation/test_bin/22-ezXML/ezxml/ezxml.c:942 (discriminator 1)
    64eb:	48 8b 45 d8          	mov    -0x28(%rbp),%rax
    64ef:	48 8b 50 08          	mov    0x8(%rax),%rdx
    64f3:	8b 45 e8             	mov    -0x18(%rbp),%eax
    64f6:	48 98                	cltq   
    64f8:	48 83 c0 01          	add    $0x1,%rax
    64fc:	48 c1 e0 03          	shl    $0x3,%rax
    6500:	48 01 d0             	add    %rdx,%rax
    6503:	48 8b 00             	mov    (%rax),%rax
    6506:	48 89 c7             	mov    %rax,%rdi
    6509:	e8 42 ad ff ff       	call   1250 <free@plt>
/media/ssd-partition/Documents/RootCauseAnalysisPruning/evaluation/test_bin/22-ezXML/ezxml/ezxml.c:943
    if (xml->flags & EZXML_DUP) xml->attr[c + 1][l / 2] |= EZXML_TXTM;
    650e:	48 8b 45 d8          	mov    -0x28(%rbp),%rax
    6512:	0f b7 40 48          	movzwl 0x48(%rax),%eax
    6516:	98                   	cwtl   
    6517:	83 e0 20             	and    $0x20,%eax
    651a:	85 c0                	test   %eax,%eax
    651c:	74 5a                	je     6578 <ezxml_set_attr+0x335>
/media/ssd-partition/Documents/RootCauseAnalysisPruning/evaluation/test_bin/22-ezXML/ezxml/ezxml.c:943 (discriminator 1)
    651e:	48 8b 45 d8          	mov    -0x28(%rbp),%rax
    6522:	48 8b 50 08          	mov    0x8(%rax),%rdx
    6526:	8b 45 ec             	mov    -0x14(%rbp),%eax
    6529:	48 98                	cltq   
    652b:	48 83 c0 01          	add    $0x1,%rax
    652f:	48 c1 e0 03          	shl    $0x3,%rax
    6533:	48 01 d0             	add    %rdx,%rax
    6536:	48 8b 10             	mov    (%rax),%rdx
    6539:	8b 45 e8             	mov    -0x18(%rbp),%eax
    653c:	89 c1                	mov    %eax,%ecx
    653e:	c1 e9 1f             	shr    $0x1f,%ecx
    6541:	01 c8                	add    %ecx,%eax
    6543:	d1 f8                	sar    %eax
    6545:	89 c1                	mov    %eax,%ecx
    6547:	48 63 c1             	movslq %ecx,%rax
    654a:	48 01 d0             	add    %rdx,%rax
    654d:	0f b6 10             	movzbl (%rax),%edx
    6550:	48 8b 45 d8          	mov    -0x28(%rbp),%rax
    6554:	48 8b 70 08          	mov    0x8(%rax),%rsi
    6558:	8b 45 ec             	mov    -0x14(%rbp),%eax
    655b:	48 98                	cltq   
    655d:	48 83 c0 01          	add    $0x1,%rax
    6561:	48 c1 e0 03          	shl    $0x3,%rax
    6565:	48 01 f0             	add    %rsi,%rax
    6568:	48 8b 30             	mov    (%rax),%rsi
    656b:	48 63 c1             	movslq %ecx,%rax
    656e:	48 01 f0             	add    %rsi,%rax
    6571:	83 ca 40             	or     $0x40,%edx
    6574:	88 10                	mov    %dl,(%rax)
    6576:	eb 58                	jmp    65d0 <ezxml_set_attr+0x38d>
/media/ssd-partition/Documents/RootCauseAnalysisPruning/evaluation/test_bin/22-ezXML/ezxml/ezxml.c:944
    else xml->attr[c + 1][l / 2] &= ~EZXML_TXTM;
    6578:	48 8b 45 d8          	mov    -0x28(%rbp),%rax
    657c:	48 8b 50 08          	mov    0x8(%rax),%rdx
    6580:	8b 45 ec             	mov    -0x14(%rbp),%eax
    6583:	48 98                	cltq   
    6585:	48 83 c0 01          	add    $0x1,%rax
    6589:	48 c1 e0 03          	shl    $0x3,%rax
    658d:	48 01 d0             	add    %rdx,%rax
    6590:	48 8b 10             	mov    (%rax),%rdx
    6593:	8b 45 e8             	mov    -0x18(%rbp),%eax
    6596:	89 c1                	mov    %eax,%ecx
    6598:	c1 e9 1f             	shr    $0x1f,%ecx
    659b:	01 c8                	add    %ecx,%eax
    659d:	d1 f8                	sar    %eax
    659f:	89 c1                	mov    %eax,%ecx
    65a1:	48 63 c1             	movslq %ecx,%rax
    65a4:	48 01 d0             	add    %rdx,%rax
    65a7:	0f b6 10             	movzbl (%rax),%edx
    65aa:	48 8b 45 d8          	mov    -0x28(%rbp),%rax
    65ae:	48 8b 70 08          	mov    0x8(%rax),%rsi
    65b2:	8b 45 ec             	mov    -0x14(%rbp),%eax
    65b5:	48 98                	cltq   
    65b7:	48 83 c0 01          	add    $0x1,%rax
    65bb:	48 c1 e0 03          	shl    $0x3,%rax
    65bf:	48 01 f0             	add    %rsi,%rax
    65c2:	48 8b 30             	mov    (%rax),%rsi
    65c5:	48 63 c1             	movslq %ecx,%rax
    65c8:	48 01 f0             	add    %rsi,%rax
    65cb:	83 e2 bf             	and    $0xffffffbf,%edx
    65ce:	88 10                	mov    %dl,(%rax)
/media/ssd-partition/Documents/RootCauseAnalysisPruning/evaluation/test_bin/22-ezXML/ezxml/ezxml.c:946

    if (value) xml->attr[l + 1] = (char *)value; // set attribute value
    65d0:	48 83 7d c8 00       	cmpq   $0x0,-0x38(%rbp)
    65d5:	74 24                	je     65fb <ezxml_set_attr+0x3b8>
/media/ssd-partition/Documents/RootCauseAnalysisPruning/evaluation/test_bin/22-ezXML/ezxml/ezxml.c:946 (discriminator 1)
    65d7:	48 8b 45 d8          	mov    -0x28(%rbp),%rax
    65db:	48 8b 50 08          	mov    0x8(%rax),%rdx
    65df:	8b 45 e8             	mov    -0x18(%rbp),%eax
    65e2:	48 98                	cltq   
    65e4:	48 83 c0 01          	add    $0x1,%rax
    65e8:	48 c1 e0 03          	shl    $0x3,%rax
    65ec:	48 01 c2             	add    %rax,%rdx
    65ef:	48 8b 45 c8          	mov    -0x38(%rbp),%rax
    65f3:	48 89 02             	mov    %rax,(%rdx)
    65f6:	e9 53 01 00 00       	jmp    674e <ezxml_set_attr+0x50b>
/media/ssd-partition/Documents/RootCauseAnalysisPruning/evaluation/test_bin/22-ezXML/ezxml/ezxml.c:948
    else { // remove attribute
        if (xml->attr[c + 1][l / 2] & EZXML_NAMEM) free(xml->attr[l]);
    65fb:	48 8b 45 d8          	mov    -0x28(%rbp),%rax
    65ff:	48 8b 50 08          	mov    0x8(%rax),%rdx
    6603:	8b 45 ec             	mov    -0x14(%rbp),%eax
    6606:	48 98                	cltq   
    6608:	48 83 c0 01          	add    $0x1,%rax
    660c:	48 c1 e0 03          	shl    $0x3,%rax
    6610:	48 01 d0             	add    %rdx,%rax
    6613:	48 8b 10             	mov    (%rax),%rdx
    6616:	8b 45 e8             	mov    -0x18(%rbp),%eax
    6619:	89 c1                	mov    %eax,%ecx
    661b:	c1 e9 1f             	shr    $0x1f,%ecx
    661e:	01 c8                	add    %ecx,%eax
    6620:	d1 f8                	sar    %eax
    6622:	48 98                	cltq   
    6624:	48 01 d0             	add    %rdx,%rax
    6627:	0f b6 00             	movzbl (%rax),%eax
    662a:	84 c0                	test   %al,%al
    662c:	79 1f                	jns    664d <ezxml_set_attr+0x40a>
/media/ssd-partition/Documents/RootCauseAnalysisPruning/evaluation/test_bin/22-ezXML/ezxml/ezxml.c:948 (discriminator 1)
    662e:	48 8b 45 d8          	mov    -0x28(%rbp),%rax
    6632:	48 8b 50 08          	mov    0x8(%rax),%rdx
    6636:	8b 45 e8             	mov    -0x18(%rbp),%eax
    6639:	48 98                	cltq   
    663b:	48 c1 e0 03          	shl    $0x3,%rax
    663f:	48 01 d0             	add    %rdx,%rax
    6642:	48 8b 00             	mov    (%rax),%rax
    6645:	48 89 c7             	mov    %rax,%rdi
    6648:	e8 03 ac ff ff       	call   1250 <free@plt>
/media/ssd-partition/Documents/RootCauseAnalysisPruning/evaluation/test_bin/22-ezXML/ezxml/ezxml.c:949
        memmove(xml->attr + l, xml->attr + l + 2, (c - l + 2) * sizeof(char*));
    664d:	8b 45 ec             	mov    -0x14(%rbp),%eax
    6650:	2b 45 e8             	sub    -0x18(%rbp),%eax
    6653:	83 c0 02             	add    $0x2,%eax
    6656:	48 98                	cltq   
    6658:	48 8d 14 c5 00 00 00 	lea    0x0(,%rax,8),%rdx
    665f:	00 
    6660:	48 8b 45 d8          	mov    -0x28(%rbp),%rax
    6664:	48 8b 48 08          	mov    0x8(%rax),%rcx
    6668:	8b 45 e8             	mov    -0x18(%rbp),%eax
    666b:	48 98                	cltq   
    666d:	48 83 c0 02          	add    $0x2,%rax
    6671:	48 c1 e0 03          	shl    $0x3,%rax
    6675:	48 01 c1             	add    %rax,%rcx
    6678:	48 8b 45 d8          	mov    -0x28(%rbp),%rax
    667c:	48 8b 70 08          	mov    0x8(%rax),%rsi
    6680:	8b 45 e8             	mov    -0x18(%rbp),%eax
    6683:	48 98                	cltq   
    6685:	48 c1 e0 03          	shl    $0x3,%rax
    6689:	48 01 f0             	add    %rsi,%rax
    668c:	48 89 ce             	mov    %rcx,%rsi
    668f:	48 89 c7             	mov    %rax,%rdi
    6692:	e8 49 ad ff ff       	call   13e0 <memmove@plt>
/media/ssd-partition/Documents/RootCauseAnalysisPruning/evaluation/test_bin/22-ezXML/ezxml/ezxml.c:950
        xml->attr = realloc(xml->attr, (c + 2) * sizeof(char *));
    6697:	8b 45 ec             	mov    -0x14(%rbp),%eax
    669a:	83 c0 02             	add    $0x2,%eax
    669d:	48 98                	cltq   
    669f:	48 8d 14 c5 00 00 00 	lea    0x0(,%rax,8),%rdx
    66a6:	00 
    66a7:	48 8b 45 d8          	mov    -0x28(%rbp),%rax
    66ab:	48 8b 40 08          	mov    0x8(%rax),%rax
    66af:	48 89 d6             	mov    %rdx,%rsi
    66b2:	48 89 c7             	mov    %rax,%rdi
    66b5:	e8 f6 ac ff ff       	call   13b0 <realloc@plt>
    66ba:	48 8b 55 d8          	mov    -0x28(%rbp),%rdx
    66be:	48 89 42 08          	mov    %rax,0x8(%rdx)
/media/ssd-partition/Documents/RootCauseAnalysisPruning/evaluation/test_bin/22-ezXML/ezxml/ezxml.c:952
        memmove(xml->attr[c + 1] + (l / 2), xml->attr[c + 1] + (l / 2) + 1,
                (c / 2) - (l / 2)); // fix list of which name/vals are malloced
    66c2:	8b 45 ec             	mov    -0x14(%rbp),%eax
    66c5:	89 c2                	mov    %eax,%edx
    66c7:	c1 ea 1f             	shr    $0x1f,%edx
    66ca:	01 d0                	add    %edx,%eax
    66cc:	d1 f8                	sar    %eax
    66ce:	89 c1                	mov    %eax,%ecx
    66d0:	8b 45 e8             	mov    -0x18(%rbp),%eax
    66d3:	89 c2                	mov    %eax,%edx
    66d5:	c1 ea 1f             	shr    $0x1f,%edx
    66d8:	01 d0                	add    %edx,%eax
    66da:	d1 f8                	sar    %eax
    66dc:	f7 d8                	neg    %eax
    66de:	01 c8                	add    %ecx,%eax
/media/ssd-partition/Documents/RootCauseAnalysisPruning/evaluation/test_bin/22-ezXML/ezxml/ezxml.c:951
        memmove(xml->attr[c + 1] + (l / 2), xml->attr[c + 1] + (l / 2) + 1,
    66e0:	48 98                	cltq   
    66e2:	48 8b 55 d8          	mov    -0x28(%rbp),%rdx
    66e6:	48 8b 4a 08          	mov    0x8(%rdx),%rcx
    66ea:	8b 55 ec             	mov    -0x14(%rbp),%edx
    66ed:	48 63 d2             	movslq %edx,%rdx
    66f0:	48 83 c2 01          	add    $0x1,%rdx
    66f4:	48 c1 e2 03          	shl    $0x3,%rdx
    66f8:	48 01 ca             	add    %rcx,%rdx
    66fb:	48 8b 0a             	mov    (%rdx),%rcx
    66fe:	8b 55 e8             	mov    -0x18(%rbp),%edx
    6701:	89 d6                	mov    %edx,%esi
    6703:	c1 ee 1f             	shr    $0x1f,%esi
    6706:	01 f2                	add    %esi,%edx
    6708:	d1 fa                	sar    %edx
    670a:	48 63 d2             	movslq %edx,%rdx
    670d:	48 83 c2 01          	add    $0x1,%rdx
    6711:	48 8d 34 11          	lea    (%rcx,%rdx,1),%rsi
    6715:	48 8b 55 d8          	mov    -0x28(%rbp),%rdx
    6719:	48 8b 4a 08          	mov    0x8(%rdx),%rcx
    671d:	8b 55 ec             	mov    -0x14(%rbp),%edx
    6720:	48 63 d2             	movslq %edx,%rdx
    6723:	48 83 c2 01          	add    $0x1,%rdx
    6727:	48 c1 e2 03          	shl    $0x3,%rdx
    672b:	48 01 ca             	add    %rcx,%rdx
    672e:	48 8b 0a             	mov    (%rdx),%rcx
    6731:	8b 55 e8             	mov    -0x18(%rbp),%edx
    6734:	89 d7                	mov    %edx,%edi
    6736:	c1 ef 1f             	shr    $0x1f,%edi
    6739:	01 fa                	add    %edi,%edx
    673b:	d1 fa                	sar    %edx
    673d:	48 63 d2             	movslq %edx,%rdx
    6740:	48 01 d1             	add    %rdx,%rcx
    6743:	48 89 c2             	mov    %rax,%rdx
    6746:	48 89 cf             	mov    %rcx,%rdi
    6749:	e8 92 ac ff ff       	call   13e0 <memmove@plt>
/media/ssd-partition/Documents/RootCauseAnalysisPruning/evaluation/test_bin/22-ezXML/ezxml/ezxml.c:954
    }
    xml->flags &= ~EZXML_DUP; // clear strdup() flag
    674e:	48 8b 45 d8          	mov    -0x28(%rbp),%rax
    6752:	0f b7 40 48          	movzwl 0x48(%rax),%eax
    6756:	83 e0 df             	and    $0xffffffdf,%eax
    6759:	89 c2                	mov    %eax,%edx
    675b:	48 8b 45 d8          	mov    -0x28(%rbp),%rax
    675f:	66 89 50 48          	mov    %dx,0x48(%rax)
/media/ssd-partition/Documents/RootCauseAnalysisPruning/evaluation/test_bin/22-ezXML/ezxml/ezxml.c:955
    return xml;
    6763:	48 8b 45 d8          	mov    -0x28(%rbp),%rax
/media/ssd-partition/Documents/RootCauseAnalysisPruning/evaluation/test_bin/22-ezXML/ezxml/ezxml.c:956
}
    6767:	48 8b 5d f8          	mov    -0x8(%rbp),%rbx
    676b:	c9                   	leave  
    676c:	c3                   	ret    

000000000000676d <ezxml_set_flag>:
ezxml_set_flag():
/media/ssd-partition/Documents/RootCauseAnalysisPruning/evaluation/test_bin/22-ezXML/ezxml/ezxml.c:960

// sets a flag for the given tag and returns the tag
ezxml_t ezxml_set_flag(ezxml_t xml, short flag)
{
    676d:	f3 0f 1e fa          	endbr64 
    6771:	55                   	push   %rbp
    6772:	48 89 e5             	mov    %rsp,%rbp
    6775:	48 89 7d f8          	mov    %rdi,-0x8(%rbp)
    6779:	89 f0                	mov    %esi,%eax
    677b:	66 89 45 f4          	mov    %ax,-0xc(%rbp)
/media/ssd-partition/Documents/RootCauseAnalysisPruning/evaluation/test_bin/22-ezXML/ezxml/ezxml.c:961
    if (xml) xml->flags |= flag;
    677f:	48 83 7d f8 00       	cmpq   $0x0,-0x8(%rbp)
    6784:	74 16                	je     679c <ezxml_set_flag+0x2f>
/media/ssd-partition/Documents/RootCauseAnalysisPruning/evaluation/test_bin/22-ezXML/ezxml/ezxml.c:961 (discriminator 1)
    6786:	48 8b 45 f8          	mov    -0x8(%rbp),%rax
    678a:	0f b7 40 48          	movzwl 0x48(%rax),%eax
    678e:	66 0b 45 f4          	or     -0xc(%rbp),%ax
    6792:	89 c2                	mov    %eax,%edx
    6794:	48 8b 45 f8          	mov    -0x8(%rbp),%rax
    6798:	66 89 50 48          	mov    %dx,0x48(%rax)
/media/ssd-partition/Documents/RootCauseAnalysisPruning/evaluation/test_bin/22-ezXML/ezxml/ezxml.c:962
    return xml;
    679c:	48 8b 45 f8          	mov    -0x8(%rbp),%rax
/media/ssd-partition/Documents/RootCauseAnalysisPruning/evaluation/test_bin/22-ezXML/ezxml/ezxml.c:963
}
    67a0:	5d                   	pop    %rbp
    67a1:	c3                   	ret    

00000000000067a2 <ezxml_cut>:
ezxml_cut():
/media/ssd-partition/Documents/RootCauseAnalysisPruning/evaluation/test_bin/22-ezXML/ezxml/ezxml.c:967

// removes a tag along with its subtags without freeing its memory
ezxml_t ezxml_cut(ezxml_t xml)
{
    67a2:	f3 0f 1e fa          	endbr64 
    67a6:	55                   	push   %rbp
    67a7:	48 89 e5             	mov    %rsp,%rbp
    67aa:	48 83 ec 20          	sub    $0x20,%rsp
    67ae:	48 89 7d e8          	mov    %rdi,-0x18(%rbp)
/media/ssd-partition/Documents/RootCauseAnalysisPruning/evaluation/test_bin/22-ezXML/ezxml/ezxml.c:970
    ezxml_t cur;

    if (! xml) return NULL; // nothing to do
    67b2:	48 83 7d e8 00       	cmpq   $0x0,-0x18(%rbp)
    67b7:	75 0a                	jne    67c3 <ezxml_cut+0x21>
/media/ssd-partition/Documents/RootCauseAnalysisPruning/evaluation/test_bin/22-ezXML/ezxml/ezxml.c:970 (discriminator 1)
    67b9:	b8 00 00 00 00       	mov    $0x0,%eax
    67be:	e9 b4 01 00 00       	jmp    6977 <ezxml_cut+0x1d5>
/media/ssd-partition/Documents/RootCauseAnalysisPruning/evaluation/test_bin/22-ezXML/ezxml/ezxml.c:971
    if (xml->next) xml->next->sibling = xml->sibling; // patch sibling list
    67c3:	48 8b 45 e8          	mov    -0x18(%rbp),%rax
    67c7:	48 8b 40 20          	mov    0x20(%rax),%rax
    67cb:	48 85 c0             	test   %rax,%rax
    67ce:	74 14                	je     67e4 <ezxml_cut+0x42>
/media/ssd-partition/Documents/RootCauseAnalysisPruning/evaluation/test_bin/22-ezXML/ezxml/ezxml.c:971 (discriminator 1)
    67d0:	48 8b 45 e8          	mov    -0x18(%rbp),%rax
    67d4:	48 8b 40 20          	mov    0x20(%rax),%rax
    67d8:	48 8b 55 e8          	mov    -0x18(%rbp),%rdx
    67dc:	48 8b 52 28          	mov    0x28(%rdx),%rdx
    67e0:	48 89 50 28          	mov    %rdx,0x28(%rax)
/media/ssd-partition/Documents/RootCauseAnalysisPruning/evaluation/test_bin/22-ezXML/ezxml/ezxml.c:973

    if (xml->parent) { // not root tag
    67e4:	48 8b 45 e8          	mov    -0x18(%rbp),%rax
    67e8:	48 8b 40 40          	mov    0x40(%rax),%rax
    67ec:	48 85 c0             	test   %rax,%rax
    67ef:	0f 84 52 01 00 00    	je     6947 <ezxml_cut+0x1a5>
/media/ssd-partition/Documents/RootCauseAnalysisPruning/evaluation/test_bin/22-ezXML/ezxml/ezxml.c:974
        cur = xml->parent->child; // find head of subtag list
    67f5:	48 8b 45 e8          	mov    -0x18(%rbp),%rax
    67f9:	48 8b 40 40          	mov    0x40(%rax),%rax
    67fd:	48 8b 40 38          	mov    0x38(%rax),%rax
    6801:	48 89 45 f8          	mov    %rax,-0x8(%rbp)
/media/ssd-partition/Documents/RootCauseAnalysisPruning/evaluation/test_bin/22-ezXML/ezxml/ezxml.c:975
        if (cur == xml) xml->parent->child = xml->ordered; // first subtag
    6805:	48 8b 45 f8          	mov    -0x8(%rbp),%rax
    6809:	48 3b 45 e8          	cmp    -0x18(%rbp),%rax
    680d:	75 25                	jne    6834 <ezxml_cut+0x92>
/media/ssd-partition/Documents/RootCauseAnalysisPruning/evaluation/test_bin/22-ezXML/ezxml/ezxml.c:975 (discriminator 1)
    680f:	48 8b 45 e8          	mov    -0x18(%rbp),%rax
    6813:	48 8b 40 40          	mov    0x40(%rax),%rax
    6817:	48 8b 55 e8          	mov    -0x18(%rbp),%rdx
    681b:	48 8b 52 30          	mov    0x30(%rdx),%rdx
    681f:	48 89 50 38          	mov    %rdx,0x38(%rax)
    6823:	e9 1f 01 00 00       	jmp    6947 <ezxml_cut+0x1a5>
/media/ssd-partition/Documents/RootCauseAnalysisPruning/evaluation/test_bin/22-ezXML/ezxml/ezxml.c:977 (discriminator 2)
        else { // not first subtag
            while (cur->ordered != xml) cur = cur->ordered;
    6828:	48 8b 45 f8          	mov    -0x8(%rbp),%rax
    682c:	48 8b 40 30          	mov    0x30(%rax),%rax
    6830:	48 89 45 f8          	mov    %rax,-0x8(%rbp)
/media/ssd-partition/Documents/RootCauseAnalysisPruning/evaluation/test_bin/22-ezXML/ezxml/ezxml.c:977 (discriminator 1)
    6834:	48 8b 45 f8          	mov    -0x8(%rbp),%rax
    6838:	48 8b 40 30          	mov    0x30(%rax),%rax
    683c:	48 39 45 e8          	cmp    %rax,-0x18(%rbp)
    6840:	75 e6                	jne    6828 <ezxml_cut+0x86>
/media/ssd-partition/Documents/RootCauseAnalysisPruning/evaluation/test_bin/22-ezXML/ezxml/ezxml.c:978
            cur->ordered = cur->ordered->ordered; // patch ordered list
    6842:	48 8b 45 f8          	mov    -0x8(%rbp),%rax
    6846:	48 8b 40 30          	mov    0x30(%rax),%rax
    684a:	48 8b 50 30          	mov    0x30(%rax),%rdx
    684e:	48 8b 45 f8          	mov    -0x8(%rbp),%rax
    6852:	48 89 50 30          	mov    %rdx,0x30(%rax)
/media/ssd-partition/Documents/RootCauseAnalysisPruning/evaluation/test_bin/22-ezXML/ezxml/ezxml.c:980

            cur = xml->parent->child; // go back to head of subtag list
    6856:	48 8b 45 e8          	mov    -0x18(%rbp),%rax
    685a:	48 8b 40 40          	mov    0x40(%rax),%rax
    685e:	48 8b 40 38          	mov    0x38(%rax),%rax
    6862:	48 89 45 f8          	mov    %rax,-0x8(%rbp)
/media/ssd-partition/Documents/RootCauseAnalysisPruning/evaluation/test_bin/22-ezXML/ezxml/ezxml.c:981
            if (strcmp(cur->name, xml->name)) { // not in first sibling list
    6866:	48 8b 45 e8          	mov    -0x18(%rbp),%rax
    686a:	48 8b 10             	mov    (%rax),%rdx
    686d:	48 8b 45 f8          	mov    -0x8(%rbp),%rax
    6871:	48 8b 00             	mov    (%rax),%rax
    6874:	48 89 d6             	mov    %rdx,%rsi
    6877:	48 89 c7             	mov    %rax,%rdi
    687a:	e8 e1 aa ff ff       	call   1360 <strcmp@plt>
    687f:	85 c0                	test   %eax,%eax
    6881:	0f 84 84 00 00 00    	je     690b <ezxml_cut+0x169>
/media/ssd-partition/Documents/RootCauseAnalysisPruning/evaluation/test_bin/22-ezXML/ezxml/ezxml.c:982
                while (strcmp(cur->sibling->name, xml->name))
    6887:	eb 0c                	jmp    6895 <ezxml_cut+0xf3>
/media/ssd-partition/Documents/RootCauseAnalysisPruning/evaluation/test_bin/22-ezXML/ezxml/ezxml.c:983
                    cur = cur->sibling;
    6889:	48 8b 45 f8          	mov    -0x8(%rbp),%rax
    688d:	48 8b 40 28          	mov    0x28(%rax),%rax
    6891:	48 89 45 f8          	mov    %rax,-0x8(%rbp)
/media/ssd-partition/Documents/RootCauseAnalysisPruning/evaluation/test_bin/22-ezXML/ezxml/ezxml.c:982
                while (strcmp(cur->sibling->name, xml->name))
    6895:	48 8b 45 e8          	mov    -0x18(%rbp),%rax
    6899:	48 8b 10             	mov    (%rax),%rdx
    689c:	48 8b 45 f8          	mov    -0x8(%rbp),%rax
    68a0:	48 8b 40 28          	mov    0x28(%rax),%rax
    68a4:	48 8b 00             	mov    (%rax),%rax
    68a7:	48 89 d6             	mov    %rdx,%rsi
    68aa:	48 89 c7             	mov    %rax,%rdi
    68ad:	e8 ae aa ff ff       	call   1360 <strcmp@plt>
    68b2:	85 c0                	test   %eax,%eax
    68b4:	75 d3                	jne    6889 <ezxml_cut+0xe7>
/media/ssd-partition/Documents/RootCauseAnalysisPruning/evaluation/test_bin/22-ezXML/ezxml/ezxml.c:984
                if (cur->sibling == xml) { // first of a sibling list
    68b6:	48 8b 45 f8          	mov    -0x8(%rbp),%rax
    68ba:	48 8b 40 28          	mov    0x28(%rax),%rax
    68be:	48 39 45 e8          	cmp    %rax,-0x18(%rbp)
    68c2:	75 2d                	jne    68f1 <ezxml_cut+0x14f>
/media/ssd-partition/Documents/RootCauseAnalysisPruning/evaluation/test_bin/22-ezXML/ezxml/ezxml.c:985
                    cur->sibling = (xml->next) ? xml->next
    68c4:	48 8b 45 e8          	mov    -0x18(%rbp),%rax
    68c8:	48 8b 40 20          	mov    0x20(%rax),%rax
/media/ssd-partition/Documents/RootCauseAnalysisPruning/evaluation/test_bin/22-ezXML/ezxml/ezxml.c:986
                                               : cur->sibling->sibling;
    68cc:	48 85 c0             	test   %rax,%rax
    68cf:	74 0a                	je     68db <ezxml_cut+0x139>
/media/ssd-partition/Documents/RootCauseAnalysisPruning/evaluation/test_bin/22-ezXML/ezxml/ezxml.c:986 (discriminator 1)
    68d1:	48 8b 45 e8          	mov    -0x18(%rbp),%rax
    68d5:	48 8b 40 20          	mov    0x20(%rax),%rax
    68d9:	eb 0c                	jmp    68e7 <ezxml_cut+0x145>
/media/ssd-partition/Documents/RootCauseAnalysisPruning/evaluation/test_bin/22-ezXML/ezxml/ezxml.c:986 (discriminator 2)
    68db:	48 8b 45 f8          	mov    -0x8(%rbp),%rax
    68df:	48 8b 40 28          	mov    0x28(%rax),%rax
    68e3:	48 8b 40 28          	mov    0x28(%rax),%rax
/media/ssd-partition/Documents/RootCauseAnalysisPruning/evaluation/test_bin/22-ezXML/ezxml/ezxml.c:985
                    cur->sibling = (xml->next) ? xml->next
    68e7:	48 8b 55 f8          	mov    -0x8(%rbp),%rdx
    68eb:	48 89 42 28          	mov    %rax,0x28(%rdx)
    68ef:	eb 1a                	jmp    690b <ezxml_cut+0x169>
/media/ssd-partition/Documents/RootCauseAnalysisPruning/evaluation/test_bin/22-ezXML/ezxml/ezxml.c:988
                }
                else cur = cur->sibling; // not first of a sibling list
    68f1:	48 8b 45 f8          	mov    -0x8(%rbp),%rax
    68f5:	48 8b 40 28          	mov    0x28(%rax),%rax
    68f9:	48 89 45 f8          	mov    %rax,-0x8(%rbp)
/media/ssd-partition/Documents/RootCauseAnalysisPruning/evaluation/test_bin/22-ezXML/ezxml/ezxml.c:991
            }

            while (cur->next && cur->next != xml) cur = cur->next;
    68fd:	eb 0c                	jmp    690b <ezxml_cut+0x169>
/media/ssd-partition/Documents/RootCauseAnalysisPruning/evaluation/test_bin/22-ezXML/ezxml/ezxml.c:991 (discriminator 3)
    68ff:	48 8b 45 f8          	mov    -0x8(%rbp),%rax
    6903:	48 8b 40 20          	mov    0x20(%rax),%rax
    6907:	48 89 45 f8          	mov    %rax,-0x8(%rbp)
/media/ssd-partition/Documents/RootCauseAnalysisPruning/evaluation/test_bin/22-ezXML/ezxml/ezxml.c:991 (discriminator 1)
    690b:	48 8b 45 f8          	mov    -0x8(%rbp),%rax
    690f:	48 8b 40 20          	mov    0x20(%rax),%rax
    6913:	48 85 c0             	test   %rax,%rax
    6916:	74 0e                	je     6926 <ezxml_cut+0x184>
/media/ssd-partition/Documents/RootCauseAnalysisPruning/evaluation/test_bin/22-ezXML/ezxml/ezxml.c:991 (discriminator 2)
    6918:	48 8b 45 f8          	mov    -0x8(%rbp),%rax
    691c:	48 8b 40 20          	mov    0x20(%rax),%rax
    6920:	48 39 45 e8          	cmp    %rax,-0x18(%rbp)
    6924:	75 d9                	jne    68ff <ezxml_cut+0x15d>
/media/ssd-partition/Documents/RootCauseAnalysisPruning/evaluation/test_bin/22-ezXML/ezxml/ezxml.c:992
            if (cur->next) cur->next = cur->next->next; // patch next list
    6926:	48 8b 45 f8          	mov    -0x8(%rbp),%rax
    692a:	48 8b 40 20          	mov    0x20(%rax),%rax
    692e:	48 85 c0             	test   %rax,%rax
    6931:	74 14                	je     6947 <ezxml_cut+0x1a5>
/media/ssd-partition/Documents/RootCauseAnalysisPruning/evaluation/test_bin/22-ezXML/ezxml/ezxml.c:992 (discriminator 1)
    6933:	48 8b 45 f8          	mov    -0x8(%rbp),%rax
    6937:	48 8b 40 20          	mov    0x20(%rax),%rax
    693b:	48 8b 50 20          	mov    0x20(%rax),%rdx
    693f:	48 8b 45 f8          	mov    -0x8(%rbp),%rax
    6943:	48 89 50 20          	mov    %rdx,0x20(%rax)
/media/ssd-partition/Documents/RootCauseAnalysisPruning/evaluation/test_bin/22-ezXML/ezxml/ezxml.c:995
        }        
    }
    xml->ordered = xml->sibling = xml->next = NULL;
    6947:	48 8b 45 e8          	mov    -0x18(%rbp),%rax
    694b:	48 c7 40 20 00 00 00 	movq   $0x0,0x20(%rax)
    6952:	00 
    6953:	48 8b 45 e8          	mov    -0x18(%rbp),%rax
    6957:	48 8b 50 20          	mov    0x20(%rax),%rdx
    695b:	48 8b 45 e8          	mov    -0x18(%rbp),%rax
    695f:	48 89 50 28          	mov    %rdx,0x28(%rax)
    6963:	48 8b 45 e8          	mov    -0x18(%rbp),%rax
    6967:	48 8b 50 28          	mov    0x28(%rax),%rdx
    696b:	48 8b 45 e8          	mov    -0x18(%rbp),%rax
    696f:	48 89 50 30          	mov    %rdx,0x30(%rax)
/media/ssd-partition/Documents/RootCauseAnalysisPruning/evaluation/test_bin/22-ezXML/ezxml/ezxml.c:996
    return xml;
    6973:	48 8b 45 e8          	mov    -0x18(%rbp),%rax
/media/ssd-partition/Documents/RootCauseAnalysisPruning/evaluation/test_bin/22-ezXML/ezxml/ezxml.c:997
}
    6977:	c9                   	leave  
    6978:	c3                   	ret    

0000000000006979 <main>:
main():
/media/ssd-partition/Documents/RootCauseAnalysisPruning/evaluation/test_bin/22-ezXML/ezxml/ezxml.c:1001

#ifdef EZXML_TEST // test harness
int main(int argc, char **argv)
{
    6979:	f3 0f 1e fa          	endbr64 
    697d:	55                   	push   %rbp
    697e:	48 89 e5             	mov    %rsp,%rbp
    6981:	48 83 ec 30          	sub    $0x30,%rsp
    6985:	89 7d dc             	mov    %edi,-0x24(%rbp)
    6988:	48 89 75 d0          	mov    %rsi,-0x30(%rbp)
/media/ssd-partition/Documents/RootCauseAnalysisPruning/evaluation/test_bin/22-ezXML/ezxml/ezxml.c:1006
    ezxml_t xml;
    char *s;
    int i;

    if (argc != 2) return fprintf(stderr, "usage: %s xmlfile\n", argv[0]);
    698c:	83 7d dc 02          	cmpl   $0x2,-0x24(%rbp)
    6990:	74 2a                	je     69bc <main+0x43>
/media/ssd-partition/Documents/RootCauseAnalysisPruning/evaluation/test_bin/22-ezXML/ezxml/ezxml.c:1006 (discriminator 1)
    6992:	48 8b 45 d0          	mov    -0x30(%rbp),%rax
    6996:	48 8b 10             	mov    (%rax),%rdx
    6999:	48 8b 05 e0 26 00 00 	mov    0x26e0(%rip),%rax        # 9080 <stderr@GLIBC_2.2.5>
    69a0:	48 8d 0d 85 09 00 00 	lea    0x985(%rip),%rcx        # 732c <_IO_stdin_used+0x32c>
    69a7:	48 89 ce             	mov    %rcx,%rsi
    69aa:	48 89 c7             	mov    %rax,%rdi
    69ad:	b8 00 00 00 00       	mov    $0x0,%eax
    69b2:	e8 b9 a9 ff ff       	call   1370 <fprintf@plt>
    69b7:	e9 85 00 00 00       	jmp    6a41 <main+0xc8>
/media/ssd-partition/Documents/RootCauseAnalysisPruning/evaluation/test_bin/22-ezXML/ezxml/ezxml.c:1008

    xml = ezxml_parse_file(argv[1]);
    69bc:	48 8b 45 d0          	mov    -0x30(%rbp),%rax
    69c0:	48 83 c0 08          	add    $0x8,%rax
    69c4:	48 8b 00             	mov    (%rax),%rax
    69c7:	48 89 c7             	mov    %rax,%rdi
    69ca:	e8 a8 e0 ff ff       	call   4a77 <ezxml_parse_file>
    69cf:	48 89 45 f0          	mov    %rax,-0x10(%rbp)
/media/ssd-partition/Documents/RootCauseAnalysisPruning/evaluation/test_bin/22-ezXML/ezxml/ezxml.c:1009
    printf("%s\n", (s = ezxml_toxml(xml)));
    69d3:	48 8b 45 f0          	mov    -0x10(%rbp),%rax
    69d7:	48 89 c7             	mov    %rax,%rdi
    69da:	e8 74 eb ff ff       	call   5553 <ezxml_toxml>
    69df:	48 89 45 f8          	mov    %rax,-0x8(%rbp)
    69e3:	48 8b 45 f8          	mov    -0x8(%rbp),%rax
    69e7:	48 89 c7             	mov    %rax,%rdi
    69ea:	e8 a1 a8 ff ff       	call   1290 <puts@plt>
/media/ssd-partition/Documents/RootCauseAnalysisPruning/evaluation/test_bin/22-ezXML/ezxml/ezxml.c:1010
    free(s);
    69ef:	48 8b 45 f8          	mov    -0x8(%rbp),%rax
    69f3:	48 89 c7             	mov    %rax,%rdi
    69f6:	e8 55 a8 ff ff       	call   1250 <free@plt>
/media/ssd-partition/Documents/RootCauseAnalysisPruning/evaluation/test_bin/22-ezXML/ezxml/ezxml.c:1011
    i = fprintf(stderr, "%s", ezxml_error(xml));
    69fb:	48 8b 45 f0          	mov    -0x10(%rbp),%rax
    69ff:	48 89 c7             	mov    %rax,%rdi
    6a02:	e8 01 f4 ff ff       	call   5e08 <ezxml_error>
    6a07:	48 89 c2             	mov    %rax,%rdx
    6a0a:	48 8b 05 6f 26 00 00 	mov    0x266f(%rip),%rax        # 9080 <stderr@GLIBC_2.2.5>
    6a11:	48 8d 0d 27 09 00 00 	lea    0x927(%rip),%rcx        # 733f <_IO_stdin_used+0x33f>
    6a18:	48 89 ce             	mov    %rcx,%rsi
    6a1b:	48 89 c7             	mov    %rax,%rdi
    6a1e:	b8 00 00 00 00       	mov    $0x0,%eax
    6a23:	e8 48 a9 ff ff       	call   1370 <fprintf@plt>
    6a28:	89 45 ec             	mov    %eax,-0x14(%rbp)
/media/ssd-partition/Documents/RootCauseAnalysisPruning/evaluation/test_bin/22-ezXML/ezxml/ezxml.c:1012
    ezxml_free(xml);
    6a2b:	48 8b 45 f0          	mov    -0x10(%rbp),%rax
    6a2f:	48 89 c7             	mov    %rax,%rdi
    6a32:	e8 1e f0 ff ff       	call   5a55 <ezxml_free>
/media/ssd-partition/Documents/RootCauseAnalysisPruning/evaluation/test_bin/22-ezXML/ezxml/ezxml.c:1013
    return (i) ? 1 : 0;
    6a37:	83 7d ec 00          	cmpl   $0x0,-0x14(%rbp)
    6a3b:	0f 95 c0             	setne  %al
    6a3e:	0f b6 c0             	movzbl %al,%eax
/media/ssd-partition/Documents/RootCauseAnalysisPruning/evaluation/test_bin/22-ezXML/ezxml/ezxml.c:1014
}
    6a41:	c9                   	leave  
    6a42:	c3                   	ret    

Disassembly of section .fini:

0000000000006a44 <_fini>:
_fini():
    6a44:	f3 0f 1e fa          	endbr64 
    6a48:	48 83 ec 08          	sub    $0x8,%rsp
    6a4c:	48 83 c4 08          	add    $0x8,%rsp
    6a50:	c3                   	ret    
