
/home/tenebris/Documents/RootCauseAnalysisPruning/evaluation//test_bin/22-ezXML/ezxml_trace:     file format elf64-x86-64


Disassembly of section .init:

0000000000001000 <_init>:
_init():
    1000:	f3 0f 1e fa          	endbr64 
    1004:	48 83 ec 08          	sub    $0x8,%rsp
    1008:	48 8b 05 d9 7f 00 00 	mov    0x7fd9(%rip),%rax        # 8fe8 <__gmon_start__@Base>
    100f:	48 85 c0             	test   %rax,%rax
    1012:	74 02                	je     1016 <_init+0x16>
    1014:	ff d0                	call   *%rax
    1016:	48 83 c4 08          	add    $0x8,%rsp
    101a:	c3                   	ret    

Disassembly of section .plt:

0000000000001020 <.plt>:
    1020:	ff 35 9a 7e 00 00    	push   0x7e9a(%rip)        # 8ec0 <_GLOBAL_OFFSET_TABLE_+0x8>
    1026:	f2 ff 25 9b 7e 00 00 	bnd jmp *0x7e9b(%rip)        # 8ec8 <_GLOBAL_OFFSET_TABLE_+0x10>
    102d:	0f 1f 00             	nopl   (%rax)
    1030:	f3 0f 1e fa          	endbr64 
    1034:	68 00 00 00 00       	push   $0x0
    1039:	f2 e9 e1 ff ff ff    	bnd jmp 1020 <_init+0x20>
    103f:	90                   	nop
    1040:	f3 0f 1e fa          	endbr64 
    1044:	68 01 00 00 00       	push   $0x1
    1049:	f2 e9 d1 ff ff ff    	bnd jmp 1020 <_init+0x20>
    104f:	90                   	nop
    1050:	f3 0f 1e fa          	endbr64 
    1054:	68 02 00 00 00       	push   $0x2
    1059:	f2 e9 c1 ff ff ff    	bnd jmp 1020 <_init+0x20>
    105f:	90                   	nop
    1060:	f3 0f 1e fa          	endbr64 
    1064:	68 03 00 00 00       	push   $0x3
    1069:	f2 e9 b1 ff ff ff    	bnd jmp 1020 <_init+0x20>
    106f:	90                   	nop
    1070:	f3 0f 1e fa          	endbr64 
    1074:	68 04 00 00 00       	push   $0x4
    1079:	f2 e9 a1 ff ff ff    	bnd jmp 1020 <_init+0x20>
    107f:	90                   	nop
    1080:	f3 0f 1e fa          	endbr64 
    1084:	68 05 00 00 00       	push   $0x5
    1089:	f2 e9 91 ff ff ff    	bnd jmp 1020 <_init+0x20>
    108f:	90                   	nop
    1090:	f3 0f 1e fa          	endbr64 
    1094:	68 06 00 00 00       	push   $0x6
    1099:	f2 e9 81 ff ff ff    	bnd jmp 1020 <_init+0x20>
    109f:	90                   	nop
    10a0:	f3 0f 1e fa          	endbr64 
    10a4:	68 07 00 00 00       	push   $0x7
    10a9:	f2 e9 71 ff ff ff    	bnd jmp 1020 <_init+0x20>
    10af:	90                   	nop
    10b0:	f3 0f 1e fa          	endbr64 
    10b4:	68 08 00 00 00       	push   $0x8
    10b9:	f2 e9 61 ff ff ff    	bnd jmp 1020 <_init+0x20>
    10bf:	90                   	nop
    10c0:	f3 0f 1e fa          	endbr64 
    10c4:	68 09 00 00 00       	push   $0x9
    10c9:	f2 e9 51 ff ff ff    	bnd jmp 1020 <_init+0x20>
    10cf:	90                   	nop
    10d0:	f3 0f 1e fa          	endbr64 
    10d4:	68 0a 00 00 00       	push   $0xa
    10d9:	f2 e9 41 ff ff ff    	bnd jmp 1020 <_init+0x20>
    10df:	90                   	nop
    10e0:	f3 0f 1e fa          	endbr64 
    10e4:	68 0b 00 00 00       	push   $0xb
    10e9:	f2 e9 31 ff ff ff    	bnd jmp 1020 <_init+0x20>
    10ef:	90                   	nop
    10f0:	f3 0f 1e fa          	endbr64 
    10f4:	68 0c 00 00 00       	push   $0xc
    10f9:	f2 e9 21 ff ff ff    	bnd jmp 1020 <_init+0x20>
    10ff:	90                   	nop
    1100:	f3 0f 1e fa          	endbr64 
    1104:	68 0d 00 00 00       	push   $0xd
    1109:	f2 e9 11 ff ff ff    	bnd jmp 1020 <_init+0x20>
    110f:	90                   	nop
    1110:	f3 0f 1e fa          	endbr64 
    1114:	68 0e 00 00 00       	push   $0xe
    1119:	f2 e9 01 ff ff ff    	bnd jmp 1020 <_init+0x20>
    111f:	90                   	nop
    1120:	f3 0f 1e fa          	endbr64 
    1124:	68 0f 00 00 00       	push   $0xf
    1129:	f2 e9 f1 fe ff ff    	bnd jmp 1020 <_init+0x20>
    112f:	90                   	nop
    1130:	f3 0f 1e fa          	endbr64 
    1134:	68 10 00 00 00       	push   $0x10
    1139:	f2 e9 e1 fe ff ff    	bnd jmp 1020 <_init+0x20>
    113f:	90                   	nop
    1140:	f3 0f 1e fa          	endbr64 
    1144:	68 11 00 00 00       	push   $0x11
    1149:	f2 e9 d1 fe ff ff    	bnd jmp 1020 <_init+0x20>
    114f:	90                   	nop
    1150:	f3 0f 1e fa          	endbr64 
    1154:	68 12 00 00 00       	push   $0x12
    1159:	f2 e9 c1 fe ff ff    	bnd jmp 1020 <_init+0x20>
    115f:	90                   	nop
    1160:	f3 0f 1e fa          	endbr64 
    1164:	68 13 00 00 00       	push   $0x13
    1169:	f2 e9 b1 fe ff ff    	bnd jmp 1020 <_init+0x20>
    116f:	90                   	nop
    1170:	f3 0f 1e fa          	endbr64 
    1174:	68 14 00 00 00       	push   $0x14
    1179:	f2 e9 a1 fe ff ff    	bnd jmp 1020 <_init+0x20>
    117f:	90                   	nop
    1180:	f3 0f 1e fa          	endbr64 
    1184:	68 15 00 00 00       	push   $0x15
    1189:	f2 e9 91 fe ff ff    	bnd jmp 1020 <_init+0x20>
    118f:	90                   	nop
    1190:	f3 0f 1e fa          	endbr64 
    1194:	68 16 00 00 00       	push   $0x16
    1199:	f2 e9 81 fe ff ff    	bnd jmp 1020 <_init+0x20>
    119f:	90                   	nop
    11a0:	f3 0f 1e fa          	endbr64 
    11a4:	68 17 00 00 00       	push   $0x17
    11a9:	f2 e9 71 fe ff ff    	bnd jmp 1020 <_init+0x20>
    11af:	90                   	nop
    11b0:	f3 0f 1e fa          	endbr64 
    11b4:	68 18 00 00 00       	push   $0x18
    11b9:	f2 e9 61 fe ff ff    	bnd jmp 1020 <_init+0x20>
    11bf:	90                   	nop
    11c0:	f3 0f 1e fa          	endbr64 
    11c4:	68 19 00 00 00       	push   $0x19
    11c9:	f2 e9 51 fe ff ff    	bnd jmp 1020 <_init+0x20>
    11cf:	90                   	nop
    11d0:	f3 0f 1e fa          	endbr64 
    11d4:	68 1a 00 00 00       	push   $0x1a
    11d9:	f2 e9 41 fe ff ff    	bnd jmp 1020 <_init+0x20>
    11df:	90                   	nop
    11e0:	f3 0f 1e fa          	endbr64 
    11e4:	68 1b 00 00 00       	push   $0x1b
    11e9:	f2 e9 31 fe ff ff    	bnd jmp 1020 <_init+0x20>
    11ef:	90                   	nop
    11f0:	f3 0f 1e fa          	endbr64 
    11f4:	68 1c 00 00 00       	push   $0x1c
    11f9:	f2 e9 21 fe ff ff    	bnd jmp 1020 <_init+0x20>
    11ff:	90                   	nop
    1200:	f3 0f 1e fa          	endbr64 
    1204:	68 1d 00 00 00       	push   $0x1d
    1209:	f2 e9 11 fe ff ff    	bnd jmp 1020 <_init+0x20>
    120f:	90                   	nop
    1210:	f3 0f 1e fa          	endbr64 
    1214:	68 1e 00 00 00       	push   $0x1e
    1219:	f2 e9 01 fe ff ff    	bnd jmp 1020 <_init+0x20>
    121f:	90                   	nop
    1220:	f3 0f 1e fa          	endbr64 
    1224:	68 1f 00 00 00       	push   $0x1f
    1229:	f2 e9 f1 fd ff ff    	bnd jmp 1020 <_init+0x20>
    122f:	90                   	nop
    1230:	f3 0f 1e fa          	endbr64 
    1234:	68 20 00 00 00       	push   $0x20
    1239:	f2 e9 e1 fd ff ff    	bnd jmp 1020 <_init+0x20>
    123f:	90                   	nop

Disassembly of section .plt.got:

0000000000001240 <__cxa_finalize@plt>:
    1240:	f3 0f 1e fa          	endbr64 
    1244:	f2 ff 25 ad 7d 00 00 	bnd jmp *0x7dad(%rip)        # 8ff8 <__cxa_finalize@GLIBC_2.2.5>
    124b:	0f 1f 44 00 00       	nopl   0x0(%rax,%rax,1)

Disassembly of section .plt.sec:

0000000000001250 <free@plt>:
    1250:	f3 0f 1e fa          	endbr64 
    1254:	f2 ff 25 75 7c 00 00 	bnd jmp *0x7c75(%rip)        # 8ed0 <free@GLIBC_2.2.5>
    125b:	0f 1f 44 00 00       	nopl   0x0(%rax,%rax,1)

0000000000001260 <strncpy@plt>:
    1260:	f3 0f 1e fa          	endbr64 
    1264:	f2 ff 25 6d 7c 00 00 	bnd jmp *0x7c6d(%rip)        # 8ed8 <strncpy@GLIBC_2.2.5>
    126b:	0f 1f 44 00 00       	nopl   0x0(%rax,%rax,1)

0000000000001270 <strncmp@plt>:
    1270:	f3 0f 1e fa          	endbr64 
    1274:	f2 ff 25 65 7c 00 00 	bnd jmp *0x7c65(%rip)        # 8ee0 <strncmp@GLIBC_2.2.5>
    127b:	0f 1f 44 00 00       	nopl   0x0(%rax,%rax,1)

0000000000001280 <strcpy@plt>:
    1280:	f3 0f 1e fa          	endbr64 
    1284:	f2 ff 25 5d 7c 00 00 	bnd jmp *0x7c5d(%rip)        # 8ee8 <strcpy@GLIBC_2.2.5>
    128b:	0f 1f 44 00 00       	nopl   0x0(%rax,%rax,1)

0000000000001290 <puts@plt>:
    1290:	f3 0f 1e fa          	endbr64 
    1294:	f2 ff 25 55 7c 00 00 	bnd jmp *0x7c55(%rip)        # 8ef0 <puts@GLIBC_2.2.5>
    129b:	0f 1f 44 00 00       	nopl   0x0(%rax,%rax,1)

00000000000012a0 <fread@plt>:
    12a0:	f3 0f 1e fa          	endbr64 
    12a4:	f2 ff 25 4d 7c 00 00 	bnd jmp *0x7c4d(%rip)        # 8ef8 <fread@GLIBC_2.2.5>
    12ab:	0f 1f 44 00 00       	nopl   0x0(%rax,%rax,1)

00000000000012b0 <vsnprintf@plt>:
    12b0:	f3 0f 1e fa          	endbr64 
    12b4:	f2 ff 25 45 7c 00 00 	bnd jmp *0x7c45(%rip)        # 8f00 <vsnprintf@GLIBC_2.2.5>
    12bb:	0f 1f 44 00 00       	nopl   0x0(%rax,%rax,1)

00000000000012c0 <strlen@plt>:
    12c0:	f3 0f 1e fa          	endbr64 
    12c4:	f2 ff 25 3d 7c 00 00 	bnd jmp *0x7c3d(%rip)        # 8f08 <strlen@GLIBC_2.2.5>
    12cb:	0f 1f 44 00 00       	nopl   0x0(%rax,%rax,1)

00000000000012d0 <__stack_chk_fail@plt>:
    12d0:	f3 0f 1e fa          	endbr64 
    12d4:	f2 ff 25 35 7c 00 00 	bnd jmp *0x7c35(%rip)        # 8f10 <__stack_chk_fail@GLIBC_2.4>
    12db:	0f 1f 44 00 00       	nopl   0x0(%rax,%rax,1)

00000000000012e0 <mmap@plt>:
    12e0:	f3 0f 1e fa          	endbr64 
    12e4:	f2 ff 25 2d 7c 00 00 	bnd jmp *0x7c2d(%rip)        # 8f18 <mmap@GLIBC_2.2.5>
    12eb:	0f 1f 44 00 00       	nopl   0x0(%rax,%rax,1)

00000000000012f0 <strchr@plt>:
    12f0:	f3 0f 1e fa          	endbr64 
    12f4:	f2 ff 25 25 7c 00 00 	bnd jmp *0x7c25(%rip)        # 8f20 <strchr@GLIBC_2.2.5>
    12fb:	0f 1f 44 00 00       	nopl   0x0(%rax,%rax,1)

0000000000001300 <snprintf@plt>:
    1300:	f3 0f 1e fa          	endbr64 
    1304:	f2 ff 25 1d 7c 00 00 	bnd jmp *0x7c1d(%rip)        # 8f28 <snprintf@GLIBC_2.2.5>
    130b:	0f 1f 44 00 00       	nopl   0x0(%rax,%rax,1)

0000000000001310 <memset@plt>:
    1310:	f3 0f 1e fa          	endbr64 
    1314:	f2 ff 25 15 7c 00 00 	bnd jmp *0x7c15(%rip)        # 8f30 <memset@GLIBC_2.2.5>
    131b:	0f 1f 44 00 00       	nopl   0x0(%rax,%rax,1)

0000000000001320 <close@plt>:
    1320:	f3 0f 1e fa          	endbr64 
    1324:	f2 ff 25 0d 7c 00 00 	bnd jmp *0x7c0d(%rip)        # 8f38 <close@GLIBC_2.2.5>
    132b:	0f 1f 44 00 00       	nopl   0x0(%rax,%rax,1)

0000000000001330 <strspn@plt>:
    1330:	f3 0f 1e fa          	endbr64 
    1334:	f2 ff 25 05 7c 00 00 	bnd jmp *0x7c05(%rip)        # 8f40 <strspn@GLIBC_2.2.5>
    133b:	0f 1f 44 00 00       	nopl   0x0(%rax,%rax,1)

0000000000001340 <strcspn@plt>:
    1340:	f3 0f 1e fa          	endbr64 
    1344:	f2 ff 25 fd 7b 00 00 	bnd jmp *0x7bfd(%rip)        # 8f48 <strcspn@GLIBC_2.2.5>
    134b:	0f 1f 44 00 00       	nopl   0x0(%rax,%rax,1)

0000000000001350 <read@plt>:
    1350:	f3 0f 1e fa          	endbr64 
    1354:	f2 ff 25 f5 7b 00 00 	bnd jmp *0x7bf5(%rip)        # 8f50 <read@GLIBC_2.2.5>
    135b:	0f 1f 44 00 00       	nopl   0x0(%rax,%rax,1)

0000000000001360 <strcmp@plt>:
    1360:	f3 0f 1e fa          	endbr64 
    1364:	f2 ff 25 ed 7b 00 00 	bnd jmp *0x7bed(%rip)        # 8f58 <strcmp@GLIBC_2.2.5>
    136b:	0f 1f 44 00 00       	nopl   0x0(%rax,%rax,1)

0000000000001370 <fprintf@plt>:
    1370:	f3 0f 1e fa          	endbr64 
    1374:	f2 ff 25 e5 7b 00 00 	bnd jmp *0x7be5(%rip)        # 8f60 <fprintf@GLIBC_2.2.5>
    137b:	0f 1f 44 00 00       	nopl   0x0(%rax,%rax,1)

0000000000001380 <strtol@plt>:
    1380:	f3 0f 1e fa          	endbr64 
    1384:	f2 ff 25 dd 7b 00 00 	bnd jmp *0x7bdd(%rip)        # 8f68 <strtol@GLIBC_2.2.5>
    138b:	0f 1f 44 00 00       	nopl   0x0(%rax,%rax,1)

0000000000001390 <memcpy@plt>:
    1390:	f3 0f 1e fa          	endbr64 
    1394:	f2 ff 25 d5 7b 00 00 	bnd jmp *0x7bd5(%rip)        # 8f70 <memcpy@GLIBC_2.14>
    139b:	0f 1f 44 00 00       	nopl   0x0(%rax,%rax,1)

00000000000013a0 <malloc@plt>:
    13a0:	f3 0f 1e fa          	endbr64 
    13a4:	f2 ff 25 cd 7b 00 00 	bnd jmp *0x7bcd(%rip)        # 8f78 <malloc@GLIBC_2.2.5>
    13ab:	0f 1f 44 00 00       	nopl   0x0(%rax,%rax,1)

00000000000013b0 <realloc@plt>:
    13b0:	f3 0f 1e fa          	endbr64 
    13b4:	f2 ff 25 c5 7b 00 00 	bnd jmp *0x7bc5(%rip)        # 8f80 <realloc@GLIBC_2.2.5>
    13bb:	0f 1f 44 00 00       	nopl   0x0(%rax,%rax,1)

00000000000013c0 <munmap@plt>:
    13c0:	f3 0f 1e fa          	endbr64 
    13c4:	f2 ff 25 bd 7b 00 00 	bnd jmp *0x7bbd(%rip)        # 8f88 <munmap@GLIBC_2.2.5>
    13cb:	0f 1f 44 00 00       	nopl   0x0(%rax,%rax,1)

00000000000013d0 <madvise@plt>:
    13d0:	f3 0f 1e fa          	endbr64 
    13d4:	f2 ff 25 b5 7b 00 00 	bnd jmp *0x7bb5(%rip)        # 8f90 <madvise@GLIBC_2.2.5>
    13db:	0f 1f 44 00 00       	nopl   0x0(%rax,%rax,1)

00000000000013e0 <memmove@plt>:
    13e0:	f3 0f 1e fa          	endbr64 
    13e4:	f2 ff 25 ad 7b 00 00 	bnd jmp *0x7bad(%rip)        # 8f98 <memmove@GLIBC_2.2.5>
    13eb:	0f 1f 44 00 00       	nopl   0x0(%rax,%rax,1)

00000000000013f0 <open@plt>:
    13f0:	f3 0f 1e fa          	endbr64 
    13f4:	f2 ff 25 a5 7b 00 00 	bnd jmp *0x7ba5(%rip)        # 8fa0 <open@GLIBC_2.2.5>
    13fb:	0f 1f 44 00 00       	nopl   0x0(%rax,%rax,1)

0000000000001400 <sysconf@plt>:
    1400:	f3 0f 1e fa          	endbr64 
    1404:	f2 ff 25 9d 7b 00 00 	bnd jmp *0x7b9d(%rip)        # 8fa8 <sysconf@GLIBC_2.2.5>
    140b:	0f 1f 44 00 00       	nopl   0x0(%rax,%rax,1)

0000000000001410 <sprintf@plt>:
    1410:	f3 0f 1e fa          	endbr64 
    1414:	f2 ff 25 95 7b 00 00 	bnd jmp *0x7b95(%rip)        # 8fb0 <sprintf@GLIBC_2.2.5>
    141b:	0f 1f 44 00 00       	nopl   0x0(%rax,%rax,1)

0000000000001420 <strdup@plt>:
    1420:	f3 0f 1e fa          	endbr64 
    1424:	f2 ff 25 8d 7b 00 00 	bnd jmp *0x7b8d(%rip)        # 8fb8 <strdup@GLIBC_2.2.5>
    142b:	0f 1f 44 00 00       	nopl   0x0(%rax,%rax,1)

0000000000001430 <fstat@plt>:
    1430:	f3 0f 1e fa          	endbr64 
    1434:	f2 ff 25 85 7b 00 00 	bnd jmp *0x7b85(%rip)        # 8fc0 <fstat@GLIBC_2.33>
    143b:	0f 1f 44 00 00       	nopl   0x0(%rax,%rax,1)

0000000000001440 <strstr@plt>:
    1440:	f3 0f 1e fa          	endbr64 
    1444:	f2 ff 25 7d 7b 00 00 	bnd jmp *0x7b7d(%rip)        # 8fc8 <strstr@GLIBC_2.2.5>
    144b:	0f 1f 44 00 00       	nopl   0x0(%rax,%rax,1)

0000000000001450 <__ctype_b_loc@plt>:
    1450:	f3 0f 1e fa          	endbr64 
    1454:	f2 ff 25 75 7b 00 00 	bnd jmp *0x7b75(%rip)        # 8fd0 <__ctype_b_loc@GLIBC_2.3>
    145b:	0f 1f 44 00 00       	nopl   0x0(%rax,%rax,1)

Disassembly of section .text:

0000000000001460 <_start>:
_start():
    1460:	f3 0f 1e fa          	endbr64 
    1464:	31 ed                	xor    %ebp,%ebp
    1466:	49 89 d1             	mov    %rdx,%r9
    1469:	5e                   	pop    %rsi
    146a:	48 89 e2             	mov    %rsp,%rdx
    146d:	48 83 e4 f0          	and    $0xfffffffffffffff0,%rsp
    1471:	50                   	push   %rax
    1472:	54                   	push   %rsp
    1473:	45 31 c0             	xor    %r8d,%r8d
    1476:	31 c9                	xor    %ecx,%ecx
    1478:	48 8d 3d fa 54 00 00 	lea    0x54fa(%rip),%rdi        # 6979 <main>
    147f:	ff 15 53 7b 00 00    	call   *0x7b53(%rip)        # 8fd8 <__libc_start_main@GLIBC_2.34>
    1485:	f4                   	hlt    
    1486:	66 2e 0f 1f 84 00 00 	cs nopw 0x0(%rax,%rax,1)
    148d:	00 00 00 

0000000000001490 <deregister_tm_clones>:
deregister_tm_clones():
    1490:	48 8d 3d e1 7b 00 00 	lea    0x7be1(%rip),%rdi        # 9078 <__TMC_END__>
    1497:	48 8d 05 da 7b 00 00 	lea    0x7bda(%rip),%rax        # 9078 <__TMC_END__>
    149e:	48 39 f8             	cmp    %rdi,%rax
    14a1:	74 15                	je     14b8 <deregister_tm_clones+0x28>
    14a3:	48 8b 05 36 7b 00 00 	mov    0x7b36(%rip),%rax        # 8fe0 <_ITM_deregisterTMCloneTable@Base>
    14aa:	48 85 c0             	test   %rax,%rax
    14ad:	74 09                	je     14b8 <deregister_tm_clones+0x28>
    14af:	ff e0                	jmp    *%rax
    14b1:	0f 1f 80 00 00 00 00 	nopl   0x0(%rax)
    14b8:	c3                   	ret    
    14b9:	0f 1f 80 00 00 00 00 	nopl   0x0(%rax)

00000000000014c0 <register_tm_clones>:
register_tm_clones():
    14c0:	48 8d 3d b1 7b 00 00 	lea    0x7bb1(%rip),%rdi        # 9078 <__TMC_END__>
    14c7:	48 8d 35 aa 7b 00 00 	lea    0x7baa(%rip),%rsi        # 9078 <__TMC_END__>
    14ce:	48 29 fe             	sub    %rdi,%rsi
    14d1:	48 89 f0             	mov    %rsi,%rax
    14d4:	48 c1 ee 3f          	shr    $0x3f,%rsi
    14d8:	48 c1 f8 03          	sar    $0x3,%rax
    14dc:	48 01 c6             	add    %rax,%rsi
    14df:	48 d1 fe             	sar    %rsi
    14e2:	74 14                	je     14f8 <register_tm_clones+0x38>
    14e4:	48 8b 05 05 7b 00 00 	mov    0x7b05(%rip),%rax        # 8ff0 <_ITM_registerTMCloneTable@Base>
    14eb:	48 85 c0             	test   %rax,%rax
    14ee:	74 08                	je     14f8 <register_tm_clones+0x38>
    14f0:	ff e0                	jmp    *%rax
    14f2:	66 0f 1f 44 00 00    	nopw   0x0(%rax,%rax,1)
    14f8:	c3                   	ret    
    14f9:	0f 1f 80 00 00 00 00 	nopl   0x0(%rax)

0000000000001500 <__do_global_dtors_aux>:
__do_global_dtors_aux():
    1500:	f3 0f 1e fa          	endbr64 
    1504:	80 3d 7d 7b 00 00 00 	cmpb   $0x0,0x7b7d(%rip)        # 9088 <completed.0>
    150b:	75 2b                	jne    1538 <__do_global_dtors_aux+0x38>
    150d:	55                   	push   %rbp
    150e:	48 83 3d e2 7a 00 00 	cmpq   $0x0,0x7ae2(%rip)        # 8ff8 <__cxa_finalize@GLIBC_2.2.5>
    1515:	00 
    1516:	48 89 e5             	mov    %rsp,%rbp
    1519:	74 0c                	je     1527 <__do_global_dtors_aux+0x27>
    151b:	48 8b 3d e6 7a 00 00 	mov    0x7ae6(%rip),%rdi        # 9008 <__dso_handle>
    1522:	e8 19 fd ff ff       	call   1240 <__cxa_finalize@plt>
    1527:	e8 64 ff ff ff       	call   1490 <deregister_tm_clones>
    152c:	c6 05 55 7b 00 00 01 	movb   $0x1,0x7b55(%rip)        # 9088 <completed.0>
    1533:	5d                   	pop    %rbp
    1534:	c3                   	ret    
    1535:	0f 1f 00             	nopl   (%rax)
    1538:	c3                   	ret    
    1539:	0f 1f 80 00 00 00 00 	nopl   0x0(%rax)

0000000000001540 <frame_dummy>:
frame_dummy():
    1540:	f3 0f 1e fa          	endbr64 
    1544:	e9 77 ff ff ff       	jmp    14c0 <register_tm_clones>

0000000000001549 <ezxml_child>:
ezxml_child():
/media/ssd-partition/Documents/RootCauseAnalysisPruning/evaluation/test_bin/22-ezXML/ezxml/ezxml.c:61

char *EZXML_NIL[] = { NULL }; // empty, null terminated array of strings

// returns the first child tag with the given name or NULL if not found
ezxml_t ezxml_child(ezxml_t xml, const char *name)
{
    1549:	f3 0f 1e fa          	endbr64 
    154d:	55                   	push   %rbp
    154e:	48 89 e5             	mov    %rsp,%rbp
    1551:	48 83 ec 10          	sub    $0x10,%rsp
    1555:	48 89 7d f8          	mov    %rdi,-0x8(%rbp)
    1559:	48 89 75 f0          	mov    %rsi,-0x10(%rbp)
/media/ssd-partition/Documents/RootCauseAnalysisPruning/evaluation/test_bin/22-ezXML/ezxml/ezxml.c:62
    xml = (xml) ? xml->child : NULL;
    155d:	48 83 7d f8 00       	cmpq   $0x0,-0x8(%rbp)
    1562:	74 0a                	je     156e <ezxml_child+0x25>
/media/ssd-partition/Documents/RootCauseAnalysisPruning/evaluation/test_bin/22-ezXML/ezxml/ezxml.c:62 (discriminator 1)
    1564:	48 8b 45 f8          	mov    -0x8(%rbp),%rax
    1568:	48 8b 40 38          	mov    0x38(%rax),%rax
    156c:	eb 05                	jmp    1573 <ezxml_child+0x2a>
/media/ssd-partition/Documents/RootCauseAnalysisPruning/evaluation/test_bin/22-ezXML/ezxml/ezxml.c:62 (discriminator 2)
    156e:	b8 00 00 00 00       	mov    $0x0,%eax
/media/ssd-partition/Documents/RootCauseAnalysisPruning/evaluation/test_bin/22-ezXML/ezxml/ezxml.c:62 (discriminator 4)
    1573:	48 89 45 f8          	mov    %rax,-0x8(%rbp)
/media/ssd-partition/Documents/RootCauseAnalysisPruning/evaluation/test_bin/22-ezXML/ezxml/ezxml.c:63 (discriminator 4)
    while (xml && strcmp(name, xml->name)) xml = xml->sibling;
    1577:	eb 0c                	jmp    1585 <ezxml_child+0x3c>
/media/ssd-partition/Documents/RootCauseAnalysisPruning/evaluation/test_bin/22-ezXML/ezxml/ezxml.c:63 (discriminator 3)
    1579:	48 8b 45 f8          	mov    -0x8(%rbp),%rax
    157d:	48 8b 40 28          	mov    0x28(%rax),%rax
    1581:	48 89 45 f8          	mov    %rax,-0x8(%rbp)
/media/ssd-partition/Documents/RootCauseAnalysisPruning/evaluation/test_bin/22-ezXML/ezxml/ezxml.c:63 (discriminator 1)
    1585:	48 83 7d f8 00       	cmpq   $0x0,-0x8(%rbp)
    158a:	74 1a                	je     15a6 <ezxml_child+0x5d>
/media/ssd-partition/Documents/RootCauseAnalysisPruning/evaluation/test_bin/22-ezXML/ezxml/ezxml.c:63 (discriminator 2)
    158c:	48 8b 45 f8          	mov    -0x8(%rbp),%rax
    1590:	48 8b 10             	mov    (%rax),%rdx
    1593:	48 8b 45 f0          	mov    -0x10(%rbp),%rax
    1597:	48 89 d6             	mov    %rdx,%rsi
    159a:	48 89 c7             	mov    %rax,%rdi
    159d:	e8 be fd ff ff       	call   1360 <strcmp@plt>
    15a2:	85 c0                	test   %eax,%eax
    15a4:	75 d3                	jne    1579 <ezxml_child+0x30>
/media/ssd-partition/Documents/RootCauseAnalysisPruning/evaluation/test_bin/22-ezXML/ezxml/ezxml.c:64
    return xml;
    15a6:	48 8b 45 f8          	mov    -0x8(%rbp),%rax
/media/ssd-partition/Documents/RootCauseAnalysisPruning/evaluation/test_bin/22-ezXML/ezxml/ezxml.c:65
}
    15aa:	c9                   	leave  
    15ab:	c3                   	ret    

00000000000015ac <ezxml_idx>:
ezxml_idx():
/media/ssd-partition/Documents/RootCauseAnalysisPruning/evaluation/test_bin/22-ezXML/ezxml/ezxml.c:70

// returns the Nth tag with the same name in the same subsection or NULL if not
// found
ezxml_t ezxml_idx(ezxml_t xml, int idx)
{
    15ac:	f3 0f 1e fa          	endbr64 
    15b0:	55                   	push   %rbp
    15b1:	48 89 e5             	mov    %rsp,%rbp
    15b4:	48 89 7d f8          	mov    %rdi,-0x8(%rbp)
    15b8:	89 75 f4             	mov    %esi,-0xc(%rbp)
/media/ssd-partition/Documents/RootCauseAnalysisPruning/evaluation/test_bin/22-ezXML/ezxml/ezxml.c:71
    for (; xml && idx; idx--) xml = xml->next;
    15bb:	eb 10                	jmp    15cd <ezxml_idx+0x21>
/media/ssd-partition/Documents/RootCauseAnalysisPruning/evaluation/test_bin/22-ezXML/ezxml/ezxml.c:71 (discriminator 3)
    15bd:	48 8b 45 f8          	mov    -0x8(%rbp),%rax
    15c1:	48 8b 40 20          	mov    0x20(%rax),%rax
    15c5:	48 89 45 f8          	mov    %rax,-0x8(%rbp)
    15c9:	83 6d f4 01          	subl   $0x1,-0xc(%rbp)
/media/ssd-partition/Documents/RootCauseAnalysisPruning/evaluation/test_bin/22-ezXML/ezxml/ezxml.c:71 (discriminator 1)
    15cd:	48 83 7d f8 00       	cmpq   $0x0,-0x8(%rbp)
    15d2:	74 06                	je     15da <ezxml_idx+0x2e>
/media/ssd-partition/Documents/RootCauseAnalysisPruning/evaluation/test_bin/22-ezXML/ezxml/ezxml.c:71 (discriminator 2)
    15d4:	83 7d f4 00          	cmpl   $0x0,-0xc(%rbp)
    15d8:	75 e3                	jne    15bd <ezxml_idx+0x11>
/media/ssd-partition/Documents/RootCauseAnalysisPruning/evaluation/test_bin/22-ezXML/ezxml/ezxml.c:72
    return xml;
    15da:	48 8b 45 f8          	mov    -0x8(%rbp),%rax
/media/ssd-partition/Documents/RootCauseAnalysisPruning/evaluation/test_bin/22-ezXML/ezxml/ezxml.c:73
}
    15de:	5d                   	pop    %rbp
    15df:	c3                   	ret    

00000000000015e0 <ezxml_attr>:
ezxml_attr():
/media/ssd-partition/Documents/RootCauseAnalysisPruning/evaluation/test_bin/22-ezXML/ezxml/ezxml.c:77

// returns the value of the requested tag attribute or NULL if not found
const char *ezxml_attr(ezxml_t xml, const char *attr)
{
    15e0:	f3 0f 1e fa          	endbr64 
    15e4:	55                   	push   %rbp
    15e5:	48 89 e5             	mov    %rsp,%rbp
    15e8:	48 83 ec 20          	sub    $0x20,%rsp
    15ec:	48 89 7d e8          	mov    %rdi,-0x18(%rbp)
    15f0:	48 89 75 e0          	mov    %rsi,-0x20(%rbp)
/media/ssd-partition/Documents/RootCauseAnalysisPruning/evaluation/test_bin/22-ezXML/ezxml/ezxml.c:78
    int i = 0, j = 1;
    15f4:	c7 45 f0 00 00 00 00 	movl   $0x0,-0x10(%rbp)
    15fb:	c7 45 f4 01 00 00 00 	movl   $0x1,-0xc(%rbp)
/media/ssd-partition/Documents/RootCauseAnalysisPruning/evaluation/test_bin/22-ezXML/ezxml/ezxml.c:79
    ezxml_root_t root = (ezxml_root_t)xml;
    1602:	48 8b 45 e8          	mov    -0x18(%rbp),%rax
    1606:	48 89 45 f8          	mov    %rax,-0x8(%rbp)
/media/ssd-partition/Documents/RootCauseAnalysisPruning/evaluation/test_bin/22-ezXML/ezxml/ezxml.c:81

    if (! xml || ! xml->attr) return NULL;
    160a:	48 83 7d e8 00       	cmpq   $0x0,-0x18(%rbp)
    160f:	74 0d                	je     161e <ezxml_attr+0x3e>
/media/ssd-partition/Documents/RootCauseAnalysisPruning/evaluation/test_bin/22-ezXML/ezxml/ezxml.c:81 (discriminator 2)
    1611:	48 8b 45 e8          	mov    -0x18(%rbp),%rax
    1615:	48 8b 40 08          	mov    0x8(%rax),%rax
    1619:	48 85 c0             	test   %rax,%rax
    161c:	75 0e                	jne    162c <ezxml_attr+0x4c>
/media/ssd-partition/Documents/RootCauseAnalysisPruning/evaluation/test_bin/22-ezXML/ezxml/ezxml.c:81 (discriminator 3)
    161e:	b8 00 00 00 00       	mov    $0x0,%eax
    1623:	e9 f7 01 00 00       	jmp    181f <ezxml_attr+0x23f>
/media/ssd-partition/Documents/RootCauseAnalysisPruning/evaluation/test_bin/22-ezXML/ezxml/ezxml.c:82 (discriminator 3)
    while (xml->attr[i] && strcmp(attr, xml->attr[i])) i += 2;
    1628:	83 45 f0 02          	addl   $0x2,-0x10(%rbp)
/media/ssd-partition/Documents/RootCauseAnalysisPruning/evaluation/test_bin/22-ezXML/ezxml/ezxml.c:82 (discriminator 1)
    162c:	48 8b 45 e8          	mov    -0x18(%rbp),%rax
    1630:	48 8b 50 08          	mov    0x8(%rax),%rdx
    1634:	8b 45 f0             	mov    -0x10(%rbp),%eax
    1637:	48 98                	cltq   
    1639:	48 c1 e0 03          	shl    $0x3,%rax
    163d:	48 01 d0             	add    %rdx,%rax
    1640:	48 8b 00             	mov    (%rax),%rax
    1643:	48 85 c0             	test   %rax,%rax
    1646:	74 2a                	je     1672 <ezxml_attr+0x92>
/media/ssd-partition/Documents/RootCauseAnalysisPruning/evaluation/test_bin/22-ezXML/ezxml/ezxml.c:82 (discriminator 2)
    1648:	48 8b 45 e8          	mov    -0x18(%rbp),%rax
    164c:	48 8b 50 08          	mov    0x8(%rax),%rdx
    1650:	8b 45 f0             	mov    -0x10(%rbp),%eax
    1653:	48 98                	cltq   
    1655:	48 c1 e0 03          	shl    $0x3,%rax
    1659:	48 01 d0             	add    %rdx,%rax
    165c:	48 8b 10             	mov    (%rax),%rdx
    165f:	48 8b 45 e0          	mov    -0x20(%rbp),%rax
    1663:	48 89 d6             	mov    %rdx,%rsi
    1666:	48 89 c7             	mov    %rax,%rdi
    1669:	e8 f2 fc ff ff       	call   1360 <strcmp@plt>
    166e:	85 c0                	test   %eax,%eax
    1670:	75 b6                	jne    1628 <ezxml_attr+0x48>
/media/ssd-partition/Documents/RootCauseAnalysisPruning/evaluation/test_bin/22-ezXML/ezxml/ezxml.c:83
    if (xml->attr[i]) return xml->attr[i + 1]; // found attribute
    1672:	48 8b 45 e8          	mov    -0x18(%rbp),%rax
    1676:	48 8b 50 08          	mov    0x8(%rax),%rdx
    167a:	8b 45 f0             	mov    -0x10(%rbp),%eax
    167d:	48 98                	cltq   
    167f:	48 c1 e0 03          	shl    $0x3,%rax
    1683:	48 01 d0             	add    %rdx,%rax
    1686:	48 8b 00             	mov    (%rax),%rax
    1689:	48 85 c0             	test   %rax,%rax
    168c:	74 2c                	je     16ba <ezxml_attr+0xda>
/media/ssd-partition/Documents/RootCauseAnalysisPruning/evaluation/test_bin/22-ezXML/ezxml/ezxml.c:83 (discriminator 1)
    168e:	48 8b 45 e8          	mov    -0x18(%rbp),%rax
    1692:	48 8b 50 08          	mov    0x8(%rax),%rdx
    1696:	8b 45 f0             	mov    -0x10(%rbp),%eax
    1699:	48 98                	cltq   
    169b:	48 83 c0 01          	add    $0x1,%rax
    169f:	48 c1 e0 03          	shl    $0x3,%rax
    16a3:	48 01 d0             	add    %rdx,%rax
    16a6:	48 8b 00             	mov    (%rax),%rax
    16a9:	e9 71 01 00 00       	jmp    181f <ezxml_attr+0x23f>
/media/ssd-partition/Documents/RootCauseAnalysisPruning/evaluation/test_bin/22-ezXML/ezxml/ezxml.c:85 (discriminator 2)

    while (root->xml.parent) root = (ezxml_root_t)root->xml.parent; // root tag
    16ae:	48 8b 45 f8          	mov    -0x8(%rbp),%rax
    16b2:	48 8b 40 40          	mov    0x40(%rax),%rax
    16b6:	48 89 45 f8          	mov    %rax,-0x8(%rbp)
/media/ssd-partition/Documents/RootCauseAnalysisPruning/evaluation/test_bin/22-ezXML/ezxml/ezxml.c:85 (discriminator 1)
    16ba:	48 8b 45 f8          	mov    -0x8(%rbp),%rax
    16be:	48 8b 40 40          	mov    0x40(%rax),%rax
    16c2:	48 85 c0             	test   %rax,%rax
    16c5:	75 e7                	jne    16ae <ezxml_attr+0xce>
/media/ssd-partition/Documents/RootCauseAnalysisPruning/evaluation/test_bin/22-ezXML/ezxml/ezxml.c:86
    for (i = 0; root->attr[i] && strcmp(xml->name, root->attr[i][0]); i++);
    16c7:	c7 45 f0 00 00 00 00 	movl   $0x0,-0x10(%rbp)
    16ce:	eb 04                	jmp    16d4 <ezxml_attr+0xf4>
/media/ssd-partition/Documents/RootCauseAnalysisPruning/evaluation/test_bin/22-ezXML/ezxml/ezxml.c:86 (discriminator 4)
    16d0:	83 45 f0 01          	addl   $0x1,-0x10(%rbp)
/media/ssd-partition/Documents/RootCauseAnalysisPruning/evaluation/test_bin/22-ezXML/ezxml/ezxml.c:86 (discriminator 1)
    16d4:	48 8b 45 f8          	mov    -0x8(%rbp),%rax
    16d8:	48 8b 90 88 00 00 00 	mov    0x88(%rax),%rdx
    16df:	8b 45 f0             	mov    -0x10(%rbp),%eax
    16e2:	48 98                	cltq   
    16e4:	48 c1 e0 03          	shl    $0x3,%rax
    16e8:	48 01 d0             	add    %rdx,%rax
    16eb:	48 8b 00             	mov    (%rax),%rax
    16ee:	48 85 c0             	test   %rax,%rax
    16f1:	74 33                	je     1726 <ezxml_attr+0x146>
/media/ssd-partition/Documents/RootCauseAnalysisPruning/evaluation/test_bin/22-ezXML/ezxml/ezxml.c:86 (discriminator 3)
    16f3:	48 8b 45 f8          	mov    -0x8(%rbp),%rax
    16f7:	48 8b 90 88 00 00 00 	mov    0x88(%rax),%rdx
    16fe:	8b 45 f0             	mov    -0x10(%rbp),%eax
    1701:	48 98                	cltq   
    1703:	48 c1 e0 03          	shl    $0x3,%rax
    1707:	48 01 d0             	add    %rdx,%rax
    170a:	48 8b 00             	mov    (%rax),%rax
    170d:	48 8b 10             	mov    (%rax),%rdx
    1710:	48 8b 45 e8          	mov    -0x18(%rbp),%rax
    1714:	48 8b 00             	mov    (%rax),%rax
    1717:	48 89 d6             	mov    %rdx,%rsi
    171a:	48 89 c7             	mov    %rax,%rdi
    171d:	e8 3e fc ff ff       	call   1360 <strcmp@plt>
    1722:	85 c0                	test   %eax,%eax
    1724:	75 aa                	jne    16d0 <ezxml_attr+0xf0>
/media/ssd-partition/Documents/RootCauseAnalysisPruning/evaluation/test_bin/22-ezXML/ezxml/ezxml.c:87
    if (! root->attr[i]) return NULL; // no matching default attributes
    1726:	48 8b 45 f8          	mov    -0x8(%rbp),%rax
    172a:	48 8b 90 88 00 00 00 	mov    0x88(%rax),%rdx
    1731:	8b 45 f0             	mov    -0x10(%rbp),%eax
    1734:	48 98                	cltq   
    1736:	48 c1 e0 03          	shl    $0x3,%rax
    173a:	48 01 d0             	add    %rdx,%rax
    173d:	48 8b 00             	mov    (%rax),%rax
    1740:	48 85 c0             	test   %rax,%rax
    1743:	75 0e                	jne    1753 <ezxml_attr+0x173>
/media/ssd-partition/Documents/RootCauseAnalysisPruning/evaluation/test_bin/22-ezXML/ezxml/ezxml.c:87 (discriminator 1)
    1745:	b8 00 00 00 00       	mov    $0x0,%eax
    174a:	e9 d0 00 00 00       	jmp    181f <ezxml_attr+0x23f>
/media/ssd-partition/Documents/RootCauseAnalysisPruning/evaluation/test_bin/22-ezXML/ezxml/ezxml.c:88 (discriminator 3)
    while (root->attr[i][j] && strcmp(attr, root->attr[i][j])) j += 3;
    174f:	83 45 f4 03          	addl   $0x3,-0xc(%rbp)
/media/ssd-partition/Documents/RootCauseAnalysisPruning/evaluation/test_bin/22-ezXML/ezxml/ezxml.c:88 (discriminator 1)
    1753:	48 8b 45 f8          	mov    -0x8(%rbp),%rax
    1757:	48 8b 90 88 00 00 00 	mov    0x88(%rax),%rdx
    175e:	8b 45 f0             	mov    -0x10(%rbp),%eax
    1761:	48 98                	cltq   
    1763:	48 c1 e0 03          	shl    $0x3,%rax
    1767:	48 01 d0             	add    %rdx,%rax
    176a:	48 8b 10             	mov    (%rax),%rdx
    176d:	8b 45 f4             	mov    -0xc(%rbp),%eax
    1770:	48 98                	cltq   
    1772:	48 c1 e0 03          	shl    $0x3,%rax
    1776:	48 01 d0             	add    %rdx,%rax
    1779:	48 8b 00             	mov    (%rax),%rax
    177c:	48 85 c0             	test   %rax,%rax
    177f:	74 3c                	je     17bd <ezxml_attr+0x1dd>
/media/ssd-partition/Documents/RootCauseAnalysisPruning/evaluation/test_bin/22-ezXML/ezxml/ezxml.c:88 (discriminator 2)
    1781:	48 8b 45 f8          	mov    -0x8(%rbp),%rax
    1785:	48 8b 90 88 00 00 00 	mov    0x88(%rax),%rdx
    178c:	8b 45 f0             	mov    -0x10(%rbp),%eax
    178f:	48 98                	cltq   
    1791:	48 c1 e0 03          	shl    $0x3,%rax
    1795:	48 01 d0             	add    %rdx,%rax
    1798:	48 8b 10             	mov    (%rax),%rdx
    179b:	8b 45 f4             	mov    -0xc(%rbp),%eax
    179e:	48 98                	cltq   
    17a0:	48 c1 e0 03          	shl    $0x3,%rax
    17a4:	48 01 d0             	add    %rdx,%rax
    17a7:	48 8b 10             	mov    (%rax),%rdx
    17aa:	48 8b 45 e0          	mov    -0x20(%rbp),%rax
    17ae:	48 89 d6             	mov    %rdx,%rsi
    17b1:	48 89 c7             	mov    %rax,%rdi
    17b4:	e8 a7 fb ff ff       	call   1360 <strcmp@plt>
    17b9:	85 c0                	test   %eax,%eax
    17bb:	75 92                	jne    174f <ezxml_attr+0x16f>
/media/ssd-partition/Documents/RootCauseAnalysisPruning/evaluation/test_bin/22-ezXML/ezxml/ezxml.c:89
    return (root->attr[i][j]) ? root->attr[i][j + 1] : NULL; // found default
    17bd:	48 8b 45 f8          	mov    -0x8(%rbp),%rax
    17c1:	48 8b 90 88 00 00 00 	mov    0x88(%rax),%rdx
    17c8:	8b 45 f0             	mov    -0x10(%rbp),%eax
    17cb:	48 98                	cltq   
    17cd:	48 c1 e0 03          	shl    $0x3,%rax
    17d1:	48 01 d0             	add    %rdx,%rax
    17d4:	48 8b 10             	mov    (%rax),%rdx
    17d7:	8b 45 f4             	mov    -0xc(%rbp),%eax
    17da:	48 98                	cltq   
    17dc:	48 c1 e0 03          	shl    $0x3,%rax
    17e0:	48 01 d0             	add    %rdx,%rax
    17e3:	48 8b 00             	mov    (%rax),%rax
    17e6:	48 85 c0             	test   %rax,%rax
    17e9:	74 2f                	je     181a <ezxml_attr+0x23a>
/media/ssd-partition/Documents/RootCauseAnalysisPruning/evaluation/test_bin/22-ezXML/ezxml/ezxml.c:89 (discriminator 1)
    17eb:	48 8b 45 f8          	mov    -0x8(%rbp),%rax
    17ef:	48 8b 90 88 00 00 00 	mov    0x88(%rax),%rdx
    17f6:	8b 45 f0             	mov    -0x10(%rbp),%eax
    17f9:	48 98                	cltq   
    17fb:	48 c1 e0 03          	shl    $0x3,%rax
    17ff:	48 01 d0             	add    %rdx,%rax
    1802:	48 8b 10             	mov    (%rax),%rdx
    1805:	8b 45 f4             	mov    -0xc(%rbp),%eax
    1808:	48 98                	cltq   
    180a:	48 83 c0 01          	add    $0x1,%rax
    180e:	48 c1 e0 03          	shl    $0x3,%rax
    1812:	48 01 d0             	add    %rdx,%rax
    1815:	48 8b 00             	mov    (%rax),%rax
    1818:	eb 05                	jmp    181f <ezxml_attr+0x23f>
/media/ssd-partition/Documents/RootCauseAnalysisPruning/evaluation/test_bin/22-ezXML/ezxml/ezxml.c:89 (discriminator 2)
    181a:	b8 00 00 00 00       	mov    $0x0,%eax
/media/ssd-partition/Documents/RootCauseAnalysisPruning/evaluation/test_bin/22-ezXML/ezxml/ezxml.c:90
}
    181f:	c9                   	leave  
    1820:	c3                   	ret    

0000000000001821 <ezxml_vget>:
ezxml_vget():
/media/ssd-partition/Documents/RootCauseAnalysisPruning/evaluation/test_bin/22-ezXML/ezxml/ezxml.c:94

// same as ezxml_get but takes an already initialized va_list
ezxml_t ezxml_vget(ezxml_t xml, va_list ap)
{
    1821:	f3 0f 1e fa          	endbr64 
    1825:	55                   	push   %rbp
    1826:	48 89 e5             	mov    %rsp,%rbp
    1829:	48 83 ec 20          	sub    $0x20,%rsp
    182d:	48 89 7d e8          	mov    %rdi,-0x18(%rbp)
    1831:	48 89 75 e0          	mov    %rsi,-0x20(%rbp)
/media/ssd-partition/Documents/RootCauseAnalysisPruning/evaluation/test_bin/22-ezXML/ezxml/ezxml.c:95
    char *name = va_arg(ap, char *);
    1835:	48 8b 45 e0          	mov    -0x20(%rbp),%rax
    1839:	8b 00                	mov    (%rax),%eax
    183b:	83 f8 2f             	cmp    $0x2f,%eax
    183e:	77 24                	ja     1864 <ezxml_vget+0x43>
    1840:	48 8b 45 e0          	mov    -0x20(%rbp),%rax
    1844:	48 8b 50 10          	mov    0x10(%rax),%rdx
    1848:	48 8b 45 e0          	mov    -0x20(%rbp),%rax
    184c:	8b 00                	mov    (%rax),%eax
    184e:	89 c0                	mov    %eax,%eax
    1850:	48 01 d0             	add    %rdx,%rax
    1853:	48 8b 55 e0          	mov    -0x20(%rbp),%rdx
    1857:	8b 12                	mov    (%rdx),%edx
    1859:	8d 4a 08             	lea    0x8(%rdx),%ecx
    185c:	48 8b 55 e0          	mov    -0x20(%rbp),%rdx
    1860:	89 0a                	mov    %ecx,(%rdx)
    1862:	eb 14                	jmp    1878 <ezxml_vget+0x57>
    1864:	48 8b 45 e0          	mov    -0x20(%rbp),%rax
    1868:	48 8b 40 08          	mov    0x8(%rax),%rax
    186c:	48 8d 48 08          	lea    0x8(%rax),%rcx
    1870:	48 8b 55 e0          	mov    -0x20(%rbp),%rdx
    1874:	48 89 4a 08          	mov    %rcx,0x8(%rdx)
    1878:	48 8b 00             	mov    (%rax),%rax
    187b:	48 89 45 f8          	mov    %rax,-0x8(%rbp)
/media/ssd-partition/Documents/RootCauseAnalysisPruning/evaluation/test_bin/22-ezXML/ezxml/ezxml.c:96
    int idx = -1;
    187f:	c7 45 f4 ff ff ff ff 	movl   $0xffffffff,-0xc(%rbp)
/media/ssd-partition/Documents/RootCauseAnalysisPruning/evaluation/test_bin/22-ezXML/ezxml/ezxml.c:98

    if (name && *name) {
    1886:	48 83 7d f8 00       	cmpq   $0x0,-0x8(%rbp)
    188b:	74 6a                	je     18f7 <ezxml_vget+0xd6>
/media/ssd-partition/Documents/RootCauseAnalysisPruning/evaluation/test_bin/22-ezXML/ezxml/ezxml.c:98 (discriminator 1)
    188d:	48 8b 45 f8          	mov    -0x8(%rbp),%rax
    1891:	0f b6 00             	movzbl (%rax),%eax
    1894:	84 c0                	test   %al,%al
    1896:	74 5f                	je     18f7 <ezxml_vget+0xd6>
/media/ssd-partition/Documents/RootCauseAnalysisPruning/evaluation/test_bin/22-ezXML/ezxml/ezxml.c:99
        idx = va_arg(ap, int);    
    1898:	48 8b 45 e0          	mov    -0x20(%rbp),%rax
    189c:	8b 00                	mov    (%rax),%eax
    189e:	83 f8 2f             	cmp    $0x2f,%eax
    18a1:	77 24                	ja     18c7 <ezxml_vget+0xa6>
    18a3:	48 8b 45 e0          	mov    -0x20(%rbp),%rax
    18a7:	48 8b 50 10          	mov    0x10(%rax),%rdx
    18ab:	48 8b 45 e0          	mov    -0x20(%rbp),%rax
    18af:	8b 00                	mov    (%rax),%eax
    18b1:	89 c0                	mov    %eax,%eax
    18b3:	48 01 d0             	add    %rdx,%rax
    18b6:	48 8b 55 e0          	mov    -0x20(%rbp),%rdx
    18ba:	8b 12                	mov    (%rdx),%edx
    18bc:	8d 4a 08             	lea    0x8(%rdx),%ecx
    18bf:	48 8b 55 e0          	mov    -0x20(%rbp),%rdx
    18c3:	89 0a                	mov    %ecx,(%rdx)
    18c5:	eb 14                	jmp    18db <ezxml_vget+0xba>
    18c7:	48 8b 45 e0          	mov    -0x20(%rbp),%rax
    18cb:	48 8b 40 08          	mov    0x8(%rax),%rax
    18cf:	48 8d 48 08          	lea    0x8(%rax),%rcx
    18d3:	48 8b 55 e0          	mov    -0x20(%rbp),%rdx
    18d7:	48 89 4a 08          	mov    %rcx,0x8(%rdx)
    18db:	8b 00                	mov    (%rax),%eax
    18dd:	89 45 f4             	mov    %eax,-0xc(%rbp)
/media/ssd-partition/Documents/RootCauseAnalysisPruning/evaluation/test_bin/22-ezXML/ezxml/ezxml.c:100
        xml = ezxml_child(xml, name);
    18e0:	48 8b 55 f8          	mov    -0x8(%rbp),%rdx
    18e4:	48 8b 45 e8          	mov    -0x18(%rbp),%rax
    18e8:	48 89 d6             	mov    %rdx,%rsi
    18eb:	48 89 c7             	mov    %rax,%rdi
    18ee:	e8 56 fc ff ff       	call   1549 <ezxml_child>
    18f3:	48 89 45 e8          	mov    %rax,-0x18(%rbp)
/media/ssd-partition/Documents/RootCauseAnalysisPruning/evaluation/test_bin/22-ezXML/ezxml/ezxml.c:102
    }
    return (idx < 0) ? xml : ezxml_vget(ezxml_idx(xml, idx), ap);
    18f7:	83 7d f4 00          	cmpl   $0x0,-0xc(%rbp)
    18fb:	78 25                	js     1922 <ezxml_vget+0x101>
/media/ssd-partition/Documents/RootCauseAnalysisPruning/evaluation/test_bin/22-ezXML/ezxml/ezxml.c:102 (discriminator 1)
    18fd:	8b 55 f4             	mov    -0xc(%rbp),%edx
    1900:	48 8b 45 e8          	mov    -0x18(%rbp),%rax
    1904:	89 d6                	mov    %edx,%esi
    1906:	48 89 c7             	mov    %rax,%rdi
    1909:	e8 9e fc ff ff       	call   15ac <ezxml_idx>
    190e:	48 89 c2             	mov    %rax,%rdx
    1911:	48 8b 45 e0          	mov    -0x20(%rbp),%rax
    1915:	48 89 c6             	mov    %rax,%rsi
    1918:	48 89 d7             	mov    %rdx,%rdi
    191b:	e8 01 ff ff ff       	call   1821 <ezxml_vget>
    1920:	eb 04                	jmp    1926 <ezxml_vget+0x105>
/media/ssd-partition/Documents/RootCauseAnalysisPruning/evaluation/test_bin/22-ezXML/ezxml/ezxml.c:102 (discriminator 2)
    1922:	48 8b 45 e8          	mov    -0x18(%rbp),%rax
/media/ssd-partition/Documents/RootCauseAnalysisPruning/evaluation/test_bin/22-ezXML/ezxml/ezxml.c:103 (discriminator 5)
}
    1926:	c9                   	leave  
    1927:	c3                   	ret    

0000000000001928 <ezxml_get>:
ezxml_get():
/media/ssd-partition/Documents/RootCauseAnalysisPruning/evaluation/test_bin/22-ezXML/ezxml/ezxml.c:112
// by either an index of -1 or an empty string tag name. Example: 
// title = ezxml_get(library, "shelf", 0, "book", 2, "title", -1);
// This retrieves the title of the 3rd book on the 1st shelf of library.
// Returns NULL if not found.
ezxml_t ezxml_get(ezxml_t xml, ...)
{
    1928:	f3 0f 1e fa          	endbr64 
    192c:	55                   	push   %rbp
    192d:	48 89 e5             	mov    %rsp,%rbp
    1930:	48 81 ec f0 00 00 00 	sub    $0xf0,%rsp
    1937:	48 89 bd 18 ff ff ff 	mov    %rdi,-0xe8(%rbp)
    193e:	48 89 b5 58 ff ff ff 	mov    %rsi,-0xa8(%rbp)
    1945:	48 89 95 60 ff ff ff 	mov    %rdx,-0xa0(%rbp)
    194c:	48 89 8d 68 ff ff ff 	mov    %rcx,-0x98(%rbp)
    1953:	4c 89 85 70 ff ff ff 	mov    %r8,-0x90(%rbp)
    195a:	4c 89 8d 78 ff ff ff 	mov    %r9,-0x88(%rbp)
    1961:	84 c0                	test   %al,%al
    1963:	74 20                	je     1985 <ezxml_get+0x5d>
    1965:	0f 29 45 80          	movaps %xmm0,-0x80(%rbp)
    1969:	0f 29 4d 90          	movaps %xmm1,-0x70(%rbp)
    196d:	0f 29 55 a0          	movaps %xmm2,-0x60(%rbp)
    1971:	0f 29 5d b0          	movaps %xmm3,-0x50(%rbp)
    1975:	0f 29 65 c0          	movaps %xmm4,-0x40(%rbp)
    1979:	0f 29 6d d0          	movaps %xmm5,-0x30(%rbp)
    197d:	0f 29 75 e0          	movaps %xmm6,-0x20(%rbp)
    1981:	0f 29 7d f0          	movaps %xmm7,-0x10(%rbp)
    1985:	64 48 8b 04 25 28 00 	mov    %fs:0x28,%rax
    198c:	00 00 
    198e:	48 89 85 48 ff ff ff 	mov    %rax,-0xb8(%rbp)
    1995:	31 c0                	xor    %eax,%eax
/media/ssd-partition/Documents/RootCauseAnalysisPruning/evaluation/test_bin/22-ezXML/ezxml/ezxml.c:116
    va_list ap;
    ezxml_t r;

    va_start(ap, xml);
    1997:	c7 85 30 ff ff ff 08 	movl   $0x8,-0xd0(%rbp)
    199e:	00 00 00 
    19a1:	c7 85 34 ff ff ff 30 	movl   $0x30,-0xcc(%rbp)
    19a8:	00 00 00 
    19ab:	48 8d 45 10          	lea    0x10(%rbp),%rax
    19af:	48 89 85 38 ff ff ff 	mov    %rax,-0xc8(%rbp)
    19b6:	48 8d 85 50 ff ff ff 	lea    -0xb0(%rbp),%rax
    19bd:	48 89 85 40 ff ff ff 	mov    %rax,-0xc0(%rbp)
/media/ssd-partition/Documents/RootCauseAnalysisPruning/evaluation/test_bin/22-ezXML/ezxml/ezxml.c:117
    r = ezxml_vget(xml, ap);
    19c4:	48 8d 95 30 ff ff ff 	lea    -0xd0(%rbp),%rdx
    19cb:	48 8b 85 18 ff ff ff 	mov    -0xe8(%rbp),%rax
    19d2:	48 89 d6             	mov    %rdx,%rsi
    19d5:	48 89 c7             	mov    %rax,%rdi
    19d8:	e8 44 fe ff ff       	call   1821 <ezxml_vget>
    19dd:	48 89 85 28 ff ff ff 	mov    %rax,-0xd8(%rbp)
/media/ssd-partition/Documents/RootCauseAnalysisPruning/evaluation/test_bin/22-ezXML/ezxml/ezxml.c:119
    va_end(ap);
    return r;
    19e4:	48 8b 85 28 ff ff ff 	mov    -0xd8(%rbp),%rax
/media/ssd-partition/Documents/RootCauseAnalysisPruning/evaluation/test_bin/22-ezXML/ezxml/ezxml.c:120
}
    19eb:	48 8b 95 48 ff ff ff 	mov    -0xb8(%rbp),%rdx
    19f2:	64 48 2b 14 25 28 00 	sub    %fs:0x28,%rdx
    19f9:	00 00 
    19fb:	74 05                	je     1a02 <ezxml_get+0xda>
    19fd:	e8 ce f8 ff ff       	call   12d0 <__stack_chk_fail@plt>
    1a02:	c9                   	leave  
    1a03:	c3                   	ret    

0000000000001a04 <ezxml_pi>:
ezxml_pi():
/media/ssd-partition/Documents/RootCauseAnalysisPruning/evaluation/test_bin/22-ezXML/ezxml/ezxml.c:125

// returns a null terminated array of processing instructions for the given
// target
const char **ezxml_pi(ezxml_t xml, const char *target)
{
    1a04:	f3 0f 1e fa          	endbr64 
    1a08:	55                   	push   %rbp
    1a09:	48 89 e5             	mov    %rsp,%rbp
    1a0c:	48 83 ec 20          	sub    $0x20,%rsp
    1a10:	48 89 7d e8          	mov    %rdi,-0x18(%rbp)
    1a14:	48 89 75 e0          	mov    %rsi,-0x20(%rbp)
/media/ssd-partition/Documents/RootCauseAnalysisPruning/evaluation/test_bin/22-ezXML/ezxml/ezxml.c:126
    ezxml_root_t root = (ezxml_root_t)xml;
    1a18:	48 8b 45 e8          	mov    -0x18(%rbp),%rax
    1a1c:	48 89 45 f8          	mov    %rax,-0x8(%rbp)
/media/ssd-partition/Documents/RootCauseAnalysisPruning/evaluation/test_bin/22-ezXML/ezxml/ezxml.c:127
    int i = 0;
    1a20:	c7 45 f4 00 00 00 00 	movl   $0x0,-0xc(%rbp)
/media/ssd-partition/Documents/RootCauseAnalysisPruning/evaluation/test_bin/22-ezXML/ezxml/ezxml.c:129

    if (! root) return (const char **)EZXML_NIL;
    1a27:	48 83 7d f8 00       	cmpq   $0x0,-0x8(%rbp)
    1a2c:	75 18                	jne    1a46 <ezxml_pi+0x42>
/media/ssd-partition/Documents/RootCauseAnalysisPruning/evaluation/test_bin/22-ezXML/ezxml/ezxml.c:129 (discriminator 1)
    1a2e:	48 8d 05 5b 76 00 00 	lea    0x765b(%rip),%rax        # 9090 <EZXML_NIL>
    1a35:	e9 b4 00 00 00       	jmp    1aee <ezxml_pi+0xea>
/media/ssd-partition/Documents/RootCauseAnalysisPruning/evaluation/test_bin/22-ezXML/ezxml/ezxml.c:130 (discriminator 2)
    while (root->xml.parent) root = (ezxml_root_t)root->xml.parent; // root tag
    1a3a:	48 8b 45 f8          	mov    -0x8(%rbp),%rax
    1a3e:	48 8b 40 40          	mov    0x40(%rax),%rax
    1a42:	48 89 45 f8          	mov    %rax,-0x8(%rbp)
/media/ssd-partition/Documents/RootCauseAnalysisPruning/evaluation/test_bin/22-ezXML/ezxml/ezxml.c:130 (discriminator 1)
    1a46:	48 8b 45 f8          	mov    -0x8(%rbp),%rax
    1a4a:	48 8b 40 40          	mov    0x40(%rax),%rax
    1a4e:	48 85 c0             	test   %rax,%rax
    1a51:	75 e7                	jne    1a3a <ezxml_pi+0x36>
/media/ssd-partition/Documents/RootCauseAnalysisPruning/evaluation/test_bin/22-ezXML/ezxml/ezxml.c:131
    while (root->pi[i] && strcmp(target, root->pi[i][0])) i++; // find target
    1a53:	eb 04                	jmp    1a59 <ezxml_pi+0x55>
/media/ssd-partition/Documents/RootCauseAnalysisPruning/evaluation/test_bin/22-ezXML/ezxml/ezxml.c:131 (discriminator 3)
    1a55:	83 45 f4 01          	addl   $0x1,-0xc(%rbp)
/media/ssd-partition/Documents/RootCauseAnalysisPruning/evaluation/test_bin/22-ezXML/ezxml/ezxml.c:131 (discriminator 1)
    1a59:	48 8b 45 f8          	mov    -0x8(%rbp),%rax
    1a5d:	48 8b 90 90 00 00 00 	mov    0x90(%rax),%rdx
    1a64:	8b 45 f4             	mov    -0xc(%rbp),%eax
    1a67:	48 98                	cltq   
    1a69:	48 c1 e0 03          	shl    $0x3,%rax
    1a6d:	48 01 d0             	add    %rdx,%rax
    1a70:	48 8b 00             	mov    (%rax),%rax
    1a73:	48 85 c0             	test   %rax,%rax
    1a76:	74 30                	je     1aa8 <ezxml_pi+0xa4>
/media/ssd-partition/Documents/RootCauseAnalysisPruning/evaluation/test_bin/22-ezXML/ezxml/ezxml.c:131 (discriminator 2)
    1a78:	48 8b 45 f8          	mov    -0x8(%rbp),%rax
    1a7c:	48 8b 90 90 00 00 00 	mov    0x90(%rax),%rdx
    1a83:	8b 45 f4             	mov    -0xc(%rbp),%eax
    1a86:	48 98                	cltq   
    1a88:	48 c1 e0 03          	shl    $0x3,%rax
    1a8c:	48 01 d0             	add    %rdx,%rax
    1a8f:	48 8b 00             	mov    (%rax),%rax
    1a92:	48 8b 10             	mov    (%rax),%rdx
    1a95:	48 8b 45 e0          	mov    -0x20(%rbp),%rax
    1a99:	48 89 d6             	mov    %rdx,%rsi
    1a9c:	48 89 c7             	mov    %rax,%rdi
    1a9f:	e8 bc f8 ff ff       	call   1360 <strcmp@plt>
    1aa4:	85 c0                	test   %eax,%eax
    1aa6:	75 ad                	jne    1a55 <ezxml_pi+0x51>
/media/ssd-partition/Documents/RootCauseAnalysisPruning/evaluation/test_bin/22-ezXML/ezxml/ezxml.c:132
    return (const char **)((root->pi[i]) ? root->pi[i] + 1 : EZXML_NIL);
    1aa8:	48 8b 45 f8          	mov    -0x8(%rbp),%rax
    1aac:	48 8b 90 90 00 00 00 	mov    0x90(%rax),%rdx
    1ab3:	8b 45 f4             	mov    -0xc(%rbp),%eax
    1ab6:	48 98                	cltq   
    1ab8:	48 c1 e0 03          	shl    $0x3,%rax
    1abc:	48 01 d0             	add    %rdx,%rax
    1abf:	48 8b 00             	mov    (%rax),%rax
    1ac2:	48 85 c0             	test   %rax,%rax
    1ac5:	74 20                	je     1ae7 <ezxml_pi+0xe3>
/media/ssd-partition/Documents/RootCauseAnalysisPruning/evaluation/test_bin/22-ezXML/ezxml/ezxml.c:132 (discriminator 1)
    1ac7:	48 8b 45 f8          	mov    -0x8(%rbp),%rax
    1acb:	48 8b 90 90 00 00 00 	mov    0x90(%rax),%rdx
    1ad2:	8b 45 f4             	mov    -0xc(%rbp),%eax
    1ad5:	48 98                	cltq   
    1ad7:	48 c1 e0 03          	shl    $0x3,%rax
    1adb:	48 01 d0             	add    %rdx,%rax
    1ade:	48 8b 00             	mov    (%rax),%rax
    1ae1:	48 83 c0 08          	add    $0x8,%rax
    1ae5:	eb 07                	jmp    1aee <ezxml_pi+0xea>
/media/ssd-partition/Documents/RootCauseAnalysisPruning/evaluation/test_bin/22-ezXML/ezxml/ezxml.c:132 (discriminator 2)
    1ae7:	48 8d 05 a2 75 00 00 	lea    0x75a2(%rip),%rax        # 9090 <EZXML_NIL>
/media/ssd-partition/Documents/RootCauseAnalysisPruning/evaluation/test_bin/22-ezXML/ezxml/ezxml.c:133
}
    1aee:	c9                   	leave  
    1aef:	c3                   	ret    

0000000000001af0 <ezxml_err>:
ezxml_err():
/media/ssd-partition/Documents/RootCauseAnalysisPruning/evaluation/test_bin/22-ezXML/ezxml/ezxml.c:137

// set an error string and return root
ezxml_t ezxml_err(ezxml_root_t root, char *s, const char *err, ...)
{
    1af0:	f3 0f 1e fa          	endbr64 
    1af4:	55                   	push   %rbp
    1af5:	48 89 e5             	mov    %rsp,%rbp
    1af8:	48 81 ec 90 01 00 00 	sub    $0x190,%rsp
    1aff:	48 89 bd 88 fe ff ff 	mov    %rdi,-0x178(%rbp)
    1b06:	48 89 b5 80 fe ff ff 	mov    %rsi,-0x180(%rbp)
    1b0d:	48 89 95 78 fe ff ff 	mov    %rdx,-0x188(%rbp)
    1b14:	48 89 8d 68 ff ff ff 	mov    %rcx,-0x98(%rbp)
    1b1b:	4c 89 85 70 ff ff ff 	mov    %r8,-0x90(%rbp)
    1b22:	4c 89 8d 78 ff ff ff 	mov    %r9,-0x88(%rbp)
    1b29:	84 c0                	test   %al,%al
    1b2b:	74 20                	je     1b4d <ezxml_err+0x5d>
    1b2d:	0f 29 45 80          	movaps %xmm0,-0x80(%rbp)
    1b31:	0f 29 4d 90          	movaps %xmm1,-0x70(%rbp)
    1b35:	0f 29 55 a0          	movaps %xmm2,-0x60(%rbp)
    1b39:	0f 29 5d b0          	movaps %xmm3,-0x50(%rbp)
    1b3d:	0f 29 65 c0          	movaps %xmm4,-0x40(%rbp)
    1b41:	0f 29 6d d0          	movaps %xmm5,-0x30(%rbp)
    1b45:	0f 29 75 e0          	movaps %xmm6,-0x20(%rbp)
    1b49:	0f 29 7d f0          	movaps %xmm7,-0x10(%rbp)
    1b4d:	64 48 8b 04 25 28 00 	mov    %fs:0x28,%rax
    1b54:	00 00 
    1b56:	48 89 85 48 ff ff ff 	mov    %rax,-0xb8(%rbp)
    1b5d:	31 c0                	xor    %eax,%eax
/media/ssd-partition/Documents/RootCauseAnalysisPruning/evaluation/test_bin/22-ezXML/ezxml/ezxml.c:139
    va_list ap;
    int line = 1;
    1b5f:	c7 85 9c fe ff ff 01 	movl   $0x1,-0x164(%rbp)
    1b66:	00 00 00 
/media/ssd-partition/Documents/RootCauseAnalysisPruning/evaluation/test_bin/22-ezXML/ezxml/ezxml.c:142
    char *t, fmt[EZXML_ERRL];
    
    for (t = root->s; t < s; t++) if (*t == '\n') line++;
    1b69:	48 8b 85 88 fe ff ff 	mov    -0x178(%rbp),%rax
    1b70:	48 8b 40 70          	mov    0x70(%rax),%rax
    1b74:	48 89 85 a0 fe ff ff 	mov    %rax,-0x160(%rbp)
    1b7b:	eb 1d                	jmp    1b9a <ezxml_err+0xaa>
/media/ssd-partition/Documents/RootCauseAnalysisPruning/evaluation/test_bin/22-ezXML/ezxml/ezxml.c:142 (discriminator 6)
    1b7d:	48 8b 85 a0 fe ff ff 	mov    -0x160(%rbp),%rax
    1b84:	0f b6 00             	movzbl (%rax),%eax
    1b87:	3c 0a                	cmp    $0xa,%al
    1b89:	75 07                	jne    1b92 <ezxml_err+0xa2>
/media/ssd-partition/Documents/RootCauseAnalysisPruning/evaluation/test_bin/22-ezXML/ezxml/ezxml.c:142 (discriminator 2)
    1b8b:	83 85 9c fe ff ff 01 	addl   $0x1,-0x164(%rbp)
/media/ssd-partition/Documents/RootCauseAnalysisPruning/evaluation/test_bin/22-ezXML/ezxml/ezxml.c:142 (discriminator 4)
    1b92:	48 83 85 a0 fe ff ff 	addq   $0x1,-0x160(%rbp)
    1b99:	01 
/media/ssd-partition/Documents/RootCauseAnalysisPruning/evaluation/test_bin/22-ezXML/ezxml/ezxml.c:142 (discriminator 5)
    1b9a:	48 8b 85 a0 fe ff ff 	mov    -0x160(%rbp),%rax
    1ba1:	48 3b 85 80 fe ff ff 	cmp    -0x180(%rbp),%rax
    1ba8:	72 d3                	jb     1b7d <ezxml_err+0x8d>
/media/ssd-partition/Documents/RootCauseAnalysisPruning/evaluation/test_bin/22-ezXML/ezxml/ezxml.c:143
    snprintf(fmt, EZXML_ERRL, "[error near line %d]: %s", line, err);
    1baa:	48 8b 8d 78 fe ff ff 	mov    -0x188(%rbp),%rcx
    1bb1:	8b 95 9c fe ff ff    	mov    -0x164(%rbp),%edx
    1bb7:	48 8d 85 c0 fe ff ff 	lea    -0x140(%rbp),%rax
    1bbe:	49 89 c8             	mov    %rcx,%r8
    1bc1:	89 d1                	mov    %edx,%ecx
    1bc3:	48 8d 15 3e 54 00 00 	lea    0x543e(%rip),%rdx        # 7008 <_IO_stdin_used+0x8>
    1bca:	be 80 00 00 00       	mov    $0x80,%esi
    1bcf:	48 89 c7             	mov    %rax,%rdi
    1bd2:	b8 00 00 00 00       	mov    $0x0,%eax
    1bd7:	e8 24 f7 ff ff       	call   1300 <snprintf@plt>
/media/ssd-partition/Documents/RootCauseAnalysisPruning/evaluation/test_bin/22-ezXML/ezxml/ezxml.c:145

    va_start(ap, err);
    1bdc:	c7 85 a8 fe ff ff 18 	movl   $0x18,-0x158(%rbp)
    1be3:	00 00 00 
    1be6:	c7 85 ac fe ff ff 30 	movl   $0x30,-0x154(%rbp)
    1bed:	00 00 00 
    1bf0:	48 8d 45 10          	lea    0x10(%rbp),%rax
    1bf4:	48 89 85 b0 fe ff ff 	mov    %rax,-0x150(%rbp)
    1bfb:	48 8d 85 50 ff ff ff 	lea    -0xb0(%rbp),%rax
    1c02:	48 89 85 b8 fe ff ff 	mov    %rax,-0x148(%rbp)
/media/ssd-partition/Documents/RootCauseAnalysisPruning/evaluation/test_bin/22-ezXML/ezxml/ezxml.c:146
    vsnprintf(root->err, EZXML_ERRL, fmt, ap);
    1c09:	48 8b 85 88 fe ff ff 	mov    -0x178(%rbp),%rax
    1c10:	48 8d b8 9a 00 00 00 	lea    0x9a(%rax),%rdi
    1c17:	48 8d 95 a8 fe ff ff 	lea    -0x158(%rbp),%rdx
    1c1e:	48 8d 85 c0 fe ff ff 	lea    -0x140(%rbp),%rax
    1c25:	48 89 d1             	mov    %rdx,%rcx
    1c28:	48 89 c2             	mov    %rax,%rdx
    1c2b:	be 80 00 00 00       	mov    $0x80,%esi
    1c30:	e8 7b f6 ff ff       	call   12b0 <vsnprintf@plt>
/media/ssd-partition/Documents/RootCauseAnalysisPruning/evaluation/test_bin/22-ezXML/ezxml/ezxml.c:149
    va_end(ap);

    return &root->xml;
    1c35:	48 8b 85 88 fe ff ff 	mov    -0x178(%rbp),%rax
/media/ssd-partition/Documents/RootCauseAnalysisPruning/evaluation/test_bin/22-ezXML/ezxml/ezxml.c:150
}
    1c3c:	48 8b 95 48 ff ff ff 	mov    -0xb8(%rbp),%rdx
    1c43:	64 48 2b 14 25 28 00 	sub    %fs:0x28,%rdx
    1c4a:	00 00 
    1c4c:	74 05                	je     1c53 <ezxml_err+0x163>
    1c4e:	e8 7d f6 ff ff       	call   12d0 <__stack_chk_fail@plt>
    1c53:	c9                   	leave  
    1c54:	c3                   	ret    

0000000000001c55 <ezxml_decode>:
ezxml_decode():
/media/ssd-partition/Documents/RootCauseAnalysisPruning/evaluation/test_bin/22-ezXML/ezxml/ezxml.c:159
// to '&' for general entity decoding, '%' for parameter entity decoding, 'c'
// for cdata sections, ' ' for attribute normalization, or '*' for non-cdata
// attribute normalization. Returns s, or if the decoded string is longer than
// s, returns a malloced string that must be freed.
char *ezxml_decode(char *s, char **ent, char t)
{
    1c55:	f3 0f 1e fa          	endbr64 
    1c59:	55                   	push   %rbp
    1c5a:	48 89 e5             	mov    %rsp,%rbp
    1c5d:	53                   	push   %rbx
    1c5e:	48 83 ec 68          	sub    $0x68,%rsp
    1c62:	48 89 7d a8          	mov    %rdi,-0x58(%rbp)
    1c66:	48 89 75 a0          	mov    %rsi,-0x60(%rbp)
    1c6a:	89 d0                	mov    %edx,%eax
    1c6c:	88 45 9c             	mov    %al,-0x64(%rbp)
    1c6f:	64 48 8b 04 25 28 00 	mov    %fs:0x28,%rax
    1c76:	00 00 
    1c78:	48 89 45 e8          	mov    %rax,-0x18(%rbp)
    1c7c:	31 c0                	xor    %eax,%eax
/media/ssd-partition/Documents/RootCauseAnalysisPruning/evaluation/test_bin/22-ezXML/ezxml/ezxml.c:160
    char *e, *r = s, *m = s;
    1c7e:	48 8b 45 a8          	mov    -0x58(%rbp),%rax
    1c82:	48 89 45 b8          	mov    %rax,-0x48(%rbp)
    1c86:	48 8b 45 a8          	mov    -0x58(%rbp),%rax
    1c8a:	48 89 45 d8          	mov    %rax,-0x28(%rbp)
/media/ssd-partition/Documents/RootCauseAnalysisPruning/evaluation/test_bin/22-ezXML/ezxml/ezxml.c:163
    long b, c, d, l;

    for (; *s; s++) { // normalize line endings
    1c8e:	eb 50                	jmp    1ce0 <ezxml_decode+0x8b>
/media/ssd-partition/Documents/RootCauseAnalysisPruning/evaluation/test_bin/22-ezXML/ezxml/ezxml.c:165
        while (*s == '\r') {
            *(s++) = '\n';
    1c90:	48 8b 45 a8          	mov    -0x58(%rbp),%rax
    1c94:	48 8d 50 01          	lea    0x1(%rax),%rdx
    1c98:	48 89 55 a8          	mov    %rdx,-0x58(%rbp)
    1c9c:	c6 00 0a             	movb   $0xa,(%rax)
/media/ssd-partition/Documents/RootCauseAnalysisPruning/evaluation/test_bin/22-ezXML/ezxml/ezxml.c:166
            if (*s == '\n') memmove(s, (s + 1), strlen(s));
    1c9f:	48 8b 45 a8          	mov    -0x58(%rbp),%rax
    1ca3:	0f b6 00             	movzbl (%rax),%eax
    1ca6:	3c 0a                	cmp    $0xa,%al
    1ca8:	75 26                	jne    1cd0 <ezxml_decode+0x7b>
/media/ssd-partition/Documents/RootCauseAnalysisPruning/evaluation/test_bin/22-ezXML/ezxml/ezxml.c:166 (discriminator 1)
    1caa:	48 8b 45 a8          	mov    -0x58(%rbp),%rax
    1cae:	48 89 c7             	mov    %rax,%rdi
    1cb1:	e8 0a f6 ff ff       	call   12c0 <strlen@plt>
    1cb6:	48 89 c2             	mov    %rax,%rdx
    1cb9:	48 8b 45 a8          	mov    -0x58(%rbp),%rax
    1cbd:	48 8d 48 01          	lea    0x1(%rax),%rcx
    1cc1:	48 8b 45 a8          	mov    -0x58(%rbp),%rax
    1cc5:	48 89 ce             	mov    %rcx,%rsi
    1cc8:	48 89 c7             	mov    %rax,%rdi
    1ccb:	e8 10 f7 ff ff       	call   13e0 <memmove@plt>
/media/ssd-partition/Documents/RootCauseAnalysisPruning/evaluation/test_bin/22-ezXML/ezxml/ezxml.c:164
        while (*s == '\r') {
    1cd0:	48 8b 45 a8          	mov    -0x58(%rbp),%rax
    1cd4:	0f b6 00             	movzbl (%rax),%eax
    1cd7:	3c 0d                	cmp    $0xd,%al
    1cd9:	74 b5                	je     1c90 <ezxml_decode+0x3b>
/media/ssd-partition/Documents/RootCauseAnalysisPruning/evaluation/test_bin/22-ezXML/ezxml/ezxml.c:163
    for (; *s; s++) { // normalize line endings
    1cdb:	48 83 45 a8 01       	addq   $0x1,-0x58(%rbp)
/media/ssd-partition/Documents/RootCauseAnalysisPruning/evaluation/test_bin/22-ezXML/ezxml/ezxml.c:163 (discriminator 1)
    1ce0:	48 8b 45 a8          	mov    -0x58(%rbp),%rax
    1ce4:	0f b6 00             	movzbl (%rax),%eax
    1ce7:	84 c0                	test   %al,%al
    1ce9:	75 e5                	jne    1cd0 <ezxml_decode+0x7b>
/media/ssd-partition/Documents/RootCauseAnalysisPruning/evaluation/test_bin/22-ezXML/ezxml/ezxml.c:170
        }
    }
    
    for (s = r; ; ) {
    1ceb:	48 8b 45 b8          	mov    -0x48(%rbp),%rax
    1cef:	48 89 45 a8          	mov    %rax,-0x58(%rbp)
/media/ssd-partition/Documents/RootCauseAnalysisPruning/evaluation/test_bin/22-ezXML/ezxml/ezxml.c:171
        while (*s && *s != '&' && (*s != '%' || t != '%') && !isspace(*s)) s++;
    1cf3:	eb 05                	jmp    1cfa <ezxml_decode+0xa5>
/media/ssd-partition/Documents/RootCauseAnalysisPruning/evaluation/test_bin/22-ezXML/ezxml/ezxml.c:171 (discriminator 7)
    1cf5:	48 83 45 a8 01       	addq   $0x1,-0x58(%rbp)
/media/ssd-partition/Documents/RootCauseAnalysisPruning/evaluation/test_bin/22-ezXML/ezxml/ezxml.c:171 (discriminator 1)
    1cfa:	48 8b 45 a8          	mov    -0x58(%rbp),%rax
    1cfe:	0f b6 00             	movzbl (%rax),%eax
    1d01:	84 c0                	test   %al,%al
    1d03:	74 44                	je     1d49 <ezxml_decode+0xf4>
/media/ssd-partition/Documents/RootCauseAnalysisPruning/evaluation/test_bin/22-ezXML/ezxml/ezxml.c:171 (discriminator 2)
    1d05:	48 8b 45 a8          	mov    -0x58(%rbp),%rax
    1d09:	0f b6 00             	movzbl (%rax),%eax
    1d0c:	3c 26                	cmp    $0x26,%al
    1d0e:	74 39                	je     1d49 <ezxml_decode+0xf4>
/media/ssd-partition/Documents/RootCauseAnalysisPruning/evaluation/test_bin/22-ezXML/ezxml/ezxml.c:171 (discriminator 3)
    1d10:	48 8b 45 a8          	mov    -0x58(%rbp),%rax
    1d14:	0f b6 00             	movzbl (%rax),%eax
    1d17:	3c 25                	cmp    $0x25,%al
    1d19:	75 06                	jne    1d21 <ezxml_decode+0xcc>
/media/ssd-partition/Documents/RootCauseAnalysisPruning/evaluation/test_bin/22-ezXML/ezxml/ezxml.c:171 (discriminator 5)
    1d1b:	80 7d 9c 25          	cmpb   $0x25,-0x64(%rbp)
    1d1f:	74 28                	je     1d49 <ezxml_decode+0xf4>
/media/ssd-partition/Documents/RootCauseAnalysisPruning/evaluation/test_bin/22-ezXML/ezxml/ezxml.c:171 (discriminator 6)
    1d21:	e8 2a f7 ff ff       	call   1450 <__ctype_b_loc@plt>
    1d26:	48 8b 10             	mov    (%rax),%rdx
    1d29:	48 8b 45 a8          	mov    -0x58(%rbp),%rax
    1d2d:	0f b6 00             	movzbl (%rax),%eax
    1d30:	48 0f be c0          	movsbq %al,%rax
    1d34:	48 01 c0             	add    %rax,%rax
    1d37:	48 01 d0             	add    %rdx,%rax
    1d3a:	0f b7 00             	movzwl (%rax),%eax
    1d3d:	0f b7 c0             	movzwl %ax,%eax
    1d40:	25 00 20 00 00       	and    $0x2000,%eax
    1d45:	85 c0                	test   %eax,%eax
    1d47:	74 ac                	je     1cf5 <ezxml_decode+0xa0>
/media/ssd-partition/Documents/RootCauseAnalysisPruning/evaluation/test_bin/22-ezXML/ezxml/ezxml.c:173

        if (! *s) break;
    1d49:	48 8b 45 a8          	mov    -0x58(%rbp),%rax
    1d4d:	0f b6 00             	movzbl (%rax),%eax
    1d50:	84 c0                	test   %al,%al
    1d52:	0f 84 4a 04 00 00    	je     21a2 <ezxml_decode+0x54d>
/media/ssd-partition/Documents/RootCauseAnalysisPruning/evaluation/test_bin/22-ezXML/ezxml/ezxml.c:174
        else if (t != 'c' && ! strncmp(s, "&#", 2)) { // character reference
    1d58:	80 7d 9c 63          	cmpb   $0x63,-0x64(%rbp)
    1d5c:	0f 84 db 01 00 00    	je     1f3d <ezxml_decode+0x2e8>
/media/ssd-partition/Documents/RootCauseAnalysisPruning/evaluation/test_bin/22-ezXML/ezxml/ezxml.c:174 (discriminator 1)
    1d62:	48 8b 45 a8          	mov    -0x58(%rbp),%rax
    1d66:	ba 02 00 00 00       	mov    $0x2,%edx
    1d6b:	48 8d 0d af 52 00 00 	lea    0x52af(%rip),%rcx        # 7021 <_IO_stdin_used+0x21>
    1d72:	48 89 ce             	mov    %rcx,%rsi
    1d75:	48 89 c7             	mov    %rax,%rdi
    1d78:	e8 f3 f4 ff ff       	call   1270 <strncmp@plt>
    1d7d:	85 c0                	test   %eax,%eax
    1d7f:	0f 85 b8 01 00 00    	jne    1f3d <ezxml_decode+0x2e8>
/media/ssd-partition/Documents/RootCauseAnalysisPruning/evaluation/test_bin/22-ezXML/ezxml/ezxml.c:175
            if (s[2] == 'x') c = strtol(s + 3, &e, 16); // base 16
    1d85:	48 8b 45 a8          	mov    -0x58(%rbp),%rax
    1d89:	48 83 c0 02          	add    $0x2,%rax
    1d8d:	0f b6 00             	movzbl (%rax),%eax
    1d90:	3c 78                	cmp    $0x78,%al
    1d92:	75 22                	jne    1db6 <ezxml_decode+0x161>
/media/ssd-partition/Documents/RootCauseAnalysisPruning/evaluation/test_bin/22-ezXML/ezxml/ezxml.c:175 (discriminator 1)
    1d94:	48 8b 45 a8          	mov    -0x58(%rbp),%rax
    1d98:	48 8d 48 03          	lea    0x3(%rax),%rcx
    1d9c:	48 8d 45 b0          	lea    -0x50(%rbp),%rax
    1da0:	ba 10 00 00 00       	mov    $0x10,%edx
    1da5:	48 89 c6             	mov    %rax,%rsi
    1da8:	48 89 cf             	mov    %rcx,%rdi
    1dab:	e8 d0 f5 ff ff       	call   1380 <strtol@plt>
    1db0:	48 89 45 c8          	mov    %rax,-0x38(%rbp)
    1db4:	eb 20                	jmp    1dd6 <ezxml_decode+0x181>
/media/ssd-partition/Documents/RootCauseAnalysisPruning/evaluation/test_bin/22-ezXML/ezxml/ezxml.c:176
            else c = strtol(s + 2, &e, 10); // base 10
    1db6:	48 8b 45 a8          	mov    -0x58(%rbp),%rax
    1dba:	48 8d 48 02          	lea    0x2(%rax),%rcx
    1dbe:	48 8d 45 b0          	lea    -0x50(%rbp),%rax
    1dc2:	ba 0a 00 00 00       	mov    $0xa,%edx
    1dc7:	48 89 c6             	mov    %rax,%rsi
    1dca:	48 89 cf             	mov    %rcx,%rdi
    1dcd:	e8 ae f5 ff ff       	call   1380 <strtol@plt>
    1dd2:	48 89 45 c8          	mov    %rax,-0x38(%rbp)
/media/ssd-partition/Documents/RootCauseAnalysisPruning/evaluation/test_bin/22-ezXML/ezxml/ezxml.c:177
            if (! c || *e != ';') { s++; continue; } // not a character ref
    1dd6:	48 83 7d c8 00       	cmpq   $0x0,-0x38(%rbp)
    1ddb:	74 0b                	je     1de8 <ezxml_decode+0x193>
/media/ssd-partition/Documents/RootCauseAnalysisPruning/evaluation/test_bin/22-ezXML/ezxml/ezxml.c:177 (discriminator 2)
    1ddd:	48 8b 45 b0          	mov    -0x50(%rbp),%rax
    1de1:	0f b6 00             	movzbl (%rax),%eax
    1de4:	3c 3b                	cmp    $0x3b,%al
    1de6:	74 0a                	je     1df2 <ezxml_decode+0x19d>
/media/ssd-partition/Documents/RootCauseAnalysisPruning/evaluation/test_bin/22-ezXML/ezxml/ezxml.c:177 (discriminator 3)
    1de8:	48 83 45 a8 01       	addq   $0x1,-0x58(%rbp)
    1ded:	e9 ab 03 00 00       	jmp    219d <ezxml_decode+0x548>
/media/ssd-partition/Documents/RootCauseAnalysisPruning/evaluation/test_bin/22-ezXML/ezxml/ezxml.c:179

            if (c < 0x80) *(s++) = c; // US-ASCII subset
    1df2:	48 83 7d c8 7f       	cmpq   $0x7f,-0x38(%rbp)
    1df7:	7f 17                	jg     1e10 <ezxml_decode+0x1bb>
/media/ssd-partition/Documents/RootCauseAnalysisPruning/evaluation/test_bin/22-ezXML/ezxml/ezxml.c:179 (discriminator 1)
    1df9:	48 8b 45 a8          	mov    -0x58(%rbp),%rax
    1dfd:	48 8d 50 01          	lea    0x1(%rax),%rdx
    1e01:	48 89 55 a8          	mov    %rdx,-0x58(%rbp)
    1e05:	48 8b 55 c8          	mov    -0x38(%rbp),%rdx
    1e09:	88 10                	mov    %dl,(%rax)
    1e0b:	e9 e5 00 00 00       	jmp    1ef5 <ezxml_decode+0x2a0>
/media/ssd-partition/Documents/RootCauseAnalysisPruning/evaluation/test_bin/22-ezXML/ezxml/ezxml.c:181
            else { // multi-byte UTF-8 sequence
                for (b = 0, d = c; d; d /= 2) b++; // number of bits in c
    1e10:	48 c7 45 c0 00 00 00 	movq   $0x0,-0x40(%rbp)
    1e17:	00 
    1e18:	48 8b 45 c8          	mov    -0x38(%rbp),%rax
    1e1c:	48 89 45 d0          	mov    %rax,-0x30(%rbp)
    1e20:	eb 1a                	jmp    1e3c <ezxml_decode+0x1e7>
/media/ssd-partition/Documents/RootCauseAnalysisPruning/evaluation/test_bin/22-ezXML/ezxml/ezxml.c:181 (discriminator 3)
    1e22:	48 83 45 c0 01       	addq   $0x1,-0x40(%rbp)
    1e27:	48 8b 45 d0          	mov    -0x30(%rbp),%rax
    1e2b:	48 89 c2             	mov    %rax,%rdx
    1e2e:	48 c1 ea 3f          	shr    $0x3f,%rdx
    1e32:	48 01 d0             	add    %rdx,%rax
    1e35:	48 d1 f8             	sar    %rax
    1e38:	48 89 45 d0          	mov    %rax,-0x30(%rbp)
/media/ssd-partition/Documents/RootCauseAnalysisPruning/evaluation/test_bin/22-ezXML/ezxml/ezxml.c:181 (discriminator 1)
    1e3c:	48 83 7d d0 00       	cmpq   $0x0,-0x30(%rbp)
    1e41:	75 df                	jne    1e22 <ezxml_decode+0x1cd>
/media/ssd-partition/Documents/RootCauseAnalysisPruning/evaluation/test_bin/22-ezXML/ezxml/ezxml.c:182
                b = (b - 2) / 5; // number of bytes in payload
    1e43:	48 8b 45 c0          	mov    -0x40(%rbp),%rax
    1e47:	48 8d 48 fe          	lea    -0x2(%rax),%rcx
    1e4b:	48 ba 67 66 66 66 66 	movabs $0x6666666666666667,%rdx
    1e52:	66 66 66 
    1e55:	48 89 c8             	mov    %rcx,%rax
    1e58:	48 f7 ea             	imul   %rdx
    1e5b:	48 89 d0             	mov    %rdx,%rax
    1e5e:	48 d1 f8             	sar    %rax
    1e61:	48 c1 f9 3f          	sar    $0x3f,%rcx
    1e65:	48 89 ca             	mov    %rcx,%rdx
    1e68:	48 29 d0             	sub    %rdx,%rax
    1e6b:	48 89 45 c0          	mov    %rax,-0x40(%rbp)
/media/ssd-partition/Documents/RootCauseAnalysisPruning/evaluation/test_bin/22-ezXML/ezxml/ezxml.c:183
                *(s++) = (0xFF << (7 - b)) | (c >> (6 * b)); // head
    1e6f:	48 8b 45 c0          	mov    -0x40(%rbp),%rax
    1e73:	89 c2                	mov    %eax,%edx
    1e75:	b8 07 00 00 00       	mov    $0x7,%eax
    1e7a:	29 d0                	sub    %edx,%eax
    1e7c:	ba ff 00 00 00       	mov    $0xff,%edx
    1e81:	89 c1                	mov    %eax,%ecx
    1e83:	d3 e2                	shl    %cl,%edx
    1e85:	89 d0                	mov    %edx,%eax
    1e87:	89 c6                	mov    %eax,%esi
    1e89:	48 8b 45 c0          	mov    -0x40(%rbp),%rax
    1e8d:	89 c2                	mov    %eax,%edx
    1e8f:	89 d0                	mov    %edx,%eax
    1e91:	01 c0                	add    %eax,%eax
    1e93:	01 d0                	add    %edx,%eax
    1e95:	01 c0                	add    %eax,%eax
    1e97:	89 c2                	mov    %eax,%edx
    1e99:	48 8b 45 c8          	mov    -0x38(%rbp),%rax
    1e9d:	89 d1                	mov    %edx,%ecx
    1e9f:	48 d3 f8             	sar    %cl,%rax
    1ea2:	89 c1                	mov    %eax,%ecx
    1ea4:	48 8b 45 a8          	mov    -0x58(%rbp),%rax
    1ea8:	48 8d 50 01          	lea    0x1(%rax),%rdx
    1eac:	48 89 55 a8          	mov    %rdx,-0x58(%rbp)
    1eb0:	09 ce                	or     %ecx,%esi
    1eb2:	89 f2                	mov    %esi,%edx
    1eb4:	88 10                	mov    %dl,(%rax)
/media/ssd-partition/Documents/RootCauseAnalysisPruning/evaluation/test_bin/22-ezXML/ezxml/ezxml.c:184
                while (b) *(s++) = 0x80 | ((c >> (6 * --b)) & 0x3F); // payload
    1eb6:	eb 36                	jmp    1eee <ezxml_decode+0x299>
/media/ssd-partition/Documents/RootCauseAnalysisPruning/evaluation/test_bin/22-ezXML/ezxml/ezxml.c:184 (discriminator 2)
    1eb8:	48 83 6d c0 01       	subq   $0x1,-0x40(%rbp)
    1ebd:	48 8b 45 c0          	mov    -0x40(%rbp),%rax
    1ec1:	89 c2                	mov    %eax,%edx
    1ec3:	89 d0                	mov    %edx,%eax
    1ec5:	01 c0                	add    %eax,%eax
    1ec7:	01 d0                	add    %edx,%eax
    1ec9:	01 c0                	add    %eax,%eax
    1ecb:	89 c2                	mov    %eax,%edx
    1ecd:	48 8b 45 c8          	mov    -0x38(%rbp),%rax
    1ed1:	89 d1                	mov    %edx,%ecx
    1ed3:	48 d3 f8             	sar    %cl,%rax
    1ed6:	83 e0 3f             	and    $0x3f,%eax
    1ed9:	89 c1                	mov    %eax,%ecx
    1edb:	48 8b 45 a8          	mov    -0x58(%rbp),%rax
    1edf:	48 8d 50 01          	lea    0x1(%rax),%rdx
    1ee3:	48 89 55 a8          	mov    %rdx,-0x58(%rbp)
    1ee7:	83 c9 80             	or     $0xffffff80,%ecx
    1eea:	89 ca                	mov    %ecx,%edx
    1eec:	88 10                	mov    %dl,(%rax)
/media/ssd-partition/Documents/RootCauseAnalysisPruning/evaluation/test_bin/22-ezXML/ezxml/ezxml.c:184 (discriminator 1)
    1eee:	48 83 7d c0 00       	cmpq   $0x0,-0x40(%rbp)
    1ef3:	75 c3                	jne    1eb8 <ezxml_decode+0x263>
/media/ssd-partition/Documents/RootCauseAnalysisPruning/evaluation/test_bin/22-ezXML/ezxml/ezxml.c:187
            }

            memmove(s, strchr(s, ';') + 1, strlen(strchr(s, ';')));
    1ef5:	48 8b 45 a8          	mov    -0x58(%rbp),%rax
    1ef9:	be 3b 00 00 00       	mov    $0x3b,%esi
    1efe:	48 89 c7             	mov    %rax,%rdi
    1f01:	e8 ea f3 ff ff       	call   12f0 <strchr@plt>
    1f06:	48 89 c7             	mov    %rax,%rdi
    1f09:	e8 b2 f3 ff ff       	call   12c0 <strlen@plt>
    1f0e:	48 89 c3             	mov    %rax,%rbx
    1f11:	48 8b 45 a8          	mov    -0x58(%rbp),%rax
    1f15:	be 3b 00 00 00       	mov    $0x3b,%esi
    1f1a:	48 89 c7             	mov    %rax,%rdi
    1f1d:	e8 ce f3 ff ff       	call   12f0 <strchr@plt>
    1f22:	48 8d 48 01          	lea    0x1(%rax),%rcx
    1f26:	48 8b 45 a8          	mov    -0x58(%rbp),%rax
    1f2a:	48 89 da             	mov    %rbx,%rdx
    1f2d:	48 89 ce             	mov    %rcx,%rsi
    1f30:	48 89 c7             	mov    %rax,%rdi
    1f33:	e8 a8 f4 ff ff       	call   13e0 <memmove@plt>
    1f38:	e9 60 02 00 00       	jmp    219d <ezxml_decode+0x548>
/media/ssd-partition/Documents/RootCauseAnalysisPruning/evaluation/test_bin/22-ezXML/ezxml/ezxml.c:189
        }
        else if ((*s == '&' && (t == '&' || t == ' ' || t == '*')) ||
    1f3d:	48 8b 45 a8          	mov    -0x58(%rbp),%rax
    1f41:	0f b6 00             	movzbl (%rax),%eax
    1f44:	3c 26                	cmp    $0x26,%al
    1f46:	75 12                	jne    1f5a <ezxml_decode+0x305>
/media/ssd-partition/Documents/RootCauseAnalysisPruning/evaluation/test_bin/22-ezXML/ezxml/ezxml.c:189 (discriminator 1)
    1f48:	80 7d 9c 26          	cmpb   $0x26,-0x64(%rbp)
    1f4c:	74 25                	je     1f73 <ezxml_decode+0x31e>
/media/ssd-partition/Documents/RootCauseAnalysisPruning/evaluation/test_bin/22-ezXML/ezxml/ezxml.c:189 (discriminator 3)
    1f4e:	80 7d 9c 20          	cmpb   $0x20,-0x64(%rbp)
    1f52:	74 1f                	je     1f73 <ezxml_decode+0x31e>
/media/ssd-partition/Documents/RootCauseAnalysisPruning/evaluation/test_bin/22-ezXML/ezxml/ezxml.c:189 (discriminator 4)
    1f54:	80 7d 9c 2a          	cmpb   $0x2a,-0x64(%rbp)
    1f58:	74 19                	je     1f73 <ezxml_decode+0x31e>
/media/ssd-partition/Documents/RootCauseAnalysisPruning/evaluation/test_bin/22-ezXML/ezxml/ezxml.c:190 (discriminator 5)
                 (*s == '%' && t == '%')) { // entity reference
    1f5a:	48 8b 45 a8          	mov    -0x58(%rbp),%rax
    1f5e:	0f b6 00             	movzbl (%rax),%eax
/media/ssd-partition/Documents/RootCauseAnalysisPruning/evaluation/test_bin/22-ezXML/ezxml/ezxml.c:189 (discriminator 5)
        else if ((*s == '&' && (t == '&' || t == ' ' || t == '*')) ||
    1f61:	3c 25                	cmp    $0x25,%al
    1f63:	0f 85 ea 01 00 00    	jne    2153 <ezxml_decode+0x4fe>
/media/ssd-partition/Documents/RootCauseAnalysisPruning/evaluation/test_bin/22-ezXML/ezxml/ezxml.c:190
                 (*s == '%' && t == '%')) { // entity reference
    1f69:	80 7d 9c 25          	cmpb   $0x25,-0x64(%rbp)
    1f6d:	0f 85 e0 01 00 00    	jne    2153 <ezxml_decode+0x4fe>
/media/ssd-partition/Documents/RootCauseAnalysisPruning/evaluation/test_bin/22-ezXML/ezxml/ezxml.c:191
            for (b = 0; ent[b] && strncmp(s + 1, ent[b], strlen(ent[b]));
    1f73:	48 c7 45 c0 00 00 00 	movq   $0x0,-0x40(%rbp)
    1f7a:	00 
    1f7b:	eb 05                	jmp    1f82 <ezxml_decode+0x32d>
/media/ssd-partition/Documents/RootCauseAnalysisPruning/evaluation/test_bin/22-ezXML/ezxml/ezxml.c:192
                 b += 2); // find entity in entity list
    1f7d:	48 83 45 c0 02       	addq   $0x2,-0x40(%rbp)
/media/ssd-partition/Documents/RootCauseAnalysisPruning/evaluation/test_bin/22-ezXML/ezxml/ezxml.c:191 (discriminator 1)
            for (b = 0; ent[b] && strncmp(s + 1, ent[b], strlen(ent[b]));
    1f82:	48 8b 45 c0          	mov    -0x40(%rbp),%rax
    1f86:	48 8d 14 c5 00 00 00 	lea    0x0(,%rax,8),%rdx
    1f8d:	00 
    1f8e:	48 8b 45 a0          	mov    -0x60(%rbp),%rax
    1f92:	48 01 d0             	add    %rdx,%rax
    1f95:	48 8b 00             	mov    (%rax),%rax
    1f98:	48 85 c0             	test   %rax,%rax
    1f9b:	74 4e                	je     1feb <ezxml_decode+0x396>
/media/ssd-partition/Documents/RootCauseAnalysisPruning/evaluation/test_bin/22-ezXML/ezxml/ezxml.c:191 (discriminator 2)
    1f9d:	48 8b 45 c0          	mov    -0x40(%rbp),%rax
    1fa1:	48 8d 14 c5 00 00 00 	lea    0x0(,%rax,8),%rdx
    1fa8:	00 
    1fa9:	48 8b 45 a0          	mov    -0x60(%rbp),%rax
    1fad:	48 01 d0             	add    %rdx,%rax
    1fb0:	48 8b 00             	mov    (%rax),%rax
    1fb3:	48 89 c7             	mov    %rax,%rdi
    1fb6:	e8 05 f3 ff ff       	call   12c0 <strlen@plt>
    1fbb:	48 89 c2             	mov    %rax,%rdx
    1fbe:	48 8b 45 c0          	mov    -0x40(%rbp),%rax
    1fc2:	48 8d 0c c5 00 00 00 	lea    0x0(,%rax,8),%rcx
    1fc9:	00 
    1fca:	48 8b 45 a0          	mov    -0x60(%rbp),%rax
    1fce:	48 01 c8             	add    %rcx,%rax
    1fd1:	48 8b 00             	mov    (%rax),%rax
    1fd4:	48 8b 4d a8          	mov    -0x58(%rbp),%rcx
    1fd8:	48 83 c1 01          	add    $0x1,%rcx
    1fdc:	48 89 c6             	mov    %rax,%rsi
    1fdf:	48 89 cf             	mov    %rcx,%rdi
    1fe2:	e8 89 f2 ff ff       	call   1270 <strncmp@plt>
    1fe7:	85 c0                	test   %eax,%eax
    1fe9:	75 92                	jne    1f7d <ezxml_decode+0x328>
/media/ssd-partition/Documents/RootCauseAnalysisPruning/evaluation/test_bin/22-ezXML/ezxml/ezxml.c:194

            if (ent[b++]) { // found a match
    1feb:	48 8b 45 c0          	mov    -0x40(%rbp),%rax
    1fef:	48 8d 50 01          	lea    0x1(%rax),%rdx
    1ff3:	48 89 55 c0          	mov    %rdx,-0x40(%rbp)
    1ff7:	48 8d 14 c5 00 00 00 	lea    0x0(,%rax,8),%rdx
    1ffe:	00 
    1fff:	48 8b 45 a0          	mov    -0x60(%rbp),%rax
    2003:	48 01 d0             	add    %rdx,%rax
    2006:	48 8b 00             	mov    (%rax),%rax
    2009:	48 85 c0             	test   %rax,%rax
    200c:	0f 84 3a 01 00 00    	je     214c <ezxml_decode+0x4f7>
/media/ssd-partition/Documents/RootCauseAnalysisPruning/evaluation/test_bin/22-ezXML/ezxml/ezxml.c:195
                if ((c = strlen(ent[b])) - 1 > (e = strchr(s, ';')) - s) {
    2012:	48 8b 45 c0          	mov    -0x40(%rbp),%rax
    2016:	48 8d 14 c5 00 00 00 	lea    0x0(,%rax,8),%rdx
    201d:	00 
    201e:	48 8b 45 a0          	mov    -0x60(%rbp),%rax
    2022:	48 01 d0             	add    %rdx,%rax
    2025:	48 8b 00             	mov    (%rax),%rax
    2028:	48 89 c7             	mov    %rax,%rdi
    202b:	e8 90 f2 ff ff       	call   12c0 <strlen@plt>
    2030:	48 89 45 c8          	mov    %rax,-0x38(%rbp)
    2034:	48 8b 45 c8          	mov    -0x38(%rbp),%rax
    2038:	48 8d 58 ff          	lea    -0x1(%rax),%rbx
    203c:	48 8b 45 a8          	mov    -0x58(%rbp),%rax
    2040:	be 3b 00 00 00       	mov    $0x3b,%esi
    2045:	48 89 c7             	mov    %rax,%rdi
    2048:	e8 a3 f2 ff ff       	call   12f0 <strchr@plt>
    204d:	48 89 45 b0          	mov    %rax,-0x50(%rbp)
    2051:	48 8b 45 b0          	mov    -0x50(%rbp),%rax
    2055:	48 2b 45 a8          	sub    -0x58(%rbp),%rax
    2059:	48 39 c3             	cmp    %rax,%rbx
    205c:	0f 8e 92 00 00 00    	jle    20f4 <ezxml_decode+0x49f>
/media/ssd-partition/Documents/RootCauseAnalysisPruning/evaluation/test_bin/22-ezXML/ezxml/ezxml.c:196
                    l = (d = (s - r)) + c + strlen(e); // new length
    2062:	48 8b 45 a8          	mov    -0x58(%rbp),%rax
    2066:	48 2b 45 b8          	sub    -0x48(%rbp),%rax
    206a:	48 89 45 d0          	mov    %rax,-0x30(%rbp)
    206e:	48 8b 55 d0          	mov    -0x30(%rbp),%rdx
    2072:	48 8b 45 c8          	mov    -0x38(%rbp),%rax
    2076:	48 01 d0             	add    %rdx,%rax
    2079:	48 89 c3             	mov    %rax,%rbx
    207c:	48 8b 45 b0          	mov    -0x50(%rbp),%rax
    2080:	48 89 c7             	mov    %rax,%rdi
    2083:	e8 38 f2 ff ff       	call   12c0 <strlen@plt>
    2088:	48 01 d8             	add    %rbx,%rax
    208b:	48 89 45 e0          	mov    %rax,-0x20(%rbp)
/media/ssd-partition/Documents/RootCauseAnalysisPruning/evaluation/test_bin/22-ezXML/ezxml/ezxml.c:197
                    r = (r == m) ? strcpy(malloc(l), r) : realloc(r, l);
    208f:	48 8b 45 b8          	mov    -0x48(%rbp),%rax
    2093:	48 3b 45 d8          	cmp    -0x28(%rbp),%rax
    2097:	75 20                	jne    20b9 <ezxml_decode+0x464>
/media/ssd-partition/Documents/RootCauseAnalysisPruning/evaluation/test_bin/22-ezXML/ezxml/ezxml.c:197 (discriminator 1)
    2099:	48 8b 45 e0          	mov    -0x20(%rbp),%rax
    209d:	48 89 c7             	mov    %rax,%rdi
    20a0:	e8 fb f2 ff ff       	call   13a0 <malloc@plt>
    20a5:	48 89 c2             	mov    %rax,%rdx
    20a8:	48 8b 45 b8          	mov    -0x48(%rbp),%rax
    20ac:	48 89 c6             	mov    %rax,%rsi
    20af:	48 89 d7             	mov    %rdx,%rdi
    20b2:	e8 c9 f1 ff ff       	call   1280 <strcpy@plt>
    20b7:	eb 13                	jmp    20cc <ezxml_decode+0x477>
/media/ssd-partition/Documents/RootCauseAnalysisPruning/evaluation/test_bin/22-ezXML/ezxml/ezxml.c:197 (discriminator 2)
    20b9:	48 8b 55 e0          	mov    -0x20(%rbp),%rdx
    20bd:	48 8b 45 b8          	mov    -0x48(%rbp),%rax
    20c1:	48 89 d6             	mov    %rdx,%rsi
    20c4:	48 89 c7             	mov    %rax,%rdi
    20c7:	e8 e4 f2 ff ff       	call   13b0 <realloc@plt>
/media/ssd-partition/Documents/RootCauseAnalysisPruning/evaluation/test_bin/22-ezXML/ezxml/ezxml.c:197 (discriminator 4)
    20cc:	48 89 45 b8          	mov    %rax,-0x48(%rbp)
/media/ssd-partition/Documents/RootCauseAnalysisPruning/evaluation/test_bin/22-ezXML/ezxml/ezxml.c:198 (discriminator 4)
                    e = strchr((s = r + d), ';'); // fix up pointers
    20d0:	48 8b 55 d0          	mov    -0x30(%rbp),%rdx
    20d4:	48 8b 45 b8          	mov    -0x48(%rbp),%rax
    20d8:	48 01 d0             	add    %rdx,%rax
    20db:	48 89 45 a8          	mov    %rax,-0x58(%rbp)
    20df:	48 8b 45 a8          	mov    -0x58(%rbp),%rax
    20e3:	be 3b 00 00 00       	mov    $0x3b,%esi
    20e8:	48 89 c7             	mov    %rax,%rdi
    20eb:	e8 00 f2 ff ff       	call   12f0 <strchr@plt>
    20f0:	48 89 45 b0          	mov    %rax,-0x50(%rbp)
/media/ssd-partition/Documents/RootCauseAnalysisPruning/evaluation/test_bin/22-ezXML/ezxml/ezxml.c:201
                }

                memmove(s + c, e + 1, strlen(e)); // shift rest of string
    20f4:	48 8b 45 b0          	mov    -0x50(%rbp),%rax
    20f8:	48 89 c7             	mov    %rax,%rdi
    20fb:	e8 c0 f1 ff ff       	call   12c0 <strlen@plt>
    2100:	48 89 c2             	mov    %rax,%rdx
    2103:	48 8b 45 b0          	mov    -0x50(%rbp),%rax
    2107:	48 8d 48 01          	lea    0x1(%rax),%rcx
    210b:	48 8b 75 c8          	mov    -0x38(%rbp),%rsi
    210f:	48 8b 45 a8          	mov    -0x58(%rbp),%rax
    2113:	48 01 f0             	add    %rsi,%rax
    2116:	48 89 ce             	mov    %rcx,%rsi
    2119:	48 89 c7             	mov    %rax,%rdi
    211c:	e8 bf f2 ff ff       	call   13e0 <memmove@plt>
/media/ssd-partition/Documents/RootCauseAnalysisPruning/evaluation/test_bin/22-ezXML/ezxml/ezxml.c:202
                strncpy(s, ent[b], c); // copy in replacement text
    2121:	48 8b 55 c8          	mov    -0x38(%rbp),%rdx
    2125:	48 8b 45 c0          	mov    -0x40(%rbp),%rax
    2129:	48 8d 0c c5 00 00 00 	lea    0x0(,%rax,8),%rcx
    2130:	00 
    2131:	48 8b 45 a0          	mov    -0x60(%rbp),%rax
    2135:	48 01 c8             	add    %rcx,%rax
    2138:	48 8b 08             	mov    (%rax),%rcx
    213b:	48 8b 45 a8          	mov    -0x58(%rbp),%rax
    213f:	48 89 ce             	mov    %rcx,%rsi
    2142:	48 89 c7             	mov    %rax,%rdi
    2145:	e8 16 f1 ff ff       	call   1260 <strncpy@plt>
/media/ssd-partition/Documents/RootCauseAnalysisPruning/evaluation/test_bin/22-ezXML/ezxml/ezxml.c:194
            if (ent[b++]) { // found a match
    214a:	eb 51                	jmp    219d <ezxml_decode+0x548>
/media/ssd-partition/Documents/RootCauseAnalysisPruning/evaluation/test_bin/22-ezXML/ezxml/ezxml.c:204
            }
            else s++; // not a known entity
    214c:	48 83 45 a8 01       	addq   $0x1,-0x58(%rbp)
/media/ssd-partition/Documents/RootCauseAnalysisPruning/evaluation/test_bin/22-ezXML/ezxml/ezxml.c:194
            if (ent[b++]) { // found a match
    2151:	eb 4a                	jmp    219d <ezxml_decode+0x548>
/media/ssd-partition/Documents/RootCauseAnalysisPruning/evaluation/test_bin/22-ezXML/ezxml/ezxml.c:206
        }
        else if ((t == ' ' || t == '*') && isspace(*s)) *(s++) = ' ';
    2153:	80 7d 9c 20          	cmpb   $0x20,-0x64(%rbp)
    2157:	74 06                	je     215f <ezxml_decode+0x50a>
/media/ssd-partition/Documents/RootCauseAnalysisPruning/evaluation/test_bin/22-ezXML/ezxml/ezxml.c:206 (discriminator 2)
    2159:	80 7d 9c 2a          	cmpb   $0x2a,-0x64(%rbp)
    215d:	75 39                	jne    2198 <ezxml_decode+0x543>
/media/ssd-partition/Documents/RootCauseAnalysisPruning/evaluation/test_bin/22-ezXML/ezxml/ezxml.c:206 (discriminator 3)
    215f:	e8 ec f2 ff ff       	call   1450 <__ctype_b_loc@plt>
    2164:	48 8b 10             	mov    (%rax),%rdx
    2167:	48 8b 45 a8          	mov    -0x58(%rbp),%rax
    216b:	0f b6 00             	movzbl (%rax),%eax
    216e:	48 0f be c0          	movsbq %al,%rax
    2172:	48 01 c0             	add    %rax,%rax
    2175:	48 01 d0             	add    %rdx,%rax
    2178:	0f b7 00             	movzwl (%rax),%eax
    217b:	0f b7 c0             	movzwl %ax,%eax
    217e:	25 00 20 00 00       	and    $0x2000,%eax
    2183:	85 c0                	test   %eax,%eax
    2185:	74 11                	je     2198 <ezxml_decode+0x543>
/media/ssd-partition/Documents/RootCauseAnalysisPruning/evaluation/test_bin/22-ezXML/ezxml/ezxml.c:206 (discriminator 4)
    2187:	48 8b 45 a8          	mov    -0x58(%rbp),%rax
    218b:	48 8d 50 01          	lea    0x1(%rax),%rdx
    218f:	48 89 55 a8          	mov    %rdx,-0x58(%rbp)
    2193:	c6 00 20             	movb   $0x20,(%rax)
    2196:	eb 05                	jmp    219d <ezxml_decode+0x548>
/media/ssd-partition/Documents/RootCauseAnalysisPruning/evaluation/test_bin/22-ezXML/ezxml/ezxml.c:207
        else s++; // no decoding needed
    2198:	48 83 45 a8 01       	addq   $0x1,-0x58(%rbp)
/media/ssd-partition/Documents/RootCauseAnalysisPruning/evaluation/test_bin/22-ezXML/ezxml/ezxml.c:171 (discriminator 1)
        while (*s && *s != '&' && (*s != '%' || t != '%') && !isspace(*s)) s++;
    219d:	e9 58 fb ff ff       	jmp    1cfa <ezxml_decode+0xa5>
/media/ssd-partition/Documents/RootCauseAnalysisPruning/evaluation/test_bin/22-ezXML/ezxml/ezxml.c:173
        if (! *s) break;
    21a2:	90                   	nop
/media/ssd-partition/Documents/RootCauseAnalysisPruning/evaluation/test_bin/22-ezXML/ezxml/ezxml.c:210
    }

    if (t == '*') { // normalize spaces for non-cdata attributes
    21a3:	80 7d 9c 2a          	cmpb   $0x2a,-0x64(%rbp)
    21a7:	0f 85 aa 00 00 00    	jne    2257 <ezxml_decode+0x602>
/media/ssd-partition/Documents/RootCauseAnalysisPruning/evaluation/test_bin/22-ezXML/ezxml/ezxml.c:211
        for (s = r; *s; s++) {
    21ad:	48 8b 45 b8          	mov    -0x48(%rbp),%rax
    21b1:	48 89 45 a8          	mov    %rax,-0x58(%rbp)
    21b5:	eb 74                	jmp    222b <ezxml_decode+0x5d6>
/media/ssd-partition/Documents/RootCauseAnalysisPruning/evaluation/test_bin/22-ezXML/ezxml/ezxml.c:212
            if ((l = strspn(s, " "))) memmove(s, s + l, strlen(s + l) + 1);
    21b7:	48 8b 45 a8          	mov    -0x58(%rbp),%rax
    21bb:	48 8d 15 62 4e 00 00 	lea    0x4e62(%rip),%rdx        # 7024 <_IO_stdin_used+0x24>
    21c2:	48 89 d6             	mov    %rdx,%rsi
    21c5:	48 89 c7             	mov    %rax,%rdi
    21c8:	e8 63 f1 ff ff       	call   1330 <strspn@plt>
    21cd:	48 89 45 e0          	mov    %rax,-0x20(%rbp)
    21d1:	48 83 7d e0 00       	cmpq   $0x0,-0x20(%rbp)
    21d6:	74 38                	je     2210 <ezxml_decode+0x5bb>
/media/ssd-partition/Documents/RootCauseAnalysisPruning/evaluation/test_bin/22-ezXML/ezxml/ezxml.c:212 (discriminator 1)
    21d8:	48 8b 55 e0          	mov    -0x20(%rbp),%rdx
    21dc:	48 8b 45 a8          	mov    -0x58(%rbp),%rax
    21e0:	48 01 d0             	add    %rdx,%rax
    21e3:	48 89 c7             	mov    %rax,%rdi
    21e6:	e8 d5 f0 ff ff       	call   12c0 <strlen@plt>
    21eb:	48 8d 50 01          	lea    0x1(%rax),%rdx
    21ef:	48 8b 4d e0          	mov    -0x20(%rbp),%rcx
    21f3:	48 8b 45 a8          	mov    -0x58(%rbp),%rax
    21f7:	48 01 c1             	add    %rax,%rcx
    21fa:	48 8b 45 a8          	mov    -0x58(%rbp),%rax
    21fe:	48 89 ce             	mov    %rcx,%rsi
    2201:	48 89 c7             	mov    %rax,%rdi
    2204:	e8 d7 f1 ff ff       	call   13e0 <memmove@plt>
/media/ssd-partition/Documents/RootCauseAnalysisPruning/evaluation/test_bin/22-ezXML/ezxml/ezxml.c:213 (discriminator 1)
            while (*s && *s != ' ') s++;
    2209:	eb 05                	jmp    2210 <ezxml_decode+0x5bb>
/media/ssd-partition/Documents/RootCauseAnalysisPruning/evaluation/test_bin/22-ezXML/ezxml/ezxml.c:213 (discriminator 3)
    220b:	48 83 45 a8 01       	addq   $0x1,-0x58(%rbp)
/media/ssd-partition/Documents/RootCauseAnalysisPruning/evaluation/test_bin/22-ezXML/ezxml/ezxml.c:213 (discriminator 1)
    2210:	48 8b 45 a8          	mov    -0x58(%rbp),%rax
    2214:	0f b6 00             	movzbl (%rax),%eax
    2217:	84 c0                	test   %al,%al
    2219:	74 0b                	je     2226 <ezxml_decode+0x5d1>
/media/ssd-partition/Documents/RootCauseAnalysisPruning/evaluation/test_bin/22-ezXML/ezxml/ezxml.c:213 (discriminator 2)
    221b:	48 8b 45 a8          	mov    -0x58(%rbp),%rax
    221f:	0f b6 00             	movzbl (%rax),%eax
    2222:	3c 20                	cmp    $0x20,%al
    2224:	75 e5                	jne    220b <ezxml_decode+0x5b6>
/media/ssd-partition/Documents/RootCauseAnalysisPruning/evaluation/test_bin/22-ezXML/ezxml/ezxml.c:211 (discriminator 2)
        for (s = r; *s; s++) {
    2226:	48 83 45 a8 01       	addq   $0x1,-0x58(%rbp)
/media/ssd-partition/Documents/RootCauseAnalysisPruning/evaluation/test_bin/22-ezXML/ezxml/ezxml.c:211 (discriminator 1)
    222b:	48 8b 45 a8          	mov    -0x58(%rbp),%rax
    222f:	0f b6 00             	movzbl (%rax),%eax
    2232:	84 c0                	test   %al,%al
    2234:	75 81                	jne    21b7 <ezxml_decode+0x562>
/media/ssd-partition/Documents/RootCauseAnalysisPruning/evaluation/test_bin/22-ezXML/ezxml/ezxml.c:215
        }
        if (--s >= r && *s == ' ') *s = '\0'; // trim any trailing space
    2236:	48 83 6d a8 01       	subq   $0x1,-0x58(%rbp)
    223b:	48 8b 45 a8          	mov    -0x58(%rbp),%rax
    223f:	48 3b 45 b8          	cmp    -0x48(%rbp),%rax
    2243:	72 12                	jb     2257 <ezxml_decode+0x602>
/media/ssd-partition/Documents/RootCauseAnalysisPruning/evaluation/test_bin/22-ezXML/ezxml/ezxml.c:215 (discriminator 1)
    2245:	48 8b 45 a8          	mov    -0x58(%rbp),%rax
    2249:	0f b6 00             	movzbl (%rax),%eax
    224c:	3c 20                	cmp    $0x20,%al
    224e:	75 07                	jne    2257 <ezxml_decode+0x602>
/media/ssd-partition/Documents/RootCauseAnalysisPruning/evaluation/test_bin/22-ezXML/ezxml/ezxml.c:215 (discriminator 2)
    2250:	48 8b 45 a8          	mov    -0x58(%rbp),%rax
    2254:	c6 00 00             	movb   $0x0,(%rax)
/media/ssd-partition/Documents/RootCauseAnalysisPruning/evaluation/test_bin/22-ezXML/ezxml/ezxml.c:217
    }
    return r;
    2257:	48 8b 45 b8          	mov    -0x48(%rbp),%rax
/media/ssd-partition/Documents/RootCauseAnalysisPruning/evaluation/test_bin/22-ezXML/ezxml/ezxml.c:218
}
    225b:	48 8b 55 e8          	mov    -0x18(%rbp),%rdx
    225f:	64 48 2b 14 25 28 00 	sub    %fs:0x28,%rdx
    2266:	00 00 
    2268:	74 05                	je     226f <ezxml_decode+0x61a>
    226a:	e8 61 f0 ff ff       	call   12d0 <__stack_chk_fail@plt>
    226f:	48 8b 5d f8          	mov    -0x8(%rbp),%rbx
    2273:	c9                   	leave  
    2274:	c3                   	ret    

0000000000002275 <ezxml_open_tag>:
ezxml_open_tag():
/media/ssd-partition/Documents/RootCauseAnalysisPruning/evaluation/test_bin/22-ezXML/ezxml/ezxml.c:222

// called when parser finds start of new tag
void ezxml_open_tag(ezxml_root_t root, char *name, char **attr)
{
    2275:	f3 0f 1e fa          	endbr64 
    2279:	55                   	push   %rbp
    227a:	48 89 e5             	mov    %rsp,%rbp
    227d:	48 83 ec 30          	sub    $0x30,%rsp
    2281:	48 89 7d e8          	mov    %rdi,-0x18(%rbp)
    2285:	48 89 75 e0          	mov    %rsi,-0x20(%rbp)
    2289:	48 89 55 d8          	mov    %rdx,-0x28(%rbp)
/media/ssd-partition/Documents/RootCauseAnalysisPruning/evaluation/test_bin/22-ezXML/ezxml/ezxml.c:223
    ezxml_t xml = root->cur;
    228d:	48 8b 45 e8          	mov    -0x18(%rbp),%rax
    2291:	48 8b 40 50          	mov    0x50(%rax),%rax
    2295:	48 89 45 f8          	mov    %rax,-0x8(%rbp)
/media/ssd-partition/Documents/RootCauseAnalysisPruning/evaluation/test_bin/22-ezXML/ezxml/ezxml.c:225
    
    if (xml->name) xml = ezxml_add_child(xml, name, strlen(xml->txt));
    2299:	48 8b 45 f8          	mov    -0x8(%rbp),%rax
    229d:	48 8b 00             	mov    (%rax),%rax
    22a0:	48 85 c0             	test   %rax,%rax
    22a3:	74 2c                	je     22d1 <ezxml_open_tag+0x5c>
/media/ssd-partition/Documents/RootCauseAnalysisPruning/evaluation/test_bin/22-ezXML/ezxml/ezxml.c:225 (discriminator 1)
    22a5:	48 8b 45 f8          	mov    -0x8(%rbp),%rax
    22a9:	48 8b 40 10          	mov    0x10(%rax),%rax
    22ad:	48 89 c7             	mov    %rax,%rdi
    22b0:	e8 0b f0 ff ff       	call   12c0 <strlen@plt>
    22b5:	48 89 c2             	mov    %rax,%rdx
    22b8:	48 8b 4d e0          	mov    -0x20(%rbp),%rcx
    22bc:	48 8b 45 f8          	mov    -0x8(%rbp),%rax
    22c0:	48 89 ce             	mov    %rcx,%rsi
    22c3:	48 89 c7             	mov    %rax,%rdi
    22c6:	e8 87 3e 00 00       	call   6152 <ezxml_add_child>
    22cb:	48 89 45 f8          	mov    %rax,-0x8(%rbp)
    22cf:	eb 0b                	jmp    22dc <ezxml_open_tag+0x67>
/media/ssd-partition/Documents/RootCauseAnalysisPruning/evaluation/test_bin/22-ezXML/ezxml/ezxml.c:226
    else xml->name = name; // first open tag
    22d1:	48 8b 45 f8          	mov    -0x8(%rbp),%rax
    22d5:	48 8b 55 e0          	mov    -0x20(%rbp),%rdx
    22d9:	48 89 10             	mov    %rdx,(%rax)
/media/ssd-partition/Documents/RootCauseAnalysisPruning/evaluation/test_bin/22-ezXML/ezxml/ezxml.c:228

    xml->attr = attr;
    22dc:	48 8b 45 f8          	mov    -0x8(%rbp),%rax
    22e0:	48 8b 55 d8          	mov    -0x28(%rbp),%rdx
    22e4:	48 89 50 08          	mov    %rdx,0x8(%rax)
/media/ssd-partition/Documents/RootCauseAnalysisPruning/evaluation/test_bin/22-ezXML/ezxml/ezxml.c:229
    root->cur = xml; // update tag insertion point
    22e8:	48 8b 45 e8          	mov    -0x18(%rbp),%rax
    22ec:	48 8b 55 f8          	mov    -0x8(%rbp),%rdx
    22f0:	48 89 50 50          	mov    %rdx,0x50(%rax)
/media/ssd-partition/Documents/RootCauseAnalysisPruning/evaluation/test_bin/22-ezXML/ezxml/ezxml.c:230
}
    22f4:	90                   	nop
    22f5:	c9                   	leave  
    22f6:	c3                   	ret    

00000000000022f7 <ezxml_char_content>:
ezxml_char_content():
/media/ssd-partition/Documents/RootCauseAnalysisPruning/evaluation/test_bin/22-ezXML/ezxml/ezxml.c:234

// called when parser finds character content between open and closing tag
void ezxml_char_content(ezxml_root_t root, char *s, size_t len, char t)
{
    22f7:	f3 0f 1e fa          	endbr64 
    22fb:	55                   	push   %rbp
    22fc:	48 89 e5             	mov    %rsp,%rbp
    22ff:	53                   	push   %rbx
    2300:	48 83 ec 48          	sub    $0x48,%rsp
    2304:	48 89 7d c8          	mov    %rdi,-0x38(%rbp)
    2308:	48 89 75 c0          	mov    %rsi,-0x40(%rbp)
    230c:	48 89 55 b8          	mov    %rdx,-0x48(%rbp)
    2310:	89 c8                	mov    %ecx,%eax
    2312:	88 45 b4             	mov    %al,-0x4c(%rbp)
/media/ssd-partition/Documents/RootCauseAnalysisPruning/evaluation/test_bin/22-ezXML/ezxml/ezxml.c:235
    ezxml_t xml = root->cur;
    2315:	48 8b 45 c8          	mov    -0x38(%rbp),%rax
    2319:	48 8b 40 50          	mov    0x50(%rax),%rax
    231d:	48 89 45 e0          	mov    %rax,-0x20(%rbp)
/media/ssd-partition/Documents/RootCauseAnalysisPruning/evaluation/test_bin/22-ezXML/ezxml/ezxml.c:236
    char *m = s;
    2321:	48 8b 45 c0          	mov    -0x40(%rbp),%rax
    2325:	48 89 45 e8          	mov    %rax,-0x18(%rbp)
/media/ssd-partition/Documents/RootCauseAnalysisPruning/evaluation/test_bin/22-ezXML/ezxml/ezxml.c:239
    size_t l;

    if (! xml || ! xml->name || ! len) return; // sanity check
    2329:	48 83 7d e0 00       	cmpq   $0x0,-0x20(%rbp)
    232e:	0f 84 5a 01 00 00    	je     248e <ezxml_char_content+0x197>
/media/ssd-partition/Documents/RootCauseAnalysisPruning/evaluation/test_bin/22-ezXML/ezxml/ezxml.c:239 (discriminator 2)
    2334:	48 8b 45 e0          	mov    -0x20(%rbp),%rax
    2338:	48 8b 00             	mov    (%rax),%rax
    233b:	48 85 c0             	test   %rax,%rax
    233e:	0f 84 4a 01 00 00    	je     248e <ezxml_char_content+0x197>
/media/ssd-partition/Documents/RootCauseAnalysisPruning/evaluation/test_bin/22-ezXML/ezxml/ezxml.c:239 (discriminator 4)
    2344:	48 83 7d b8 00       	cmpq   $0x0,-0x48(%rbp)
    2349:	0f 84 3f 01 00 00    	je     248e <ezxml_char_content+0x197>
/media/ssd-partition/Documents/RootCauseAnalysisPruning/evaluation/test_bin/22-ezXML/ezxml/ezxml.c:241

    s[len] = '\0'; // null terminate text (calling functions anticipate this)
    234f:	48 8b 55 c0          	mov    -0x40(%rbp),%rdx
    2353:	48 8b 45 b8          	mov    -0x48(%rbp),%rax
    2357:	48 01 d0             	add    %rdx,%rax
    235a:	c6 00 00             	movb   $0x0,(%rax)
/media/ssd-partition/Documents/RootCauseAnalysisPruning/evaluation/test_bin/22-ezXML/ezxml/ezxml.c:242
    len = strlen(s = ezxml_decode(s, root->ent, t)) + 1;
    235d:	0f be 55 b4          	movsbl -0x4c(%rbp),%edx
    2361:	48 8b 45 c8          	mov    -0x38(%rbp),%rax
    2365:	48 8b 88 80 00 00 00 	mov    0x80(%rax),%rcx
    236c:	48 8b 45 c0          	mov    -0x40(%rbp),%rax
    2370:	48 89 ce             	mov    %rcx,%rsi
    2373:	48 89 c7             	mov    %rax,%rdi
    2376:	e8 da f8 ff ff       	call   1c55 <ezxml_decode>
    237b:	48 89 45 c0          	mov    %rax,-0x40(%rbp)
    237f:	48 8b 45 c0          	mov    -0x40(%rbp),%rax
    2383:	48 89 c7             	mov    %rax,%rdi
    2386:	e8 35 ef ff ff       	call   12c0 <strlen@plt>
    238b:	48 83 c0 01          	add    $0x1,%rax
    238f:	48 89 45 b8          	mov    %rax,-0x48(%rbp)
/media/ssd-partition/Documents/RootCauseAnalysisPruning/evaluation/test_bin/22-ezXML/ezxml/ezxml.c:244

    if (! *(xml->txt)) xml->txt = s; // initial character content
    2393:	48 8b 45 e0          	mov    -0x20(%rbp),%rax
    2397:	48 8b 40 10          	mov    0x10(%rax),%rax
    239b:	0f b6 00             	movzbl (%rax),%eax
    239e:	84 c0                	test   %al,%al
    23a0:	75 11                	jne    23b3 <ezxml_char_content+0xbc>
/media/ssd-partition/Documents/RootCauseAnalysisPruning/evaluation/test_bin/22-ezXML/ezxml/ezxml.c:244 (discriminator 1)
    23a2:	48 8b 45 e0          	mov    -0x20(%rbp),%rax
    23a6:	48 8b 55 c0          	mov    -0x40(%rbp),%rdx
    23aa:	48 89 50 10          	mov    %rdx,0x10(%rax)
    23ae:	e9 ba 00 00 00       	jmp    246d <ezxml_char_content+0x176>
/media/ssd-partition/Documents/RootCauseAnalysisPruning/evaluation/test_bin/22-ezXML/ezxml/ezxml.c:246
    else { // allocate our own memory and make a copy
        xml->txt = (xml->flags & EZXML_TXTM) // allocate some space
    23b3:	48 8b 45 e0          	mov    -0x20(%rbp),%rax
    23b7:	0f b7 40 48          	movzwl 0x48(%rax),%eax
    23bb:	98                   	cwtl   
    23bc:	83 e0 40             	and    $0x40,%eax
/media/ssd-partition/Documents/RootCauseAnalysisPruning/evaluation/test_bin/22-ezXML/ezxml/ezxml.c:248
                   ? realloc(xml->txt, (l = strlen(xml->txt)) + len)
                   : strcpy(malloc((l = strlen(xml->txt)) + len), xml->txt);
    23bf:	85 c0                	test   %eax,%eax
    23c1:	74 34                	je     23f7 <ezxml_char_content+0x100>
/media/ssd-partition/Documents/RootCauseAnalysisPruning/evaluation/test_bin/22-ezXML/ezxml/ezxml.c:247
                   ? realloc(xml->txt, (l = strlen(xml->txt)) + len)
    23c3:	48 8b 45 e0          	mov    -0x20(%rbp),%rax
    23c7:	48 8b 40 10          	mov    0x10(%rax),%rax
    23cb:	48 89 c7             	mov    %rax,%rdi
    23ce:	e8 ed ee ff ff       	call   12c0 <strlen@plt>
    23d3:	48 89 45 d8          	mov    %rax,-0x28(%rbp)
    23d7:	48 8b 55 d8          	mov    -0x28(%rbp),%rdx
    23db:	48 8b 45 b8          	mov    -0x48(%rbp),%rax
    23df:	48 01 c2             	add    %rax,%rdx
    23e2:	48 8b 45 e0          	mov    -0x20(%rbp),%rax
    23e6:	48 8b 40 10          	mov    0x10(%rax),%rax
    23ea:	48 89 d6             	mov    %rdx,%rsi
    23ed:	48 89 c7             	mov    %rax,%rdi
    23f0:	e8 bb ef ff ff       	call   13b0 <realloc@plt>
    23f5:	eb 3a                	jmp    2431 <ezxml_char_content+0x13a>
/media/ssd-partition/Documents/RootCauseAnalysisPruning/evaluation/test_bin/22-ezXML/ezxml/ezxml.c:248 (discriminator 1)
                   : strcpy(malloc((l = strlen(xml->txt)) + len), xml->txt);
    23f7:	48 8b 45 e0          	mov    -0x20(%rbp),%rax
    23fb:	48 8b 58 10          	mov    0x10(%rax),%rbx
    23ff:	48 8b 45 e0          	mov    -0x20(%rbp),%rax
    2403:	48 8b 40 10          	mov    0x10(%rax),%rax
    2407:	48 89 c7             	mov    %rax,%rdi
    240a:	e8 b1 ee ff ff       	call   12c0 <strlen@plt>
    240f:	48 89 45 d8          	mov    %rax,-0x28(%rbp)
    2413:	48 8b 55 d8          	mov    -0x28(%rbp),%rdx
    2417:	48 8b 45 b8          	mov    -0x48(%rbp),%rax
    241b:	48 01 d0             	add    %rdx,%rax
    241e:	48 89 c7             	mov    %rax,%rdi
    2421:	e8 7a ef ff ff       	call   13a0 <malloc@plt>
    2426:	48 89 de             	mov    %rbx,%rsi
    2429:	48 89 c7             	mov    %rax,%rdi
    242c:	e8 4f ee ff ff       	call   1280 <strcpy@plt>
/media/ssd-partition/Documents/RootCauseAnalysisPruning/evaluation/test_bin/22-ezXML/ezxml/ezxml.c:246
        xml->txt = (xml->flags & EZXML_TXTM) // allocate some space
    2431:	48 8b 55 e0          	mov    -0x20(%rbp),%rdx
    2435:	48 89 42 10          	mov    %rax,0x10(%rdx)
/media/ssd-partition/Documents/RootCauseAnalysisPruning/evaluation/test_bin/22-ezXML/ezxml/ezxml.c:249
        strcpy(xml->txt + l, s); // add new char content
    2439:	48 8b 45 e0          	mov    -0x20(%rbp),%rax
    243d:	48 8b 50 10          	mov    0x10(%rax),%rdx
    2441:	48 8b 45 d8          	mov    -0x28(%rbp),%rax
    2445:	48 01 c2             	add    %rax,%rdx
    2448:	48 8b 45 c0          	mov    -0x40(%rbp),%rax
    244c:	48 89 c6             	mov    %rax,%rsi
    244f:	48 89 d7             	mov    %rdx,%rdi
    2452:	e8 29 ee ff ff       	call   1280 <strcpy@plt>
/media/ssd-partition/Documents/RootCauseAnalysisPruning/evaluation/test_bin/22-ezXML/ezxml/ezxml.c:250
        if (s != m) free(s); // free s if it was malloced by ezxml_decode()
    2457:	48 8b 45 c0          	mov    -0x40(%rbp),%rax
    245b:	48 3b 45 e8          	cmp    -0x18(%rbp),%rax
    245f:	74 0c                	je     246d <ezxml_char_content+0x176>
/media/ssd-partition/Documents/RootCauseAnalysisPruning/evaluation/test_bin/22-ezXML/ezxml/ezxml.c:250 (discriminator 1)
    2461:	48 8b 45 c0          	mov    -0x40(%rbp),%rax
    2465:	48 89 c7             	mov    %rax,%rdi
    2468:	e8 e3 ed ff ff       	call   1250 <free@plt>
/media/ssd-partition/Documents/RootCauseAnalysisPruning/evaluation/test_bin/22-ezXML/ezxml/ezxml.c:253
    }

    if (xml->txt != m) ezxml_set_flag(xml, EZXML_TXTM);
    246d:	48 8b 45 e0          	mov    -0x20(%rbp),%rax
    2471:	48 8b 40 10          	mov    0x10(%rax),%rax
    2475:	48 39 45 e8          	cmp    %rax,-0x18(%rbp)
    2479:	74 14                	je     248f <ezxml_char_content+0x198>
/media/ssd-partition/Documents/RootCauseAnalysisPruning/evaluation/test_bin/22-ezXML/ezxml/ezxml.c:253 (discriminator 1)
    247b:	48 8b 45 e0          	mov    -0x20(%rbp),%rax
    247f:	be 40 00 00 00       	mov    $0x40,%esi
    2484:	48 89 c7             	mov    %rax,%rdi
    2487:	e8 e1 42 00 00       	call   676d <ezxml_set_flag>
    248c:	eb 01                	jmp    248f <ezxml_char_content+0x198>
/media/ssd-partition/Documents/RootCauseAnalysisPruning/evaluation/test_bin/22-ezXML/ezxml/ezxml.c:239
    if (! xml || ! xml->name || ! len) return; // sanity check
    248e:	90                   	nop
/media/ssd-partition/Documents/RootCauseAnalysisPruning/evaluation/test_bin/22-ezXML/ezxml/ezxml.c:254
}
    248f:	48 8b 5d f8          	mov    -0x8(%rbp),%rbx
    2493:	c9                   	leave  
    2494:	c3                   	ret    

0000000000002495 <ezxml_close_tag>:
ezxml_close_tag():
/media/ssd-partition/Documents/RootCauseAnalysisPruning/evaluation/test_bin/22-ezXML/ezxml/ezxml.c:258

// called when parser finds closing tag
ezxml_t ezxml_close_tag(ezxml_root_t root, char *name, char *s)
{
    2495:	f3 0f 1e fa          	endbr64 
    2499:	55                   	push   %rbp
    249a:	48 89 e5             	mov    %rsp,%rbp
    249d:	48 83 ec 20          	sub    $0x20,%rsp
    24a1:	48 89 7d f8          	mov    %rdi,-0x8(%rbp)
    24a5:	48 89 75 f0          	mov    %rsi,-0x10(%rbp)
    24a9:	48 89 55 e8          	mov    %rdx,-0x18(%rbp)
/media/ssd-partition/Documents/RootCauseAnalysisPruning/evaluation/test_bin/22-ezXML/ezxml/ezxml.c:259
    if (! root->cur || ! root->cur->name || strcmp(name, root->cur->name))
    24ad:	48 8b 45 f8          	mov    -0x8(%rbp),%rax
    24b1:	48 8b 40 50          	mov    0x50(%rax),%rax
    24b5:	48 85 c0             	test   %rax,%rax
    24b8:	74 2e                	je     24e8 <ezxml_close_tag+0x53>
/media/ssd-partition/Documents/RootCauseAnalysisPruning/evaluation/test_bin/22-ezXML/ezxml/ezxml.c:259 (discriminator 1)
    24ba:	48 8b 45 f8          	mov    -0x8(%rbp),%rax
    24be:	48 8b 40 50          	mov    0x50(%rax),%rax
    24c2:	48 8b 00             	mov    (%rax),%rax
    24c5:	48 85 c0             	test   %rax,%rax
    24c8:	74 1e                	je     24e8 <ezxml_close_tag+0x53>
/media/ssd-partition/Documents/RootCauseAnalysisPruning/evaluation/test_bin/22-ezXML/ezxml/ezxml.c:259 (discriminator 2)
    24ca:	48 8b 45 f8          	mov    -0x8(%rbp),%rax
    24ce:	48 8b 40 50          	mov    0x50(%rax),%rax
    24d2:	48 8b 10             	mov    (%rax),%rdx
    24d5:	48 8b 45 f0          	mov    -0x10(%rbp),%rax
    24d9:	48 89 d6             	mov    %rdx,%rsi
    24dc:	48 89 c7             	mov    %rax,%rdi
    24df:	e8 7c ee ff ff       	call   1360 <strcmp@plt>
    24e4:	85 c0                	test   %eax,%eax
    24e6:	74 25                	je     250d <ezxml_close_tag+0x78>
/media/ssd-partition/Documents/RootCauseAnalysisPruning/evaluation/test_bin/22-ezXML/ezxml/ezxml.c:260
        return ezxml_err(root, s, "unexpected closing tag </%s>", name);
    24e8:	48 8b 55 f0          	mov    -0x10(%rbp),%rdx
    24ec:	48 8b 75 e8          	mov    -0x18(%rbp),%rsi
    24f0:	48 8b 45 f8          	mov    -0x8(%rbp),%rax
    24f4:	48 89 d1             	mov    %rdx,%rcx
    24f7:	48 8d 15 28 4b 00 00 	lea    0x4b28(%rip),%rdx        # 7026 <_IO_stdin_used+0x26>
    24fe:	48 89 c7             	mov    %rax,%rdi
    2501:	b8 00 00 00 00       	mov    $0x0,%eax
    2506:	e8 e5 f5 ff ff       	call   1af0 <ezxml_err>
    250b:	eb 19                	jmp    2526 <ezxml_close_tag+0x91>
/media/ssd-partition/Documents/RootCauseAnalysisPruning/evaluation/test_bin/22-ezXML/ezxml/ezxml.c:262

    root->cur = root->cur->parent;
    250d:	48 8b 45 f8          	mov    -0x8(%rbp),%rax
    2511:	48 8b 40 50          	mov    0x50(%rax),%rax
    2515:	48 8b 50 40          	mov    0x40(%rax),%rdx
    2519:	48 8b 45 f8          	mov    -0x8(%rbp),%rax
    251d:	48 89 50 50          	mov    %rdx,0x50(%rax)
/media/ssd-partition/Documents/RootCauseAnalysisPruning/evaluation/test_bin/22-ezXML/ezxml/ezxml.c:263
    return NULL;
    2521:	b8 00 00 00 00       	mov    $0x0,%eax
/media/ssd-partition/Documents/RootCauseAnalysisPruning/evaluation/test_bin/22-ezXML/ezxml/ezxml.c:264
}
    2526:	c9                   	leave  
    2527:	c3                   	ret    

0000000000002528 <ezxml_ent_ok>:
ezxml_ent_ok():
/media/ssd-partition/Documents/RootCauseAnalysisPruning/evaluation/test_bin/22-ezXML/ezxml/ezxml.c:269

// checks for circular entity references, returns non-zero if no circular
// references are found, zero otherwise
int ezxml_ent_ok(char *name, char *s, char **ent)
{
    2528:	f3 0f 1e fa          	endbr64 
    252c:	55                   	push   %rbp
    252d:	48 89 e5             	mov    %rsp,%rbp
    2530:	48 83 ec 30          	sub    $0x30,%rsp
    2534:	48 89 7d e8          	mov    %rdi,-0x18(%rbp)
    2538:	48 89 75 e0          	mov    %rsi,-0x20(%rbp)
    253c:	48 89 55 d8          	mov    %rdx,-0x28(%rbp)
/media/ssd-partition/Documents/RootCauseAnalysisPruning/evaluation/test_bin/22-ezXML/ezxml/ezxml.c:273
    int i;

    for (; ; s++) {
        while (*s && *s != '&') s++; // find next entity reference
    2540:	eb 05                	jmp    2547 <ezxml_ent_ok+0x1f>
/media/ssd-partition/Documents/RootCauseAnalysisPruning/evaluation/test_bin/22-ezXML/ezxml/ezxml.c:273 (discriminator 3)
    2542:	48 83 45 e0 01       	addq   $0x1,-0x20(%rbp)
/media/ssd-partition/Documents/RootCauseAnalysisPruning/evaluation/test_bin/22-ezXML/ezxml/ezxml.c:273 (discriminator 1)
    2547:	48 8b 45 e0          	mov    -0x20(%rbp),%rax
    254b:	0f b6 00             	movzbl (%rax),%eax
    254e:	84 c0                	test   %al,%al
    2550:	74 0b                	je     255d <ezxml_ent_ok+0x35>
/media/ssd-partition/Documents/RootCauseAnalysisPruning/evaluation/test_bin/22-ezXML/ezxml/ezxml.c:273 (discriminator 2)
    2552:	48 8b 45 e0          	mov    -0x20(%rbp),%rax
    2556:	0f b6 00             	movzbl (%rax),%eax
    2559:	3c 26                	cmp    $0x26,%al
    255b:	75 e5                	jne    2542 <ezxml_ent_ok+0x1a>
/media/ssd-partition/Documents/RootCauseAnalysisPruning/evaluation/test_bin/22-ezXML/ezxml/ezxml.c:274
        if (! *s) return 1;
    255d:	48 8b 45 e0          	mov    -0x20(%rbp),%rax
    2561:	0f b6 00             	movzbl (%rax),%eax
    2564:	84 c0                	test   %al,%al
    2566:	75 0a                	jne    2572 <ezxml_ent_ok+0x4a>
/media/ssd-partition/Documents/RootCauseAnalysisPruning/evaluation/test_bin/22-ezXML/ezxml/ezxml.c:274 (discriminator 1)
    2568:	b8 01 00 00 00       	mov    $0x1,%eax
    256d:	e9 0c 01 00 00       	jmp    267e <ezxml_ent_ok+0x156>
/media/ssd-partition/Documents/RootCauseAnalysisPruning/evaluation/test_bin/22-ezXML/ezxml/ezxml.c:275
        if (! strncmp(s + 1, name, strlen(name))) return 0; // circular ref.
    2572:	48 8b 45 e8          	mov    -0x18(%rbp),%rax
    2576:	48 89 c7             	mov    %rax,%rdi
    2579:	e8 42 ed ff ff       	call   12c0 <strlen@plt>
    257e:	48 89 c2             	mov    %rax,%rdx
    2581:	48 8b 45 e0          	mov    -0x20(%rbp),%rax
    2585:	48 8d 48 01          	lea    0x1(%rax),%rcx
    2589:	48 8b 45 e8          	mov    -0x18(%rbp),%rax
    258d:	48 89 c6             	mov    %rax,%rsi
    2590:	48 89 cf             	mov    %rcx,%rdi
    2593:	e8 d8 ec ff ff       	call   1270 <strncmp@plt>
    2598:	85 c0                	test   %eax,%eax
    259a:	75 0a                	jne    25a6 <ezxml_ent_ok+0x7e>
/media/ssd-partition/Documents/RootCauseAnalysisPruning/evaluation/test_bin/22-ezXML/ezxml/ezxml.c:275 (discriminator 1)
    259c:	b8 00 00 00 00       	mov    $0x0,%eax
    25a1:	e9 d8 00 00 00       	jmp    267e <ezxml_ent_ok+0x156>
/media/ssd-partition/Documents/RootCauseAnalysisPruning/evaluation/test_bin/22-ezXML/ezxml/ezxml.c:276
        for (i = 0; ent[i] && strncmp(ent[i], s + 1, strlen(ent[i])); i += 2);
    25a6:	c7 45 fc 00 00 00 00 	movl   $0x0,-0x4(%rbp)
    25ad:	eb 04                	jmp    25b3 <ezxml_ent_ok+0x8b>
/media/ssd-partition/Documents/RootCauseAnalysisPruning/evaluation/test_bin/22-ezXML/ezxml/ezxml.c:276 (discriminator 4)
    25af:	83 45 fc 02          	addl   $0x2,-0x4(%rbp)
/media/ssd-partition/Documents/RootCauseAnalysisPruning/evaluation/test_bin/22-ezXML/ezxml/ezxml.c:276 (discriminator 1)
    25b3:	8b 45 fc             	mov    -0x4(%rbp),%eax
    25b6:	48 98                	cltq   
    25b8:	48 8d 14 c5 00 00 00 	lea    0x0(,%rax,8),%rdx
    25bf:	00 
    25c0:	48 8b 45 d8          	mov    -0x28(%rbp),%rax
    25c4:	48 01 d0             	add    %rdx,%rax
    25c7:	48 8b 00             	mov    (%rax),%rax
    25ca:	48 85 c0             	test   %rax,%rax
    25cd:	74 50                	je     261f <ezxml_ent_ok+0xf7>
/media/ssd-partition/Documents/RootCauseAnalysisPruning/evaluation/test_bin/22-ezXML/ezxml/ezxml.c:276 (discriminator 3)
    25cf:	8b 45 fc             	mov    -0x4(%rbp),%eax
    25d2:	48 98                	cltq   
    25d4:	48 8d 14 c5 00 00 00 	lea    0x0(,%rax,8),%rdx
    25db:	00 
    25dc:	48 8b 45 d8          	mov    -0x28(%rbp),%rax
    25e0:	48 01 d0             	add    %rdx,%rax
    25e3:	48 8b 00             	mov    (%rax),%rax
    25e6:	48 89 c7             	mov    %rax,%rdi
    25e9:	e8 d2 ec ff ff       	call   12c0 <strlen@plt>
    25ee:	48 89 c2             	mov    %rax,%rdx
    25f1:	48 8b 45 e0          	mov    -0x20(%rbp),%rax
    25f5:	48 8d 48 01          	lea    0x1(%rax),%rcx
    25f9:	8b 45 fc             	mov    -0x4(%rbp),%eax
    25fc:	48 98                	cltq   
    25fe:	48 8d 34 c5 00 00 00 	lea    0x0(,%rax,8),%rsi
    2605:	00 
    2606:	48 8b 45 d8          	mov    -0x28(%rbp),%rax
    260a:	48 01 f0             	add    %rsi,%rax
    260d:	48 8b 00             	mov    (%rax),%rax
    2610:	48 89 ce             	mov    %rcx,%rsi
    2613:	48 89 c7             	mov    %rax,%rdi
    2616:	e8 55 ec ff ff       	call   1270 <strncmp@plt>
    261b:	85 c0                	test   %eax,%eax
    261d:	75 90                	jne    25af <ezxml_ent_ok+0x87>
/media/ssd-partition/Documents/RootCauseAnalysisPruning/evaluation/test_bin/22-ezXML/ezxml/ezxml.c:277
        if (ent[i] && ! ezxml_ent_ok(name, ent[i + 1], ent)) return 0;
    261f:	8b 45 fc             	mov    -0x4(%rbp),%eax
    2622:	48 98                	cltq   
    2624:	48 8d 14 c5 00 00 00 	lea    0x0(,%rax,8),%rdx
    262b:	00 
    262c:	48 8b 45 d8          	mov    -0x28(%rbp),%rax
    2630:	48 01 d0             	add    %rdx,%rax
    2633:	48 8b 00             	mov    (%rax),%rax
    2636:	48 85 c0             	test   %rax,%rax
    2639:	74 39                	je     2674 <ezxml_ent_ok+0x14c>
/media/ssd-partition/Documents/RootCauseAnalysisPruning/evaluation/test_bin/22-ezXML/ezxml/ezxml.c:277 (discriminator 1)
    263b:	8b 45 fc             	mov    -0x4(%rbp),%eax
    263e:	48 98                	cltq   
    2640:	48 83 c0 01          	add    $0x1,%rax
    2644:	48 8d 14 c5 00 00 00 	lea    0x0(,%rax,8),%rdx
    264b:	00 
    264c:	48 8b 45 d8          	mov    -0x28(%rbp),%rax
    2650:	48 01 d0             	add    %rdx,%rax
    2653:	48 8b 08             	mov    (%rax),%rcx
    2656:	48 8b 55 d8          	mov    -0x28(%rbp),%rdx
    265a:	48 8b 45 e8          	mov    -0x18(%rbp),%rax
    265e:	48 89 ce             	mov    %rcx,%rsi
    2661:	48 89 c7             	mov    %rax,%rdi
    2664:	e8 bf fe ff ff       	call   2528 <ezxml_ent_ok>
    2669:	85 c0                	test   %eax,%eax
    266b:	75 07                	jne    2674 <ezxml_ent_ok+0x14c>
/media/ssd-partition/Documents/RootCauseAnalysisPruning/evaluation/test_bin/22-ezXML/ezxml/ezxml.c:277 (discriminator 2)
    266d:	b8 00 00 00 00       	mov    $0x0,%eax
    2672:	eb 0a                	jmp    267e <ezxml_ent_ok+0x156>
/media/ssd-partition/Documents/RootCauseAnalysisPruning/evaluation/test_bin/22-ezXML/ezxml/ezxml.c:272
    for (; ; s++) {
    2674:	48 83 45 e0 01       	addq   $0x1,-0x20(%rbp)
/media/ssd-partition/Documents/RootCauseAnalysisPruning/evaluation/test_bin/22-ezXML/ezxml/ezxml.c:273
        while (*s && *s != '&') s++; // find next entity reference
    2679:	e9 c9 fe ff ff       	jmp    2547 <ezxml_ent_ok+0x1f>
/media/ssd-partition/Documents/RootCauseAnalysisPruning/evaluation/test_bin/22-ezXML/ezxml/ezxml.c:279
    }
}
    267e:	c9                   	leave  
    267f:	c3                   	ret    

0000000000002680 <ezxml_proc_inst>:
ezxml_proc_inst():
/media/ssd-partition/Documents/RootCauseAnalysisPruning/evaluation/test_bin/22-ezXML/ezxml/ezxml.c:283

// called when the parser finds a processing instruction
void ezxml_proc_inst(ezxml_root_t root, char *s, size_t len)
{
    2680:	f3 0f 1e fa          	endbr64 
    2684:	55                   	push   %rbp
    2685:	48 89 e5             	mov    %rsp,%rbp
    2688:	53                   	push   %rbx
    2689:	48 83 ec 38          	sub    $0x38,%rsp
    268d:	48 89 7d d8          	mov    %rdi,-0x28(%rbp)
    2691:	48 89 75 d0          	mov    %rsi,-0x30(%rbp)
    2695:	48 89 55 c8          	mov    %rdx,-0x38(%rbp)
/media/ssd-partition/Documents/RootCauseAnalysisPruning/evaluation/test_bin/22-ezXML/ezxml/ezxml.c:284
    int i = 0, j = 1;
    2699:	c7 45 e0 00 00 00 00 	movl   $0x0,-0x20(%rbp)
    26a0:	c7 45 e4 01 00 00 00 	movl   $0x1,-0x1c(%rbp)
/media/ssd-partition/Documents/RootCauseAnalysisPruning/evaluation/test_bin/22-ezXML/ezxml/ezxml.c:285
    char *target = s;
    26a7:	48 8b 45 d0          	mov    -0x30(%rbp),%rax
    26ab:	48 89 45 e8          	mov    %rax,-0x18(%rbp)
/media/ssd-partition/Documents/RootCauseAnalysisPruning/evaluation/test_bin/22-ezXML/ezxml/ezxml.c:287

    s[len] = '\0'; // null terminate instruction
    26af:	48 8b 55 d0          	mov    -0x30(%rbp),%rdx
    26b3:	48 8b 45 c8          	mov    -0x38(%rbp),%rax
    26b7:	48 01 d0             	add    %rdx,%rax
    26ba:	c6 00 00             	movb   $0x0,(%rax)
/media/ssd-partition/Documents/RootCauseAnalysisPruning/evaluation/test_bin/22-ezXML/ezxml/ezxml.c:288
    if (*(s += strcspn(s, EZXML_WS))) {
    26bd:	48 8b 45 d0          	mov    -0x30(%rbp),%rax
    26c1:	48 8d 15 7b 49 00 00 	lea    0x497b(%rip),%rdx        # 7043 <_IO_stdin_used+0x43>
    26c8:	48 89 d6             	mov    %rdx,%rsi
    26cb:	48 89 c7             	mov    %rax,%rdi
    26ce:	e8 6d ec ff ff       	call   1340 <strcspn@plt>
    26d3:	48 01 45 d0          	add    %rax,-0x30(%rbp)
    26d7:	48 8b 45 d0          	mov    -0x30(%rbp),%rax
    26db:	0f b6 00             	movzbl (%rax),%eax
    26de:	84 c0                	test   %al,%al
    26e0:	74 29                	je     270b <ezxml_proc_inst+0x8b>
/media/ssd-partition/Documents/RootCauseAnalysisPruning/evaluation/test_bin/22-ezXML/ezxml/ezxml.c:289
        *s = '\0'; // null terminate target
    26e2:	48 8b 45 d0          	mov    -0x30(%rbp),%rax
    26e6:	c6 00 00             	movb   $0x0,(%rax)
/media/ssd-partition/Documents/RootCauseAnalysisPruning/evaluation/test_bin/22-ezXML/ezxml/ezxml.c:290
        s += strspn(s + 1, EZXML_WS) + 1; // skip whitespace after target
    26e9:	48 8b 45 d0          	mov    -0x30(%rbp),%rax
    26ed:	48 83 c0 01          	add    $0x1,%rax
    26f1:	48 8d 15 4b 49 00 00 	lea    0x494b(%rip),%rdx        # 7043 <_IO_stdin_used+0x43>
    26f8:	48 89 d6             	mov    %rdx,%rsi
    26fb:	48 89 c7             	mov    %rax,%rdi
    26fe:	e8 2d ec ff ff       	call   1330 <strspn@plt>
    2703:	48 83 c0 01          	add    $0x1,%rax
    2707:	48 01 45 d0          	add    %rax,-0x30(%rbp)
/media/ssd-partition/Documents/RootCauseAnalysisPruning/evaluation/test_bin/22-ezXML/ezxml/ezxml.c:293
    }

    if (! strcmp(target, "xml")) { // <?xml ... ?>
    270b:	48 8b 45 e8          	mov    -0x18(%rbp),%rax
    270f:	48 8d 15 32 49 00 00 	lea    0x4932(%rip),%rdx        # 7048 <_IO_stdin_used+0x48>
    2716:	48 89 d6             	mov    %rdx,%rsi
    2719:	48 89 c7             	mov    %rax,%rdi
    271c:	e8 3f ec ff ff       	call   1360 <strcmp@plt>
    2721:	85 c0                	test   %eax,%eax
    2723:	75 7b                	jne    27a0 <ezxml_proc_inst+0x120>
/media/ssd-partition/Documents/RootCauseAnalysisPruning/evaluation/test_bin/22-ezXML/ezxml/ezxml.c:294
        if ((s = strstr(s, "standalone")) && ! strncmp(s + strspn(s + 10,
    2725:	48 8b 45 d0          	mov    -0x30(%rbp),%rax
    2729:	48 8d 15 1c 49 00 00 	lea    0x491c(%rip),%rdx        # 704c <_IO_stdin_used+0x4c>
    2730:	48 89 d6             	mov    %rdx,%rsi
    2733:	48 89 c7             	mov    %rax,%rdi
    2736:	e8 05 ed ff ff       	call   1440 <strstr@plt>
    273b:	48 89 45 d0          	mov    %rax,-0x30(%rbp)
    273f:	48 83 7d d0 00       	cmpq   $0x0,-0x30(%rbp)
    2744:	0f 84 b2 03 00 00    	je     2afc <ezxml_proc_inst+0x47c>
/media/ssd-partition/Documents/RootCauseAnalysisPruning/evaluation/test_bin/22-ezXML/ezxml/ezxml.c:294 (discriminator 1)
    274a:	48 8b 45 d0          	mov    -0x30(%rbp),%rax
    274e:	48 83 c0 0a          	add    $0xa,%rax
    2752:	48 8d 15 fe 48 00 00 	lea    0x48fe(%rip),%rdx        # 7057 <_IO_stdin_used+0x57>
    2759:	48 89 d6             	mov    %rdx,%rsi
    275c:	48 89 c7             	mov    %rax,%rdi
    275f:	e8 cc eb ff ff       	call   1330 <strspn@plt>
/media/ssd-partition/Documents/RootCauseAnalysisPruning/evaluation/test_bin/22-ezXML/ezxml/ezxml.c:295 (discriminator 1)
            EZXML_WS "='\"") + 10, "yes", 3)) root->standalone = 1;
    2764:	48 8d 50 0a          	lea    0xa(%rax),%rdx
    2768:	48 8b 45 d0          	mov    -0x30(%rbp),%rax
    276c:	48 01 d0             	add    %rdx,%rax
/media/ssd-partition/Documents/RootCauseAnalysisPruning/evaluation/test_bin/22-ezXML/ezxml/ezxml.c:294 (discriminator 1)
        if ((s = strstr(s, "standalone")) && ! strncmp(s + strspn(s + 10,
    276f:	ba 03 00 00 00       	mov    $0x3,%edx
    2774:	48 8d 0d e4 48 00 00 	lea    0x48e4(%rip),%rcx        # 705f <_IO_stdin_used+0x5f>
    277b:	48 89 ce             	mov    %rcx,%rsi
    277e:	48 89 c7             	mov    %rax,%rdi
    2781:	e8 ea ea ff ff       	call   1270 <strncmp@plt>
    2786:	85 c0                	test   %eax,%eax
    2788:	0f 85 6e 03 00 00    	jne    2afc <ezxml_proc_inst+0x47c>
/media/ssd-partition/Documents/RootCauseAnalysisPruning/evaluation/test_bin/22-ezXML/ezxml/ezxml.c:295
            EZXML_WS "='\"") + 10, "yes", 3)) root->standalone = 1;
    278e:	48 8b 45 d8          	mov    -0x28(%rbp),%rax
    2792:	66 c7 80 98 00 00 00 	movw   $0x1,0x98(%rax)
    2799:	01 00 
/media/ssd-partition/Documents/RootCauseAnalysisPruning/evaluation/test_bin/22-ezXML/ezxml/ezxml.c:296
        return;
    279b:	e9 5c 03 00 00       	jmp    2afc <ezxml_proc_inst+0x47c>
/media/ssd-partition/Documents/RootCauseAnalysisPruning/evaluation/test_bin/22-ezXML/ezxml/ezxml.c:299
    }

    if (! root->pi[0]) *(root->pi = malloc(sizeof(char **))) = NULL; //first pi
    27a0:	48 8b 45 d8          	mov    -0x28(%rbp),%rax
    27a4:	48 8b 80 90 00 00 00 	mov    0x90(%rax),%rax
    27ab:	48 8b 00             	mov    (%rax),%rax
    27ae:	48 85 c0             	test   %rax,%rax
    27b1:	75 30                	jne    27e3 <ezxml_proc_inst+0x163>
/media/ssd-partition/Documents/RootCauseAnalysisPruning/evaluation/test_bin/22-ezXML/ezxml/ezxml.c:299 (discriminator 1)
    27b3:	bf 08 00 00 00       	mov    $0x8,%edi
    27b8:	e8 e3 eb ff ff       	call   13a0 <malloc@plt>
    27bd:	48 89 c2             	mov    %rax,%rdx
    27c0:	48 8b 45 d8          	mov    -0x28(%rbp),%rax
    27c4:	48 89 90 90 00 00 00 	mov    %rdx,0x90(%rax)
    27cb:	48 8b 45 d8          	mov    -0x28(%rbp),%rax
    27cf:	48 8b 80 90 00 00 00 	mov    0x90(%rax),%rax
    27d6:	48 c7 00 00 00 00 00 	movq   $0x0,(%rax)
/media/ssd-partition/Documents/RootCauseAnalysisPruning/evaluation/test_bin/22-ezXML/ezxml/ezxml.c:301 (discriminator 1)

    while (root->pi[i] && strcmp(target, root->pi[i][0])) i++; // find target
    27dd:	eb 04                	jmp    27e3 <ezxml_proc_inst+0x163>
/media/ssd-partition/Documents/RootCauseAnalysisPruning/evaluation/test_bin/22-ezXML/ezxml/ezxml.c:301 (discriminator 3)
    27df:	83 45 e0 01          	addl   $0x1,-0x20(%rbp)
/media/ssd-partition/Documents/RootCauseAnalysisPruning/evaluation/test_bin/22-ezXML/ezxml/ezxml.c:301 (discriminator 1)
    27e3:	48 8b 45 d8          	mov    -0x28(%rbp),%rax
    27e7:	48 8b 90 90 00 00 00 	mov    0x90(%rax),%rdx
    27ee:	8b 45 e0             	mov    -0x20(%rbp),%eax
    27f1:	48 98                	cltq   
    27f3:	48 c1 e0 03          	shl    $0x3,%rax
    27f7:	48 01 d0             	add    %rdx,%rax
    27fa:	48 8b 00             	mov    (%rax),%rax
    27fd:	48 85 c0             	test   %rax,%rax
    2800:	74 30                	je     2832 <ezxml_proc_inst+0x1b2>
/media/ssd-partition/Documents/RootCauseAnalysisPruning/evaluation/test_bin/22-ezXML/ezxml/ezxml.c:301 (discriminator 2)
    2802:	48 8b 45 d8          	mov    -0x28(%rbp),%rax
    2806:	48 8b 90 90 00 00 00 	mov    0x90(%rax),%rdx
    280d:	8b 45 e0             	mov    -0x20(%rbp),%eax
    2810:	48 98                	cltq   
    2812:	48 c1 e0 03          	shl    $0x3,%rax
    2816:	48 01 d0             	add    %rdx,%rax
    2819:	48 8b 00             	mov    (%rax),%rax
    281c:	48 8b 10             	mov    (%rax),%rdx
    281f:	48 8b 45 e8          	mov    -0x18(%rbp),%rax
    2823:	48 89 d6             	mov    %rdx,%rsi
    2826:	48 89 c7             	mov    %rax,%rdi
    2829:	e8 32 eb ff ff       	call   1360 <strcmp@plt>
    282e:	85 c0                	test   %eax,%eax
    2830:	75 ad                	jne    27df <ezxml_proc_inst+0x15f>
/media/ssd-partition/Documents/RootCauseAnalysisPruning/evaluation/test_bin/22-ezXML/ezxml/ezxml.c:302
    if (! root->pi[i]) { // new target
    2832:	48 8b 45 d8          	mov    -0x28(%rbp),%rax
    2836:	48 8b 90 90 00 00 00 	mov    0x90(%rax),%rdx
    283d:	8b 45 e0             	mov    -0x20(%rbp),%eax
    2840:	48 98                	cltq   
    2842:	48 c1 e0 03          	shl    $0x3,%rax
    2846:	48 01 d0             	add    %rdx,%rax
    2849:	48 8b 00             	mov    (%rax),%rax
    284c:	48 85 c0             	test   %rax,%rax
    284f:	0f 85 f4 00 00 00    	jne    2949 <ezxml_proc_inst+0x2c9>
/media/ssd-partition/Documents/RootCauseAnalysisPruning/evaluation/test_bin/22-ezXML/ezxml/ezxml.c:303
        root->pi = realloc(root->pi, sizeof(char **) * (i + 2));
    2855:	8b 45 e0             	mov    -0x20(%rbp),%eax
    2858:	83 c0 02             	add    $0x2,%eax
    285b:	48 98                	cltq   
    285d:	48 8d 14 c5 00 00 00 	lea    0x0(,%rax,8),%rdx
    2864:	00 
    2865:	48 8b 45 d8          	mov    -0x28(%rbp),%rax
    2869:	48 8b 80 90 00 00 00 	mov    0x90(%rax),%rax
    2870:	48 89 d6             	mov    %rdx,%rsi
    2873:	48 89 c7             	mov    %rax,%rdi
    2876:	e8 35 eb ff ff       	call   13b0 <realloc@plt>
    287b:	48 8b 55 d8          	mov    -0x28(%rbp),%rdx
    287f:	48 89 82 90 00 00 00 	mov    %rax,0x90(%rdx)
/media/ssd-partition/Documents/RootCauseAnalysisPruning/evaluation/test_bin/22-ezXML/ezxml/ezxml.c:304
        root->pi[i] = malloc(sizeof(char *) * 3);
    2886:	48 8b 45 d8          	mov    -0x28(%rbp),%rax
    288a:	48 8b 90 90 00 00 00 	mov    0x90(%rax),%rdx
    2891:	8b 45 e0             	mov    -0x20(%rbp),%eax
    2894:	48 98                	cltq   
    2896:	48 c1 e0 03          	shl    $0x3,%rax
    289a:	48 8d 1c 02          	lea    (%rdx,%rax,1),%rbx
    289e:	bf 18 00 00 00       	mov    $0x18,%edi
    28a3:	e8 f8 ea ff ff       	call   13a0 <malloc@plt>
    28a8:	48 89 03             	mov    %rax,(%rbx)
/media/ssd-partition/Documents/RootCauseAnalysisPruning/evaluation/test_bin/22-ezXML/ezxml/ezxml.c:305
        root->pi[i][0] = target;
    28ab:	48 8b 45 d8          	mov    -0x28(%rbp),%rax
    28af:	48 8b 90 90 00 00 00 	mov    0x90(%rax),%rdx
    28b6:	8b 45 e0             	mov    -0x20(%rbp),%eax
    28b9:	48 98                	cltq   
    28bb:	48 c1 e0 03          	shl    $0x3,%rax
    28bf:	48 01 d0             	add    %rdx,%rax
    28c2:	48 8b 00             	mov    (%rax),%rax
    28c5:	48 8b 55 e8          	mov    -0x18(%rbp),%rdx
    28c9:	48 89 10             	mov    %rdx,(%rax)
/media/ssd-partition/Documents/RootCauseAnalysisPruning/evaluation/test_bin/22-ezXML/ezxml/ezxml.c:306
        root->pi[i][1] = (char *)(root->pi[i + 1] = NULL); // terminate pi list
    28cc:	48 8b 45 d8          	mov    -0x28(%rbp),%rax
    28d0:	48 8b 90 90 00 00 00 	mov    0x90(%rax),%rdx
    28d7:	8b 45 e0             	mov    -0x20(%rbp),%eax
    28da:	48 98                	cltq   
    28dc:	48 83 c0 01          	add    $0x1,%rax
    28e0:	48 c1 e0 03          	shl    $0x3,%rax
    28e4:	48 01 d0             	add    %rdx,%rax
    28e7:	48 c7 00 00 00 00 00 	movq   $0x0,(%rax)
    28ee:	48 8b 45 d8          	mov    -0x28(%rbp),%rax
    28f2:	48 8b 90 90 00 00 00 	mov    0x90(%rax),%rdx
    28f9:	8b 45 e0             	mov    -0x20(%rbp),%eax
    28fc:	48 98                	cltq   
    28fe:	48 c1 e0 03          	shl    $0x3,%rax
    2902:	48 01 d0             	add    %rdx,%rax
    2905:	48 8b 00             	mov    (%rax),%rax
    2908:	48 83 c0 08          	add    $0x8,%rax
    290c:	48 c7 00 00 00 00 00 	movq   $0x0,(%rax)
/media/ssd-partition/Documents/RootCauseAnalysisPruning/evaluation/test_bin/22-ezXML/ezxml/ezxml.c:307
        root->pi[i][2] = strdup(""); // empty document position list
    2913:	48 8b 45 d8          	mov    -0x28(%rbp),%rax
    2917:	48 8b 90 90 00 00 00 	mov    0x90(%rax),%rdx
    291e:	8b 45 e0             	mov    -0x20(%rbp),%eax
    2921:	48 98                	cltq   
    2923:	48 c1 e0 03          	shl    $0x3,%rax
    2927:	48 01 d0             	add    %rdx,%rax
    292a:	48 8b 00             	mov    (%rax),%rax
    292d:	48 8d 58 10          	lea    0x10(%rax),%rbx
    2931:	48 8d 05 2b 47 00 00 	lea    0x472b(%rip),%rax        # 7063 <_IO_stdin_used+0x63>
    2938:	48 89 c7             	mov    %rax,%rdi
    293b:	e8 e0 ea ff ff       	call   1420 <strdup@plt>
    2940:	48 89 03             	mov    %rax,(%rbx)
/media/ssd-partition/Documents/RootCauseAnalysisPruning/evaluation/test_bin/22-ezXML/ezxml/ezxml.c:310
    }

    while (root->pi[i][j]) j++; // find end of instruction list for this target
    2943:	eb 04                	jmp    2949 <ezxml_proc_inst+0x2c9>
/media/ssd-partition/Documents/RootCauseAnalysisPruning/evaluation/test_bin/22-ezXML/ezxml/ezxml.c:310 (discriminator 2)
    2945:	83 45 e4 01          	addl   $0x1,-0x1c(%rbp)
/media/ssd-partition/Documents/RootCauseAnalysisPruning/evaluation/test_bin/22-ezXML/ezxml/ezxml.c:310 (discriminator 1)
    2949:	48 8b 45 d8          	mov    -0x28(%rbp),%rax
    294d:	48 8b 90 90 00 00 00 	mov    0x90(%rax),%rdx
    2954:	8b 45 e0             	mov    -0x20(%rbp),%eax
    2957:	48 98                	cltq   
    2959:	48 c1 e0 03          	shl    $0x3,%rax
    295d:	48 01 d0             	add    %rdx,%rax
    2960:	48 8b 10             	mov    (%rax),%rdx
    2963:	8b 45 e4             	mov    -0x1c(%rbp),%eax
    2966:	48 98                	cltq   
    2968:	48 c1 e0 03          	shl    $0x3,%rax
    296c:	48 01 d0             	add    %rdx,%rax
    296f:	48 8b 00             	mov    (%rax),%rax
    2972:	48 85 c0             	test   %rax,%rax
    2975:	75 ce                	jne    2945 <ezxml_proc_inst+0x2c5>
/media/ssd-partition/Documents/RootCauseAnalysisPruning/evaluation/test_bin/22-ezXML/ezxml/ezxml.c:311
    root->pi[i] = realloc(root->pi[i], sizeof(char *) * (j + 3));
    2977:	8b 45 e4             	mov    -0x1c(%rbp),%eax
    297a:	83 c0 03             	add    $0x3,%eax
    297d:	48 98                	cltq   
    297f:	48 8d 14 c5 00 00 00 	lea    0x0(,%rax,8),%rdx
    2986:	00 
    2987:	48 8b 45 d8          	mov    -0x28(%rbp),%rax
    298b:	48 8b 88 90 00 00 00 	mov    0x90(%rax),%rcx
    2992:	8b 45 e0             	mov    -0x20(%rbp),%eax
    2995:	48 98                	cltq   
    2997:	48 c1 e0 03          	shl    $0x3,%rax
    299b:	48 01 c8             	add    %rcx,%rax
    299e:	48 8b 00             	mov    (%rax),%rax
    29a1:	48 8b 4d d8          	mov    -0x28(%rbp),%rcx
    29a5:	48 8b b1 90 00 00 00 	mov    0x90(%rcx),%rsi
    29ac:	8b 4d e0             	mov    -0x20(%rbp),%ecx
    29af:	48 63 c9             	movslq %ecx,%rcx
    29b2:	48 c1 e1 03          	shl    $0x3,%rcx
    29b6:	48 8d 1c 0e          	lea    (%rsi,%rcx,1),%rbx
    29ba:	48 89 d6             	mov    %rdx,%rsi
    29bd:	48 89 c7             	mov    %rax,%rdi
    29c0:	e8 eb e9 ff ff       	call   13b0 <realloc@plt>
    29c5:	48 89 03             	mov    %rax,(%rbx)
/media/ssd-partition/Documents/RootCauseAnalysisPruning/evaluation/test_bin/22-ezXML/ezxml/ezxml.c:312
    root->pi[i][j + 2] = realloc(root->pi[i][j + 1], j + 1);
    29c8:	8b 45 e4             	mov    -0x1c(%rbp),%eax
    29cb:	83 c0 01             	add    $0x1,%eax
    29ce:	48 63 d0             	movslq %eax,%rdx
    29d1:	48 8b 45 d8          	mov    -0x28(%rbp),%rax
    29d5:	48 8b 88 90 00 00 00 	mov    0x90(%rax),%rcx
    29dc:	8b 45 e0             	mov    -0x20(%rbp),%eax
    29df:	48 98                	cltq   
    29e1:	48 c1 e0 03          	shl    $0x3,%rax
    29e5:	48 01 c8             	add    %rcx,%rax
    29e8:	48 8b 08             	mov    (%rax),%rcx
    29eb:	8b 45 e4             	mov    -0x1c(%rbp),%eax
    29ee:	48 98                	cltq   
    29f0:	48 83 c0 01          	add    $0x1,%rax
    29f4:	48 c1 e0 03          	shl    $0x3,%rax
    29f8:	48 01 c8             	add    %rcx,%rax
    29fb:	48 8b 00             	mov    (%rax),%rax
    29fe:	48 8b 4d d8          	mov    -0x28(%rbp),%rcx
    2a02:	48 8b b1 90 00 00 00 	mov    0x90(%rcx),%rsi
    2a09:	8b 4d e0             	mov    -0x20(%rbp),%ecx
    2a0c:	48 63 c9             	movslq %ecx,%rcx
    2a0f:	48 c1 e1 03          	shl    $0x3,%rcx
    2a13:	48 01 f1             	add    %rsi,%rcx
    2a16:	48 8b 31             	mov    (%rcx),%rsi
    2a19:	8b 4d e4             	mov    -0x1c(%rbp),%ecx
    2a1c:	48 63 c9             	movslq %ecx,%rcx
    2a1f:	48 83 c1 02          	add    $0x2,%rcx
    2a23:	48 c1 e1 03          	shl    $0x3,%rcx
    2a27:	48 8d 1c 0e          	lea    (%rsi,%rcx,1),%rbx
    2a2b:	48 89 d6             	mov    %rdx,%rsi
    2a2e:	48 89 c7             	mov    %rax,%rdi
    2a31:	e8 7a e9 ff ff       	call   13b0 <realloc@plt>
    2a36:	48 89 03             	mov    %rax,(%rbx)
/media/ssd-partition/Documents/RootCauseAnalysisPruning/evaluation/test_bin/22-ezXML/ezxml/ezxml.c:313
    strcpy(root->pi[i][j + 2] + j - 1, (root->xml.name) ? ">" : "<");
    2a39:	48 8b 45 d8          	mov    -0x28(%rbp),%rax
    2a3d:	48 8b 00             	mov    (%rax),%rax
    2a40:	48 85 c0             	test   %rax,%rax
    2a43:	74 09                	je     2a4e <ezxml_proc_inst+0x3ce>
/media/ssd-partition/Documents/RootCauseAnalysisPruning/evaluation/test_bin/22-ezXML/ezxml/ezxml.c:313 (discriminator 1)
    2a45:	48 8d 05 18 46 00 00 	lea    0x4618(%rip),%rax        # 7064 <_IO_stdin_used+0x64>
    2a4c:	eb 07                	jmp    2a55 <ezxml_proc_inst+0x3d5>
/media/ssd-partition/Documents/RootCauseAnalysisPruning/evaluation/test_bin/22-ezXML/ezxml/ezxml.c:313 (discriminator 2)
    2a4e:	48 8d 05 11 46 00 00 	lea    0x4611(%rip),%rax        # 7066 <_IO_stdin_used+0x66>
/media/ssd-partition/Documents/RootCauseAnalysisPruning/evaluation/test_bin/22-ezXML/ezxml/ezxml.c:313 (discriminator 4)
    2a55:	48 8b 55 d8          	mov    -0x28(%rbp),%rdx
    2a59:	48 8b 8a 90 00 00 00 	mov    0x90(%rdx),%rcx
    2a60:	8b 55 e0             	mov    -0x20(%rbp),%edx
    2a63:	48 63 d2             	movslq %edx,%rdx
    2a66:	48 c1 e2 03          	shl    $0x3,%rdx
    2a6a:	48 01 ca             	add    %rcx,%rdx
    2a6d:	48 8b 0a             	mov    (%rdx),%rcx
    2a70:	8b 55 e4             	mov    -0x1c(%rbp),%edx
    2a73:	48 63 d2             	movslq %edx,%rdx
    2a76:	48 83 c2 02          	add    $0x2,%rdx
    2a7a:	48 c1 e2 03          	shl    $0x3,%rdx
    2a7e:	48 01 ca             	add    %rcx,%rdx
    2a81:	48 8b 0a             	mov    (%rdx),%rcx
    2a84:	8b 55 e4             	mov    -0x1c(%rbp),%edx
    2a87:	48 63 d2             	movslq %edx,%rdx
    2a8a:	48 83 ea 01          	sub    $0x1,%rdx
    2a8e:	48 01 ca             	add    %rcx,%rdx
    2a91:	48 89 c6             	mov    %rax,%rsi
    2a94:	48 89 d7             	mov    %rdx,%rdi
    2a97:	e8 e4 e7 ff ff       	call   1280 <strcpy@plt>
/media/ssd-partition/Documents/RootCauseAnalysisPruning/evaluation/test_bin/22-ezXML/ezxml/ezxml.c:314 (discriminator 4)
    root->pi[i][j + 1] = NULL; // null terminate pi list for this target
    2a9c:	48 8b 45 d8          	mov    -0x28(%rbp),%rax
    2aa0:	48 8b 90 90 00 00 00 	mov    0x90(%rax),%rdx
    2aa7:	8b 45 e0             	mov    -0x20(%rbp),%eax
    2aaa:	48 98                	cltq   
    2aac:	48 c1 e0 03          	shl    $0x3,%rax
    2ab0:	48 01 d0             	add    %rdx,%rax
    2ab3:	48 8b 10             	mov    (%rax),%rdx
    2ab6:	8b 45 e4             	mov    -0x1c(%rbp),%eax
    2ab9:	48 98                	cltq   
    2abb:	48 83 c0 01          	add    $0x1,%rax
    2abf:	48 c1 e0 03          	shl    $0x3,%rax
    2ac3:	48 01 d0             	add    %rdx,%rax
    2ac6:	48 c7 00 00 00 00 00 	movq   $0x0,(%rax)
/media/ssd-partition/Documents/RootCauseAnalysisPruning/evaluation/test_bin/22-ezXML/ezxml/ezxml.c:315 (discriminator 4)
    root->pi[i][j] = s; // set instruction
    2acd:	48 8b 45 d8          	mov    -0x28(%rbp),%rax
    2ad1:	48 8b 90 90 00 00 00 	mov    0x90(%rax),%rdx
    2ad8:	8b 45 e0             	mov    -0x20(%rbp),%eax
    2adb:	48 98                	cltq   
    2add:	48 c1 e0 03          	shl    $0x3,%rax
    2ae1:	48 01 d0             	add    %rdx,%rax
    2ae4:	48 8b 10             	mov    (%rax),%rdx
    2ae7:	8b 45 e4             	mov    -0x1c(%rbp),%eax
    2aea:	48 98                	cltq   
    2aec:	48 c1 e0 03          	shl    $0x3,%rax
    2af0:	48 01 c2             	add    %rax,%rdx
    2af3:	48 8b 45 d0          	mov    -0x30(%rbp),%rax
    2af7:	48 89 02             	mov    %rax,(%rdx)
    2afa:	eb 01                	jmp    2afd <ezxml_proc_inst+0x47d>
/media/ssd-partition/Documents/RootCauseAnalysisPruning/evaluation/test_bin/22-ezXML/ezxml/ezxml.c:296
        return;
    2afc:	90                   	nop
/media/ssd-partition/Documents/RootCauseAnalysisPruning/evaluation/test_bin/22-ezXML/ezxml/ezxml.c:316
}
    2afd:	48 8b 5d f8          	mov    -0x8(%rbp),%rbx
    2b01:	c9                   	leave  
    2b02:	c3                   	ret    

0000000000002b03 <ezxml_internal_dtd>:
ezxml_internal_dtd():
/media/ssd-partition/Documents/RootCauseAnalysisPruning/evaluation/test_bin/22-ezXML/ezxml/ezxml.c:320

// called when the parser finds an internal doctype subset
short ezxml_internal_dtd(ezxml_root_t root, char *s, size_t len)
{
    2b03:	f3 0f 1e fa          	endbr64 
    2b07:	55                   	push   %rbp
    2b08:	48 89 e5             	mov    %rsp,%rbp
    2b0b:	53                   	push   %rbx
    2b0c:	48 83 ec 68          	sub    $0x68,%rsp
    2b10:	48 89 7d a8          	mov    %rdi,-0x58(%rbp)
    2b14:	48 89 75 a0          	mov    %rsi,-0x60(%rbp)
    2b18:	48 89 55 98          	mov    %rdx,-0x68(%rbp)
/media/ssd-partition/Documents/RootCauseAnalysisPruning/evaluation/test_bin/22-ezXML/ezxml/ezxml.c:321
    char q, *c, *t, *n = NULL, *v, **ent, **pe;
    2b1c:	48 c7 45 c0 00 00 00 	movq   $0x0,-0x40(%rbp)
    2b23:	00 
/media/ssd-partition/Documents/RootCauseAnalysisPruning/evaluation/test_bin/22-ezXML/ezxml/ezxml.c:324
    int i, j;
    
    pe = memcpy(malloc(sizeof(EZXML_NIL)), EZXML_NIL, sizeof(EZXML_NIL));
    2b24:	bf 08 00 00 00       	mov    $0x8,%edi
    2b29:	e8 72 e8 ff ff       	call   13a0 <malloc@plt>
    2b2e:	48 8b 15 5b 65 00 00 	mov    0x655b(%rip),%rdx        # 9090 <EZXML_NIL>
    2b35:	48 89 10             	mov    %rdx,(%rax)
    2b38:	48 89 45 d0          	mov    %rax,-0x30(%rbp)
/media/ssd-partition/Documents/RootCauseAnalysisPruning/evaluation/test_bin/22-ezXML/ezxml/ezxml.c:326

    for (s[len] = '\0'; s; ) {
    2b3c:	48 8b 55 a0          	mov    -0x60(%rbp),%rdx
    2b40:	48 8b 45 98          	mov    -0x68(%rbp),%rax
    2b44:	48 01 d0             	add    %rdx,%rax
    2b47:	c6 00 00             	movb   $0x0,(%rax)
    2b4a:	e9 39 0a 00 00       	jmp    3588 <ezxml_internal_dtd+0xa85>
/media/ssd-partition/Documents/RootCauseAnalysisPruning/evaluation/test_bin/22-ezXML/ezxml/ezxml.c:327 (discriminator 4)
        while (*s && *s != '<' && *s != '%') s++; // find next declaration
    2b4f:	48 83 45 a0 01       	addq   $0x1,-0x60(%rbp)
/media/ssd-partition/Documents/RootCauseAnalysisPruning/evaluation/test_bin/22-ezXML/ezxml/ezxml.c:327 (discriminator 1)
    2b54:	48 8b 45 a0          	mov    -0x60(%rbp),%rax
    2b58:	0f b6 00             	movzbl (%rax),%eax
    2b5b:	84 c0                	test   %al,%al
    2b5d:	74 16                	je     2b75 <ezxml_internal_dtd+0x72>
/media/ssd-partition/Documents/RootCauseAnalysisPruning/evaluation/test_bin/22-ezXML/ezxml/ezxml.c:327 (discriminator 2)
    2b5f:	48 8b 45 a0          	mov    -0x60(%rbp),%rax
    2b63:	0f b6 00             	movzbl (%rax),%eax
    2b66:	3c 3c                	cmp    $0x3c,%al
    2b68:	74 0b                	je     2b75 <ezxml_internal_dtd+0x72>
/media/ssd-partition/Documents/RootCauseAnalysisPruning/evaluation/test_bin/22-ezXML/ezxml/ezxml.c:327 (discriminator 3)
    2b6a:	48 8b 45 a0          	mov    -0x60(%rbp),%rax
    2b6e:	0f b6 00             	movzbl (%rax),%eax
    2b71:	3c 25                	cmp    $0x25,%al
    2b73:	75 da                	jne    2b4f <ezxml_internal_dtd+0x4c>
/media/ssd-partition/Documents/RootCauseAnalysisPruning/evaluation/test_bin/22-ezXML/ezxml/ezxml.c:329

        if (! *s) break;
    2b75:	48 8b 45 a0          	mov    -0x60(%rbp),%rax
    2b79:	0f b6 00             	movzbl (%rax),%eax
    2b7c:	84 c0                	test   %al,%al
    2b7e:	0f 84 11 0a 00 00    	je     3595 <ezxml_internal_dtd+0xa92>
/media/ssd-partition/Documents/RootCauseAnalysisPruning/evaluation/test_bin/22-ezXML/ezxml/ezxml.c:330
        else if (! strncmp(s, "<!ENTITY", 8)) { // parse entity definitions
    2b84:	48 8b 45 a0          	mov    -0x60(%rbp),%rax
    2b88:	ba 08 00 00 00       	mov    $0x8,%edx
    2b8d:	48 8d 0d d4 44 00 00 	lea    0x44d4(%rip),%rcx        # 7068 <_IO_stdin_used+0x68>
    2b94:	48 89 ce             	mov    %rcx,%rsi
    2b97:	48 89 c7             	mov    %rax,%rdi
    2b9a:	e8 d1 e6 ff ff       	call   1270 <strncmp@plt>
    2b9f:	85 c0                	test   %eax,%eax
    2ba1:	0f 85 ad 02 00 00    	jne    2e54 <ezxml_internal_dtd+0x351>
/media/ssd-partition/Documents/RootCauseAnalysisPruning/evaluation/test_bin/22-ezXML/ezxml/ezxml.c:331
            c = s += strspn(s + 8, EZXML_WS) + 8; // skip white space separator
    2ba7:	48 8b 45 a0          	mov    -0x60(%rbp),%rax
    2bab:	48 83 c0 08          	add    $0x8,%rax
    2baf:	48 8d 15 8d 44 00 00 	lea    0x448d(%rip),%rdx        # 7043 <_IO_stdin_used+0x43>
    2bb6:	48 89 d6             	mov    %rdx,%rsi
    2bb9:	48 89 c7             	mov    %rax,%rdi
    2bbc:	e8 6f e7 ff ff       	call   1330 <strspn@plt>
    2bc1:	48 83 c0 08          	add    $0x8,%rax
    2bc5:	48 01 45 a0          	add    %rax,-0x60(%rbp)
    2bc9:	48 8b 45 a0          	mov    -0x60(%rbp),%rax
    2bcd:	48 89 45 d8          	mov    %rax,-0x28(%rbp)
/media/ssd-partition/Documents/RootCauseAnalysisPruning/evaluation/test_bin/22-ezXML/ezxml/ezxml.c:332
            n = s + strspn(s, EZXML_WS "%"); // find name
    2bd1:	48 8b 45 a0          	mov    -0x60(%rbp),%rax
    2bd5:	48 8d 15 95 44 00 00 	lea    0x4495(%rip),%rdx        # 7071 <_IO_stdin_used+0x71>
    2bdc:	48 89 d6             	mov    %rdx,%rsi
    2bdf:	48 89 c7             	mov    %rax,%rdi
    2be2:	e8 49 e7 ff ff       	call   1330 <strspn@plt>
    2be7:	48 8b 55 a0          	mov    -0x60(%rbp),%rdx
    2beb:	48 01 d0             	add    %rdx,%rax
    2bee:	48 89 45 c0          	mov    %rax,-0x40(%rbp)
/media/ssd-partition/Documents/RootCauseAnalysisPruning/evaluation/test_bin/22-ezXML/ezxml/ezxml.c:333
            *(s = n + strcspn(n, EZXML_WS)) = ';'; // append ; to name
    2bf2:	48 8b 45 c0          	mov    -0x40(%rbp),%rax
    2bf6:	48 8d 15 46 44 00 00 	lea    0x4446(%rip),%rdx        # 7043 <_IO_stdin_used+0x43>
    2bfd:	48 89 d6             	mov    %rdx,%rsi
    2c00:	48 89 c7             	mov    %rax,%rdi
    2c03:	e8 38 e7 ff ff       	call   1340 <strcspn@plt>
    2c08:	48 8b 55 c0          	mov    -0x40(%rbp),%rdx
    2c0c:	48 01 d0             	add    %rdx,%rax
    2c0f:	48 89 45 a0          	mov    %rax,-0x60(%rbp)
    2c13:	48 8b 45 a0          	mov    -0x60(%rbp),%rax
    2c17:	c6 00 3b             	movb   $0x3b,(%rax)
/media/ssd-partition/Documents/RootCauseAnalysisPruning/evaluation/test_bin/22-ezXML/ezxml/ezxml.c:335

            v = s + strspn(s + 1, EZXML_WS) + 1; // find value
    2c1a:	48 8b 45 a0          	mov    -0x60(%rbp),%rax
    2c1e:	48 83 c0 01          	add    $0x1,%rax
    2c22:	48 8d 15 1a 44 00 00 	lea    0x441a(%rip),%rdx        # 7043 <_IO_stdin_used+0x43>
    2c29:	48 89 d6             	mov    %rdx,%rsi
    2c2c:	48 89 c7             	mov    %rax,%rdi
    2c2f:	e8 fc e6 ff ff       	call   1330 <strspn@plt>
    2c34:	48 8d 50 01          	lea    0x1(%rax),%rdx
    2c38:	48 8b 45 a0          	mov    -0x60(%rbp),%rax
    2c3c:	48 01 d0             	add    %rdx,%rax
    2c3f:	48 89 45 c8          	mov    %rax,-0x38(%rbp)
/media/ssd-partition/Documents/RootCauseAnalysisPruning/evaluation/test_bin/22-ezXML/ezxml/ezxml.c:336
            if ((q = *(v++)) != '"' && q != '\'') { // skip externals
    2c43:	48 8b 45 c8          	mov    -0x38(%rbp),%rax
    2c47:	48 8d 50 01          	lea    0x1(%rax),%rdx
    2c4b:	48 89 55 c8          	mov    %rdx,-0x38(%rbp)
    2c4f:	0f b6 00             	movzbl (%rax),%eax
    2c52:	88 45 b7             	mov    %al,-0x49(%rbp)
    2c55:	80 7d b7 22          	cmpb   $0x22,-0x49(%rbp)
    2c59:	74 20                	je     2c7b <ezxml_internal_dtd+0x178>
/media/ssd-partition/Documents/RootCauseAnalysisPruning/evaluation/test_bin/22-ezXML/ezxml/ezxml.c:336 (discriminator 1)
    2c5b:	80 7d b7 27          	cmpb   $0x27,-0x49(%rbp)
    2c5f:	74 1a                	je     2c7b <ezxml_internal_dtd+0x178>
/media/ssd-partition/Documents/RootCauseAnalysisPruning/evaluation/test_bin/22-ezXML/ezxml/ezxml.c:337 (discriminator 2)
                s = strchr(s, '>');
    2c61:	48 8b 45 a0          	mov    -0x60(%rbp),%rax
    2c65:	be 3e 00 00 00       	mov    $0x3e,%esi
    2c6a:	48 89 c7             	mov    %rax,%rdi
    2c6d:	e8 7e e6 ff ff       	call   12f0 <strchr@plt>
    2c72:	48 89 45 a0          	mov    %rax,-0x60(%rbp)
/media/ssd-partition/Documents/RootCauseAnalysisPruning/evaluation/test_bin/22-ezXML/ezxml/ezxml.c:338 (discriminator 2)
                continue;
    2c76:	e9 0d 09 00 00       	jmp    3588 <ezxml_internal_dtd+0xa85>
/media/ssd-partition/Documents/RootCauseAnalysisPruning/evaluation/test_bin/22-ezXML/ezxml/ezxml.c:341
            }

            for (i = 0, ent = (*c == '%') ? pe : root->ent; ent[i]; i++);
    2c7b:	c7 45 b8 00 00 00 00 	movl   $0x0,-0x48(%rbp)
    2c82:	48 8b 45 d8          	mov    -0x28(%rbp),%rax
    2c86:	0f b6 00             	movzbl (%rax),%eax
    2c89:	3c 25                	cmp    $0x25,%al
    2c8b:	74 0d                	je     2c9a <ezxml_internal_dtd+0x197>
/media/ssd-partition/Documents/RootCauseAnalysisPruning/evaluation/test_bin/22-ezXML/ezxml/ezxml.c:341 (discriminator 1)
    2c8d:	48 8b 45 a8          	mov    -0x58(%rbp),%rax
    2c91:	48 8b 80 80 00 00 00 	mov    0x80(%rax),%rax
    2c98:	eb 04                	jmp    2c9e <ezxml_internal_dtd+0x19b>
/media/ssd-partition/Documents/RootCauseAnalysisPruning/evaluation/test_bin/22-ezXML/ezxml/ezxml.c:341 (discriminator 2)
    2c9a:	48 8b 45 d0          	mov    -0x30(%rbp),%rax
/media/ssd-partition/Documents/RootCauseAnalysisPruning/evaluation/test_bin/22-ezXML/ezxml/ezxml.c:341 (discriminator 4)
    2c9e:	48 89 45 e8          	mov    %rax,-0x18(%rbp)
    2ca2:	eb 04                	jmp    2ca8 <ezxml_internal_dtd+0x1a5>
/media/ssd-partition/Documents/RootCauseAnalysisPruning/evaluation/test_bin/22-ezXML/ezxml/ezxml.c:341 (discriminator 7)
    2ca4:	83 45 b8 01          	addl   $0x1,-0x48(%rbp)
/media/ssd-partition/Documents/RootCauseAnalysisPruning/evaluation/test_bin/22-ezXML/ezxml/ezxml.c:341 (discriminator 5)
    2ca8:	8b 45 b8             	mov    -0x48(%rbp),%eax
    2cab:	48 98                	cltq   
    2cad:	48 8d 14 c5 00 00 00 	lea    0x0(,%rax,8),%rdx
    2cb4:	00 
    2cb5:	48 8b 45 e8          	mov    -0x18(%rbp),%rax
    2cb9:	48 01 d0             	add    %rdx,%rax
    2cbc:	48 8b 00             	mov    (%rax),%rax
    2cbf:	48 85 c0             	test   %rax,%rax
    2cc2:	75 e0                	jne    2ca4 <ezxml_internal_dtd+0x1a1>
/media/ssd-partition/Documents/RootCauseAnalysisPruning/evaluation/test_bin/22-ezXML/ezxml/ezxml.c:342
            ent = realloc(ent, (i + 3) * sizeof(char *)); // space for next ent
    2cc4:	8b 45 b8             	mov    -0x48(%rbp),%eax
    2cc7:	83 c0 03             	add    $0x3,%eax
    2cca:	48 98                	cltq   
    2ccc:	48 8d 14 c5 00 00 00 	lea    0x0(,%rax,8),%rdx
    2cd3:	00 
    2cd4:	48 8b 45 e8          	mov    -0x18(%rbp),%rax
    2cd8:	48 89 d6             	mov    %rdx,%rsi
    2cdb:	48 89 c7             	mov    %rax,%rdi
    2cde:	e8 cd e6 ff ff       	call   13b0 <realloc@plt>
    2ce3:	48 89 45 e8          	mov    %rax,-0x18(%rbp)
/media/ssd-partition/Documents/RootCauseAnalysisPruning/evaluation/test_bin/22-ezXML/ezxml/ezxml.c:343
            if (*c == '%') pe = ent;
    2ce7:	48 8b 45 d8          	mov    -0x28(%rbp),%rax
    2ceb:	0f b6 00             	movzbl (%rax),%eax
    2cee:	3c 25                	cmp    $0x25,%al
    2cf0:	75 0a                	jne    2cfc <ezxml_internal_dtd+0x1f9>
/media/ssd-partition/Documents/RootCauseAnalysisPruning/evaluation/test_bin/22-ezXML/ezxml/ezxml.c:343 (discriminator 1)
    2cf2:	48 8b 45 e8          	mov    -0x18(%rbp),%rax
    2cf6:	48 89 45 d0          	mov    %rax,-0x30(%rbp)
    2cfa:	eb 0f                	jmp    2d0b <ezxml_internal_dtd+0x208>
/media/ssd-partition/Documents/RootCauseAnalysisPruning/evaluation/test_bin/22-ezXML/ezxml/ezxml.c:344
            else root->ent = ent;
    2cfc:	48 8b 45 a8          	mov    -0x58(%rbp),%rax
    2d00:	48 8b 55 e8          	mov    -0x18(%rbp),%rdx
    2d04:	48 89 90 80 00 00 00 	mov    %rdx,0x80(%rax)
/media/ssd-partition/Documents/RootCauseAnalysisPruning/evaluation/test_bin/22-ezXML/ezxml/ezxml.c:346

            *(++s) = '\0'; // null terminate name
    2d0b:	48 83 45 a0 01       	addq   $0x1,-0x60(%rbp)
    2d10:	48 8b 45 a0          	mov    -0x60(%rbp),%rax
    2d14:	c6 00 00             	movb   $0x0,(%rax)
/media/ssd-partition/Documents/RootCauseAnalysisPruning/evaluation/test_bin/22-ezXML/ezxml/ezxml.c:347
            if ((s = strchr(v, q))) *(s++) = '\0'; // null terminate value
    2d17:	0f be 55 b7          	movsbl -0x49(%rbp),%edx
    2d1b:	48 8b 45 c8          	mov    -0x38(%rbp),%rax
    2d1f:	89 d6                	mov    %edx,%esi
    2d21:	48 89 c7             	mov    %rax,%rdi
    2d24:	e8 c7 e5 ff ff       	call   12f0 <strchr@plt>
    2d29:	48 89 45 a0          	mov    %rax,-0x60(%rbp)
    2d2d:	48 83 7d a0 00       	cmpq   $0x0,-0x60(%rbp)
    2d32:	74 0f                	je     2d43 <ezxml_internal_dtd+0x240>
/media/ssd-partition/Documents/RootCauseAnalysisPruning/evaluation/test_bin/22-ezXML/ezxml/ezxml.c:347 (discriminator 1)
    2d34:	48 8b 45 a0          	mov    -0x60(%rbp),%rax
    2d38:	48 8d 50 01          	lea    0x1(%rax),%rdx
    2d3c:	48 89 55 a0          	mov    %rdx,-0x60(%rbp)
    2d40:	c6 00 00             	movb   $0x0,(%rax)
/media/ssd-partition/Documents/RootCauseAnalysisPruning/evaluation/test_bin/22-ezXML/ezxml/ezxml.c:348
            ent[i + 1] = ezxml_decode(v, pe, '%'); // set value
    2d43:	8b 45 b8             	mov    -0x48(%rbp),%eax
    2d46:	48 98                	cltq   
    2d48:	48 83 c0 01          	add    $0x1,%rax
    2d4c:	48 8d 14 c5 00 00 00 	lea    0x0(,%rax,8),%rdx
    2d53:	00 
    2d54:	48 8b 45 e8          	mov    -0x18(%rbp),%rax
    2d58:	48 8d 1c 02          	lea    (%rdx,%rax,1),%rbx
    2d5c:	48 8b 4d d0          	mov    -0x30(%rbp),%rcx
    2d60:	48 8b 45 c8          	mov    -0x38(%rbp),%rax
    2d64:	ba 25 00 00 00       	mov    $0x25,%edx
    2d69:	48 89 ce             	mov    %rcx,%rsi
    2d6c:	48 89 c7             	mov    %rax,%rdi
    2d6f:	e8 e1 ee ff ff       	call   1c55 <ezxml_decode>
    2d74:	48 89 03             	mov    %rax,(%rbx)
/media/ssd-partition/Documents/RootCauseAnalysisPruning/evaluation/test_bin/22-ezXML/ezxml/ezxml.c:349
            ent[i + 2] = NULL; // null terminate entity list
    2d77:	8b 45 b8             	mov    -0x48(%rbp),%eax
    2d7a:	48 98                	cltq   
    2d7c:	48 83 c0 02          	add    $0x2,%rax
    2d80:	48 8d 14 c5 00 00 00 	lea    0x0(,%rax,8),%rdx
    2d87:	00 
    2d88:	48 8b 45 e8          	mov    -0x18(%rbp),%rax
    2d8c:	48 01 d0             	add    %rdx,%rax
    2d8f:	48 c7 00 00 00 00 00 	movq   $0x0,(%rax)
/media/ssd-partition/Documents/RootCauseAnalysisPruning/evaluation/test_bin/22-ezXML/ezxml/ezxml.c:350
            if (! ezxml_ent_ok(n, ent[i + 1], ent)) { // circular reference
    2d96:	8b 45 b8             	mov    -0x48(%rbp),%eax
    2d99:	48 98                	cltq   
    2d9b:	48 83 c0 01          	add    $0x1,%rax
    2d9f:	48 8d 14 c5 00 00 00 	lea    0x0(,%rax,8),%rdx
    2da6:	00 
    2da7:	48 8b 45 e8          	mov    -0x18(%rbp),%rax
    2dab:	48 01 d0             	add    %rdx,%rax
    2dae:	48 8b 08             	mov    (%rax),%rcx
    2db1:	48 8b 55 e8          	mov    -0x18(%rbp),%rdx
    2db5:	48 8b 45 c0          	mov    -0x40(%rbp),%rax
    2db9:	48 89 ce             	mov    %rcx,%rsi
    2dbc:	48 89 c7             	mov    %rax,%rdi
    2dbf:	e8 64 f7 ff ff       	call   2528 <ezxml_ent_ok>
    2dc4:	85 c0                	test   %eax,%eax
    2dc6:	75 6c                	jne    2e34 <ezxml_internal_dtd+0x331>
/media/ssd-partition/Documents/RootCauseAnalysisPruning/evaluation/test_bin/22-ezXML/ezxml/ezxml.c:351
                if (ent[i + 1] != v) free(ent[i + 1]);
    2dc8:	8b 45 b8             	mov    -0x48(%rbp),%eax
    2dcb:	48 98                	cltq   
    2dcd:	48 83 c0 01          	add    $0x1,%rax
    2dd1:	48 8d 14 c5 00 00 00 	lea    0x0(,%rax,8),%rdx
    2dd8:	00 
    2dd9:	48 8b 45 e8          	mov    -0x18(%rbp),%rax
    2ddd:	48 01 d0             	add    %rdx,%rax
    2de0:	48 8b 00             	mov    (%rax),%rax
    2de3:	48 39 45 c8          	cmp    %rax,-0x38(%rbp)
    2de7:	74 23                	je     2e0c <ezxml_internal_dtd+0x309>
/media/ssd-partition/Documents/RootCauseAnalysisPruning/evaluation/test_bin/22-ezXML/ezxml/ezxml.c:351 (discriminator 1)
    2de9:	8b 45 b8             	mov    -0x48(%rbp),%eax
    2dec:	48 98                	cltq   
    2dee:	48 83 c0 01          	add    $0x1,%rax
    2df2:	48 8d 14 c5 00 00 00 	lea    0x0(,%rax,8),%rdx
    2df9:	00 
    2dfa:	48 8b 45 e8          	mov    -0x18(%rbp),%rax
    2dfe:	48 01 d0             	add    %rdx,%rax
    2e01:	48 8b 00             	mov    (%rax),%rax
    2e04:	48 89 c7             	mov    %rax,%rdi
    2e07:	e8 44 e4 ff ff       	call   1250 <free@plt>
/media/ssd-partition/Documents/RootCauseAnalysisPruning/evaluation/test_bin/22-ezXML/ezxml/ezxml.c:352
                ezxml_err(root, v, "circular entity declaration &%s", n);
    2e0c:	48 8b 55 c0          	mov    -0x40(%rbp),%rdx
    2e10:	48 8b 75 c8          	mov    -0x38(%rbp),%rsi
    2e14:	48 8b 45 a8          	mov    -0x58(%rbp),%rax
    2e18:	48 89 d1             	mov    %rdx,%rcx
    2e1b:	48 8d 15 56 42 00 00 	lea    0x4256(%rip),%rdx        # 7078 <_IO_stdin_used+0x78>
    2e22:	48 89 c7             	mov    %rax,%rdi
    2e25:	b8 00 00 00 00       	mov    $0x0,%eax
    2e2a:	e8 c1 ec ff ff       	call   1af0 <ezxml_err>
/media/ssd-partition/Documents/RootCauseAnalysisPruning/evaluation/test_bin/22-ezXML/ezxml/ezxml.c:353
                break;
    2e2f:	e9 65 07 00 00       	jmp    3599 <ezxml_internal_dtd+0xa96>
/media/ssd-partition/Documents/RootCauseAnalysisPruning/evaluation/test_bin/22-ezXML/ezxml/ezxml.c:355
            }
            else ent[i] = n; // set entity name
    2e34:	8b 45 b8             	mov    -0x48(%rbp),%eax
    2e37:	48 98                	cltq   
    2e39:	48 8d 14 c5 00 00 00 	lea    0x0(,%rax,8),%rdx
    2e40:	00 
    2e41:	48 8b 45 e8          	mov    -0x18(%rbp),%rax
    2e45:	48 01 c2             	add    %rax,%rdx
    2e48:	48 8b 45 c0          	mov    -0x40(%rbp),%rax
    2e4c:	48 89 02             	mov    %rax,(%rdx)
    2e4f:	e9 34 07 00 00       	jmp    3588 <ezxml_internal_dtd+0xa85>
/media/ssd-partition/Documents/RootCauseAnalysisPruning/evaluation/test_bin/22-ezXML/ezxml/ezxml.c:357
        }
        else if (! strncmp(s, "<!ATTLIST", 9)) { // parse default attributes
    2e54:	48 8b 45 a0          	mov    -0x60(%rbp),%rax
    2e58:	ba 09 00 00 00       	mov    $0x9,%edx
    2e5d:	48 8d 0d 34 42 00 00 	lea    0x4234(%rip),%rcx        # 7098 <_IO_stdin_used+0x98>
    2e64:	48 89 ce             	mov    %rcx,%rsi
    2e67:	48 89 c7             	mov    %rax,%rdi
    2e6a:	e8 01 e4 ff ff       	call   1270 <strncmp@plt>
    2e6f:	85 c0                	test   %eax,%eax
    2e71:	0f 85 16 06 00 00    	jne    348d <ezxml_internal_dtd+0x98a>
/media/ssd-partition/Documents/RootCauseAnalysisPruning/evaluation/test_bin/22-ezXML/ezxml/ezxml.c:358
            t = s + strspn(s + 9, EZXML_WS) + 9; // skip whitespace separator
    2e77:	48 8b 45 a0          	mov    -0x60(%rbp),%rax
    2e7b:	48 83 c0 09          	add    $0x9,%rax
    2e7f:	48 8d 15 bd 41 00 00 	lea    0x41bd(%rip),%rdx        # 7043 <_IO_stdin_used+0x43>
    2e86:	48 89 d6             	mov    %rdx,%rsi
    2e89:	48 89 c7             	mov    %rax,%rdi
    2e8c:	e8 9f e4 ff ff       	call   1330 <strspn@plt>
    2e91:	48 8d 50 09          	lea    0x9(%rax),%rdx
    2e95:	48 8b 45 a0          	mov    -0x60(%rbp),%rax
    2e99:	48 01 d0             	add    %rdx,%rax
    2e9c:	48 89 45 e0          	mov    %rax,-0x20(%rbp)
/media/ssd-partition/Documents/RootCauseAnalysisPruning/evaluation/test_bin/22-ezXML/ezxml/ezxml.c:359
            if (! *t) { ezxml_err(root, t, "unclosed <!ATTLIST"); break; }
    2ea0:	48 8b 45 e0          	mov    -0x20(%rbp),%rax
    2ea4:	0f b6 00             	movzbl (%rax),%eax
    2ea7:	84 c0                	test   %al,%al
    2ea9:	75 24                	jne    2ecf <ezxml_internal_dtd+0x3cc>
/media/ssd-partition/Documents/RootCauseAnalysisPruning/evaluation/test_bin/22-ezXML/ezxml/ezxml.c:359 (discriminator 1)
    2eab:	48 8b 4d e0          	mov    -0x20(%rbp),%rcx
    2eaf:	48 8b 45 a8          	mov    -0x58(%rbp),%rax
    2eb3:	48 8d 15 e8 41 00 00 	lea    0x41e8(%rip),%rdx        # 70a2 <_IO_stdin_used+0xa2>
    2eba:	48 89 ce             	mov    %rcx,%rsi
    2ebd:	48 89 c7             	mov    %rax,%rdi
    2ec0:	b8 00 00 00 00       	mov    $0x0,%eax
    2ec5:	e8 26 ec ff ff       	call   1af0 <ezxml_err>
    2eca:	e9 ca 06 00 00       	jmp    3599 <ezxml_internal_dtd+0xa96>
/media/ssd-partition/Documents/RootCauseAnalysisPruning/evaluation/test_bin/22-ezXML/ezxml/ezxml.c:360
            if (*(s = t + strcspn(t, EZXML_WS ">")) == '>') continue;
    2ecf:	48 8b 45 e0          	mov    -0x20(%rbp),%rax
    2ed3:	48 8d 15 db 41 00 00 	lea    0x41db(%rip),%rdx        # 70b5 <_IO_stdin_used+0xb5>
    2eda:	48 89 d6             	mov    %rdx,%rsi
    2edd:	48 89 c7             	mov    %rax,%rdi
    2ee0:	e8 5b e4 ff ff       	call   1340 <strcspn@plt>
    2ee5:	48 8b 55 e0          	mov    -0x20(%rbp),%rdx
    2ee9:	48 01 d0             	add    %rdx,%rax
    2eec:	48 89 45 a0          	mov    %rax,-0x60(%rbp)
    2ef0:	48 8b 45 a0          	mov    -0x60(%rbp),%rax
    2ef4:	0f b6 00             	movzbl (%rax),%eax
    2ef7:	3c 3e                	cmp    $0x3e,%al
    2ef9:	75 05                	jne    2f00 <ezxml_internal_dtd+0x3fd>
/media/ssd-partition/Documents/RootCauseAnalysisPruning/evaluation/test_bin/22-ezXML/ezxml/ezxml.c:360 (discriminator 1)
    2efb:	e9 88 06 00 00       	jmp    3588 <ezxml_internal_dtd+0xa85>
/media/ssd-partition/Documents/RootCauseAnalysisPruning/evaluation/test_bin/22-ezXML/ezxml/ezxml.c:361
            else *s = '\0'; // null terminate tag name
    2f00:	48 8b 45 a0          	mov    -0x60(%rbp),%rax
    2f04:	c6 00 00             	movb   $0x0,(%rax)
/media/ssd-partition/Documents/RootCauseAnalysisPruning/evaluation/test_bin/22-ezXML/ezxml/ezxml.c:362
            for (i = 0; root->attr[i] && strcmp(n, root->attr[i][0]); i++);
    2f07:	c7 45 b8 00 00 00 00 	movl   $0x0,-0x48(%rbp)
    2f0e:	eb 04                	jmp    2f14 <ezxml_internal_dtd+0x411>
/media/ssd-partition/Documents/RootCauseAnalysisPruning/evaluation/test_bin/22-ezXML/ezxml/ezxml.c:362 (discriminator 4)
    2f10:	83 45 b8 01          	addl   $0x1,-0x48(%rbp)
/media/ssd-partition/Documents/RootCauseAnalysisPruning/evaluation/test_bin/22-ezXML/ezxml/ezxml.c:362 (discriminator 1)
    2f14:	48 8b 45 a8          	mov    -0x58(%rbp),%rax
    2f18:	48 8b 90 88 00 00 00 	mov    0x88(%rax),%rdx
    2f1f:	8b 45 b8             	mov    -0x48(%rbp),%eax
    2f22:	48 98                	cltq   
    2f24:	48 c1 e0 03          	shl    $0x3,%rax
    2f28:	48 01 d0             	add    %rdx,%rax
    2f2b:	48 8b 00             	mov    (%rax),%rax
    2f2e:	48 85 c0             	test   %rax,%rax
    2f31:	0f 84 0d 05 00 00    	je     3444 <ezxml_internal_dtd+0x941>
/media/ssd-partition/Documents/RootCauseAnalysisPruning/evaluation/test_bin/22-ezXML/ezxml/ezxml.c:362 (discriminator 3)
    2f37:	48 8b 45 a8          	mov    -0x58(%rbp),%rax
    2f3b:	48 8b 90 88 00 00 00 	mov    0x88(%rax),%rdx
    2f42:	8b 45 b8             	mov    -0x48(%rbp),%eax
    2f45:	48 98                	cltq   
    2f47:	48 c1 e0 03          	shl    $0x3,%rax
    2f4b:	48 01 d0             	add    %rdx,%rax
    2f4e:	48 8b 00             	mov    (%rax),%rax
    2f51:	48 8b 10             	mov    (%rax),%rdx
    2f54:	48 8b 45 c0          	mov    -0x40(%rbp),%rax
    2f58:	48 89 d6             	mov    %rdx,%rsi
    2f5b:	48 89 c7             	mov    %rax,%rdi
    2f5e:	e8 fd e3 ff ff       	call   1360 <strcmp@plt>
    2f63:	85 c0                	test   %eax,%eax
    2f65:	75 a9                	jne    2f10 <ezxml_internal_dtd+0x40d>
/media/ssd-partition/Documents/RootCauseAnalysisPruning/evaluation/test_bin/22-ezXML/ezxml/ezxml.c:364

            while (*(n = ++s + strspn(s, EZXML_WS)) && *n != '>') {
    2f67:	e9 d8 04 00 00       	jmp    3444 <ezxml_internal_dtd+0x941>
/media/ssd-partition/Documents/RootCauseAnalysisPruning/evaluation/test_bin/22-ezXML/ezxml/ezxml.c:365
                if (*(s = n + strcspn(n, EZXML_WS))) *s = '\0'; // attr name
    2f6c:	48 8b 45 c0          	mov    -0x40(%rbp),%rax
    2f70:	48 8d 15 cc 40 00 00 	lea    0x40cc(%rip),%rdx        # 7043 <_IO_stdin_used+0x43>
    2f77:	48 89 d6             	mov    %rdx,%rsi
    2f7a:	48 89 c7             	mov    %rax,%rdi
    2f7d:	e8 be e3 ff ff       	call   1340 <strcspn@plt>
    2f82:	48 8b 55 c0          	mov    -0x40(%rbp),%rdx
    2f86:	48 01 d0             	add    %rdx,%rax
    2f89:	48 89 45 a0          	mov    %rax,-0x60(%rbp)
    2f8d:	48 8b 45 a0          	mov    -0x60(%rbp),%rax
    2f91:	0f b6 00             	movzbl (%rax),%eax
    2f94:	84 c0                	test   %al,%al
    2f96:	74 4a                	je     2fe2 <ezxml_internal_dtd+0x4df>
/media/ssd-partition/Documents/RootCauseAnalysisPruning/evaluation/test_bin/22-ezXML/ezxml/ezxml.c:365 (discriminator 1)
    2f98:	48 8b 45 a0          	mov    -0x60(%rbp),%rax
    2f9c:	c6 00 00             	movb   $0x0,(%rax)
/media/ssd-partition/Documents/RootCauseAnalysisPruning/evaluation/test_bin/22-ezXML/ezxml/ezxml.c:368 (discriminator 1)
                else { ezxml_err(root, t, "malformed <!ATTLIST"); break; }

                s += strspn(s + 1, EZXML_WS) + 1; // find next token
    2f9f:	48 8b 45 a0          	mov    -0x60(%rbp),%rax
    2fa3:	48 83 c0 01          	add    $0x1,%rax
    2fa7:	48 8d 15 95 40 00 00 	lea    0x4095(%rip),%rdx        # 7043 <_IO_stdin_used+0x43>
    2fae:	48 89 d6             	mov    %rdx,%rsi
    2fb1:	48 89 c7             	mov    %rax,%rdi
    2fb4:	e8 77 e3 ff ff       	call   1330 <strspn@plt>
    2fb9:	48 83 c0 01          	add    $0x1,%rax
    2fbd:	48 01 45 a0          	add    %rax,-0x60(%rbp)
/media/ssd-partition/Documents/RootCauseAnalysisPruning/evaluation/test_bin/22-ezXML/ezxml/ezxml.c:369 (discriminator 1)
                c = (strncmp(s, "CDATA", 5)) ? "*" : " "; // is it cdata?
    2fc1:	48 8b 45 a0          	mov    -0x60(%rbp),%rax
    2fc5:	ba 05 00 00 00       	mov    $0x5,%edx
    2fca:	48 8d 0d fe 40 00 00 	lea    0x40fe(%rip),%rcx        # 70cf <_IO_stdin_used+0xcf>
    2fd1:	48 89 ce             	mov    %rcx,%rsi
    2fd4:	48 89 c7             	mov    %rax,%rdi
    2fd7:	e8 94 e2 ff ff       	call   1270 <strncmp@plt>
    2fdc:	85 c0                	test   %eax,%eax
    2fde:	74 2f                	je     300f <ezxml_internal_dtd+0x50c>
    2fe0:	eb 24                	jmp    3006 <ezxml_internal_dtd+0x503>
/media/ssd-partition/Documents/RootCauseAnalysisPruning/evaluation/test_bin/22-ezXML/ezxml/ezxml.c:366
                else { ezxml_err(root, t, "malformed <!ATTLIST"); break; }
    2fe2:	48 8b 4d e0          	mov    -0x20(%rbp),%rcx
    2fe6:	48 8b 45 a8          	mov    -0x58(%rbp),%rax
    2fea:	48 8d 15 ca 40 00 00 	lea    0x40ca(%rip),%rdx        # 70bb <_IO_stdin_used+0xbb>
    2ff1:	48 89 ce             	mov    %rcx,%rsi
    2ff4:	48 89 c7             	mov    %rax,%rdi
    2ff7:	b8 00 00 00 00       	mov    $0x0,%eax
    2ffc:	e8 ef ea ff ff       	call   1af0 <ezxml_err>
    3001:	e9 82 05 00 00       	jmp    3588 <ezxml_internal_dtd+0xa85>
/media/ssd-partition/Documents/RootCauseAnalysisPruning/evaluation/test_bin/22-ezXML/ezxml/ezxml.c:369 (discriminator 1)
                c = (strncmp(s, "CDATA", 5)) ? "*" : " "; // is it cdata?
    3006:	48 8d 05 c8 40 00 00 	lea    0x40c8(%rip),%rax        # 70d5 <_IO_stdin_used+0xd5>
    300d:	eb 07                	jmp    3016 <ezxml_internal_dtd+0x513>
/media/ssd-partition/Documents/RootCauseAnalysisPruning/evaluation/test_bin/22-ezXML/ezxml/ezxml.c:369 (discriminator 2)
    300f:	48 8d 05 0e 40 00 00 	lea    0x400e(%rip),%rax        # 7024 <_IO_stdin_used+0x24>
/media/ssd-partition/Documents/RootCauseAnalysisPruning/evaluation/test_bin/22-ezXML/ezxml/ezxml.c:369 (discriminator 4)
    3016:	48 89 45 d8          	mov    %rax,-0x28(%rbp)
/media/ssd-partition/Documents/RootCauseAnalysisPruning/evaluation/test_bin/22-ezXML/ezxml/ezxml.c:370 (discriminator 4)
                if (! strncmp(s, "NOTATION", 8))
    301a:	48 8b 45 a0          	mov    -0x60(%rbp),%rax
    301e:	ba 08 00 00 00       	mov    $0x8,%edx
    3023:	48 8d 0d ad 40 00 00 	lea    0x40ad(%rip),%rcx        # 70d7 <_IO_stdin_used+0xd7>
    302a:	48 89 ce             	mov    %rcx,%rsi
    302d:	48 89 c7             	mov    %rax,%rdi
    3030:	e8 3b e2 ff ff       	call   1270 <strncmp@plt>
    3035:	85 c0                	test   %eax,%eax
    3037:	75 22                	jne    305b <ezxml_internal_dtd+0x558>
/media/ssd-partition/Documents/RootCauseAnalysisPruning/evaluation/test_bin/22-ezXML/ezxml/ezxml.c:371
                    s += strspn(s + 8, EZXML_WS) + 8;
    3039:	48 8b 45 a0          	mov    -0x60(%rbp),%rax
    303d:	48 83 c0 08          	add    $0x8,%rax
    3041:	48 8d 15 fb 3f 00 00 	lea    0x3ffb(%rip),%rdx        # 7043 <_IO_stdin_used+0x43>
    3048:	48 89 d6             	mov    %rdx,%rsi
    304b:	48 89 c7             	mov    %rax,%rdi
    304e:	e8 dd e2 ff ff       	call   1330 <strspn@plt>
    3053:	48 83 c0 08          	add    $0x8,%rax
    3057:	48 01 45 a0          	add    %rax,-0x60(%rbp)
/media/ssd-partition/Documents/RootCauseAnalysisPruning/evaluation/test_bin/22-ezXML/ezxml/ezxml.c:372
                s = (*s == '(') ? strchr(s, ')') : s + strcspn(s, EZXML_WS);
    305b:	48 8b 45 a0          	mov    -0x60(%rbp),%rax
    305f:	0f b6 00             	movzbl (%rax),%eax
    3062:	3c 28                	cmp    $0x28,%al
    3064:	75 13                	jne    3079 <ezxml_internal_dtd+0x576>
/media/ssd-partition/Documents/RootCauseAnalysisPruning/evaluation/test_bin/22-ezXML/ezxml/ezxml.c:372 (discriminator 1)
    3066:	48 8b 45 a0          	mov    -0x60(%rbp),%rax
    306a:	be 29 00 00 00       	mov    $0x29,%esi
    306f:	48 89 c7             	mov    %rax,%rdi
    3072:	e8 79 e2 ff ff       	call   12f0 <strchr@plt>
    3077:	eb 1d                	jmp    3096 <ezxml_internal_dtd+0x593>
/media/ssd-partition/Documents/RootCauseAnalysisPruning/evaluation/test_bin/22-ezXML/ezxml/ezxml.c:372 (discriminator 2)
    3079:	48 8b 45 a0          	mov    -0x60(%rbp),%rax
    307d:	48 8d 15 bf 3f 00 00 	lea    0x3fbf(%rip),%rdx        # 7043 <_IO_stdin_used+0x43>
    3084:	48 89 d6             	mov    %rdx,%rsi
    3087:	48 89 c7             	mov    %rax,%rdi
    308a:	e8 b1 e2 ff ff       	call   1340 <strcspn@plt>
    308f:	48 8b 55 a0          	mov    -0x60(%rbp),%rdx
    3093:	48 01 d0             	add    %rdx,%rax
/media/ssd-partition/Documents/RootCauseAnalysisPruning/evaluation/test_bin/22-ezXML/ezxml/ezxml.c:372 (discriminator 4)
    3096:	48 89 45 a0          	mov    %rax,-0x60(%rbp)
/media/ssd-partition/Documents/RootCauseAnalysisPruning/evaluation/test_bin/22-ezXML/ezxml/ezxml.c:373 (discriminator 4)
                if (! s) { ezxml_err(root, t, "malformed <!ATTLIST"); break; }
    309a:	48 83 7d a0 00       	cmpq   $0x0,-0x60(%rbp)
    309f:	75 24                	jne    30c5 <ezxml_internal_dtd+0x5c2>
/media/ssd-partition/Documents/RootCauseAnalysisPruning/evaluation/test_bin/22-ezXML/ezxml/ezxml.c:373 (discriminator 1)
    30a1:	48 8b 4d e0          	mov    -0x20(%rbp),%rcx
    30a5:	48 8b 45 a8          	mov    -0x58(%rbp),%rax
    30a9:	48 8d 15 0b 40 00 00 	lea    0x400b(%rip),%rdx        # 70bb <_IO_stdin_used+0xbb>
    30b0:	48 89 ce             	mov    %rcx,%rsi
    30b3:	48 89 c7             	mov    %rax,%rdi
    30b6:	b8 00 00 00 00       	mov    $0x0,%eax
    30bb:	e8 30 ea ff ff       	call   1af0 <ezxml_err>
    30c0:	e9 c3 04 00 00       	jmp    3588 <ezxml_internal_dtd+0xa85>
/media/ssd-partition/Documents/RootCauseAnalysisPruning/evaluation/test_bin/22-ezXML/ezxml/ezxml.c:375

                s += strspn(s, EZXML_WS ")"); // skip white space separator
    30c5:	48 8b 45 a0          	mov    -0x60(%rbp),%rax
    30c9:	48 8d 15 10 40 00 00 	lea    0x4010(%rip),%rdx        # 70e0 <_IO_stdin_used+0xe0>
    30d0:	48 89 d6             	mov    %rdx,%rsi
    30d3:	48 89 c7             	mov    %rax,%rdi
    30d6:	e8 55 e2 ff ff       	call   1330 <strspn@plt>
    30db:	48 01 45 a0          	add    %rax,-0x60(%rbp)
/media/ssd-partition/Documents/RootCauseAnalysisPruning/evaluation/test_bin/22-ezXML/ezxml/ezxml.c:376
                if (! strncmp(s, "#FIXED", 6))
    30df:	48 8b 45 a0          	mov    -0x60(%rbp),%rax
    30e3:	ba 06 00 00 00       	mov    $0x6,%edx
    30e8:	48 8d 0d f7 3f 00 00 	lea    0x3ff7(%rip),%rcx        # 70e6 <_IO_stdin_used+0xe6>
    30ef:	48 89 ce             	mov    %rcx,%rsi
    30f2:	48 89 c7             	mov    %rax,%rdi
    30f5:	e8 76 e1 ff ff       	call   1270 <strncmp@plt>
    30fa:	85 c0                	test   %eax,%eax
    30fc:	75 22                	jne    3120 <ezxml_internal_dtd+0x61d>
/media/ssd-partition/Documents/RootCauseAnalysisPruning/evaluation/test_bin/22-ezXML/ezxml/ezxml.c:377
                    s += strspn(s + 6, EZXML_WS) + 6;
    30fe:	48 8b 45 a0          	mov    -0x60(%rbp),%rax
    3102:	48 83 c0 06          	add    $0x6,%rax
    3106:	48 8d 15 36 3f 00 00 	lea    0x3f36(%rip),%rdx        # 7043 <_IO_stdin_used+0x43>
    310d:	48 89 d6             	mov    %rdx,%rsi
    3110:	48 89 c7             	mov    %rax,%rdi
    3113:	e8 18 e2 ff ff       	call   1330 <strspn@plt>
    3118:	48 83 c0 06          	add    $0x6,%rax
    311c:	48 01 45 a0          	add    %rax,-0x60(%rbp)
/media/ssd-partition/Documents/RootCauseAnalysisPruning/evaluation/test_bin/22-ezXML/ezxml/ezxml.c:378
                if (*s == '#') { // no default value
    3120:	48 8b 45 a0          	mov    -0x60(%rbp),%rax
    3124:	0f b6 00             	movzbl (%rax),%eax
    3127:	3c 23                	cmp    $0x23,%al
    3129:	75 38                	jne    3163 <ezxml_internal_dtd+0x660>
/media/ssd-partition/Documents/RootCauseAnalysisPruning/evaluation/test_bin/22-ezXML/ezxml/ezxml.c:379
                    s += strcspn(s, EZXML_WS ">") - 1;
    312b:	48 8b 45 a0          	mov    -0x60(%rbp),%rax
    312f:	48 8d 15 7f 3f 00 00 	lea    0x3f7f(%rip),%rdx        # 70b5 <_IO_stdin_used+0xb5>
    3136:	48 89 d6             	mov    %rdx,%rsi
    3139:	48 89 c7             	mov    %rax,%rdi
    313c:	e8 ff e1 ff ff       	call   1340 <strcspn@plt>
    3141:	48 83 e8 01          	sub    $0x1,%rax
    3145:	48 01 45 a0          	add    %rax,-0x60(%rbp)
/media/ssd-partition/Documents/RootCauseAnalysisPruning/evaluation/test_bin/22-ezXML/ezxml/ezxml.c:380
                    if (*c == ' ') continue; // cdata is default, nothing to do
    3149:	48 8b 45 d8          	mov    -0x28(%rbp),%rax
    314d:	0f b6 00             	movzbl (%rax),%eax
    3150:	3c 20                	cmp    $0x20,%al
    3152:	75 05                	jne    3159 <ezxml_internal_dtd+0x656>
/media/ssd-partition/Documents/RootCauseAnalysisPruning/evaluation/test_bin/22-ezXML/ezxml/ezxml.c:380 (discriminator 1)
    3154:	e9 eb 02 00 00       	jmp    3444 <ezxml_internal_dtd+0x941>
/media/ssd-partition/Documents/RootCauseAnalysisPruning/evaluation/test_bin/22-ezXML/ezxml/ezxml.c:381
                    v = NULL;
    3159:	48 c7 45 c8 00 00 00 	movq   $0x0,-0x38(%rbp)
    3160:	00 
    3161:	eb 72                	jmp    31d5 <ezxml_internal_dtd+0x6d2>
/media/ssd-partition/Documents/RootCauseAnalysisPruning/evaluation/test_bin/22-ezXML/ezxml/ezxml.c:383
                }
                else if ((*s == '"' || *s == '\'')  &&  // default value
    3163:	48 8b 45 a0          	mov    -0x60(%rbp),%rax
    3167:	0f b6 00             	movzbl (%rax),%eax
    316a:	3c 22                	cmp    $0x22,%al
    316c:	74 0b                	je     3179 <ezxml_internal_dtd+0x676>
/media/ssd-partition/Documents/RootCauseAnalysisPruning/evaluation/test_bin/22-ezXML/ezxml/ezxml.c:383 (discriminator 2)
    316e:	48 8b 45 a0          	mov    -0x60(%rbp),%rax
    3172:	0f b6 00             	movzbl (%rax),%eax
    3175:	3c 27                	cmp    $0x27,%al
    3177:	75 38                	jne    31b1 <ezxml_internal_dtd+0x6ae>
/media/ssd-partition/Documents/RootCauseAnalysisPruning/evaluation/test_bin/22-ezXML/ezxml/ezxml.c:384 (discriminator 3)
                         (s = strchr(v = s + 1, *s))) *s = '\0';
    3179:	48 8b 45 a0          	mov    -0x60(%rbp),%rax
    317d:	0f b6 00             	movzbl (%rax),%eax
    3180:	0f be d0             	movsbl %al,%edx
    3183:	48 8b 45 a0          	mov    -0x60(%rbp),%rax
    3187:	48 83 c0 01          	add    $0x1,%rax
    318b:	48 89 45 c8          	mov    %rax,-0x38(%rbp)
    318f:	48 8b 45 c8          	mov    -0x38(%rbp),%rax
    3193:	89 d6                	mov    %edx,%esi
    3195:	48 89 c7             	mov    %rax,%rdi
    3198:	e8 53 e1 ff ff       	call   12f0 <strchr@plt>
    319d:	48 89 45 a0          	mov    %rax,-0x60(%rbp)
/media/ssd-partition/Documents/RootCauseAnalysisPruning/evaluation/test_bin/22-ezXML/ezxml/ezxml.c:383 (discriminator 3)
                else if ((*s == '"' || *s == '\'')  &&  // default value
    31a1:	48 83 7d a0 00       	cmpq   $0x0,-0x60(%rbp)
    31a6:	74 09                	je     31b1 <ezxml_internal_dtd+0x6ae>
/media/ssd-partition/Documents/RootCauseAnalysisPruning/evaluation/test_bin/22-ezXML/ezxml/ezxml.c:384
                         (s = strchr(v = s + 1, *s))) *s = '\0';
    31a8:	48 8b 45 a0          	mov    -0x60(%rbp),%rax
    31ac:	c6 00 00             	movb   $0x0,(%rax)
    31af:	eb 24                	jmp    31d5 <ezxml_internal_dtd+0x6d2>
/media/ssd-partition/Documents/RootCauseAnalysisPruning/evaluation/test_bin/22-ezXML/ezxml/ezxml.c:385
                else { ezxml_err(root, t, "malformed <!ATTLIST"); break; }
    31b1:	48 8b 4d e0          	mov    -0x20(%rbp),%rcx
    31b5:	48 8b 45 a8          	mov    -0x58(%rbp),%rax
    31b9:	48 8d 15 fb 3e 00 00 	lea    0x3efb(%rip),%rdx        # 70bb <_IO_stdin_used+0xbb>
    31c0:	48 89 ce             	mov    %rcx,%rsi
    31c3:	48 89 c7             	mov    %rax,%rdi
    31c6:	b8 00 00 00 00       	mov    $0x0,%eax
    31cb:	e8 20 e9 ff ff       	call   1af0 <ezxml_err>
    31d0:	e9 b3 03 00 00       	jmp    3588 <ezxml_internal_dtd+0xa85>
/media/ssd-partition/Documents/RootCauseAnalysisPruning/evaluation/test_bin/22-ezXML/ezxml/ezxml.c:387

                if (! root->attr[i]) { // new tag name
    31d5:	48 8b 45 a8          	mov    -0x58(%rbp),%rax
    31d9:	48 8b 90 88 00 00 00 	mov    0x88(%rax),%rdx
    31e0:	8b 45 b8             	mov    -0x48(%rbp),%eax
    31e3:	48 98                	cltq   
    31e5:	48 c1 e0 03          	shl    $0x3,%rax
    31e9:	48 01 d0             	add    %rdx,%rax
    31ec:	48 8b 00             	mov    (%rax),%rax
    31ef:	48 85 c0             	test   %rax,%rax
    31f2:	0f 85 d0 00 00 00    	jne    32c8 <ezxml_internal_dtd+0x7c5>
/media/ssd-partition/Documents/RootCauseAnalysisPruning/evaluation/test_bin/22-ezXML/ezxml/ezxml.c:388
                    root->attr = (! i) ? malloc(2 * sizeof(char **))
    31f8:	83 7d b8 00          	cmpl   $0x0,-0x48(%rbp)
    31fc:	75 0c                	jne    320a <ezxml_internal_dtd+0x707>
/media/ssd-partition/Documents/RootCauseAnalysisPruning/evaluation/test_bin/22-ezXML/ezxml/ezxml.c:388 (discriminator 1)
    31fe:	bf 10 00 00 00       	mov    $0x10,%edi
    3203:	e8 98 e1 ff ff       	call   13a0 <malloc@plt>
    3208:	eb 26                	jmp    3230 <ezxml_internal_dtd+0x72d>
/media/ssd-partition/Documents/RootCauseAnalysisPruning/evaluation/test_bin/22-ezXML/ezxml/ezxml.c:390
                                       : realloc(root->attr,
                                                 (i + 2) * sizeof(char **));
    320a:	8b 45 b8             	mov    -0x48(%rbp),%eax
    320d:	83 c0 02             	add    $0x2,%eax
    3210:	48 98                	cltq   
/media/ssd-partition/Documents/RootCauseAnalysisPruning/evaluation/test_bin/22-ezXML/ezxml/ezxml.c:389
                                       : realloc(root->attr,
    3212:	48 8d 14 c5 00 00 00 	lea    0x0(,%rax,8),%rdx
    3219:	00 
    321a:	48 8b 45 a8          	mov    -0x58(%rbp),%rax
    321e:	48 8b 80 88 00 00 00 	mov    0x88(%rax),%rax
    3225:	48 89 d6             	mov    %rdx,%rsi
    3228:	48 89 c7             	mov    %rax,%rdi
    322b:	e8 80 e1 ff ff       	call   13b0 <realloc@plt>
/media/ssd-partition/Documents/RootCauseAnalysisPruning/evaluation/test_bin/22-ezXML/ezxml/ezxml.c:388 (discriminator 2)
                    root->attr = (! i) ? malloc(2 * sizeof(char **))
    3230:	48 8b 55 a8          	mov    -0x58(%rbp),%rdx
    3234:	48 89 82 88 00 00 00 	mov    %rax,0x88(%rdx)
/media/ssd-partition/Documents/RootCauseAnalysisPruning/evaluation/test_bin/22-ezXML/ezxml/ezxml.c:391 (discriminator 2)
                    root->attr[i] = malloc(2 * sizeof(char *));
    323b:	48 8b 45 a8          	mov    -0x58(%rbp),%rax
    323f:	48 8b 90 88 00 00 00 	mov    0x88(%rax),%rdx
    3246:	8b 45 b8             	mov    -0x48(%rbp),%eax
    3249:	48 98                	cltq   
    324b:	48 c1 e0 03          	shl    $0x3,%rax
    324f:	48 8d 1c 02          	lea    (%rdx,%rax,1),%rbx
    3253:	bf 10 00 00 00       	mov    $0x10,%edi
    3258:	e8 43 e1 ff ff       	call   13a0 <malloc@plt>
    325d:	48 89 03             	mov    %rax,(%rbx)
/media/ssd-partition/Documents/RootCauseAnalysisPruning/evaluation/test_bin/22-ezXML/ezxml/ezxml.c:392 (discriminator 2)
                    root->attr[i][0] = t; // set tag name
    3260:	48 8b 45 a8          	mov    -0x58(%rbp),%rax
    3264:	48 8b 90 88 00 00 00 	mov    0x88(%rax),%rdx
    326b:	8b 45 b8             	mov    -0x48(%rbp),%eax
    326e:	48 98                	cltq   
    3270:	48 c1 e0 03          	shl    $0x3,%rax
    3274:	48 01 d0             	add    %rdx,%rax
    3277:	48 8b 00             	mov    (%rax),%rax
    327a:	48 8b 55 e0          	mov    -0x20(%rbp),%rdx
    327e:	48 89 10             	mov    %rdx,(%rax)
/media/ssd-partition/Documents/RootCauseAnalysisPruning/evaluation/test_bin/22-ezXML/ezxml/ezxml.c:393 (discriminator 2)
                    root->attr[i][1] = (char *)(root->attr[i + 1] = NULL);
    3281:	48 8b 45 a8          	mov    -0x58(%rbp),%rax
    3285:	48 8b 90 88 00 00 00 	mov    0x88(%rax),%rdx
    328c:	8b 45 b8             	mov    -0x48(%rbp),%eax
    328f:	48 98                	cltq   
    3291:	48 83 c0 01          	add    $0x1,%rax
    3295:	48 c1 e0 03          	shl    $0x3,%rax
    3299:	48 01 d0             	add    %rdx,%rax
    329c:	48 c7 00 00 00 00 00 	movq   $0x0,(%rax)
    32a3:	48 8b 45 a8          	mov    -0x58(%rbp),%rax
    32a7:	48 8b 90 88 00 00 00 	mov    0x88(%rax),%rdx
    32ae:	8b 45 b8             	mov    -0x48(%rbp),%eax
    32b1:	48 98                	cltq   
    32b3:	48 c1 e0 03          	shl    $0x3,%rax
    32b7:	48 01 d0             	add    %rdx,%rax
    32ba:	48 8b 00             	mov    (%rax),%rax
    32bd:	48 83 c0 08          	add    $0x8,%rax
    32c1:	48 c7 00 00 00 00 00 	movq   $0x0,(%rax)
/media/ssd-partition/Documents/RootCauseAnalysisPruning/evaluation/test_bin/22-ezXML/ezxml/ezxml.c:396
                }

                for (j = 1; root->attr[i][j]; j += 3); // find end of list
    32c8:	c7 45 bc 01 00 00 00 	movl   $0x1,-0x44(%rbp)
    32cf:	eb 04                	jmp    32d5 <ezxml_internal_dtd+0x7d2>
/media/ssd-partition/Documents/RootCauseAnalysisPruning/evaluation/test_bin/22-ezXML/ezxml/ezxml.c:396 (discriminator 3)
    32d1:	83 45 bc 03          	addl   $0x3,-0x44(%rbp)
/media/ssd-partition/Documents/RootCauseAnalysisPruning/evaluation/test_bin/22-ezXML/ezxml/ezxml.c:396 (discriminator 1)
    32d5:	48 8b 45 a8          	mov    -0x58(%rbp),%rax
    32d9:	48 8b 90 88 00 00 00 	mov    0x88(%rax),%rdx
    32e0:	8b 45 b8             	mov    -0x48(%rbp),%eax
    32e3:	48 98                	cltq   
    32e5:	48 c1 e0 03          	shl    $0x3,%rax
    32e9:	48 01 d0             	add    %rdx,%rax
    32ec:	48 8b 10             	mov    (%rax),%rdx
    32ef:	8b 45 bc             	mov    -0x44(%rbp),%eax
    32f2:	48 98                	cltq   
    32f4:	48 c1 e0 03          	shl    $0x3,%rax
    32f8:	48 01 d0             	add    %rdx,%rax
    32fb:	48 8b 00             	mov    (%rax),%rax
    32fe:	48 85 c0             	test   %rax,%rax
    3301:	75 ce                	jne    32d1 <ezxml_internal_dtd+0x7ce>
/media/ssd-partition/Documents/RootCauseAnalysisPruning/evaluation/test_bin/22-ezXML/ezxml/ezxml.c:398
                root->attr[i] = realloc(root->attr[i],
                                        (j + 4) * sizeof(char *));
    3303:	8b 45 bc             	mov    -0x44(%rbp),%eax
    3306:	83 c0 04             	add    $0x4,%eax
    3309:	48 98                	cltq   
/media/ssd-partition/Documents/RootCauseAnalysisPruning/evaluation/test_bin/22-ezXML/ezxml/ezxml.c:397
                root->attr[i] = realloc(root->attr[i],
    330b:	48 8d 14 c5 00 00 00 	lea    0x0(,%rax,8),%rdx
    3312:	00 
    3313:	48 8b 45 a8          	mov    -0x58(%rbp),%rax
    3317:	48 8b 88 88 00 00 00 	mov    0x88(%rax),%rcx
    331e:	8b 45 b8             	mov    -0x48(%rbp),%eax
    3321:	48 98                	cltq   
    3323:	48 c1 e0 03          	shl    $0x3,%rax
    3327:	48 01 c8             	add    %rcx,%rax
    332a:	48 8b 00             	mov    (%rax),%rax
    332d:	48 8b 4d a8          	mov    -0x58(%rbp),%rcx
    3331:	48 8b b1 88 00 00 00 	mov    0x88(%rcx),%rsi
    3338:	8b 4d b8             	mov    -0x48(%rbp),%ecx
    333b:	48 63 c9             	movslq %ecx,%rcx
    333e:	48 c1 e1 03          	shl    $0x3,%rcx
    3342:	48 8d 1c 0e          	lea    (%rsi,%rcx,1),%rbx
    3346:	48 89 d6             	mov    %rdx,%rsi
    3349:	48 89 c7             	mov    %rax,%rdi
    334c:	e8 5f e0 ff ff       	call   13b0 <realloc@plt>
    3351:	48 89 03             	mov    %rax,(%rbx)
/media/ssd-partition/Documents/RootCauseAnalysisPruning/evaluation/test_bin/22-ezXML/ezxml/ezxml.c:400

                root->attr[i][j + 3] = NULL; // null terminate list
    3354:	48 8b 45 a8          	mov    -0x58(%rbp),%rax
    3358:	48 8b 90 88 00 00 00 	mov    0x88(%rax),%rdx
    335f:	8b 45 b8             	mov    -0x48(%rbp),%eax
    3362:	48 98                	cltq   
    3364:	48 c1 e0 03          	shl    $0x3,%rax
    3368:	48 01 d0             	add    %rdx,%rax
    336b:	48 8b 10             	mov    (%rax),%rdx
    336e:	8b 45 bc             	mov    -0x44(%rbp),%eax
    3371:	48 98                	cltq   
    3373:	48 83 c0 03          	add    $0x3,%rax
    3377:	48 c1 e0 03          	shl    $0x3,%rax
    337b:	48 01 d0             	add    %rdx,%rax
    337e:	48 c7 00 00 00 00 00 	movq   $0x0,(%rax)
/media/ssd-partition/Documents/RootCauseAnalysisPruning/evaluation/test_bin/22-ezXML/ezxml/ezxml.c:401
                root->attr[i][j + 2] = c; // is it cdata?
    3385:	48 8b 45 a8          	mov    -0x58(%rbp),%rax
    3389:	48 8b 90 88 00 00 00 	mov    0x88(%rax),%rdx
    3390:	8b 45 b8             	mov    -0x48(%rbp),%eax
    3393:	48 98                	cltq   
    3395:	48 c1 e0 03          	shl    $0x3,%rax
    3399:	48 01 d0             	add    %rdx,%rax
    339c:	48 8b 10             	mov    (%rax),%rdx
    339f:	8b 45 bc             	mov    -0x44(%rbp),%eax
    33a2:	48 98                	cltq   
    33a4:	48 83 c0 02          	add    $0x2,%rax
    33a8:	48 c1 e0 03          	shl    $0x3,%rax
    33ac:	48 01 c2             	add    %rax,%rdx
    33af:	48 8b 45 d8          	mov    -0x28(%rbp),%rax
    33b3:	48 89 02             	mov    %rax,(%rdx)
/media/ssd-partition/Documents/RootCauseAnalysisPruning/evaluation/test_bin/22-ezXML/ezxml/ezxml.c:403
                root->attr[i][j + 1] = (v) ? ezxml_decode(v, root->ent, *c)
                                           : NULL;
    33b6:	48 83 7d c8 00       	cmpq   $0x0,-0x38(%rbp)
    33bb:	74 26                	je     33e3 <ezxml_internal_dtd+0x8e0>
/media/ssd-partition/Documents/RootCauseAnalysisPruning/evaluation/test_bin/22-ezXML/ezxml/ezxml.c:402
                root->attr[i][j + 1] = (v) ? ezxml_decode(v, root->ent, *c)
    33bd:	48 8b 45 d8          	mov    -0x28(%rbp),%rax
    33c1:	0f b6 00             	movzbl (%rax),%eax
    33c4:	0f be d0             	movsbl %al,%edx
    33c7:	48 8b 45 a8          	mov    -0x58(%rbp),%rax
    33cb:	48 8b 88 80 00 00 00 	mov    0x80(%rax),%rcx
    33d2:	48 8b 45 c8          	mov    -0x38(%rbp),%rax
    33d6:	48 89 ce             	mov    %rcx,%rsi
    33d9:	48 89 c7             	mov    %rax,%rdi
    33dc:	e8 74 e8 ff ff       	call   1c55 <ezxml_decode>
    33e1:	eb 05                	jmp    33e8 <ezxml_internal_dtd+0x8e5>
/media/ssd-partition/Documents/RootCauseAnalysisPruning/evaluation/test_bin/22-ezXML/ezxml/ezxml.c:403 (discriminator 1)
                                           : NULL;
    33e3:	b8 00 00 00 00       	mov    $0x0,%eax
/media/ssd-partition/Documents/RootCauseAnalysisPruning/evaluation/test_bin/22-ezXML/ezxml/ezxml.c:402 (discriminator 1)
                root->attr[i][j + 1] = (v) ? ezxml_decode(v, root->ent, *c)
    33e8:	48 8b 55 a8          	mov    -0x58(%rbp),%rdx
    33ec:	48 8b 8a 88 00 00 00 	mov    0x88(%rdx),%rcx
    33f3:	8b 55 b8             	mov    -0x48(%rbp),%edx
    33f6:	48 63 d2             	movslq %edx,%rdx
    33f9:	48 c1 e2 03          	shl    $0x3,%rdx
    33fd:	48 01 ca             	add    %rcx,%rdx
    3400:	48 8b 0a             	mov    (%rdx),%rcx
    3403:	8b 55 bc             	mov    -0x44(%rbp),%edx
    3406:	48 63 d2             	movslq %edx,%rdx
    3409:	48 83 c2 01          	add    $0x1,%rdx
    340d:	48 c1 e2 03          	shl    $0x3,%rdx
    3411:	48 01 ca             	add    %rcx,%rdx
    3414:	48 89 02             	mov    %rax,(%rdx)
/media/ssd-partition/Documents/RootCauseAnalysisPruning/evaluation/test_bin/22-ezXML/ezxml/ezxml.c:404 (discriminator 1)
                root->attr[i][j] = n; // attribute name 
    3417:	48 8b 45 a8          	mov    -0x58(%rbp),%rax
    341b:	48 8b 90 88 00 00 00 	mov    0x88(%rax),%rdx
    3422:	8b 45 b8             	mov    -0x48(%rbp),%eax
    3425:	48 98                	cltq   
    3427:	48 c1 e0 03          	shl    $0x3,%rax
    342b:	48 01 d0             	add    %rdx,%rax
    342e:	48 8b 10             	mov    (%rax),%rdx
    3431:	8b 45 bc             	mov    -0x44(%rbp),%eax
    3434:	48 98                	cltq   
    3436:	48 c1 e0 03          	shl    $0x3,%rax
    343a:	48 01 c2             	add    %rax,%rdx
    343d:	48 8b 45 c0          	mov    -0x40(%rbp),%rax
    3441:	48 89 02             	mov    %rax,(%rdx)
/media/ssd-partition/Documents/RootCauseAnalysisPruning/evaluation/test_bin/22-ezXML/ezxml/ezxml.c:364
            while (*(n = ++s + strspn(s, EZXML_WS)) && *n != '>') {
    3444:	48 83 45 a0 01       	addq   $0x1,-0x60(%rbp)
    3449:	48 8b 45 a0          	mov    -0x60(%rbp),%rax
    344d:	48 8d 15 ef 3b 00 00 	lea    0x3bef(%rip),%rdx        # 7043 <_IO_stdin_used+0x43>
    3454:	48 89 d6             	mov    %rdx,%rsi
    3457:	48 89 c7             	mov    %rax,%rdi
    345a:	e8 d1 de ff ff       	call   1330 <strspn@plt>
    345f:	48 8b 55 a0          	mov    -0x60(%rbp),%rdx
    3463:	48 01 d0             	add    %rdx,%rax
    3466:	48 89 45 c0          	mov    %rax,-0x40(%rbp)
    346a:	48 8b 45 c0          	mov    -0x40(%rbp),%rax
    346e:	0f b6 00             	movzbl (%rax),%eax
    3471:	84 c0                	test   %al,%al
    3473:	0f 84 0f 01 00 00    	je     3588 <ezxml_internal_dtd+0xa85>
/media/ssd-partition/Documents/RootCauseAnalysisPruning/evaluation/test_bin/22-ezXML/ezxml/ezxml.c:364 (discriminator 1)
    3479:	48 8b 45 c0          	mov    -0x40(%rbp),%rax
    347d:	0f b6 00             	movzbl (%rax),%eax
    3480:	3c 3e                	cmp    $0x3e,%al
    3482:	0f 85 e4 fa ff ff    	jne    2f6c <ezxml_internal_dtd+0x469>
    3488:	e9 fb 00 00 00       	jmp    3588 <ezxml_internal_dtd+0xa85>
/media/ssd-partition/Documents/RootCauseAnalysisPruning/evaluation/test_bin/22-ezXML/ezxml/ezxml.c:407
            }
        }
        else if (! strncmp(s, "<!--", 4)) s = strstr(s + 4, "-->"); // comments
    348d:	48 8b 45 a0          	mov    -0x60(%rbp),%rax
    3491:	ba 04 00 00 00       	mov    $0x4,%edx
    3496:	48 8d 0d 50 3c 00 00 	lea    0x3c50(%rip),%rcx        # 70ed <_IO_stdin_used+0xed>
    349d:	48 89 ce             	mov    %rcx,%rsi
    34a0:	48 89 c7             	mov    %rax,%rdi
    34a3:	e8 c8 dd ff ff       	call   1270 <strncmp@plt>
    34a8:	85 c0                	test   %eax,%eax
    34aa:	75 23                	jne    34cf <ezxml_internal_dtd+0x9cc>
/media/ssd-partition/Documents/RootCauseAnalysisPruning/evaluation/test_bin/22-ezXML/ezxml/ezxml.c:407 (discriminator 1)
    34ac:	48 8b 45 a0          	mov    -0x60(%rbp),%rax
    34b0:	48 83 c0 04          	add    $0x4,%rax
    34b4:	48 8d 15 37 3c 00 00 	lea    0x3c37(%rip),%rdx        # 70f2 <_IO_stdin_used+0xf2>
    34bb:	48 89 d6             	mov    %rdx,%rsi
    34be:	48 89 c7             	mov    %rax,%rdi
    34c1:	e8 7a df ff ff       	call   1440 <strstr@plt>
    34c6:	48 89 45 a0          	mov    %rax,-0x60(%rbp)
    34ca:	e9 b9 00 00 00       	jmp    3588 <ezxml_internal_dtd+0xa85>
/media/ssd-partition/Documents/RootCauseAnalysisPruning/evaluation/test_bin/22-ezXML/ezxml/ezxml.c:408
        else if (! strncmp(s, "<?", 2)) { // processing instructions
    34cf:	48 8b 45 a0          	mov    -0x60(%rbp),%rax
    34d3:	ba 02 00 00 00       	mov    $0x2,%edx
    34d8:	48 8d 0d 17 3c 00 00 	lea    0x3c17(%rip),%rcx        # 70f6 <_IO_stdin_used+0xf6>
    34df:	48 89 ce             	mov    %rcx,%rsi
    34e2:	48 89 c7             	mov    %rax,%rdi
    34e5:	e8 86 dd ff ff       	call   1270 <strncmp@plt>
    34ea:	85 c0                	test   %eax,%eax
    34ec:	75 55                	jne    3543 <ezxml_internal_dtd+0xa40>
/media/ssd-partition/Documents/RootCauseAnalysisPruning/evaluation/test_bin/22-ezXML/ezxml/ezxml.c:409
            if ((s = strstr(c = s + 2, "?>")))
    34ee:	48 8b 45 a0          	mov    -0x60(%rbp),%rax
    34f2:	48 83 c0 02          	add    $0x2,%rax
    34f6:	48 89 45 d8          	mov    %rax,-0x28(%rbp)
    34fa:	48 8b 45 d8          	mov    -0x28(%rbp),%rax
    34fe:	48 8d 15 f4 3b 00 00 	lea    0x3bf4(%rip),%rdx        # 70f9 <_IO_stdin_used+0xf9>
    3505:	48 89 d6             	mov    %rdx,%rsi
    3508:	48 89 c7             	mov    %rax,%rdi
    350b:	e8 30 df ff ff       	call   1440 <strstr@plt>
    3510:	48 89 45 a0          	mov    %rax,-0x60(%rbp)
    3514:	48 83 7d a0 00       	cmpq   $0x0,-0x60(%rbp)
    3519:	74 6d                	je     3588 <ezxml_internal_dtd+0xa85>
/media/ssd-partition/Documents/RootCauseAnalysisPruning/evaluation/test_bin/22-ezXML/ezxml/ezxml.c:410
                ezxml_proc_inst(root, c, s++ - c);
    351b:	48 8b 45 a0          	mov    -0x60(%rbp),%rax
    351f:	48 8d 50 01          	lea    0x1(%rax),%rdx
    3523:	48 89 55 a0          	mov    %rdx,-0x60(%rbp)
    3527:	48 2b 45 d8          	sub    -0x28(%rbp),%rax
    352b:	48 89 c2             	mov    %rax,%rdx
    352e:	48 8b 4d d8          	mov    -0x28(%rbp),%rcx
    3532:	48 8b 45 a8          	mov    -0x58(%rbp),%rax
    3536:	48 89 ce             	mov    %rcx,%rsi
    3539:	48 89 c7             	mov    %rax,%rdi
    353c:	e8 3f f1 ff ff       	call   2680 <ezxml_proc_inst>
    3541:	eb 45                	jmp    3588 <ezxml_internal_dtd+0xa85>
/media/ssd-partition/Documents/RootCauseAnalysisPruning/evaluation/test_bin/22-ezXML/ezxml/ezxml.c:412
        }
        else if (*s == '<') s = strchr(s, '>'); // skip other declarations
    3543:	48 8b 45 a0          	mov    -0x60(%rbp),%rax
    3547:	0f b6 00             	movzbl (%rax),%eax
    354a:	3c 3c                	cmp    $0x3c,%al
    354c:	75 17                	jne    3565 <ezxml_internal_dtd+0xa62>
/media/ssd-partition/Documents/RootCauseAnalysisPruning/evaluation/test_bin/22-ezXML/ezxml/ezxml.c:412 (discriminator 1)
    354e:	48 8b 45 a0          	mov    -0x60(%rbp),%rax
    3552:	be 3e 00 00 00       	mov    $0x3e,%esi
    3557:	48 89 c7             	mov    %rax,%rdi
    355a:	e8 91 dd ff ff       	call   12f0 <strchr@plt>
    355f:	48 89 45 a0          	mov    %rax,-0x60(%rbp)
    3563:	eb 23                	jmp    3588 <ezxml_internal_dtd+0xa85>
/media/ssd-partition/Documents/RootCauseAnalysisPruning/evaluation/test_bin/22-ezXML/ezxml/ezxml.c:413
        else if (*(s++) == '%' && ! root->standalone) break;
    3565:	48 8b 45 a0          	mov    -0x60(%rbp),%rax
    3569:	48 8d 50 01          	lea    0x1(%rax),%rdx
    356d:	48 89 55 a0          	mov    %rdx,-0x60(%rbp)
    3571:	0f b6 00             	movzbl (%rax),%eax
    3574:	3c 25                	cmp    $0x25,%al
    3576:	75 10                	jne    3588 <ezxml_internal_dtd+0xa85>
/media/ssd-partition/Documents/RootCauseAnalysisPruning/evaluation/test_bin/22-ezXML/ezxml/ezxml.c:413 (discriminator 1)
    3578:	48 8b 45 a8          	mov    -0x58(%rbp),%rax
    357c:	0f b7 80 98 00 00 00 	movzwl 0x98(%rax),%eax
    3583:	66 85 c0             	test   %ax,%ax
    3586:	74 10                	je     3598 <ezxml_internal_dtd+0xa95>
/media/ssd-partition/Documents/RootCauseAnalysisPruning/evaluation/test_bin/22-ezXML/ezxml/ezxml.c:326 (discriminator 1)
    for (s[len] = '\0'; s; ) {
    3588:	48 83 7d a0 00       	cmpq   $0x0,-0x60(%rbp)
    358d:	0f 85 c1 f5 ff ff    	jne    2b54 <ezxml_internal_dtd+0x51>
    3593:	eb 04                	jmp    3599 <ezxml_internal_dtd+0xa96>
/media/ssd-partition/Documents/RootCauseAnalysisPruning/evaluation/test_bin/22-ezXML/ezxml/ezxml.c:329
        if (! *s) break;
    3595:	90                   	nop
    3596:	eb 01                	jmp    3599 <ezxml_internal_dtd+0xa96>
/media/ssd-partition/Documents/RootCauseAnalysisPruning/evaluation/test_bin/22-ezXML/ezxml/ezxml.c:413
        else if (*(s++) == '%' && ! root->standalone) break;
    3598:	90                   	nop
/media/ssd-partition/Documents/RootCauseAnalysisPruning/evaluation/test_bin/22-ezXML/ezxml/ezxml.c:416
    }

    free(pe);
    3599:	48 8b 45 d0          	mov    -0x30(%rbp),%rax
    359d:	48 89 c7             	mov    %rax,%rdi
    35a0:	e8 ab dc ff ff       	call   1250 <free@plt>
/media/ssd-partition/Documents/RootCauseAnalysisPruning/evaluation/test_bin/22-ezXML/ezxml/ezxml.c:417
    return ! *root->err;
    35a5:	48 8b 45 a8          	mov    -0x58(%rbp),%rax
    35a9:	0f b6 80 9a 00 00 00 	movzbl 0x9a(%rax),%eax
    35b0:	84 c0                	test   %al,%al
    35b2:	0f 94 c0             	sete   %al
    35b5:	0f b6 c0             	movzbl %al,%eax
/media/ssd-partition/Documents/RootCauseAnalysisPruning/evaluation/test_bin/22-ezXML/ezxml/ezxml.c:418
}
    35b8:	48 8b 5d f8          	mov    -0x8(%rbp),%rbx
    35bc:	c9                   	leave  
    35bd:	c3                   	ret    

00000000000035be <ezxml_str2utf8>:
ezxml_str2utf8():
/media/ssd-partition/Documents/RootCauseAnalysisPruning/evaluation/test_bin/22-ezXML/ezxml/ezxml.c:423

// Converts a UTF-16 string to UTF-8. Returns a new string that must be freed
// or NULL if no conversion was needed.
char *ezxml_str2utf8(char **s, size_t *len)
{
    35be:	f3 0f 1e fa          	endbr64 
    35c2:	55                   	push   %rbp
    35c3:	48 89 e5             	mov    %rsp,%rbp
    35c6:	48 83 ec 50          	sub    $0x50,%rsp
    35ca:	48 89 7d b8          	mov    %rdi,-0x48(%rbp)
    35ce:	48 89 75 b0          	mov    %rsi,-0x50(%rbp)
/media/ssd-partition/Documents/RootCauseAnalysisPruning/evaluation/test_bin/22-ezXML/ezxml/ezxml.c:425
    char *u;
    size_t l = 0, sl, max = *len;
    35d2:	48 c7 45 d8 00 00 00 	movq   $0x0,-0x28(%rbp)
    35d9:	00 
    35da:	48 8b 45 b0          	mov    -0x50(%rbp),%rax
    35de:	48 8b 00             	mov    (%rax),%rax
    35e1:	48 89 45 e8          	mov    %rax,-0x18(%rbp)
/media/ssd-partition/Documents/RootCauseAnalysisPruning/evaluation/test_bin/22-ezXML/ezxml/ezxml.c:427
    long c, d;
    int b, be = (**s == '\xFE') ? 1 : (**s == '\xFF') ? 0 : -1;
    35e5:	48 8b 45 b8          	mov    -0x48(%rbp),%rax
    35e9:	48 8b 00             	mov    (%rax),%rax
    35ec:	0f b6 00             	movzbl (%rax),%eax
    35ef:	3c fe                	cmp    $0xfe,%al
    35f1:	74 1c                	je     360f <ezxml_str2utf8+0x51>
/media/ssd-partition/Documents/RootCauseAnalysisPruning/evaluation/test_bin/22-ezXML/ezxml/ezxml.c:427 (discriminator 1)
    35f3:	48 8b 45 b8          	mov    -0x48(%rbp),%rax
    35f7:	48 8b 00             	mov    (%rax),%rax
    35fa:	0f b6 00             	movzbl (%rax),%eax
    35fd:	3c ff                	cmp    $0xff,%al
    35ff:	75 07                	jne    3608 <ezxml_str2utf8+0x4a>
/media/ssd-partition/Documents/RootCauseAnalysisPruning/evaluation/test_bin/22-ezXML/ezxml/ezxml.c:427 (discriminator 3)
    3601:	b8 00 00 00 00       	mov    $0x0,%eax
    3606:	eb 0c                	jmp    3614 <ezxml_str2utf8+0x56>
/media/ssd-partition/Documents/RootCauseAnalysisPruning/evaluation/test_bin/22-ezXML/ezxml/ezxml.c:427 (discriminator 4)
    3608:	b8 ff ff ff ff       	mov    $0xffffffff,%eax
    360d:	eb 05                	jmp    3614 <ezxml_str2utf8+0x56>
/media/ssd-partition/Documents/RootCauseAnalysisPruning/evaluation/test_bin/22-ezXML/ezxml/ezxml.c:427 (discriminator 2)
    360f:	b8 01 00 00 00       	mov    $0x1,%eax
/media/ssd-partition/Documents/RootCauseAnalysisPruning/evaluation/test_bin/22-ezXML/ezxml/ezxml.c:427 (discriminator 8)
    3614:	89 45 cc             	mov    %eax,-0x34(%rbp)
/media/ssd-partition/Documents/RootCauseAnalysisPruning/evaluation/test_bin/22-ezXML/ezxml/ezxml.c:429 (discriminator 8)

    if (be == -1) return NULL; // not UTF-16
    3617:	83 7d cc ff          	cmpl   $0xffffffff,-0x34(%rbp)
    361b:	75 0a                	jne    3627 <ezxml_str2utf8+0x69>
/media/ssd-partition/Documents/RootCauseAnalysisPruning/evaluation/test_bin/22-ezXML/ezxml/ezxml.c:429 (discriminator 1)
    361d:	b8 00 00 00 00       	mov    $0x0,%eax
    3622:	e9 ec 02 00 00       	jmp    3913 <ezxml_str2utf8+0x355>
/media/ssd-partition/Documents/RootCauseAnalysisPruning/evaluation/test_bin/22-ezXML/ezxml/ezxml.c:431

    u = malloc(max);
    3627:	48 8b 45 e8          	mov    -0x18(%rbp),%rax
    362b:	48 89 c7             	mov    %rax,%rdi
    362e:	e8 6d dd ff ff       	call   13a0 <malloc@plt>
    3633:	48 89 45 d0          	mov    %rax,-0x30(%rbp)
/media/ssd-partition/Documents/RootCauseAnalysisPruning/evaluation/test_bin/22-ezXML/ezxml/ezxml.c:432
    for (sl = 2; sl < *len - 1; sl += 2) {
    3637:	48 c7 45 e0 02 00 00 	movq   $0x2,-0x20(%rbp)
    363e:	00 
    363f:	e9 8b 02 00 00       	jmp    38cf <ezxml_str2utf8+0x311>
/media/ssd-partition/Documents/RootCauseAnalysisPruning/evaluation/test_bin/22-ezXML/ezxml/ezxml.c:434
        c = (be) ? (((*s)[sl] & 0xFF) << 8) | ((*s)[sl + 1] & 0xFF)  //UTF-16BE
                 : (((*s)[sl + 1] & 0xFF) << 8) | ((*s)[sl] & 0xFF); //UTF-16LE
    3644:	83 7d cc 00          	cmpl   $0x0,-0x34(%rbp)
    3648:	74 3b                	je     3685 <ezxml_str2utf8+0xc7>
/media/ssd-partition/Documents/RootCauseAnalysisPruning/evaluation/test_bin/22-ezXML/ezxml/ezxml.c:433 (discriminator 1)
        c = (be) ? (((*s)[sl] & 0xFF) << 8) | ((*s)[sl + 1] & 0xFF)  //UTF-16BE
    364a:	48 8b 45 b8          	mov    -0x48(%rbp),%rax
    364e:	48 8b 10             	mov    (%rax),%rdx
    3651:	48 8b 45 e0          	mov    -0x20(%rbp),%rax
    3655:	48 01 d0             	add    %rdx,%rax
    3658:	0f b6 00             	movzbl (%rax),%eax
    365b:	0f be c0             	movsbl %al,%eax
    365e:	c1 e0 08             	shl    $0x8,%eax
    3661:	0f b7 d0             	movzwl %ax,%edx
    3664:	48 8b 45 b8          	mov    -0x48(%rbp),%rax
    3668:	48 8b 08             	mov    (%rax),%rcx
    366b:	48 8b 45 e0          	mov    -0x20(%rbp),%rax
    366f:	48 83 c0 01          	add    $0x1,%rax
    3673:	48 01 c8             	add    %rcx,%rax
    3676:	0f b6 00             	movzbl (%rax),%eax
    3679:	0f be c0             	movsbl %al,%eax
    367c:	0f b6 c0             	movzbl %al,%eax
    367f:	09 d0                	or     %edx,%eax
/media/ssd-partition/Documents/RootCauseAnalysisPruning/evaluation/test_bin/22-ezXML/ezxml/ezxml.c:434 (discriminator 1)
                 : (((*s)[sl + 1] & 0xFF) << 8) | ((*s)[sl] & 0xFF); //UTF-16LE
    3681:	48 98                	cltq   
    3683:	eb 39                	jmp    36be <ezxml_str2utf8+0x100>
/media/ssd-partition/Documents/RootCauseAnalysisPruning/evaluation/test_bin/22-ezXML/ezxml/ezxml.c:434 (discriminator 2)
    3685:	48 8b 45 b8          	mov    -0x48(%rbp),%rax
    3689:	48 8b 10             	mov    (%rax),%rdx
    368c:	48 8b 45 e0          	mov    -0x20(%rbp),%rax
    3690:	48 83 c0 01          	add    $0x1,%rax
    3694:	48 01 d0             	add    %rdx,%rax
    3697:	0f b6 00             	movzbl (%rax),%eax
    369a:	0f be c0             	movsbl %al,%eax
    369d:	c1 e0 08             	shl    $0x8,%eax
    36a0:	0f b7 d0             	movzwl %ax,%edx
    36a3:	48 8b 45 b8          	mov    -0x48(%rbp),%rax
    36a7:	48 8b 08             	mov    (%rax),%rcx
    36aa:	48 8b 45 e0          	mov    -0x20(%rbp),%rax
    36ae:	48 01 c8             	add    %rcx,%rax
    36b1:	0f b6 00             	movzbl (%rax),%eax
    36b4:	0f be c0             	movsbl %al,%eax
    36b7:	0f b6 c0             	movzbl %al,%eax
    36ba:	09 d0                	or     %edx,%eax
    36bc:	48 98                	cltq   
/media/ssd-partition/Documents/RootCauseAnalysisPruning/evaluation/test_bin/22-ezXML/ezxml/ezxml.c:433
        c = (be) ? (((*s)[sl] & 0xFF) << 8) | ((*s)[sl + 1] & 0xFF)  //UTF-16BE
    36be:	48 89 45 f0          	mov    %rax,-0x10(%rbp)
/media/ssd-partition/Documents/RootCauseAnalysisPruning/evaluation/test_bin/22-ezXML/ezxml/ezxml.c:435
        if (c >= 0xD800 && c <= 0xDFFF && (sl += 2) < *len - 1) { // high-half
    36c2:	48 81 7d f0 ff d7 00 	cmpq   $0xd7ff,-0x10(%rbp)
    36c9:	00 
    36ca:	0f 8e ed 00 00 00    	jle    37bd <ezxml_str2utf8+0x1ff>
/media/ssd-partition/Documents/RootCauseAnalysisPruning/evaluation/test_bin/22-ezXML/ezxml/ezxml.c:435 (discriminator 1)
    36d0:	48 81 7d f0 ff df 00 	cmpq   $0xdfff,-0x10(%rbp)
    36d7:	00 
    36d8:	0f 8f df 00 00 00    	jg     37bd <ezxml_str2utf8+0x1ff>
/media/ssd-partition/Documents/RootCauseAnalysisPruning/evaluation/test_bin/22-ezXML/ezxml/ezxml.c:435 (discriminator 2)
    36de:	48 83 45 e0 02       	addq   $0x2,-0x20(%rbp)
    36e3:	48 8b 45 b0          	mov    -0x50(%rbp),%rax
    36e7:	48 8b 00             	mov    (%rax),%rax
    36ea:	48 83 e8 01          	sub    $0x1,%rax
    36ee:	48 39 45 e0          	cmp    %rax,-0x20(%rbp)
    36f2:	0f 83 c5 00 00 00    	jae    37bd <ezxml_str2utf8+0x1ff>
/media/ssd-partition/Documents/RootCauseAnalysisPruning/evaluation/test_bin/22-ezXML/ezxml/ezxml.c:437
            d = (be) ? (((*s)[sl] & 0xFF) << 8) | ((*s)[sl + 1] & 0xFF)
                     : (((*s)[sl + 1] & 0xFF) << 8) | ((*s)[sl] & 0xFF);
    36f8:	83 7d cc 00          	cmpl   $0x0,-0x34(%rbp)
    36fc:	74 3b                	je     3739 <ezxml_str2utf8+0x17b>
/media/ssd-partition/Documents/RootCauseAnalysisPruning/evaluation/test_bin/22-ezXML/ezxml/ezxml.c:436 (discriminator 1)
            d = (be) ? (((*s)[sl] & 0xFF) << 8) | ((*s)[sl + 1] & 0xFF)
    36fe:	48 8b 45 b8          	mov    -0x48(%rbp),%rax
    3702:	48 8b 10             	mov    (%rax),%rdx
    3705:	48 8b 45 e0          	mov    -0x20(%rbp),%rax
    3709:	48 01 d0             	add    %rdx,%rax
    370c:	0f b6 00             	movzbl (%rax),%eax
    370f:	0f be c0             	movsbl %al,%eax
    3712:	c1 e0 08             	shl    $0x8,%eax
    3715:	0f b7 d0             	movzwl %ax,%edx
    3718:	48 8b 45 b8          	mov    -0x48(%rbp),%rax
    371c:	48 8b 08             	mov    (%rax),%rcx
    371f:	48 8b 45 e0          	mov    -0x20(%rbp),%rax
    3723:	48 83 c0 01          	add    $0x1,%rax
    3727:	48 01 c8             	add    %rcx,%rax
    372a:	0f b6 00             	movzbl (%rax),%eax
    372d:	0f be c0             	movsbl %al,%eax
    3730:	0f b6 c0             	movzbl %al,%eax
    3733:	09 d0                	or     %edx,%eax
/media/ssd-partition/Documents/RootCauseAnalysisPruning/evaluation/test_bin/22-ezXML/ezxml/ezxml.c:437 (discriminator 1)
                     : (((*s)[sl + 1] & 0xFF) << 8) | ((*s)[sl] & 0xFF);
    3735:	48 98                	cltq   
    3737:	eb 39                	jmp    3772 <ezxml_str2utf8+0x1b4>
/media/ssd-partition/Documents/RootCauseAnalysisPruning/evaluation/test_bin/22-ezXML/ezxml/ezxml.c:437 (discriminator 2)
    3739:	48 8b 45 b8          	mov    -0x48(%rbp),%rax
    373d:	48 8b 10             	mov    (%rax),%rdx
    3740:	48 8b 45 e0          	mov    -0x20(%rbp),%rax
    3744:	48 83 c0 01          	add    $0x1,%rax
    3748:	48 01 d0             	add    %rdx,%rax
    374b:	0f b6 00             	movzbl (%rax),%eax
    374e:	0f be c0             	movsbl %al,%eax
    3751:	c1 e0 08             	shl    $0x8,%eax
    3754:	0f b7 d0             	movzwl %ax,%edx
    3757:	48 8b 45 b8          	mov    -0x48(%rbp),%rax
    375b:	48 8b 08             	mov    (%rax),%rcx
    375e:	48 8b 45 e0          	mov    -0x20(%rbp),%rax
    3762:	48 01 c8             	add    %rcx,%rax
    3765:	0f b6 00             	movzbl (%rax),%eax
    3768:	0f be c0             	movsbl %al,%eax
    376b:	0f b6 c0             	movzbl %al,%eax
    376e:	09 d0                	or     %edx,%eax
    3770:	48 98                	cltq   
/media/ssd-partition/Documents/RootCauseAnalysisPruning/evaluation/test_bin/22-ezXML/ezxml/ezxml.c:436
            d = (be) ? (((*s)[sl] & 0xFF) << 8) | ((*s)[sl + 1] & 0xFF)
    3772:	48 89 45 f8          	mov    %rax,-0x8(%rbp)
/media/ssd-partition/Documents/RootCauseAnalysisPruning/evaluation/test_bin/22-ezXML/ezxml/ezxml.c:438
            c = (((c & 0x3FF) << 10) | (d & 0x3FF)) + 0x10000;
    3776:	48 8b 45 f0          	mov    -0x10(%rbp),%rax
    377a:	48 c1 e0 0a          	shl    $0xa,%rax
    377e:	25 00 fc 0f 00       	and    $0xffc00,%eax
    3783:	48 89 c2             	mov    %rax,%rdx
    3786:	48 8b 45 f8          	mov    -0x8(%rbp),%rax
    378a:	25 ff 03 00 00       	and    $0x3ff,%eax
    378f:	48 09 d0             	or     %rdx,%rax
    3792:	48 05 00 00 01 00    	add    $0x10000,%rax
    3798:	48 89 45 f0          	mov    %rax,-0x10(%rbp)
/media/ssd-partition/Documents/RootCauseAnalysisPruning/evaluation/test_bin/22-ezXML/ezxml/ezxml.c:441
        }

        while (l + 6 > max) u = realloc(u, max += EZXML_BUFSIZE);
    379c:	eb 1f                	jmp    37bd <ezxml_str2utf8+0x1ff>
/media/ssd-partition/Documents/RootCauseAnalysisPruning/evaluation/test_bin/22-ezXML/ezxml/ezxml.c:441 (discriminator 2)
    379e:	48 81 45 e8 00 04 00 	addq   $0x400,-0x18(%rbp)
    37a5:	00 
    37a6:	48 8b 55 e8          	mov    -0x18(%rbp),%rdx
    37aa:	48 8b 45 d0          	mov    -0x30(%rbp),%rax
    37ae:	48 89 d6             	mov    %rdx,%rsi
    37b1:	48 89 c7             	mov    %rax,%rdi
    37b4:	e8 f7 db ff ff       	call   13b0 <realloc@plt>
    37b9:	48 89 45 d0          	mov    %rax,-0x30(%rbp)
/media/ssd-partition/Documents/RootCauseAnalysisPruning/evaluation/test_bin/22-ezXML/ezxml/ezxml.c:441 (discriminator 1)
    37bd:	48 8b 45 d8          	mov    -0x28(%rbp),%rax
    37c1:	48 83 c0 06          	add    $0x6,%rax
    37c5:	48 39 45 e8          	cmp    %rax,-0x18(%rbp)
    37c9:	72 d3                	jb     379e <ezxml_str2utf8+0x1e0>
/media/ssd-partition/Documents/RootCauseAnalysisPruning/evaluation/test_bin/22-ezXML/ezxml/ezxml.c:442
        if (c < 0x80) u[l++] = c; // US-ASCII subset
    37cb:	48 83 7d f0 7f       	cmpq   $0x7f,-0x10(%rbp)
    37d0:	7f 1e                	jg     37f0 <ezxml_str2utf8+0x232>
/media/ssd-partition/Documents/RootCauseAnalysisPruning/evaluation/test_bin/22-ezXML/ezxml/ezxml.c:442 (discriminator 1)
    37d2:	48 8b 45 d8          	mov    -0x28(%rbp),%rax
    37d6:	48 8d 50 01          	lea    0x1(%rax),%rdx
    37da:	48 89 55 d8          	mov    %rdx,-0x28(%rbp)
    37de:	48 8b 55 d0          	mov    -0x30(%rbp),%rdx
    37e2:	48 01 d0             	add    %rdx,%rax
    37e5:	48 8b 55 f0          	mov    -0x10(%rbp),%rdx
    37e9:	88 10                	mov    %dl,(%rax)
    37eb:	e9 da 00 00 00       	jmp    38ca <ezxml_str2utf8+0x30c>
/media/ssd-partition/Documents/RootCauseAnalysisPruning/evaluation/test_bin/22-ezXML/ezxml/ezxml.c:444
        else { // multi-byte UTF-8 sequence
            for (b = 0, d = c; d; d /= 2) b++; // bits in c
    37f0:	c7 45 c8 00 00 00 00 	movl   $0x0,-0x38(%rbp)
    37f7:	48 8b 45 f0          	mov    -0x10(%rbp),%rax
    37fb:	48 89 45 f8          	mov    %rax,-0x8(%rbp)
    37ff:	eb 19                	jmp    381a <ezxml_str2utf8+0x25c>
/media/ssd-partition/Documents/RootCauseAnalysisPruning/evaluation/test_bin/22-ezXML/ezxml/ezxml.c:444 (discriminator 3)
    3801:	83 45 c8 01          	addl   $0x1,-0x38(%rbp)
    3805:	48 8b 45 f8          	mov    -0x8(%rbp),%rax
    3809:	48 89 c2             	mov    %rax,%rdx
    380c:	48 c1 ea 3f          	shr    $0x3f,%rdx
    3810:	48 01 d0             	add    %rdx,%rax
    3813:	48 d1 f8             	sar    %rax
    3816:	48 89 45 f8          	mov    %rax,-0x8(%rbp)
/media/ssd-partition/Documents/RootCauseAnalysisPruning/evaluation/test_bin/22-ezXML/ezxml/ezxml.c:444 (discriminator 1)
    381a:	48 83 7d f8 00       	cmpq   $0x0,-0x8(%rbp)
    381f:	75 e0                	jne    3801 <ezxml_str2utf8+0x243>
/media/ssd-partition/Documents/RootCauseAnalysisPruning/evaluation/test_bin/22-ezXML/ezxml/ezxml.c:445
            b = (b - 2) / 5; // bytes in payload
    3821:	8b 45 c8             	mov    -0x38(%rbp),%eax
    3824:	83 e8 02             	sub    $0x2,%eax
    3827:	48 63 d0             	movslq %eax,%rdx
    382a:	48 69 d2 67 66 66 66 	imul   $0x66666667,%rdx,%rdx
    3831:	48 c1 ea 20          	shr    $0x20,%rdx
    3835:	d1 fa                	sar    %edx
    3837:	c1 f8 1f             	sar    $0x1f,%eax
    383a:	89 c1                	mov    %eax,%ecx
    383c:	89 d0                	mov    %edx,%eax
    383e:	29 c8                	sub    %ecx,%eax
    3840:	89 45 c8             	mov    %eax,-0x38(%rbp)
/media/ssd-partition/Documents/RootCauseAnalysisPruning/evaluation/test_bin/22-ezXML/ezxml/ezxml.c:446
            u[l++] = (0xFF << (7 - b)) | (c >> (6 * b)); // head
    3843:	b8 07 00 00 00       	mov    $0x7,%eax
    3848:	2b 45 c8             	sub    -0x38(%rbp),%eax
    384b:	ba ff 00 00 00       	mov    $0xff,%edx
    3850:	89 c1                	mov    %eax,%ecx
    3852:	d3 e2                	shl    %cl,%edx
    3854:	89 d0                	mov    %edx,%eax
    3856:	89 c6                	mov    %eax,%esi
    3858:	8b 55 c8             	mov    -0x38(%rbp),%edx
    385b:	89 d0                	mov    %edx,%eax
    385d:	01 c0                	add    %eax,%eax
    385f:	01 d0                	add    %edx,%eax
    3861:	01 c0                	add    %eax,%eax
    3863:	89 c2                	mov    %eax,%edx
    3865:	48 8b 45 f0          	mov    -0x10(%rbp),%rax
    3869:	89 d1                	mov    %edx,%ecx
    386b:	48 d3 f8             	sar    %cl,%rax
    386e:	89 c1                	mov    %eax,%ecx
    3870:	48 8b 45 d8          	mov    -0x28(%rbp),%rax
    3874:	48 8d 50 01          	lea    0x1(%rax),%rdx
    3878:	48 89 55 d8          	mov    %rdx,-0x28(%rbp)
    387c:	48 8b 55 d0          	mov    -0x30(%rbp),%rdx
    3880:	48 01 d0             	add    %rdx,%rax
    3883:	09 ce                	or     %ecx,%esi
    3885:	89 f2                	mov    %esi,%edx
    3887:	88 10                	mov    %dl,(%rax)
/media/ssd-partition/Documents/RootCauseAnalysisPruning/evaluation/test_bin/22-ezXML/ezxml/ezxml.c:447
            while (b) u[l++] = 0x80 | ((c >> (6 * --b)) & 0x3F); // payload
    3889:	eb 39                	jmp    38c4 <ezxml_str2utf8+0x306>
/media/ssd-partition/Documents/RootCauseAnalysisPruning/evaluation/test_bin/22-ezXML/ezxml/ezxml.c:447 (discriminator 2)
    388b:	83 6d c8 01          	subl   $0x1,-0x38(%rbp)
    388f:	8b 55 c8             	mov    -0x38(%rbp),%edx
    3892:	89 d0                	mov    %edx,%eax
    3894:	01 c0                	add    %eax,%eax
    3896:	01 d0                	add    %edx,%eax
    3898:	01 c0                	add    %eax,%eax
    389a:	89 c2                	mov    %eax,%edx
    389c:	48 8b 45 f0          	mov    -0x10(%rbp),%rax
    38a0:	89 d1                	mov    %edx,%ecx
    38a2:	48 d3 f8             	sar    %cl,%rax
    38a5:	83 e0 3f             	and    $0x3f,%eax
    38a8:	89 c1                	mov    %eax,%ecx
    38aa:	48 8b 45 d8          	mov    -0x28(%rbp),%rax
    38ae:	48 8d 50 01          	lea    0x1(%rax),%rdx
    38b2:	48 89 55 d8          	mov    %rdx,-0x28(%rbp)
    38b6:	48 8b 55 d0          	mov    -0x30(%rbp),%rdx
    38ba:	48 01 d0             	add    %rdx,%rax
    38bd:	83 c9 80             	or     $0xffffff80,%ecx
    38c0:	89 ca                	mov    %ecx,%edx
    38c2:	88 10                	mov    %dl,(%rax)
/media/ssd-partition/Documents/RootCauseAnalysisPruning/evaluation/test_bin/22-ezXML/ezxml/ezxml.c:447 (discriminator 1)
    38c4:	83 7d c8 00          	cmpl   $0x0,-0x38(%rbp)
    38c8:	75 c1                	jne    388b <ezxml_str2utf8+0x2cd>
/media/ssd-partition/Documents/RootCauseAnalysisPruning/evaluation/test_bin/22-ezXML/ezxml/ezxml.c:432 (discriminator 2)
    for (sl = 2; sl < *len - 1; sl += 2) {
    38ca:	48 83 45 e0 02       	addq   $0x2,-0x20(%rbp)
/media/ssd-partition/Documents/RootCauseAnalysisPruning/evaluation/test_bin/22-ezXML/ezxml/ezxml.c:432 (discriminator 1)
    38cf:	48 8b 45 b0          	mov    -0x50(%rbp),%rax
    38d3:	48 8b 00             	mov    (%rax),%rax
    38d6:	48 83 e8 01          	sub    $0x1,%rax
    38da:	48 39 45 e0          	cmp    %rax,-0x20(%rbp)
    38de:	0f 82 60 fd ff ff    	jb     3644 <ezxml_str2utf8+0x86>
/media/ssd-partition/Documents/RootCauseAnalysisPruning/evaluation/test_bin/22-ezXML/ezxml/ezxml.c:450
        }
    }
    return *s = realloc(u, *len = l);
    38e4:	48 8b 45 b0          	mov    -0x50(%rbp),%rax
    38e8:	48 8b 55 d8          	mov    -0x28(%rbp),%rdx
    38ec:	48 89 10             	mov    %rdx,(%rax)
    38ef:	48 8b 45 b0          	mov    -0x50(%rbp),%rax
    38f3:	48 8b 10             	mov    (%rax),%rdx
    38f6:	48 8b 45 d0          	mov    -0x30(%rbp),%rax
    38fa:	48 89 d6             	mov    %rdx,%rsi
    38fd:	48 89 c7             	mov    %rax,%rdi
    3900:	e8 ab da ff ff       	call   13b0 <realloc@plt>
    3905:	48 8b 55 b8          	mov    -0x48(%rbp),%rdx
    3909:	48 89 02             	mov    %rax,(%rdx)
    390c:	48 8b 45 b8          	mov    -0x48(%rbp),%rax
    3910:	48 8b 00             	mov    (%rax),%rax
/media/ssd-partition/Documents/RootCauseAnalysisPruning/evaluation/test_bin/22-ezXML/ezxml/ezxml.c:451
}
    3913:	c9                   	leave  
    3914:	c3                   	ret    

0000000000003915 <ezxml_free_attr>:
ezxml_free_attr():
/media/ssd-partition/Documents/RootCauseAnalysisPruning/evaluation/test_bin/22-ezXML/ezxml/ezxml.c:454

// frees a tag attribute list
void ezxml_free_attr(char **attr) {
    3915:	f3 0f 1e fa          	endbr64 
    3919:	55                   	push   %rbp
    391a:	48 89 e5             	mov    %rsp,%rbp
    391d:	48 83 ec 20          	sub    $0x20,%rsp
    3921:	48 89 7d e8          	mov    %rdi,-0x18(%rbp)
/media/ssd-partition/Documents/RootCauseAnalysisPruning/evaluation/test_bin/22-ezXML/ezxml/ezxml.c:455
    int i = 0;
    3925:	c7 45 f4 00 00 00 00 	movl   $0x0,-0xc(%rbp)
/media/ssd-partition/Documents/RootCauseAnalysisPruning/evaluation/test_bin/22-ezXML/ezxml/ezxml.c:458
    char *m;
    
    if (! attr || attr == EZXML_NIL) return; // nothing to free
    392c:	48 83 7d e8 00       	cmpq   $0x0,-0x18(%rbp)
    3931:	0f 84 05 01 00 00    	je     3a3c <ezxml_free_attr+0x127>
/media/ssd-partition/Documents/RootCauseAnalysisPruning/evaluation/test_bin/22-ezXML/ezxml/ezxml.c:458 (discriminator 2)
    3937:	48 8d 05 52 57 00 00 	lea    0x5752(%rip),%rax        # 9090 <EZXML_NIL>
    393e:	48 39 45 e8          	cmp    %rax,-0x18(%rbp)
    3942:	0f 84 f4 00 00 00    	je     3a3c <ezxml_free_attr+0x127>
/media/ssd-partition/Documents/RootCauseAnalysisPruning/evaluation/test_bin/22-ezXML/ezxml/ezxml.c:459
    while (attr[i]) i += 2; // find end of attribute list
    3948:	eb 04                	jmp    394e <ezxml_free_attr+0x39>
/media/ssd-partition/Documents/RootCauseAnalysisPruning/evaluation/test_bin/22-ezXML/ezxml/ezxml.c:459 (discriminator 2)
    394a:	83 45 f4 02          	addl   $0x2,-0xc(%rbp)
/media/ssd-partition/Documents/RootCauseAnalysisPruning/evaluation/test_bin/22-ezXML/ezxml/ezxml.c:459 (discriminator 1)
    394e:	8b 45 f4             	mov    -0xc(%rbp),%eax
    3951:	48 98                	cltq   
    3953:	48 8d 14 c5 00 00 00 	lea    0x0(,%rax,8),%rdx
    395a:	00 
    395b:	48 8b 45 e8          	mov    -0x18(%rbp),%rax
    395f:	48 01 d0             	add    %rdx,%rax
    3962:	48 8b 00             	mov    (%rax),%rax
    3965:	48 85 c0             	test   %rax,%rax
    3968:	75 e0                	jne    394a <ezxml_free_attr+0x35>
/media/ssd-partition/Documents/RootCauseAnalysisPruning/evaluation/test_bin/22-ezXML/ezxml/ezxml.c:460
    m = attr[i + 1]; // list of which names and values are malloced
    396a:	8b 45 f4             	mov    -0xc(%rbp),%eax
    396d:	48 98                	cltq   
    396f:	48 83 c0 01          	add    $0x1,%rax
    3973:	48 8d 14 c5 00 00 00 	lea    0x0(,%rax,8),%rdx
    397a:	00 
    397b:	48 8b 45 e8          	mov    -0x18(%rbp),%rax
    397f:	48 01 d0             	add    %rdx,%rax
    3982:	48 8b 00             	mov    (%rax),%rax
    3985:	48 89 45 f8          	mov    %rax,-0x8(%rbp)
/media/ssd-partition/Documents/RootCauseAnalysisPruning/evaluation/test_bin/22-ezXML/ezxml/ezxml.c:461
    for (i = 0; m[i]; i++) {
    3989:	c7 45 f4 00 00 00 00 	movl   $0x0,-0xc(%rbp)
    3990:	eb 78                	jmp    3a0a <ezxml_free_attr+0xf5>
/media/ssd-partition/Documents/RootCauseAnalysisPruning/evaluation/test_bin/22-ezXML/ezxml/ezxml.c:462
        if (m[i] & EZXML_NAMEM) free(attr[i * 2]);
    3992:	8b 45 f4             	mov    -0xc(%rbp),%eax
    3995:	48 63 d0             	movslq %eax,%rdx
    3998:	48 8b 45 f8          	mov    -0x8(%rbp),%rax
    399c:	48 01 d0             	add    %rdx,%rax
    399f:	0f b6 00             	movzbl (%rax),%eax
    39a2:	84 c0                	test   %al,%al
    39a4:	79 21                	jns    39c7 <ezxml_free_attr+0xb2>
/media/ssd-partition/Documents/RootCauseAnalysisPruning/evaluation/test_bin/22-ezXML/ezxml/ezxml.c:462 (discriminator 1)
    39a6:	8b 45 f4             	mov    -0xc(%rbp),%eax
    39a9:	01 c0                	add    %eax,%eax
    39ab:	48 98                	cltq   
    39ad:	48 8d 14 c5 00 00 00 	lea    0x0(,%rax,8),%rdx
    39b4:	00 
    39b5:	48 8b 45 e8          	mov    -0x18(%rbp),%rax
    39b9:	48 01 d0             	add    %rdx,%rax
    39bc:	48 8b 00             	mov    (%rax),%rax
    39bf:	48 89 c7             	mov    %rax,%rdi
    39c2:	e8 89 d8 ff ff       	call   1250 <free@plt>
/media/ssd-partition/Documents/RootCauseAnalysisPruning/evaluation/test_bin/22-ezXML/ezxml/ezxml.c:463
        if (m[i] & EZXML_TXTM) free(attr[(i * 2) + 1]);
    39c7:	8b 45 f4             	mov    -0xc(%rbp),%eax
    39ca:	48 63 d0             	movslq %eax,%rdx
    39cd:	48 8b 45 f8          	mov    -0x8(%rbp),%rax
    39d1:	48 01 d0             	add    %rdx,%rax
    39d4:	0f b6 00             	movzbl (%rax),%eax
    39d7:	0f be c0             	movsbl %al,%eax
    39da:	83 e0 40             	and    $0x40,%eax
    39dd:	85 c0                	test   %eax,%eax
    39df:	74 25                	je     3a06 <ezxml_free_attr+0xf1>
/media/ssd-partition/Documents/RootCauseAnalysisPruning/evaluation/test_bin/22-ezXML/ezxml/ezxml.c:463 (discriminator 1)
    39e1:	8b 45 f4             	mov    -0xc(%rbp),%eax
    39e4:	01 c0                	add    %eax,%eax
    39e6:	48 98                	cltq   
    39e8:	48 83 c0 01          	add    $0x1,%rax
    39ec:	48 8d 14 c5 00 00 00 	lea    0x0(,%rax,8),%rdx
    39f3:	00 
    39f4:	48 8b 45 e8          	mov    -0x18(%rbp),%rax
    39f8:	48 01 d0             	add    %rdx,%rax
    39fb:	48 8b 00             	mov    (%rax),%rax
    39fe:	48 89 c7             	mov    %rax,%rdi
    3a01:	e8 4a d8 ff ff       	call   1250 <free@plt>
/media/ssd-partition/Documents/RootCauseAnalysisPruning/evaluation/test_bin/22-ezXML/ezxml/ezxml.c:461 (discriminator 2)
    for (i = 0; m[i]; i++) {
    3a06:	83 45 f4 01          	addl   $0x1,-0xc(%rbp)
/media/ssd-partition/Documents/RootCauseAnalysisPruning/evaluation/test_bin/22-ezXML/ezxml/ezxml.c:461 (discriminator 1)
    3a0a:	8b 45 f4             	mov    -0xc(%rbp),%eax
    3a0d:	48 63 d0             	movslq %eax,%rdx
    3a10:	48 8b 45 f8          	mov    -0x8(%rbp),%rax
    3a14:	48 01 d0             	add    %rdx,%rax
    3a17:	0f b6 00             	movzbl (%rax),%eax
    3a1a:	84 c0                	test   %al,%al
    3a1c:	0f 85 70 ff ff ff    	jne    3992 <ezxml_free_attr+0x7d>
/media/ssd-partition/Documents/RootCauseAnalysisPruning/evaluation/test_bin/22-ezXML/ezxml/ezxml.c:465
    }
    free(m);
    3a22:	48 8b 45 f8          	mov    -0x8(%rbp),%rax
    3a26:	48 89 c7             	mov    %rax,%rdi
    3a29:	e8 22 d8 ff ff       	call   1250 <free@plt>
/media/ssd-partition/Documents/RootCauseAnalysisPruning/evaluation/test_bin/22-ezXML/ezxml/ezxml.c:466
    free(attr);
    3a2e:	48 8b 45 e8          	mov    -0x18(%rbp),%rax
    3a32:	48 89 c7             	mov    %rax,%rdi
    3a35:	e8 16 d8 ff ff       	call   1250 <free@plt>
    3a3a:	eb 01                	jmp    3a3d <ezxml_free_attr+0x128>
/media/ssd-partition/Documents/RootCauseAnalysisPruning/evaluation/test_bin/22-ezXML/ezxml/ezxml.c:458
    if (! attr || attr == EZXML_NIL) return; // nothing to free
    3a3c:	90                   	nop
/media/ssd-partition/Documents/RootCauseAnalysisPruning/evaluation/test_bin/22-ezXML/ezxml/ezxml.c:467
}
    3a3d:	c9                   	leave  
    3a3e:	c3                   	ret    

0000000000003a3f <ezxml_parse_str>:
ezxml_parse_str():
/media/ssd-partition/Documents/RootCauseAnalysisPruning/evaluation/test_bin/22-ezXML/ezxml/ezxml.c:471

// parse the given xml string and return an ezxml structure
ezxml_t ezxml_parse_str(char *s, size_t len)
{
    3a3f:	f3 0f 1e fa          	endbr64 
    3a43:	55                   	push   %rbp
    3a44:	48 89 e5             	mov    %rsp,%rbp
    3a47:	53                   	push   %rbx
    3a48:	48 83 ec 48          	sub    $0x48,%rsp
    3a4c:	48 89 7d b8          	mov    %rdi,-0x48(%rbp)
    3a50:	48 89 75 b0          	mov    %rsi,-0x50(%rbp)
/media/ssd-partition/Documents/RootCauseAnalysisPruning/evaluation/test_bin/22-ezXML/ezxml/ezxml.c:472
    ezxml_root_t root = (ezxml_root_t)ezxml_new(NULL);
    3a54:	bf 00 00 00 00       	mov    $0x0,%edi
    3a59:	e8 f4 23 00 00       	call   5e52 <ezxml_new>
    3a5e:	48 89 45 e8          	mov    %rax,-0x18(%rbp)
/media/ssd-partition/Documents/RootCauseAnalysisPruning/evaluation/test_bin/22-ezXML/ezxml/ezxml.c:473
    char q, e, *d, **attr, **a = NULL; // initialize a to avoid compile warning
    3a62:	48 c7 45 e0 00 00 00 	movq   $0x0,-0x20(%rbp)
    3a69:	00 
/media/ssd-partition/Documents/RootCauseAnalysisPruning/evaluation/test_bin/22-ezXML/ezxml/ezxml.c:476
    int l, i, j;

    root->m = s;
    3a6a:	48 8b 55 b8          	mov    -0x48(%rbp),%rdx
    3a6e:	48 8b 45 e8          	mov    -0x18(%rbp),%rax
    3a72:	48 89 50 58          	mov    %rdx,0x58(%rax)
/media/ssd-partition/Documents/RootCauseAnalysisPruning/evaluation/test_bin/22-ezXML/ezxml/ezxml.c:477
    if (! len) return ezxml_err(root, NULL, "root tag missing");
    3a76:	48 8b 45 b0          	mov    -0x50(%rbp),%rax
    3a7a:	48 85 c0             	test   %rax,%rax
    3a7d:	75 22                	jne    3aa1 <ezxml_parse_str+0x62>
/media/ssd-partition/Documents/RootCauseAnalysisPruning/evaluation/test_bin/22-ezXML/ezxml/ezxml.c:477 (discriminator 1)
    3a7f:	48 8b 45 e8          	mov    -0x18(%rbp),%rax
    3a83:	48 8d 15 72 36 00 00 	lea    0x3672(%rip),%rdx        # 70fc <_IO_stdin_used+0xfc>
    3a8a:	be 00 00 00 00       	mov    $0x0,%esi
    3a8f:	48 89 c7             	mov    %rax,%rdi
    3a92:	b8 00 00 00 00       	mov    $0x0,%eax
    3a97:	e8 54 e0 ff ff       	call   1af0 <ezxml_err>
    3a9c:	e9 43 0d 00 00       	jmp    47e4 <ezxml_parse_str+0xda5>
/media/ssd-partition/Documents/RootCauseAnalysisPruning/evaluation/test_bin/22-ezXML/ezxml/ezxml.c:478
    root->u = ezxml_str2utf8(&s, &len); // convert utf-16 to utf-8
    3aa1:	48 8d 55 b0          	lea    -0x50(%rbp),%rdx
    3aa5:	48 8d 45 b8          	lea    -0x48(%rbp),%rax
    3aa9:	48 89 d6             	mov    %rdx,%rsi
    3aac:	48 89 c7             	mov    %rax,%rdi
    3aaf:	e8 0a fb ff ff       	call   35be <ezxml_str2utf8>
    3ab4:	48 8b 55 e8          	mov    -0x18(%rbp),%rdx
    3ab8:	48 89 42 68          	mov    %rax,0x68(%rdx)
/media/ssd-partition/Documents/RootCauseAnalysisPruning/evaluation/test_bin/22-ezXML/ezxml/ezxml.c:479
    root->e = (root->s = s) + len; // record start and end of work area
    3abc:	48 8b 55 b8          	mov    -0x48(%rbp),%rdx
    3ac0:	48 8b 45 e8          	mov    -0x18(%rbp),%rax
    3ac4:	48 89 50 70          	mov    %rdx,0x70(%rax)
    3ac8:	48 8b 45 e8          	mov    -0x18(%rbp),%rax
    3acc:	48 8b 50 70          	mov    0x70(%rax),%rdx
    3ad0:	48 8b 45 b0          	mov    -0x50(%rbp),%rax
    3ad4:	48 01 c2             	add    %rax,%rdx
    3ad7:	48 8b 45 e8          	mov    -0x18(%rbp),%rax
    3adb:	48 89 50 78          	mov    %rdx,0x78(%rax)
/media/ssd-partition/Documents/RootCauseAnalysisPruning/evaluation/test_bin/22-ezXML/ezxml/ezxml.c:481
    
    e = s[len - 1]; // save end char
    3adf:	48 8b 55 b8          	mov    -0x48(%rbp),%rdx
    3ae3:	48 8b 45 b0          	mov    -0x50(%rbp),%rax
    3ae7:	48 83 e8 01          	sub    $0x1,%rax
    3aeb:	48 01 d0             	add    %rdx,%rax
    3aee:	0f b6 00             	movzbl (%rax),%eax
    3af1:	88 45 c2             	mov    %al,-0x3e(%rbp)
/media/ssd-partition/Documents/RootCauseAnalysisPruning/evaluation/test_bin/22-ezXML/ezxml/ezxml.c:482
    s[len - 1] = '\0'; // turn end char into null terminator
    3af4:	48 8b 55 b8          	mov    -0x48(%rbp),%rdx
    3af8:	48 8b 45 b0          	mov    -0x50(%rbp),%rax
    3afc:	48 83 e8 01          	sub    $0x1,%rax
    3b00:	48 01 d0             	add    %rdx,%rax
    3b03:	c6 00 00             	movb   $0x0,(%rax)
/media/ssd-partition/Documents/RootCauseAnalysisPruning/evaluation/test_bin/22-ezXML/ezxml/ezxml.c:484

    while (*s && *s != '<') s++; // find first tag
    3b06:	eb 0c                	jmp    3b14 <ezxml_parse_str+0xd5>
/media/ssd-partition/Documents/RootCauseAnalysisPruning/evaluation/test_bin/22-ezXML/ezxml/ezxml.c:484 (discriminator 3)
    3b08:	48 8b 45 b8          	mov    -0x48(%rbp),%rax
    3b0c:	48 83 c0 01          	add    $0x1,%rax
    3b10:	48 89 45 b8          	mov    %rax,-0x48(%rbp)
/media/ssd-partition/Documents/RootCauseAnalysisPruning/evaluation/test_bin/22-ezXML/ezxml/ezxml.c:484 (discriminator 1)
    3b14:	48 8b 45 b8          	mov    -0x48(%rbp),%rax
    3b18:	0f b6 00             	movzbl (%rax),%eax
    3b1b:	84 c0                	test   %al,%al
    3b1d:	74 0b                	je     3b2a <ezxml_parse_str+0xeb>
/media/ssd-partition/Documents/RootCauseAnalysisPruning/evaluation/test_bin/22-ezXML/ezxml/ezxml.c:484 (discriminator 2)
    3b1f:	48 8b 45 b8          	mov    -0x48(%rbp),%rax
    3b23:	0f b6 00             	movzbl (%rax),%eax
    3b26:	3c 3c                	cmp    $0x3c,%al
    3b28:	75 de                	jne    3b08 <ezxml_parse_str+0xc9>
/media/ssd-partition/Documents/RootCauseAnalysisPruning/evaluation/test_bin/22-ezXML/ezxml/ezxml.c:485
    if (! *s) return ezxml_err(root, s, "root tag missing");
    3b2a:	48 8b 45 b8          	mov    -0x48(%rbp),%rax
    3b2e:	0f b6 00             	movzbl (%rax),%eax
    3b31:	84 c0                	test   %al,%al
    3b33:	75 24                	jne    3b59 <ezxml_parse_str+0x11a>
/media/ssd-partition/Documents/RootCauseAnalysisPruning/evaluation/test_bin/22-ezXML/ezxml/ezxml.c:485 (discriminator 1)
    3b35:	48 8b 4d b8          	mov    -0x48(%rbp),%rcx
    3b39:	48 8b 45 e8          	mov    -0x18(%rbp),%rax
    3b3d:	48 8d 15 b8 35 00 00 	lea    0x35b8(%rip),%rdx        # 70fc <_IO_stdin_used+0xfc>
    3b44:	48 89 ce             	mov    %rcx,%rsi
    3b47:	48 89 c7             	mov    %rax,%rdi
    3b4a:	b8 00 00 00 00       	mov    $0x0,%eax
    3b4f:	e8 9c df ff ff       	call   1af0 <ezxml_err>
    3b54:	e9 8b 0c 00 00       	jmp    47e4 <ezxml_parse_str+0xda5>
/media/ssd-partition/Documents/RootCauseAnalysisPruning/evaluation/test_bin/22-ezXML/ezxml/ezxml.c:488

    for (; ; ) {
        attr = (char **)EZXML_NIL;
    3b59:	48 8d 05 30 55 00 00 	lea    0x5530(%rip),%rax        # 9090 <EZXML_NIL>
    3b60:	48 89 45 d8          	mov    %rax,-0x28(%rbp)
/media/ssd-partition/Documents/RootCauseAnalysisPruning/evaluation/test_bin/22-ezXML/ezxml/ezxml.c:489
        d = ++s;
    3b64:	48 8b 45 b8          	mov    -0x48(%rbp),%rax
    3b68:	48 83 c0 01          	add    $0x1,%rax
    3b6c:	48 89 45 b8          	mov    %rax,-0x48(%rbp)
    3b70:	48 8b 45 b8          	mov    -0x48(%rbp),%rax
    3b74:	48 89 45 d0          	mov    %rax,-0x30(%rbp)
/media/ssd-partition/Documents/RootCauseAnalysisPruning/evaluation/test_bin/22-ezXML/ezxml/ezxml.c:491
        
        if (isalpha(*s) || *s == '_' || *s == ':' || *s < '\0') { // new tag
    3b78:	e8 d3 d8 ff ff       	call   1450 <__ctype_b_loc@plt>
    3b7d:	48 8b 10             	mov    (%rax),%rdx
    3b80:	48 8b 45 b8          	mov    -0x48(%rbp),%rax
    3b84:	0f b6 00             	movzbl (%rax),%eax
    3b87:	48 0f be c0          	movsbq %al,%rax
    3b8b:	48 01 c0             	add    %rax,%rax
    3b8e:	48 01 d0             	add    %rdx,%rax
    3b91:	0f b7 00             	movzwl (%rax),%eax
    3b94:	0f b7 c0             	movzwl %ax,%eax
    3b97:	25 00 04 00 00       	and    $0x400,%eax
    3b9c:	85 c0                	test   %eax,%eax
    3b9e:	75 25                	jne    3bc5 <ezxml_parse_str+0x186>
/media/ssd-partition/Documents/RootCauseAnalysisPruning/evaluation/test_bin/22-ezXML/ezxml/ezxml.c:491 (discriminator 1)
    3ba0:	48 8b 45 b8          	mov    -0x48(%rbp),%rax
    3ba4:	0f b6 00             	movzbl (%rax),%eax
    3ba7:	3c 5f                	cmp    $0x5f,%al
    3ba9:	74 1a                	je     3bc5 <ezxml_parse_str+0x186>
/media/ssd-partition/Documents/RootCauseAnalysisPruning/evaluation/test_bin/22-ezXML/ezxml/ezxml.c:491 (discriminator 2)
    3bab:	48 8b 45 b8          	mov    -0x48(%rbp),%rax
    3baf:	0f b6 00             	movzbl (%rax),%eax
    3bb2:	3c 3a                	cmp    $0x3a,%al
    3bb4:	74 0f                	je     3bc5 <ezxml_parse_str+0x186>
/media/ssd-partition/Documents/RootCauseAnalysisPruning/evaluation/test_bin/22-ezXML/ezxml/ezxml.c:491 (discriminator 3)
    3bb6:	48 8b 45 b8          	mov    -0x48(%rbp),%rax
    3bba:	0f b6 00             	movzbl (%rax),%eax
    3bbd:	84 c0                	test   %al,%al
    3bbf:	0f 89 76 06 00 00    	jns    423b <ezxml_parse_str+0x7fc>
/media/ssd-partition/Documents/RootCauseAnalysisPruning/evaluation/test_bin/22-ezXML/ezxml/ezxml.c:492
            if (! root->cur)
    3bc5:	48 8b 45 e8          	mov    -0x18(%rbp),%rax
    3bc9:	48 8b 40 50          	mov    0x50(%rax),%rax
    3bcd:	48 85 c0             	test   %rax,%rax
    3bd0:	75 24                	jne    3bf6 <ezxml_parse_str+0x1b7>
/media/ssd-partition/Documents/RootCauseAnalysisPruning/evaluation/test_bin/22-ezXML/ezxml/ezxml.c:493
                return ezxml_err(root, d, "markup outside of root element");
    3bd2:	48 8b 4d d0          	mov    -0x30(%rbp),%rcx
    3bd6:	48 8b 45 e8          	mov    -0x18(%rbp),%rax
    3bda:	48 8d 15 2f 35 00 00 	lea    0x352f(%rip),%rdx        # 7110 <_IO_stdin_used+0x110>
    3be1:	48 89 ce             	mov    %rcx,%rsi
    3be4:	48 89 c7             	mov    %rax,%rdi
    3be7:	b8 00 00 00 00       	mov    $0x0,%eax
    3bec:	e8 ff de ff ff       	call   1af0 <ezxml_err>
    3bf1:	e9 ee 0b 00 00       	jmp    47e4 <ezxml_parse_str+0xda5>
/media/ssd-partition/Documents/RootCauseAnalysisPruning/evaluation/test_bin/22-ezXML/ezxml/ezxml.c:495

            s += strcspn(s, EZXML_WS "/>");
    3bf6:	48 8b 5d b8          	mov    -0x48(%rbp),%rbx
    3bfa:	48 8b 45 b8          	mov    -0x48(%rbp),%rax
    3bfe:	48 8d 15 2a 35 00 00 	lea    0x352a(%rip),%rdx        # 712f <_IO_stdin_used+0x12f>
    3c05:	48 89 d6             	mov    %rdx,%rsi
    3c08:	48 89 c7             	mov    %rax,%rdi
    3c0b:	e8 30 d7 ff ff       	call   1340 <strcspn@plt>
    3c10:	48 01 d8             	add    %rbx,%rax
    3c13:	48 89 45 b8          	mov    %rax,-0x48(%rbp)
/media/ssd-partition/Documents/RootCauseAnalysisPruning/evaluation/test_bin/22-ezXML/ezxml/ezxml.c:496
            while (isspace(*s)) *(s++) = '\0'; // null terminate tag name
    3c17:	eb 0f                	jmp    3c28 <ezxml_parse_str+0x1e9>
/media/ssd-partition/Documents/RootCauseAnalysisPruning/evaluation/test_bin/22-ezXML/ezxml/ezxml.c:496 (discriminator 2)
    3c19:	48 8b 45 b8          	mov    -0x48(%rbp),%rax
    3c1d:	48 8d 50 01          	lea    0x1(%rax),%rdx
    3c21:	48 89 55 b8          	mov    %rdx,-0x48(%rbp)
    3c25:	c6 00 00             	movb   $0x0,(%rax)
/media/ssd-partition/Documents/RootCauseAnalysisPruning/evaluation/test_bin/22-ezXML/ezxml/ezxml.c:496 (discriminator 1)
    3c28:	e8 23 d8 ff ff       	call   1450 <__ctype_b_loc@plt>
    3c2d:	48 8b 10             	mov    (%rax),%rdx
    3c30:	48 8b 45 b8          	mov    -0x48(%rbp),%rax
    3c34:	0f b6 00             	movzbl (%rax),%eax
    3c37:	48 0f be c0          	movsbq %al,%rax
    3c3b:	48 01 c0             	add    %rax,%rax
    3c3e:	48 01 d0             	add    %rdx,%rax
    3c41:	0f b7 00             	movzwl (%rax),%eax
    3c44:	0f b7 c0             	movzwl %ax,%eax
    3c47:	25 00 20 00 00       	and    $0x2000,%eax
    3c4c:	85 c0                	test   %eax,%eax
    3c4e:	75 c9                	jne    3c19 <ezxml_parse_str+0x1da>
/media/ssd-partition/Documents/RootCauseAnalysisPruning/evaluation/test_bin/22-ezXML/ezxml/ezxml.c:498
  
            if (*s && *s != '/' && *s != '>') // find tag in default attr list
    3c50:	48 8b 45 b8          	mov    -0x48(%rbp),%rax
    3c54:	0f b6 00             	movzbl (%rax),%eax
    3c57:	84 c0                	test   %al,%al
    3c59:	74 62                	je     3cbd <ezxml_parse_str+0x27e>
/media/ssd-partition/Documents/RootCauseAnalysisPruning/evaluation/test_bin/22-ezXML/ezxml/ezxml.c:498 (discriminator 1)
    3c5b:	48 8b 45 b8          	mov    -0x48(%rbp),%rax
    3c5f:	0f b6 00             	movzbl (%rax),%eax
    3c62:	3c 2f                	cmp    $0x2f,%al
    3c64:	74 57                	je     3cbd <ezxml_parse_str+0x27e>
/media/ssd-partition/Documents/RootCauseAnalysisPruning/evaluation/test_bin/22-ezXML/ezxml/ezxml.c:498 (discriminator 2)
    3c66:	48 8b 45 b8          	mov    -0x48(%rbp),%rax
    3c6a:	0f b6 00             	movzbl (%rax),%eax
    3c6d:	3c 3e                	cmp    $0x3e,%al
    3c6f:	74 4c                	je     3cbd <ezxml_parse_str+0x27e>
/media/ssd-partition/Documents/RootCauseAnalysisPruning/evaluation/test_bin/22-ezXML/ezxml/ezxml.c:499
                for (i = 0; (a = root->attr[i]) && strcmp(a[0], d); i++);
    3c71:	c7 45 c8 00 00 00 00 	movl   $0x0,-0x38(%rbp)
    3c78:	eb 04                	jmp    3c7e <ezxml_parse_str+0x23f>
/media/ssd-partition/Documents/RootCauseAnalysisPruning/evaluation/test_bin/22-ezXML/ezxml/ezxml.c:499 (discriminator 4)
    3c7a:	83 45 c8 01          	addl   $0x1,-0x38(%rbp)
/media/ssd-partition/Documents/RootCauseAnalysisPruning/evaluation/test_bin/22-ezXML/ezxml/ezxml.c:499 (discriminator 1)
    3c7e:	48 8b 45 e8          	mov    -0x18(%rbp),%rax
    3c82:	48 8b 90 88 00 00 00 	mov    0x88(%rax),%rdx
    3c89:	8b 45 c8             	mov    -0x38(%rbp),%eax
    3c8c:	48 98                	cltq   
    3c8e:	48 c1 e0 03          	shl    $0x3,%rax
    3c92:	48 01 d0             	add    %rdx,%rax
    3c95:	48 8b 00             	mov    (%rax),%rax
    3c98:	48 89 45 e0          	mov    %rax,-0x20(%rbp)
    3c9c:	48 83 7d e0 00       	cmpq   $0x0,-0x20(%rbp)
    3ca1:	74 1a                	je     3cbd <ezxml_parse_str+0x27e>
/media/ssd-partition/Documents/RootCauseAnalysisPruning/evaluation/test_bin/22-ezXML/ezxml/ezxml.c:499 (discriminator 3)
    3ca3:	48 8b 45 e0          	mov    -0x20(%rbp),%rax
    3ca7:	48 8b 00             	mov    (%rax),%rax
    3caa:	48 8b 55 d0          	mov    -0x30(%rbp),%rdx
    3cae:	48 89 d6             	mov    %rdx,%rsi
    3cb1:	48 89 c7             	mov    %rax,%rdi
    3cb4:	e8 a7 d6 ff ff       	call   1360 <strcmp@plt>
    3cb9:	85 c0                	test   %eax,%eax
    3cbb:	75 bd                	jne    3c7a <ezxml_parse_str+0x23b>
/media/ssd-partition/Documents/RootCauseAnalysisPruning/evaluation/test_bin/22-ezXML/ezxml/ezxml.c:501

            for (l = 0; *s && *s != '/' && *s != '>'; l += 2) { // new attrib
    3cbd:	c7 45 c4 00 00 00 00 	movl   $0x0,-0x3c(%rbp)
    3cc4:	e9 1b 04 00 00       	jmp    40e4 <ezxml_parse_str+0x6a5>
/media/ssd-partition/Documents/RootCauseAnalysisPruning/evaluation/test_bin/22-ezXML/ezxml/ezxml.c:502
                attr = (l) ? realloc(attr, (l + 4) * sizeof(char *))
    3cc9:	83 7d c4 00          	cmpl   $0x0,-0x3c(%rbp)
    3ccd:	74 21                	je     3cf0 <ezxml_parse_str+0x2b1>
/media/ssd-partition/Documents/RootCauseAnalysisPruning/evaluation/test_bin/22-ezXML/ezxml/ezxml.c:502 (discriminator 1)
    3ccf:	8b 45 c4             	mov    -0x3c(%rbp),%eax
    3cd2:	83 c0 04             	add    $0x4,%eax
    3cd5:	48 98                	cltq   
    3cd7:	48 8d 14 c5 00 00 00 	lea    0x0(,%rax,8),%rdx
    3cde:	00 
    3cdf:	48 8b 45 d8          	mov    -0x28(%rbp),%rax
    3ce3:	48 89 d6             	mov    %rdx,%rsi
    3ce6:	48 89 c7             	mov    %rax,%rdi
    3ce9:	e8 c2 d6 ff ff       	call   13b0 <realloc@plt>
    3cee:	eb 0a                	jmp    3cfa <ezxml_parse_str+0x2bb>
/media/ssd-partition/Documents/RootCauseAnalysisPruning/evaluation/test_bin/22-ezXML/ezxml/ezxml.c:503
                           : malloc(4 * sizeof(char *)); // allocate space
    3cf0:	bf 20 00 00 00       	mov    $0x20,%edi
    3cf5:	e8 a6 d6 ff ff       	call   13a0 <malloc@plt>
/media/ssd-partition/Documents/RootCauseAnalysisPruning/evaluation/test_bin/22-ezXML/ezxml/ezxml.c:502 (discriminator 2)
                attr = (l) ? realloc(attr, (l + 4) * sizeof(char *))
    3cfa:	48 89 45 d8          	mov    %rax,-0x28(%rbp)
/media/ssd-partition/Documents/RootCauseAnalysisPruning/evaluation/test_bin/22-ezXML/ezxml/ezxml.c:504 (discriminator 2)
                attr[l + 3] = (l) ? realloc(attr[l + 1], (l / 2) + 2)
    3cfe:	83 7d c4 00          	cmpl   $0x0,-0x3c(%rbp)
    3d02:	74 3a                	je     3d3e <ezxml_parse_str+0x2ff>
/media/ssd-partition/Documents/RootCauseAnalysisPruning/evaluation/test_bin/22-ezXML/ezxml/ezxml.c:504 (discriminator 1)
    3d04:	8b 45 c4             	mov    -0x3c(%rbp),%eax
    3d07:	89 c2                	mov    %eax,%edx
    3d09:	c1 ea 1f             	shr    $0x1f,%edx
    3d0c:	01 d0                	add    %edx,%eax
    3d0e:	d1 f8                	sar    %eax
    3d10:	83 c0 02             	add    $0x2,%eax
    3d13:	48 63 d0             	movslq %eax,%rdx
    3d16:	8b 45 c4             	mov    -0x3c(%rbp),%eax
    3d19:	48 98                	cltq   
    3d1b:	48 83 c0 01          	add    $0x1,%rax
    3d1f:	48 8d 0c c5 00 00 00 	lea    0x0(,%rax,8),%rcx
    3d26:	00 
    3d27:	48 8b 45 d8          	mov    -0x28(%rbp),%rax
    3d2b:	48 01 c8             	add    %rcx,%rax
    3d2e:	48 8b 00             	mov    (%rax),%rax
    3d31:	48 89 d6             	mov    %rdx,%rsi
    3d34:	48 89 c7             	mov    %rax,%rdi
    3d37:	e8 74 d6 ff ff       	call   13b0 <realloc@plt>
    3d3c:	eb 0a                	jmp    3d48 <ezxml_parse_str+0x309>
/media/ssd-partition/Documents/RootCauseAnalysisPruning/evaluation/test_bin/22-ezXML/ezxml/ezxml.c:505
                                  : malloc(2); // mem for list of maloced vals
    3d3e:	bf 02 00 00 00       	mov    $0x2,%edi
    3d43:	e8 58 d6 ff ff       	call   13a0 <malloc@plt>
/media/ssd-partition/Documents/RootCauseAnalysisPruning/evaluation/test_bin/22-ezXML/ezxml/ezxml.c:504 (discriminator 2)
                attr[l + 3] = (l) ? realloc(attr[l + 1], (l / 2) + 2)
    3d48:	8b 55 c4             	mov    -0x3c(%rbp),%edx
    3d4b:	48 63 d2             	movslq %edx,%rdx
    3d4e:	48 83 c2 03          	add    $0x3,%rdx
    3d52:	48 8d 0c d5 00 00 00 	lea    0x0(,%rdx,8),%rcx
    3d59:	00 
    3d5a:	48 8b 55 d8          	mov    -0x28(%rbp),%rdx
    3d5e:	48 01 ca             	add    %rcx,%rdx
    3d61:	48 89 02             	mov    %rax,(%rdx)
/media/ssd-partition/Documents/RootCauseAnalysisPruning/evaluation/test_bin/22-ezXML/ezxml/ezxml.c:506 (discriminator 2)
                strcpy(attr[l + 3] + (l / 2), " "); // value is not malloced
    3d64:	8b 45 c4             	mov    -0x3c(%rbp),%eax
    3d67:	48 98                	cltq   
    3d69:	48 83 c0 03          	add    $0x3,%rax
    3d6d:	48 8d 14 c5 00 00 00 	lea    0x0(,%rax,8),%rdx
    3d74:	00 
    3d75:	48 8b 45 d8          	mov    -0x28(%rbp),%rax
    3d79:	48 01 d0             	add    %rdx,%rax
    3d7c:	48 8b 10             	mov    (%rax),%rdx
    3d7f:	8b 45 c4             	mov    -0x3c(%rbp),%eax
    3d82:	89 c1                	mov    %eax,%ecx
    3d84:	c1 e9 1f             	shr    $0x1f,%ecx
    3d87:	01 c8                	add    %ecx,%eax
    3d89:	d1 f8                	sar    %eax
    3d8b:	48 98                	cltq   
    3d8d:	48 01 d0             	add    %rdx,%rax
    3d90:	66 c7 00 20 00       	movw   $0x20,(%rax)
/media/ssd-partition/Documents/RootCauseAnalysisPruning/evaluation/test_bin/22-ezXML/ezxml/ezxml.c:507 (discriminator 2)
                attr[l + 2] = NULL; // null terminate list
    3d95:	8b 45 c4             	mov    -0x3c(%rbp),%eax
    3d98:	48 98                	cltq   
    3d9a:	48 83 c0 02          	add    $0x2,%rax
    3d9e:	48 8d 14 c5 00 00 00 	lea    0x0(,%rax,8),%rdx
    3da5:	00 
    3da6:	48 8b 45 d8          	mov    -0x28(%rbp),%rax
    3daa:	48 01 d0             	add    %rdx,%rax
    3dad:	48 c7 00 00 00 00 00 	movq   $0x0,(%rax)
/media/ssd-partition/Documents/RootCauseAnalysisPruning/evaluation/test_bin/22-ezXML/ezxml/ezxml.c:508 (discriminator 2)
                attr[l + 1] = ""; // temporary attribute value
    3db4:	8b 45 c4             	mov    -0x3c(%rbp),%eax
    3db7:	48 98                	cltq   
    3db9:	48 83 c0 01          	add    $0x1,%rax
    3dbd:	48 8d 14 c5 00 00 00 	lea    0x0(,%rax,8),%rdx
    3dc4:	00 
    3dc5:	48 8b 45 d8          	mov    -0x28(%rbp),%rax
    3dc9:	48 01 d0             	add    %rdx,%rax
    3dcc:	48 8d 15 90 32 00 00 	lea    0x3290(%rip),%rdx        # 7063 <_IO_stdin_used+0x63>
    3dd3:	48 89 10             	mov    %rdx,(%rax)
/media/ssd-partition/Documents/RootCauseAnalysisPruning/evaluation/test_bin/22-ezXML/ezxml/ezxml.c:509 (discriminator 2)
                attr[l] = s; // set attribute name
    3dd6:	8b 45 c4             	mov    -0x3c(%rbp),%eax
    3dd9:	48 98                	cltq   
    3ddb:	48 8d 14 c5 00 00 00 	lea    0x0(,%rax,8),%rdx
    3de2:	00 
    3de3:	48 8b 45 d8          	mov    -0x28(%rbp),%rax
    3de7:	48 01 c2             	add    %rax,%rdx
    3dea:	48 8b 45 b8          	mov    -0x48(%rbp),%rax
    3dee:	48 89 02             	mov    %rax,(%rdx)
/media/ssd-partition/Documents/RootCauseAnalysisPruning/evaluation/test_bin/22-ezXML/ezxml/ezxml.c:511 (discriminator 2)

                s += strcspn(s, EZXML_WS "=/>");
    3df1:	48 8b 5d b8          	mov    -0x48(%rbp),%rbx
    3df5:	48 8b 45 b8          	mov    -0x48(%rbp),%rax
    3df9:	48 8d 15 36 33 00 00 	lea    0x3336(%rip),%rdx        # 7136 <_IO_stdin_used+0x136>
    3e00:	48 89 d6             	mov    %rdx,%rsi
    3e03:	48 89 c7             	mov    %rax,%rdi
    3e06:	e8 35 d5 ff ff       	call   1340 <strcspn@plt>
    3e0b:	48 01 d8             	add    %rbx,%rax
    3e0e:	48 89 45 b8          	mov    %rax,-0x48(%rbp)
/media/ssd-partition/Documents/RootCauseAnalysisPruning/evaluation/test_bin/22-ezXML/ezxml/ezxml.c:512 (discriminator 2)
                if (*s == '=' || isspace(*s)) { 
    3e12:	48 8b 45 b8          	mov    -0x48(%rbp),%rax
    3e16:	0f b6 00             	movzbl (%rax),%eax
    3e19:	3c 3d                	cmp    $0x3d,%al
    3e1b:	74 2c                	je     3e49 <ezxml_parse_str+0x40a>
/media/ssd-partition/Documents/RootCauseAnalysisPruning/evaluation/test_bin/22-ezXML/ezxml/ezxml.c:512 (discriminator 1)
    3e1d:	e8 2e d6 ff ff       	call   1450 <__ctype_b_loc@plt>
    3e22:	48 8b 10             	mov    (%rax),%rdx
    3e25:	48 8b 45 b8          	mov    -0x48(%rbp),%rax
    3e29:	0f b6 00             	movzbl (%rax),%eax
    3e2c:	48 0f be c0          	movsbq %al,%rax
    3e30:	48 01 c0             	add    %rax,%rax
    3e33:	48 01 d0             	add    %rdx,%rax
    3e36:	0f b7 00             	movzwl (%rax),%eax
    3e39:	0f b7 c0             	movzwl %ax,%eax
    3e3c:	25 00 20 00 00       	and    $0x2000,%eax
    3e41:	85 c0                	test   %eax,%eax
    3e43:	0f 84 6f 02 00 00    	je     40b8 <ezxml_parse_str+0x679>
/media/ssd-partition/Documents/RootCauseAnalysisPruning/evaluation/test_bin/22-ezXML/ezxml/ezxml.c:513
                    *(s++) = '\0'; // null terminate tag attribute name
    3e49:	48 8b 45 b8          	mov    -0x48(%rbp),%rax
    3e4d:	48 8d 50 01          	lea    0x1(%rax),%rdx
    3e51:	48 89 55 b8          	mov    %rdx,-0x48(%rbp)
    3e55:	c6 00 00             	movb   $0x0,(%rax)
/media/ssd-partition/Documents/RootCauseAnalysisPruning/evaluation/test_bin/22-ezXML/ezxml/ezxml.c:514
