
cjpeg_heap_buffer_overflow_trace:     file format elf64-x86-64


Disassembly of section .init:

0000000000002000 <_init>:
_init():
    2000:	f3 0f 1e fa          	endbr64 
    2004:	48 83 ec 08          	sub    $0x8,%rsp
    2008:	48 8b 05 c9 af 00 00 	mov    0xafc9(%rip),%rax        # cfd8 <__gmon_start__@Base>
    200f:	48 85 c0             	test   %rax,%rax
    2012:	74 02                	je     2016 <_init+0x16>
    2014:	ff d0                	call   *%rax
    2016:	48 83 c4 08          	add    $0x8,%rsp
    201a:	c3                   	ret    

Disassembly of section .plt:

0000000000002020 <.plt>:
    2020:	ff 35 82 ae 00 00    	push   0xae82(%rip)        # cea8 <_GLOBAL_OFFSET_TABLE_+0x8>
    2026:	f2 ff 25 83 ae 00 00 	bnd jmp *0xae83(%rip)        # ceb0 <_GLOBAL_OFFSET_TABLE_+0x10>
    202d:	0f 1f 00             	nopl   (%rax)
    2030:	f3 0f 1e fa          	endbr64 
    2034:	68 00 00 00 00       	push   $0x0
    2039:	f2 e9 e1 ff ff ff    	bnd jmp 2020 <_init+0x20>
    203f:	90                   	nop
    2040:	f3 0f 1e fa          	endbr64 
    2044:	68 01 00 00 00       	push   $0x1
    2049:	f2 e9 d1 ff ff ff    	bnd jmp 2020 <_init+0x20>
    204f:	90                   	nop
    2050:	f3 0f 1e fa          	endbr64 
    2054:	68 02 00 00 00       	push   $0x2
    2059:	f2 e9 c1 ff ff ff    	bnd jmp 2020 <_init+0x20>
    205f:	90                   	nop
    2060:	f3 0f 1e fa          	endbr64 
    2064:	68 03 00 00 00       	push   $0x3
    2069:	f2 e9 b1 ff ff ff    	bnd jmp 2020 <_init+0x20>
    206f:	90                   	nop
    2070:	f3 0f 1e fa          	endbr64 
    2074:	68 04 00 00 00       	push   $0x4
    2079:	f2 e9 a1 ff ff ff    	bnd jmp 2020 <_init+0x20>
    207f:	90                   	nop
    2080:	f3 0f 1e fa          	endbr64 
    2084:	68 05 00 00 00       	push   $0x5
    2089:	f2 e9 91 ff ff ff    	bnd jmp 2020 <_init+0x20>
    208f:	90                   	nop
    2090:	f3 0f 1e fa          	endbr64 
    2094:	68 06 00 00 00       	push   $0x6
    2099:	f2 e9 81 ff ff ff    	bnd jmp 2020 <_init+0x20>
    209f:	90                   	nop
    20a0:	f3 0f 1e fa          	endbr64 
    20a4:	68 07 00 00 00       	push   $0x7
    20a9:	f2 e9 71 ff ff ff    	bnd jmp 2020 <_init+0x20>
    20af:	90                   	nop
    20b0:	f3 0f 1e fa          	endbr64 
    20b4:	68 08 00 00 00       	push   $0x8
    20b9:	f2 e9 61 ff ff ff    	bnd jmp 2020 <_init+0x20>
    20bf:	90                   	nop
    20c0:	f3 0f 1e fa          	endbr64 
    20c4:	68 09 00 00 00       	push   $0x9
    20c9:	f2 e9 51 ff ff ff    	bnd jmp 2020 <_init+0x20>
    20cf:	90                   	nop
    20d0:	f3 0f 1e fa          	endbr64 
    20d4:	68 0a 00 00 00       	push   $0xa
    20d9:	f2 e9 41 ff ff ff    	bnd jmp 2020 <_init+0x20>
    20df:	90                   	nop
    20e0:	f3 0f 1e fa          	endbr64 
    20e4:	68 0b 00 00 00       	push   $0xb
    20e9:	f2 e9 31 ff ff ff    	bnd jmp 2020 <_init+0x20>
    20ef:	90                   	nop
    20f0:	f3 0f 1e fa          	endbr64 
    20f4:	68 0c 00 00 00       	push   $0xc
    20f9:	f2 e9 21 ff ff ff    	bnd jmp 2020 <_init+0x20>
    20ff:	90                   	nop
    2100:	f3 0f 1e fa          	endbr64 
    2104:	68 0d 00 00 00       	push   $0xd
    2109:	f2 e9 11 ff ff ff    	bnd jmp 2020 <_init+0x20>
    210f:	90                   	nop
    2110:	f3 0f 1e fa          	endbr64 
    2114:	68 0e 00 00 00       	push   $0xe
    2119:	f2 e9 01 ff ff ff    	bnd jmp 2020 <_init+0x20>
    211f:	90                   	nop
    2120:	f3 0f 1e fa          	endbr64 
    2124:	68 0f 00 00 00       	push   $0xf
    2129:	f2 e9 f1 fe ff ff    	bnd jmp 2020 <_init+0x20>
    212f:	90                   	nop
    2130:	f3 0f 1e fa          	endbr64 
    2134:	68 10 00 00 00       	push   $0x10
    2139:	f2 e9 e1 fe ff ff    	bnd jmp 2020 <_init+0x20>
    213f:	90                   	nop
    2140:	f3 0f 1e fa          	endbr64 
    2144:	68 11 00 00 00       	push   $0x11
    2149:	f2 e9 d1 fe ff ff    	bnd jmp 2020 <_init+0x20>
    214f:	90                   	nop
    2150:	f3 0f 1e fa          	endbr64 
    2154:	68 12 00 00 00       	push   $0x12
    2159:	f2 e9 c1 fe ff ff    	bnd jmp 2020 <_init+0x20>
    215f:	90                   	nop
    2160:	f3 0f 1e fa          	endbr64 
    2164:	68 13 00 00 00       	push   $0x13
    2169:	f2 e9 b1 fe ff ff    	bnd jmp 2020 <_init+0x20>
    216f:	90                   	nop
    2170:	f3 0f 1e fa          	endbr64 
    2174:	68 14 00 00 00       	push   $0x14
    2179:	f2 e9 a1 fe ff ff    	bnd jmp 2020 <_init+0x20>
    217f:	90                   	nop
    2180:	f3 0f 1e fa          	endbr64 
    2184:	68 15 00 00 00       	push   $0x15
    2189:	f2 e9 91 fe ff ff    	bnd jmp 2020 <_init+0x20>
    218f:	90                   	nop
    2190:	f3 0f 1e fa          	endbr64 
    2194:	68 16 00 00 00       	push   $0x16
    2199:	f2 e9 81 fe ff ff    	bnd jmp 2020 <_init+0x20>
    219f:	90                   	nop
    21a0:	f3 0f 1e fa          	endbr64 
    21a4:	68 17 00 00 00       	push   $0x17
    21a9:	f2 e9 71 fe ff ff    	bnd jmp 2020 <_init+0x20>
    21af:	90                   	nop
    21b0:	f3 0f 1e fa          	endbr64 
    21b4:	68 18 00 00 00       	push   $0x18
    21b9:	f2 e9 61 fe ff ff    	bnd jmp 2020 <_init+0x20>
    21bf:	90                   	nop
    21c0:	f3 0f 1e fa          	endbr64 
    21c4:	68 19 00 00 00       	push   $0x19
    21c9:	f2 e9 51 fe ff ff    	bnd jmp 2020 <_init+0x20>
    21cf:	90                   	nop
    21d0:	f3 0f 1e fa          	endbr64 
    21d4:	68 1a 00 00 00       	push   $0x1a
    21d9:	f2 e9 41 fe ff ff    	bnd jmp 2020 <_init+0x20>
    21df:	90                   	nop
    21e0:	f3 0f 1e fa          	endbr64 
    21e4:	68 1b 00 00 00       	push   $0x1b
    21e9:	f2 e9 31 fe ff ff    	bnd jmp 2020 <_init+0x20>
    21ef:	90                   	nop
    21f0:	f3 0f 1e fa          	endbr64 
    21f4:	68 1c 00 00 00       	push   $0x1c
    21f9:	f2 e9 21 fe ff ff    	bnd jmp 2020 <_init+0x20>
    21ff:	90                   	nop
    2200:	f3 0f 1e fa          	endbr64 
    2204:	68 1d 00 00 00       	push   $0x1d
    2209:	f2 e9 11 fe ff ff    	bnd jmp 2020 <_init+0x20>
    220f:	90                   	nop
    2210:	f3 0f 1e fa          	endbr64 
    2214:	68 1e 00 00 00       	push   $0x1e
    2219:	f2 e9 01 fe ff ff    	bnd jmp 2020 <_init+0x20>
    221f:	90                   	nop
    2220:	f3 0f 1e fa          	endbr64 
    2224:	68 1f 00 00 00       	push   $0x1f
    2229:	f2 e9 f1 fd ff ff    	bnd jmp 2020 <_init+0x20>
    222f:	90                   	nop
    2230:	f3 0f 1e fa          	endbr64 
    2234:	68 20 00 00 00       	push   $0x20
    2239:	f2 e9 e1 fd ff ff    	bnd jmp 2020 <_init+0x20>
    223f:	90                   	nop
    2240:	f3 0f 1e fa          	endbr64 
    2244:	68 21 00 00 00       	push   $0x21
    2249:	f2 e9 d1 fd ff ff    	bnd jmp 2020 <_init+0x20>
    224f:	90                   	nop

Disassembly of section .plt.got:

0000000000002250 <__cxa_finalize@plt>:
    2250:	f3 0f 1e fa          	endbr64 
    2254:	f2 ff 25 8d ad 00 00 	bnd jmp *0xad8d(%rip)        # cfe8 <__cxa_finalize@GLIBC_2.2.5>
    225b:	0f 1f 44 00 00       	nopl   0x0(%rax,%rax,1)

Disassembly of section .plt.sec:

0000000000002260 <free@plt>:
    2260:	f3 0f 1e fa          	endbr64 
    2264:	f2 ff 25 4d ac 00 00 	bnd jmp *0xac4d(%rip)        # ceb8 <free@GLIBC_2.2.5>
    226b:	0f 1f 44 00 00       	nopl   0x0(%rax,%rax,1)

0000000000002270 <jpeg_default_colorspace@plt>:
    2270:	f3 0f 1e fa          	endbr64 
    2274:	f2 ff 25 45 ac 00 00 	bnd jmp *0xac45(%rip)        # cec0 <jpeg_default_colorspace@LIBJPEG_6.2>
    227b:	0f 1f 44 00 00       	nopl   0x0(%rax,%rax,1)

0000000000002280 <fread@plt>:
    2280:	f3 0f 1e fa          	endbr64 
    2284:	f2 ff 25 3d ac 00 00 	bnd jmp *0xac3d(%rip)        # cec8 <fread@GLIBC_2.2.5>
    228b:	0f 1f 44 00 00       	nopl   0x0(%rax,%rax,1)

0000000000002290 <jpeg_add_quant_table@plt>:
    2290:	f3 0f 1e fa          	endbr64 
    2294:	f2 ff 25 35 ac 00 00 	bnd jmp *0xac35(%rip)        # ced0 <jpeg_add_quant_table@LIBJPEG_6.2>
    229b:	0f 1f 44 00 00       	nopl   0x0(%rax,%rax,1)

00000000000022a0 <fclose@plt>:
    22a0:	f3 0f 1e fa          	endbr64 
    22a4:	f2 ff 25 2d ac 00 00 	bnd jmp *0xac2d(%rip)        # ced8 <fclose@GLIBC_2.2.5>
    22ab:	0f 1f 44 00 00       	nopl   0x0(%rax,%rax,1)

00000000000022b0 <__stack_chk_fail@plt>:
    22b0:	f3 0f 1e fa          	endbr64 
    22b4:	f2 ff 25 25 ac 00 00 	bnd jmp *0xac25(%rip)        # cee0 <__stack_chk_fail@GLIBC_2.4>
    22bb:	0f 1f 44 00 00       	nopl   0x0(%rax,%rax,1)

00000000000022c0 <jpeg_simple_progression@plt>:
    22c0:	f3 0f 1e fa          	endbr64 
    22c4:	f2 ff 25 1d ac 00 00 	bnd jmp *0xac1d(%rip)        # cee8 <jpeg_simple_progression@LIBJPEG_6.2>
    22cb:	0f 1f 44 00 00       	nopl   0x0(%rax,%rax,1)

00000000000022d0 <jpeg_std_error@plt>:
    22d0:	f3 0f 1e fa          	endbr64 
    22d4:	f2 ff 25 15 ac 00 00 	bnd jmp *0xac15(%rip)        # cef0 <jpeg_std_error@LIBJPEG_6.2>
    22db:	0f 1f 44 00 00       	nopl   0x0(%rax,%rax,1)

00000000000022e0 <ftell@plt>:
    22e0:	f3 0f 1e fa          	endbr64 
    22e4:	f2 ff 25 0d ac 00 00 	bnd jmp *0xac0d(%rip)        # cef8 <ftell@GLIBC_2.2.5>
    22eb:	0f 1f 44 00 00       	nopl   0x0(%rax,%rax,1)

00000000000022f0 <feof@plt>:
    22f0:	f3 0f 1e fa          	endbr64 
    22f4:	f2 ff 25 05 ac 00 00 	bnd jmp *0xac05(%rip)        # cf00 <feof@GLIBC_2.2.5>
    22fb:	0f 1f 44 00 00       	nopl   0x0(%rax,%rax,1)

0000000000002300 <jpeg_finish_compress@plt>:
    2300:	f3 0f 1e fa          	endbr64 
    2304:	f2 ff 25 fd ab 00 00 	bnd jmp *0xabfd(%rip)        # cf08 <jpeg_finish_compress@LIBJPEG_6.2>
    230b:	0f 1f 44 00 00       	nopl   0x0(%rax,%rax,1)

0000000000002310 <memcpy@plt>:
    2310:	f3 0f 1e fa          	endbr64 
    2314:	f2 ff 25 f5 ab 00 00 	bnd jmp *0xabf5(%rip)        # cf10 <memcpy@GLIBC_2.14>
    231b:	0f 1f 44 00 00       	nopl   0x0(%rax,%rax,1)

0000000000002320 <jpeg_CreateCompress@plt>:
    2320:	f3 0f 1e fa          	endbr64 
    2324:	f2 ff 25 ed ab 00 00 	bnd jmp *0xabed(%rip)        # cf18 <jpeg_CreateCompress@LIBJPEG_6.2>
    232b:	0f 1f 44 00 00       	nopl   0x0(%rax,%rax,1)

0000000000002330 <jpeg_quality_scaling@plt>:
    2330:	f3 0f 1e fa          	endbr64 
    2334:	f2 ff 25 e5 ab 00 00 	bnd jmp *0xabe5(%rip)        # cf20 <jpeg_quality_scaling@LIBJPEG_6.2>
    233b:	0f 1f 44 00 00       	nopl   0x0(%rax,%rax,1)

0000000000002340 <malloc@plt>:
    2340:	f3 0f 1e fa          	endbr64 
    2344:	f2 ff 25 dd ab 00 00 	bnd jmp *0xabdd(%rip)        # cf28 <malloc@GLIBC_2.2.5>
    234b:	0f 1f 44 00 00       	nopl   0x0(%rax,%rax,1)

0000000000002350 <__isoc99_sscanf@plt>:
    2350:	f3 0f 1e fa          	endbr64 
    2354:	f2 ff 25 d5 ab 00 00 	bnd jmp *0xabd5(%rip)        # cf30 <__isoc99_sscanf@GLIBC_2.7>
    235b:	0f 1f 44 00 00       	nopl   0x0(%rax,%rax,1)

0000000000002360 <jpeg_start_compress@plt>:
    2360:	f3 0f 1e fa          	endbr64 
    2364:	f2 ff 25 cd ab 00 00 	bnd jmp *0xabcd(%rip)        # cf38 <jpeg_start_compress@LIBJPEG_6.2>
    236b:	0f 1f 44 00 00       	nopl   0x0(%rax,%rax,1)

0000000000002370 <ungetc@plt>:
    2370:	f3 0f 1e fa          	endbr64 
    2374:	f2 ff 25 c5 ab 00 00 	bnd jmp *0xabc5(%rip)        # cf40 <ungetc@GLIBC_2.2.5>
    237b:	0f 1f 44 00 00       	nopl   0x0(%rax,%rax,1)

0000000000002380 <fseek@plt>:
    2380:	f3 0f 1e fa          	endbr64 
    2384:	f2 ff 25 bd ab 00 00 	bnd jmp *0xabbd(%rip)        # cf48 <fseek@GLIBC_2.2.5>
    238b:	0f 1f 44 00 00       	nopl   0x0(%rax,%rax,1)

0000000000002390 <jpeg_mem_dest@plt>:
    2390:	f3 0f 1e fa          	endbr64 
    2394:	f2 ff 25 b5 ab 00 00 	bnd jmp *0xabb5(%rip)        # cf50 <jpeg_mem_dest@LIBJPEGTURBO_6.2>
    239b:	0f 1f 44 00 00       	nopl   0x0(%rax,%rax,1)

00000000000023a0 <jpeg_set_defaults@plt>:
    23a0:	f3 0f 1e fa          	endbr64 
    23a4:	f2 ff 25 ad ab 00 00 	bnd jmp *0xabad(%rip)        # cf58 <jpeg_set_defaults@LIBJPEG_6.2>
    23ab:	0f 1f 44 00 00       	nopl   0x0(%rax,%rax,1)

00000000000023b0 <jpeg_stdio_dest@plt>:
    23b0:	f3 0f 1e fa          	endbr64 
    23b4:	f2 ff 25 a5 ab 00 00 	bnd jmp *0xaba5(%rip)        # cf60 <jpeg_stdio_dest@LIBJPEG_6.2>
    23bb:	0f 1f 44 00 00       	nopl   0x0(%rax,%rax,1)

00000000000023c0 <__fread_chk@plt>:
    23c0:	f3 0f 1e fa          	endbr64 
    23c4:	f2 ff 25 9d ab 00 00 	bnd jmp *0xab9d(%rip)        # cf68 <__fread_chk@GLIBC_2.7>
    23cb:	0f 1f 44 00 00       	nopl   0x0(%rax,%rax,1)

00000000000023d0 <jpeg_destroy_compress@plt>:
    23d0:	f3 0f 1e fa          	endbr64 
    23d4:	f2 ff 25 95 ab 00 00 	bnd jmp *0xab95(%rip)        # cf70 <jpeg_destroy_compress@LIBJPEG_6.2>
    23db:	0f 1f 44 00 00       	nopl   0x0(%rax,%rax,1)

00000000000023e0 <fopen@plt>:
    23e0:	f3 0f 1e fa          	endbr64 
    23e4:	f2 ff 25 8d ab 00 00 	bnd jmp *0xab8d(%rip)        # cf78 <fopen@GLIBC_2.2.5>
    23eb:	0f 1f 44 00 00       	nopl   0x0(%rax,%rax,1)

00000000000023f0 <jpeg_write_icc_profile@plt>:
    23f0:	f3 0f 1e fa          	endbr64 
    23f4:	f2 ff 25 85 ab 00 00 	bnd jmp *0xab85(%rip)        # cf80 <jpeg_write_icc_profile@LIBJPEG_6.2>
    23fb:	0f 1f 44 00 00       	nopl   0x0(%rax,%rax,1)

0000000000002400 <jpeg_write_scanlines@plt>:
    2400:	f3 0f 1e fa          	endbr64 
    2404:	f2 ff 25 7d ab 00 00 	bnd jmp *0xab7d(%rip)        # cf88 <jpeg_write_scanlines@LIBJPEG_6.2>
    240b:	0f 1f 44 00 00       	nopl   0x0(%rax,%rax,1)

0000000000002410 <exit@plt>:
    2410:	f3 0f 1e fa          	endbr64 
    2414:	f2 ff 25 75 ab 00 00 	bnd jmp *0xab75(%rip)        # cf90 <exit@GLIBC_2.2.5>
    241b:	0f 1f 44 00 00       	nopl   0x0(%rax,%rax,1)

0000000000002420 <fwrite@plt>:
    2420:	f3 0f 1e fa          	endbr64 
    2424:	f2 ff 25 6d ab 00 00 	bnd jmp *0xab6d(%rip)        # cf98 <fwrite@GLIBC_2.2.5>
    242b:	0f 1f 44 00 00       	nopl   0x0(%rax,%rax,1)

0000000000002430 <__fprintf_chk@plt>:
    2430:	f3 0f 1e fa          	endbr64 
    2434:	f2 ff 25 65 ab 00 00 	bnd jmp *0xab65(%rip)        # cfa0 <__fprintf_chk@GLIBC_2.3.4>
    243b:	0f 1f 44 00 00       	nopl   0x0(%rax,%rax,1)

0000000000002440 <jpeg_set_colorspace@plt>:
    2440:	f3 0f 1e fa          	endbr64 
    2444:	f2 ff 25 5d ab 00 00 	bnd jmp *0xab5d(%rip)        # cfa8 <jpeg_set_colorspace@LIBJPEG_6.2>
    244b:	0f 1f 44 00 00       	nopl   0x0(%rax,%rax,1)

0000000000002450 <getc@plt>:
    2450:	f3 0f 1e fa          	endbr64 
    2454:	f2 ff 25 55 ab 00 00 	bnd jmp *0xab55(%rip)        # cfb0 <getc@GLIBC_2.2.5>
    245b:	0f 1f 44 00 00       	nopl   0x0(%rax,%rax,1)

0000000000002460 <__ctype_tolower_loc@plt>:
    2460:	f3 0f 1e fa          	endbr64 
    2464:	f2 ff 25 4d ab 00 00 	bnd jmp *0xab4d(%rip)        # cfb8 <__ctype_tolower_loc@GLIBC_2.3>
    246b:	0f 1f 44 00 00       	nopl   0x0(%rax,%rax,1)

0000000000002470 <__ctype_b_loc@plt>:
    2470:	f3 0f 1e fa          	endbr64 
    2474:	f2 ff 25 45 ab 00 00 	bnd jmp *0xab45(%rip)        # cfc0 <__ctype_b_loc@GLIBC_2.3>
    247b:	0f 1f 44 00 00       	nopl   0x0(%rax,%rax,1)

Disassembly of section .text:

0000000000002480 <main.cold>:
select_file_type():
/home/tenebris/Disk/Documents/RootCauseAnalysis/evaluation/test_bin/libjpeg/libjpeg_heap_buffer_overflow/libjpeg-turbo/cjpeg.c:129
#ifdef TARGA_SUPPORTED
  case 0x00:
    return jinit_read_targa(cinfo);
#endif
  default:
    ERREXIT(cinfo, JERR_UNKNOWN_FORMAT);
    2480:	48 8b 84 24 d0 00 00 	mov    0xd0(%rsp),%rax
    2487:	00 
    2488:	48 89 ef             	mov    %rbp,%rdi
    248b:	c7 40 28 13 04 00 00 	movl   $0x413,0x28(%rax)
    2492:	ff 10                	call   *(%rax)
main():
/home/tenebris/Disk/Documents/RootCauseAnalysis/evaluation/test_bin/libjpeg/libjpeg_heap_buffer_overflow/libjpeg-turbo/cjpeg.c:637
  start_progress_monitor((j_common_ptr)&cinfo, &progress);
#endif

  /* Figure out the input file format, and set up to read it. */
  src_mgr = select_file_type(&cinfo, input_file);
  src_mgr->input_file = input_file;
    2494:	48 8b 04 24          	mov    (%rsp),%rax
    2498:	48 89 04 25 18 00 00 	mov    %rax,0x18
    249f:	00 
    24a0:	0f 0b                	ud2    
main.cold():
    24a2:	66 2e 0f 1f 84 00 00 	cs nopw 0x0(%rax,%rax,1)
    24a9:	00 00 00 
    24ac:	0f 1f 40 00          	nopl   0x0(%rax)

00000000000024b0 <main>:
main():
/home/tenebris/Disk/Documents/RootCauseAnalysis/evaluation/test_bin/libjpeg/libjpeg_heap_buffer_overflow/libjpeg-turbo/cjpeg.c:505
{
    24b0:	f3 0f 1e fa          	endbr64 
    24b4:	41 57                	push   %r15
    24b6:	41 56                	push   %r14
    24b8:	41 55                	push   %r13
    24ba:	49 89 f5             	mov    %rsi,%r13
    24bd:	41 54                	push   %r12
    24bf:	41 89 fc             	mov    %edi,%r12d
    24c2:	55                   	push   %rbp
    24c3:	53                   	push   %rbx
    24c4:	48 81 ec e8 02 00 00 	sub    $0x2e8,%rsp
    24cb:	64 48 8b 04 25 28 00 	mov    %fs:0x28,%rax
    24d2:	00 00 
    24d4:	48 89 84 24 d8 02 00 	mov    %rax,0x2d8(%rsp)
    24db:	00 
    24dc:	31 c0                	xor    %eax,%eax
/home/tenebris/Disk/Documents/RootCauseAnalysis/evaluation/test_bin/libjpeg/libjpeg_heap_buffer_overflow/libjpeg-turbo/cjpeg.c:527
  progname = argv[0];
    24de:	48 8b 06             	mov    (%rsi),%rax
/home/tenebris/Disk/Documents/RootCauseAnalysis/evaluation/test_bin/libjpeg/libjpeg_heap_buffer_overflow/libjpeg-turbo/cjpeg.c:518
  unsigned char *outbuffer = NULL;
    24e1:	48 c7 44 24 10 00 00 	movq   $0x0,0x10(%rsp)
    24e8:	00 00 
/home/tenebris/Disk/Documents/RootCauseAnalysis/evaluation/test_bin/libjpeg/libjpeg_heap_buffer_overflow/libjpeg-turbo/cjpeg.c:519
  unsigned long outsize = 0;
    24ea:	48 c7 44 24 18 00 00 	movq   $0x0,0x18(%rsp)
    24f1:	00 00 
/home/tenebris/Disk/Documents/RootCauseAnalysis/evaluation/test_bin/libjpeg/libjpeg_heap_buffer_overflow/libjpeg-turbo/cjpeg.c:527
  progname = argv[0];
    24f3:	48 89 05 6e ab 00 00 	mov    %rax,0xab6e(%rip)        # d068 <progname>
/home/tenebris/Disk/Documents/RootCauseAnalysis/evaluation/test_bin/libjpeg/libjpeg_heap_buffer_overflow/libjpeg-turbo/cjpeg.c:528
  if (progname == NULL || progname[0] == 0)
    24fa:	48 85 c0             	test   %rax,%rax
    24fd:	0f 84 50 01 00 00    	je     2653 <main+0x1a3>
/home/tenebris/Disk/Documents/RootCauseAnalysis/evaluation/test_bin/libjpeg/libjpeg_heap_buffer_overflow/libjpeg-turbo/cjpeg.c:528 (discriminator 1)
    2503:	80 38 00             	cmpb   $0x0,(%rax)
    2506:	0f 84 47 01 00 00    	je     2653 <main+0x1a3>
/home/tenebris/Disk/Documents/RootCauseAnalysis/evaluation/test_bin/libjpeg/libjpeg_heap_buffer_overflow/libjpeg-turbo/cjpeg.c:533
  jpeg_create_compress(&cinfo);
    250c:	48 8d ac 24 d0 00 00 	lea    0xd0(%rsp),%rbp
    2513:	00 
/home/tenebris/Disk/Documents/RootCauseAnalysis/evaluation/test_bin/libjpeg/libjpeg_heap_buffer_overflow/libjpeg-turbo/cjpeg.c:532
  cinfo.err = jpeg_std_error(&jerr);
    2514:	48 8d 7c 24 20       	lea    0x20(%rsp),%rdi
    2519:	e8 b2 fd ff ff       	call   22d0 <jpeg_std_error@plt>
/home/tenebris/Disk/Documents/RootCauseAnalysis/evaluation/test_bin/libjpeg/libjpeg_heap_buffer_overflow/libjpeg-turbo/cjpeg.c:533
  jpeg_create_compress(&cinfo);
    251e:	ba 08 02 00 00       	mov    $0x208,%edx
    2523:	be 3e 00 00 00       	mov    $0x3e,%esi
    2528:	48 89 ef             	mov    %rbp,%rdi
/home/tenebris/Disk/Documents/RootCauseAnalysis/evaluation/test_bin/libjpeg/libjpeg_heap_buffer_overflow/libjpeg-turbo/cjpeg.c:532
  cinfo.err = jpeg_std_error(&jerr);
    252b:	48 89 84 24 d0 00 00 	mov    %rax,0xd0(%rsp)
    2532:	00 
/home/tenebris/Disk/Documents/RootCauseAnalysis/evaluation/test_bin/libjpeg/libjpeg_heap_buffer_overflow/libjpeg-turbo/cjpeg.c:533
  jpeg_create_compress(&cinfo);
    2533:	e8 e8 fd ff ff       	call   2320 <jpeg_CreateCompress@plt>
/home/tenebris/Disk/Documents/RootCauseAnalysis/evaluation/test_bin/libjpeg/libjpeg_heap_buffer_overflow/libjpeg-turbo/cjpeg.c:535
  jerr.addon_message_table = cdjpeg_message_table;
    2538:	48 8d 05 e1 a5 00 00 	lea    0xa5e1(%rip),%rax        # cb20 <cdjpeg_message_table>
/home/tenebris/Disk/Documents/RootCauseAnalysis/evaluation/test_bin/libjpeg/libjpeg_heap_buffer_overflow/libjpeg-turbo/cjpeg.c:546
  jpeg_set_defaults(&cinfo);
    253f:	48 89 ef             	mov    %rbp,%rdi
/home/tenebris/Disk/Documents/RootCauseAnalysis/evaluation/test_bin/libjpeg/libjpeg_heap_buffer_overflow/libjpeg-turbo/cjpeg.c:545
  cinfo.in_color_space = JCS_RGB; /* arbitrary guess */
    2542:	c7 84 24 0c 01 00 00 	movl   $0x2,0x10c(%rsp)
    2549:	02 00 00 00 
/home/tenebris/Disk/Documents/RootCauseAnalysis/evaluation/test_bin/libjpeg/libjpeg_heap_buffer_overflow/libjpeg-turbo/cjpeg.c:535
  jerr.addon_message_table = cdjpeg_message_table;
    254d:	48 89 84 24 b8 00 00 	mov    %rax,0xb8(%rsp)
    2554:	00 
/home/tenebris/Disk/Documents/RootCauseAnalysis/evaluation/test_bin/libjpeg/libjpeg_heap_buffer_overflow/libjpeg-turbo/cjpeg.c:536
  jerr.first_addon_message = JMSG_FIRSTADDONCODE;
    2555:	48 8b 05 6c 7a 00 00 	mov    0x7a6c(%rip),%rax        # 9fc8 <_IO_stdin_used+0xfc8>
    255c:	48 89 84 24 c0 00 00 	mov    %rax,0xc0(%rsp)
    2563:	00 
/home/tenebris/Disk/Documents/RootCauseAnalysis/evaluation/test_bin/libjpeg/libjpeg_heap_buffer_overflow/libjpeg-turbo/cjpeg.c:546
  jpeg_set_defaults(&cinfo);
    2564:	e8 37 fe ff ff       	call   23a0 <jpeg_set_defaults@plt>
/home/tenebris/Disk/Documents/RootCauseAnalysis/evaluation/test_bin/libjpeg/libjpeg_heap_buffer_overflow/libjpeg-turbo/cjpeg.c:554
  file_index = parse_switches(&cinfo, argc, argv, 0, FALSE);
    2569:	4c 89 ea             	mov    %r13,%rdx
    256c:	31 c9                	xor    %ecx,%ecx
    256e:	44 89 e6             	mov    %r12d,%esi
    2571:	48 89 ef             	mov    %rbp,%rdi
    2574:	e8 17 09 00 00       	call   2e90 <parse_switches.constprop.0>
/home/tenebris/Disk/Documents/RootCauseAnalysis/evaluation/test_bin/libjpeg/libjpeg_heap_buffer_overflow/libjpeg-turbo/cjpeg.c:576
  if (file_index < argc - 1) {
    2579:	41 8d 54 24 ff       	lea    -0x1(%r12),%edx
    257e:	39 c2                	cmp    %eax,%edx
    2580:	0f 8f 2f 01 00 00    	jg     26b5 <main+0x205>
/home/tenebris/Disk/Documents/RootCauseAnalysis/evaluation/test_bin/libjpeg/libjpeg_heap_buffer_overflow/libjpeg-turbo/cjpeg.c:583
  if (file_index < argc) {
    2586:	41 39 c4             	cmp    %eax,%r12d
    2589:	0f 8f d7 00 00 00    	jg     2666 <main+0x1b6>
/home/tenebris/Disk/Documents/RootCauseAnalysis/evaluation/test_bin/libjpeg/libjpeg_heap_buffer_overflow/libjpeg-turbo/cjpeg.c:590
    input_file = read_stdin();
    258f:	e8 0c 15 00 00       	call   3aa0 <read_stdin>
    2594:	48 89 04 24          	mov    %rax,(%rsp)
/home/tenebris/Disk/Documents/RootCauseAnalysis/evaluation/test_bin/libjpeg/libjpeg_heap_buffer_overflow/libjpeg-turbo/cjpeg.c:594
  if (outfilename != NULL) {
    2598:	4c 8b 35 b9 aa 00 00 	mov    0xaab9(%rip),%r14        # d058 <outfilename>
    259f:	4d 85 f6             	test   %r14,%r14
    25a2:	0f 84 33 01 00 00    	je     26db <main+0x22b>
/home/tenebris/Disk/Documents/RootCauseAnalysis/evaluation/test_bin/libjpeg/libjpeg_heap_buffer_overflow/libjpeg-turbo/cjpeg.c:595
    if ((output_file = fopen(outfilename, WRITE_BINARY)) == NULL) {
    25a8:	4c 89 f7             	mov    %r14,%rdi
    25ab:	48 8d 35 06 6c 00 00 	lea    0x6c06(%rip),%rsi        # 91b8 <_IO_stdin_used+0x1b8>
    25b2:	e8 29 fe ff ff       	call   23e0 <fopen@plt>
fprintf():
/usr/include/x86_64-linux-gnu/bits/stdio2.h:105

# ifdef __va_arg_pack
__fortify_function int
fprintf (FILE *__restrict __stream, const char *__restrict __fmt, ...)
{
  return __fprintf_chk (__stream, __USE_FORTIFY_LEVEL - 1, __fmt,
    25b7:	4c 8b 05 9a aa 00 00 	mov    0xaa9a(%rip),%r8        # d058 <outfilename>
main():
/home/tenebris/Disk/Documents/RootCauseAnalysis/evaluation/test_bin/libjpeg/libjpeg_heap_buffer_overflow/libjpeg-turbo/cjpeg.c:595
    25be:	49 89 c6             	mov    %rax,%r14
    25c1:	48 85 c0             	test   %rax,%rax
    25c4:	0f 84 0b 04 00 00    	je     29d5 <main+0x525>
/home/tenebris/Disk/Documents/RootCauseAnalysis/evaluation/test_bin/libjpeg/libjpeg_heap_buffer_overflow/libjpeg-turbo/cjpeg.c:604
  if (icc_filename != NULL) {
    25ca:	48 8b 1d 8f aa 00 00 	mov    0xaa8f(%rip),%rbx        # d060 <icc_filename>
    25d1:	48 85 db             	test   %rbx,%rbx
    25d4:	0f 84 1b 01 00 00    	je     26f5 <main+0x245>
/home/tenebris/Disk/Documents/RootCauseAnalysis/evaluation/test_bin/libjpeg/libjpeg_heap_buffer_overflow/libjpeg-turbo/cjpeg.c:605
    if ((icc_file = fopen(icc_filename, READ_BINARY)) == NULL) {
    25da:	48 8d 35 c1 6b 00 00 	lea    0x6bc1(%rip),%rsi        # 91a2 <_IO_stdin_used+0x1a2>
    25e1:	48 89 df             	mov    %rbx,%rdi
    25e4:	e8 f7 fd ff ff       	call   23e0 <fopen@plt>
    25e9:	49 89 c7             	mov    %rax,%r15
    25ec:	48 85 c0             	test   %rax,%rax
    25ef:	0f 84 d9 03 00 00    	je     29ce <main+0x51e>
/home/tenebris/Disk/Documents/RootCauseAnalysis/evaluation/test_bin/libjpeg/libjpeg_heap_buffer_overflow/libjpeg-turbo/cjpeg.c:609
    if (fseek(icc_file, 0, SEEK_END) < 0 ||
    25f5:	31 f6                	xor    %esi,%esi
    25f7:	ba 02 00 00 00       	mov    $0x2,%edx
    25fc:	48 89 c7             	mov    %rax,%rdi
    25ff:	e8 7c fd ff ff       	call   2380 <fseek@plt>
    2604:	85 c0                	test   %eax,%eax
    2606:	78 19                	js     2621 <main+0x171>
/home/tenebris/Disk/Documents/RootCauseAnalysis/evaluation/test_bin/libjpeg/libjpeg_heap_buffer_overflow/libjpeg-turbo/cjpeg.c:610 (discriminator 1)
        (icc_len = ftell(icc_file)) < 1 ||
    2608:	4c 89 ff             	mov    %r15,%rdi
    260b:	e8 d0 fc ff ff       	call   22e0 <ftell@plt>
    2610:	48 89 44 24 08       	mov    %rax,0x8(%rsp)
    2615:	48 89 c3             	mov    %rax,%rbx
/home/tenebris/Disk/Documents/RootCauseAnalysis/evaluation/test_bin/libjpeg/libjpeg_heap_buffer_overflow/libjpeg-turbo/cjpeg.c:609 (discriminator 1)
    if (fseek(icc_file, 0, SEEK_END) < 0 ||
    2618:	48 85 c0             	test   %rax,%rax
    261b:	0f 8f 3d 01 00 00    	jg     275e <main+0x2ae>
fprintf():
/usr/include/x86_64-linux-gnu/bits/stdio2.h:105
    2621:	4c 8b 05 38 aa 00 00 	mov    0xaa38(%rip),%r8        # d060 <icc_filename>
    2628:	48 8b 0d 39 aa 00 00 	mov    0xaa39(%rip),%rcx        # d068 <progname>
    262f:	48 8d 15 32 75 00 00 	lea    0x7532(%rip),%rdx        # 9b68 <_IO_stdin_used+0xb68>
    2636:	48 8b 3d 03 aa 00 00 	mov    0xaa03(%rip),%rdi        # d040 <stderr@GLIBC_2.2.5>
    263d:	be 01 00 00 00       	mov    $0x1,%esi
    2642:	31 c0                	xor    %eax,%eax
    2644:	e8 e7 fd ff ff       	call   2430 <__fprintf_chk@plt>
main():
/home/tenebris/Disk/Documents/RootCauseAnalysis/evaluation/test_bin/libjpeg/libjpeg_heap_buffer_overflow/libjpeg-turbo/cjpeg.c:607
      exit(EXIT_FAILURE);
    2649:	bf 01 00 00 00       	mov    $0x1,%edi
    264e:	e8 bd fd ff ff       	call   2410 <exit@plt>
/home/tenebris/Disk/Documents/RootCauseAnalysis/evaluation/test_bin/libjpeg/libjpeg_heap_buffer_overflow/libjpeg-turbo/cjpeg.c:529
    progname = "cjpeg";         /* in case C library doesn't provide it */
    2653:	48 8d 05 29 6b 00 00 	lea    0x6b29(%rip),%rax        # 9183 <_IO_stdin_used+0x183>
    265a:	48 89 05 07 aa 00 00 	mov    %rax,0xaa07(%rip)        # d068 <progname>
    2661:	e9 a6 fe ff ff       	jmp    250c <main+0x5c>
/home/tenebris/Disk/Documents/RootCauseAnalysis/evaluation/test_bin/libjpeg/libjpeg_heap_buffer_overflow/libjpeg-turbo/cjpeg.c:584
    if ((input_file = fopen(argv[file_index], READ_BINARY)) == NULL) {
    2666:	48 98                	cltq   
    2668:	48 8d 35 33 6b 00 00 	lea    0x6b33(%rip),%rsi        # 91a2 <_IO_stdin_used+0x1a2>
    266f:	49 8d 5c c5 00       	lea    0x0(%r13,%rax,8),%rbx
    2674:	48 8b 3b             	mov    (%rbx),%rdi
    2677:	e8 64 fd ff ff       	call   23e0 <fopen@plt>
    267c:	48 89 04 24          	mov    %rax,(%rsp)
    2680:	48 85 c0             	test   %rax,%rax
    2683:	0f 85 0f ff ff ff    	jne    2598 <main+0xe8>
fprintf():
/usr/include/x86_64-linux-gnu/bits/stdio2.h:105
    2689:	48 8b 3d b0 a9 00 00 	mov    0xa9b0(%rip),%rdi        # d040 <stderr@GLIBC_2.2.5>
    2690:	4c 8b 03             	mov    (%rbx),%r8
    2693:	48 8d 15 0b 6b 00 00 	lea    0x6b0b(%rip),%rdx        # 91a5 <_IO_stdin_used+0x1a5>
    269a:	be 01 00 00 00       	mov    $0x1,%esi
    269f:	48 8b 0d c2 a9 00 00 	mov    0xa9c2(%rip),%rcx        # d068 <progname>
    26a6:	e8 85 fd ff ff       	call   2430 <__fprintf_chk@plt>
main():
/home/tenebris/Disk/Documents/RootCauseAnalysis/evaluation/test_bin/libjpeg/libjpeg_heap_buffer_overflow/libjpeg-turbo/cjpeg.c:586
      exit(EXIT_FAILURE);
    26ab:	bf 01 00 00 00       	mov    $0x1,%edi
    26b0:	e8 5b fd ff ff       	call   2410 <exit@plt>
fprintf():
/usr/include/x86_64-linux-gnu/bits/stdio2.h:105
    26b5:	48 8b 0d ac a9 00 00 	mov    0xa9ac(%rip),%rcx        # d068 <progname>
    26bc:	48 8b 3d 7d a9 00 00 	mov    0xa97d(%rip),%rdi        # d040 <stderr@GLIBC_2.2.5>
    26c3:	48 8d 15 bf 6a 00 00 	lea    0x6abf(%rip),%rdx        # 9189 <_IO_stdin_used+0x189>
    26ca:	31 c0                	xor    %eax,%eax
    26cc:	be 01 00 00 00       	mov    $0x1,%esi
    26d1:	e8 5a fd ff ff       	call   2430 <__fprintf_chk@plt>
main():
/home/tenebris/Disk/Documents/RootCauseAnalysis/evaluation/test_bin/libjpeg/libjpeg_heap_buffer_overflow/libjpeg-turbo/cjpeg.c:578
    usage();
    26d6:	e8 45 04 00 00       	call   2b20 <usage>
/home/tenebris/Disk/Documents/RootCauseAnalysis/evaluation/test_bin/libjpeg/libjpeg_heap_buffer_overflow/libjpeg-turbo/cjpeg.c:599
  } else if (!memdst) {
    26db:	83 3d 6e a9 00 00 00 	cmpl   $0x0,0xa96e(%rip)        # d050 <memdst>
    26e2:	0f 85 e2 fe ff ff    	jne    25ca <main+0x11a>
/home/tenebris/Disk/Documents/RootCauseAnalysis/evaluation/test_bin/libjpeg/libjpeg_heap_buffer_overflow/libjpeg-turbo/cjpeg.c:601
    output_file = write_stdout();
    26e8:	e8 c3 13 00 00       	call   3ab0 <write_stdout>
    26ed:	49 89 c6             	mov    %rax,%r14
    26f0:	e9 d5 fe ff ff       	jmp    25ca <main+0x11a>
/home/tenebris/Disk/Documents/RootCauseAnalysis/evaluation/test_bin/libjpeg/libjpeg_heap_buffer_overflow/libjpeg-turbo/cjpeg.c:516
  long icc_len = 0;
    26f5:	48 c7 44 24 08 00 00 	movq   $0x0,0x8(%rsp)
    26fc:	00 00 
select_file_type():
/home/tenebris/Disk/Documents/RootCauseAnalysis/evaluation/test_bin/libjpeg/libjpeg_heap_buffer_overflow/libjpeg-turbo/cjpeg.c:94
  if (is_targa) {
    26fe:	83 3d 6b a9 00 00 00 	cmpl   $0x0,0xa96b(%rip)        # d070 <is_targa>
    2705:	0f 85 e2 00 00 00    	jne    27ed <main+0x33d>
/home/tenebris/Disk/Documents/RootCauseAnalysis/evaluation/test_bin/libjpeg/libjpeg_heap_buffer_overflow/libjpeg-turbo/cjpeg.c:102
  if ((c = getc(infile)) == EOF)
    270b:	48 8b 3c 24          	mov    (%rsp),%rdi
    270f:	e8 3c fd ff ff       	call   2450 <getc@plt>
    2714:	41 89 c7             	mov    %eax,%r15d
    2717:	83 f8 ff             	cmp    $0xffffffff,%eax
    271a:	0f 84 4a 02 00 00    	je     296a <main+0x4ba>
/home/tenebris/Disk/Documents/RootCauseAnalysis/evaluation/test_bin/libjpeg/libjpeg_heap_buffer_overflow/libjpeg-turbo/cjpeg.c:104
  if (ungetc(c, infile) == EOF)
    2720:	48 8b 34 24          	mov    (%rsp),%rsi
    2724:	89 c7                	mov    %eax,%edi
    2726:	e8 45 fc ff ff       	call   2370 <ungetc@plt>
    272b:	83 c0 01             	add    $0x1,%eax
    272e:	0f 84 5f 02 00 00    	je     2993 <main+0x4e3>
/home/tenebris/Disk/Documents/RootCauseAnalysis/evaluation/test_bin/libjpeg/libjpeg_heap_buffer_overflow/libjpeg-turbo/cjpeg.c:107
  switch (c) {
    2734:	41 83 ff 42          	cmp    $0x42,%r15d
    2738:	0f 84 6e 02 00 00    	je     29ac <main+0x4fc>
    273e:	0f 8e a0 00 00 00    	jle    27e4 <main+0x334>
    2744:	41 83 ff 47          	cmp    $0x47,%r15d
    2748:	0f 85 c2 01 00 00    	jne    2910 <main+0x460>
/home/tenebris/Disk/Documents/RootCauseAnalysis/evaluation/test_bin/libjpeg/libjpeg_heap_buffer_overflow/libjpeg-turbo/cjpeg.c:114
    return jinit_read_gif(cinfo);
    274e:	48 89 ef             	mov    %rbp,%rdi
    2751:	e8 6a 13 00 00       	call   3ac0 <jinit_read_gif>
    2756:	49 89 c7             	mov    %rax,%r15
    2759:	e9 9a 00 00 00       	jmp    27f8 <main+0x348>
main():
/home/tenebris/Disk/Documents/RootCauseAnalysis/evaluation/test_bin/libjpeg/libjpeg_heap_buffer_overflow/libjpeg-turbo/cjpeg.c:611
        fseek(icc_file, 0, SEEK_SET) < 0) {
    275e:	31 d2                	xor    %edx,%edx
    2760:	31 f6                	xor    %esi,%esi
    2762:	4c 89 ff             	mov    %r15,%rdi
    2765:	e8 16 fc ff ff       	call   2380 <fseek@plt>
/home/tenebris/Disk/Documents/RootCauseAnalysis/evaluation/test_bin/libjpeg/libjpeg_heap_buffer_overflow/libjpeg-turbo/cjpeg.c:610
        (icc_len = ftell(icc_file)) < 1 ||
    276a:	85 c0                	test   %eax,%eax
    276c:	0f 88 af fe ff ff    	js     2621 <main+0x171>
/home/tenebris/Disk/Documents/RootCauseAnalysis/evaluation/test_bin/libjpeg/libjpeg_heap_buffer_overflow/libjpeg-turbo/cjpeg.c:616
    if ((icc_profile = (JOCTET *)malloc(icc_len)) == NULL) {
    2772:	48 89 df             	mov    %rbx,%rdi
    2775:	e8 c6 fb ff ff       	call   2340 <malloc@plt>
    277a:	48 89 c3             	mov    %rax,%rbx
    277d:	48 85 c0             	test   %rax,%rax
    2780:	0f 84 62 02 00 00    	je     29e8 <main+0x538>
fread():
/usr/include/x86_64-linux-gnu/bits/stdio2.h:293
fread (void *__restrict __ptr, size_t __size, size_t __n,
       FILE *__restrict __stream)
{
  size_t sz = __glibc_objsize0 (__ptr);
  if (__glibc_safe_or_unknown_len (__n, __size, sz))
    return __fread_alias (__ptr, __size, __n, __stream);
    2786:	48 8b 74 24 08       	mov    0x8(%rsp),%rsi
    278b:	4c 89 f9             	mov    %r15,%rcx
    278e:	ba 01 00 00 00       	mov    $0x1,%edx
    2793:	48 89 c7             	mov    %rax,%rdi
    2796:	e8 e5 fa ff ff       	call   2280 <fread@plt>
main():
/home/tenebris/Disk/Documents/RootCauseAnalysis/evaluation/test_bin/libjpeg/libjpeg_heap_buffer_overflow/libjpeg-turbo/cjpeg.c:621
    if (fread(icc_profile, icc_len, 1, icc_file) < 1) {
    279b:	48 85 c0             	test   %rax,%rax
    279e:	0f 85 1d 02 00 00    	jne    29c1 <main+0x511>
fprintf():
/usr/include/x86_64-linux-gnu/bits/stdio2.h:105
  return __fprintf_chk (__stream, __USE_FORTIFY_LEVEL - 1, __fmt,
    27a4:	4c 8b 05 b5 a8 00 00 	mov    0xa8b5(%rip),%r8        # d060 <icc_filename>
    27ab:	48 8b 0d b6 a8 00 00 	mov    0xa8b6(%rip),%rcx        # d068 <progname>
    27b2:	48 8d 15 ff 73 00 00 	lea    0x73ff(%rip),%rdx        # 9bb8 <_IO_stdin_used+0xbb8>
    27b9:	be 01 00 00 00       	mov    $0x1,%esi
    27be:	48 8b 3d 7b a8 00 00 	mov    0xa87b(%rip),%rdi        # d040 <stderr@GLIBC_2.2.5>
    27c5:	e8 66 fc ff ff       	call   2430 <__fprintf_chk@plt>
main():
/home/tenebris/Disk/Documents/RootCauseAnalysis/evaluation/test_bin/libjpeg/libjpeg_heap_buffer_overflow/libjpeg-turbo/cjpeg.c:624
      free(icc_profile);
    27ca:	48 89 df             	mov    %rbx,%rdi
    27cd:	e8 8e fa ff ff       	call   2260 <free@plt>
/home/tenebris/Disk/Documents/RootCauseAnalysis/evaluation/test_bin/libjpeg/libjpeg_heap_buffer_overflow/libjpeg-turbo/cjpeg.c:625
      fclose(icc_file);
    27d2:	4c 89 ff             	mov    %r15,%rdi
    27d5:	e8 c6 fa ff ff       	call   22a0 <fclose@plt>
/home/tenebris/Disk/Documents/RootCauseAnalysis/evaluation/test_bin/libjpeg/libjpeg_heap_buffer_overflow/libjpeg-turbo/cjpeg.c:626
      exit(EXIT_FAILURE);
    27da:	bf 01 00 00 00       	mov    $0x1,%edi
    27df:	e8 2c fc ff ff       	call   2410 <exit@plt>
select_file_type():
/home/tenebris/Disk/Documents/RootCauseAnalysis/evaluation/test_bin/libjpeg/libjpeg_heap_buffer_overflow/libjpeg-turbo/cjpeg.c:107
  switch (c) {
    27e4:	45 85 ff             	test   %r15d,%r15d
    27e7:	0f 85 2e 02 00 00    	jne    2a1b <main+0x56b>
/home/tenebris/Disk/Documents/RootCauseAnalysis/evaluation/test_bin/libjpeg/libjpeg_heap_buffer_overflow/libjpeg-turbo/cjpeg.c:126
    return jinit_read_targa(cinfo);
    27ed:	48 89 ef             	mov    %rbp,%rdi
    27f0:	e8 4b 61 00 00       	call   8940 <jinit_read_targa>
    27f5:	49 89 c7             	mov    %rax,%r15
main():
/home/tenebris/Disk/Documents/RootCauseAnalysis/evaluation/test_bin/libjpeg/libjpeg_heap_buffer_overflow/libjpeg-turbo/cjpeg.c:637
  src_mgr->input_file = input_file;
    27f8:	48 8b 04 24          	mov    (%rsp),%rax
/home/tenebris/Disk/Documents/RootCauseAnalysis/evaluation/test_bin/libjpeg/libjpeg_heap_buffer_overflow/libjpeg-turbo/cjpeg.c:640

  /* Read the input file header to obtain file size & colorspace. */
  (*src_mgr->start_input) (&cinfo, src_mgr);
    27fc:	4c 89 fe             	mov    %r15,%rsi
    27ff:	48 89 ef             	mov    %rbp,%rdi
/home/tenebris/Disk/Documents/RootCauseAnalysis/evaluation/test_bin/libjpeg/libjpeg_heap_buffer_overflow/libjpeg-turbo/cjpeg.c:637
  src_mgr->input_file = input_file;
    2802:	49 89 47 18          	mov    %rax,0x18(%r15)
/home/tenebris/Disk/Documents/RootCauseAnalysis/evaluation/test_bin/libjpeg/libjpeg_heap_buffer_overflow/libjpeg-turbo/cjpeg.c:640
  (*src_mgr->start_input) (&cinfo, src_mgr);
    2806:	41 ff 17             	call   *(%r15)
/home/tenebris/Disk/Documents/RootCauseAnalysis/evaluation/test_bin/libjpeg/libjpeg_heap_buffer_overflow/libjpeg-turbo/cjpeg.c:643

  /* Now that we know input colorspace, fix colorspace-dependent defaults */
  jpeg_default_colorspace(&cinfo);
    2809:	48 89 ef             	mov    %rbp,%rdi
    280c:	e8 5f fa ff ff       	call   2270 <jpeg_default_colorspace@plt>
/home/tenebris/Disk/Documents/RootCauseAnalysis/evaluation/test_bin/libjpeg/libjpeg_heap_buffer_overflow/libjpeg-turbo/cjpeg.c:646

  /* Adjust default compression parameters by re-parsing the options */
  file_index = parse_switches(&cinfo, argc, argv, 0, TRUE);
    2811:	b9 01 00 00 00       	mov    $0x1,%ecx
    2816:	4c 89 ea             	mov    %r13,%rdx
    2819:	44 89 e6             	mov    %r12d,%esi
    281c:	48 89 ef             	mov    %rbp,%rdi
    281f:	e8 6c 06 00 00       	call   2e90 <parse_switches.constprop.0>
/home/tenebris/Disk/Documents/RootCauseAnalysis/evaluation/test_bin/libjpeg/libjpeg_heap_buffer_overflow/libjpeg-turbo/cjpeg.c:650

  /* Specify data destination for compression */
#if JPEG_LIB_VERSION >= 80 || defined(MEM_SRCDST_SUPPORTED)
  if (memdst)
    2824:	83 3d 25 a8 00 00 00 	cmpl   $0x0,0xa825(%rip)        # d050 <memdst>
    282b:	0f 84 f9 00 00 00    	je     292a <main+0x47a>
/home/tenebris/Disk/Documents/RootCauseAnalysis/evaluation/test_bin/libjpeg/libjpeg_heap_buffer_overflow/libjpeg-turbo/cjpeg.c:651
    jpeg_mem_dest(&cinfo, &outbuffer, &outsize);
    2831:	48 8d 54 24 18       	lea    0x18(%rsp),%rdx
    2836:	48 8d 74 24 10       	lea    0x10(%rsp),%rsi
    283b:	48 89 ef             	mov    %rbp,%rdi
    283e:	e8 4d fb ff ff       	call   2390 <jpeg_mem_dest@plt>
/home/tenebris/Disk/Documents/RootCauseAnalysis/evaluation/test_bin/libjpeg/libjpeg_heap_buffer_overflow/libjpeg-turbo/cjpeg.c:657
  else
#endif
    jpeg_stdio_dest(&cinfo, output_file);

  /* Start compressor */
  jpeg_start_compress(&cinfo, TRUE);
    2843:	be 01 00 00 00       	mov    $0x1,%esi
    2848:	48 89 ef             	mov    %rbp,%rdi
    284b:	e8 10 fb ff ff       	call   2360 <jpeg_start_compress@plt>
/home/tenebris/Disk/Documents/RootCauseAnalysis/evaluation/test_bin/libjpeg/libjpeg_heap_buffer_overflow/libjpeg-turbo/cjpeg.c:659

  if (icc_profile != NULL)
    2850:	48 85 db             	test   %rbx,%rbx
    2853:	74 0f                	je     2864 <main+0x3b4>
/home/tenebris/Disk/Documents/RootCauseAnalysis/evaluation/test_bin/libjpeg/libjpeg_heap_buffer_overflow/libjpeg-turbo/cjpeg.c:660
    jpeg_write_icc_profile(&cinfo, icc_profile, (unsigned int)icc_len);
    2855:	8b 54 24 08          	mov    0x8(%rsp),%edx
    2859:	48 89 de             	mov    %rbx,%rsi
    285c:	48 89 ef             	mov    %rbp,%rdi
    285f:	e8 8c fb ff ff       	call   23f0 <jpeg_write_icc_profile@plt>
/home/tenebris/Disk/Documents/RootCauseAnalysis/evaluation/test_bin/libjpeg/libjpeg_heap_buffer_overflow/libjpeg-turbo/cjpeg.c:663

  /* Process data */
  while (cinfo.next_scanline < cinfo.image_height) {
    2864:	8b 84 24 00 02 00 00 	mov    0x200(%rsp),%eax
    286b:	39 84 24 04 01 00 00 	cmp    %eax,0x104(%rsp)
    2872:	76 2c                	jbe    28a0 <main+0x3f0>
    2874:	0f 1f 40 00          	nopl   0x0(%rax)
/home/tenebris/Disk/Documents/RootCauseAnalysis/evaluation/test_bin/libjpeg/libjpeg_heap_buffer_overflow/libjpeg-turbo/cjpeg.c:664
    num_scanlines = (*src_mgr->get_pixel_rows) (&cinfo, src_mgr);
    2878:	4c 89 fe             	mov    %r15,%rsi
    287b:	48 89 ef             	mov    %rbp,%rdi
    287e:	41 ff 57 08          	call   *0x8(%r15)
/home/tenebris/Disk/Documents/RootCauseAnalysis/evaluation/test_bin/libjpeg/libjpeg_heap_buffer_overflow/libjpeg-turbo/cjpeg.c:665
    (void)jpeg_write_scanlines(&cinfo, src_mgr->buffer, num_scanlines);
    2882:	49 8b 77 20          	mov    0x20(%r15),%rsi
    2886:	48 89 ef             	mov    %rbp,%rdi
/home/tenebris/Disk/Documents/RootCauseAnalysis/evaluation/test_bin/libjpeg/libjpeg_heap_buffer_overflow/libjpeg-turbo/cjpeg.c:664
    num_scanlines = (*src_mgr->get_pixel_rows) (&cinfo, src_mgr);
    2889:	89 c2                	mov    %eax,%edx
/home/tenebris/Disk/Documents/RootCauseAnalysis/evaluation/test_bin/libjpeg/libjpeg_heap_buffer_overflow/libjpeg-turbo/cjpeg.c:665
    (void)jpeg_write_scanlines(&cinfo, src_mgr->buffer, num_scanlines);
    288b:	e8 70 fb ff ff       	call   2400 <jpeg_write_scanlines@plt>
/home/tenebris/Disk/Documents/RootCauseAnalysis/evaluation/test_bin/libjpeg/libjpeg_heap_buffer_overflow/libjpeg-turbo/cjpeg.c:663
  while (cinfo.next_scanline < cinfo.image_height) {
    2890:	8b 84 24 04 01 00 00 	mov    0x104(%rsp),%eax
    2897:	39 84 24 00 02 00 00 	cmp    %eax,0x200(%rsp)
    289e:	72 d8                	jb     2878 <main+0x3c8>
/home/tenebris/Disk/Documents/RootCauseAnalysis/evaluation/test_bin/libjpeg/libjpeg_heap_buffer_overflow/libjpeg-turbo/cjpeg.c:669
  }

  /* Finish compression and release memory */
  (*src_mgr->finish_input) (&cinfo, src_mgr);
    28a0:	4c 89 fe             	mov    %r15,%rsi
    28a3:	48 89 ef             	mov    %rbp,%rdi
    28a6:	41 ff 57 10          	call   *0x10(%r15)
/home/tenebris/Disk/Documents/RootCauseAnalysis/evaluation/test_bin/libjpeg/libjpeg_heap_buffer_overflow/libjpeg-turbo/cjpeg.c:670
  jpeg_finish_compress(&cinfo);
    28aa:	48 89 ef             	mov    %rbp,%rdi
    28ad:	e8 4e fa ff ff       	call   2300 <jpeg_finish_compress@plt>
/home/tenebris/Disk/Documents/RootCauseAnalysis/evaluation/test_bin/libjpeg/libjpeg_heap_buffer_overflow/libjpeg-turbo/cjpeg.c:671
  jpeg_destroy_compress(&cinfo);
    28b2:	48 89 ef             	mov    %rbp,%rdi
    28b5:	e8 16 fb ff ff       	call   23d0 <jpeg_destroy_compress@plt>
/home/tenebris/Disk/Documents/RootCauseAnalysis/evaluation/test_bin/libjpeg/libjpeg_heap_buffer_overflow/libjpeg-turbo/cjpeg.c:674

  /* Close files, if we opened them */
  if (input_file != stdin)
    28ba:	48 8b 04 24          	mov    (%rsp),%rax
    28be:	48 39 05 6b a7 00 00 	cmp    %rax,0xa76b(%rip)        # d030 <stdin@GLIBC_2.2.5>
    28c5:	74 08                	je     28cf <main+0x41f>
/home/tenebris/Disk/Documents/RootCauseAnalysis/evaluation/test_bin/libjpeg/libjpeg_heap_buffer_overflow/libjpeg-turbo/cjpeg.c:675
    fclose(input_file);
    28c7:	48 89 c7             	mov    %rax,%rdi
    28ca:	e8 d1 f9 ff ff       	call   22a0 <fclose@plt>
/home/tenebris/Disk/Documents/RootCauseAnalysis/evaluation/test_bin/libjpeg/libjpeg_heap_buffer_overflow/libjpeg-turbo/cjpeg.c:676
  if (output_file != stdout && output_file != NULL)
    28cf:	4c 39 35 4a a7 00 00 	cmp    %r14,0xa74a(%rip)        # d020 <stdout@GLIBC_2.2.5>
    28d6:	74 0d                	je     28e5 <main+0x435>
    28d8:	4d 85 f6             	test   %r14,%r14
    28db:	74 08                	je     28e5 <main+0x435>
/home/tenebris/Disk/Documents/RootCauseAnalysis/evaluation/test_bin/libjpeg/libjpeg_heap_buffer_overflow/libjpeg-turbo/cjpeg.c:677
    fclose(output_file);
    28dd:	4c 89 f7             	mov    %r14,%rdi
    28e0:	e8 bb f9 ff ff       	call   22a0 <fclose@plt>
/home/tenebris/Disk/Documents/RootCauseAnalysis/evaluation/test_bin/libjpeg/libjpeg_heap_buffer_overflow/libjpeg-turbo/cjpeg.c:683

#ifdef PROGRESS_REPORT
  end_progress_monitor((j_common_ptr)&cinfo);
#endif

  if (memdst) {
    28e5:	83 3d 64 a7 00 00 00 	cmpl   $0x0,0xa764(%rip)        # d050 <memdst>
    28ec:	75 4c                	jne    293a <main+0x48a>
/home/tenebris/Disk/Documents/RootCauseAnalysis/evaluation/test_bin/libjpeg/libjpeg_heap_buffer_overflow/libjpeg-turbo/cjpeg.c:689
    fprintf(stderr, "Compressed size:  %lu bytes\n", outsize);
    if (outbuffer != NULL)
      free(outbuffer);
  }

  if (icc_profile != NULL)
    28ee:	48 85 db             	test   %rbx,%rbx
    28f1:	74 08                	je     28fb <main+0x44b>
/home/tenebris/Disk/Documents/RootCauseAnalysis/evaluation/test_bin/libjpeg/libjpeg_heap_buffer_overflow/libjpeg-turbo/cjpeg.c:690
    free(icc_profile);
    28f3:	48 89 df             	mov    %rbx,%rdi
    28f6:	e8 65 f9 ff ff       	call   2260 <free@plt>
/home/tenebris/Disk/Documents/RootCauseAnalysis/evaluation/test_bin/libjpeg/libjpeg_heap_buffer_overflow/libjpeg-turbo/cjpeg.c:693

  /* All done. */
  exit(jerr.num_warnings ? EXIT_WARNING : EXIT_SUCCESS);
    28fb:	48 8b 84 24 a0 00 00 	mov    0xa0(%rsp),%rax
    2902:	00 
    2903:	48 f7 d8             	neg    %rax
    2906:	19 ff                	sbb    %edi,%edi
    2908:	83 e7 02             	and    $0x2,%edi
    290b:	e8 00 fb ff ff       	call   2410 <exit@plt>
select_file_type():
/home/tenebris/Disk/Documents/RootCauseAnalysis/evaluation/test_bin/libjpeg/libjpeg_heap_buffer_overflow/libjpeg-turbo/cjpeg.c:107
  switch (c) {
    2910:	41 83 ff 50          	cmp    $0x50,%r15d
    2914:	0f 85 06 01 00 00    	jne    2a20 <main+0x570>
/home/tenebris/Disk/Documents/RootCauseAnalysis/evaluation/test_bin/libjpeg/libjpeg_heap_buffer_overflow/libjpeg-turbo/cjpeg.c:118
    return jinit_read_ppm(cinfo);
    291a:	48 89 ef             	mov    %rbp,%rdi
    291d:	e8 4e 33 00 00       	call   5c70 <jinit_read_ppm>
    2922:	49 89 c7             	mov    %rax,%r15
    2925:	e9 ce fe ff ff       	jmp    27f8 <main+0x348>
main():
/home/tenebris/Disk/Documents/RootCauseAnalysis/evaluation/test_bin/libjpeg/libjpeg_heap_buffer_overflow/libjpeg-turbo/cjpeg.c:654
    jpeg_stdio_dest(&cinfo, output_file);
    292a:	4c 89 f6             	mov    %r14,%rsi
    292d:	48 89 ef             	mov    %rbp,%rdi
    2930:	e8 7b fa ff ff       	call   23b0 <jpeg_stdio_dest@plt>
    2935:	e9 09 ff ff ff       	jmp    2843 <main+0x393>
fprintf():
/usr/include/x86_64-linux-gnu/bits/stdio2.h:105
    293a:	48 8b 3d ff a6 00 00 	mov    0xa6ff(%rip),%rdi        # d040 <stderr@GLIBC_2.2.5>
    2941:	48 8b 4c 24 18       	mov    0x18(%rsp),%rcx
    2946:	48 8d 15 6e 68 00 00 	lea    0x686e(%rip),%rdx        # 91bb <_IO_stdin_used+0x1bb>
    294d:	31 c0                	xor    %eax,%eax
    294f:	be 01 00 00 00       	mov    $0x1,%esi
    2954:	e8 d7 fa ff ff       	call   2430 <__fprintf_chk@plt>
main():
/home/tenebris/Disk/Documents/RootCauseAnalysis/evaluation/test_bin/libjpeg/libjpeg_heap_buffer_overflow/libjpeg-turbo/cjpeg.c:685
    if (outbuffer != NULL)
    2959:	48 8b 7c 24 10       	mov    0x10(%rsp),%rdi
    295e:	48 85 ff             	test   %rdi,%rdi
    2961:	74 8b                	je     28ee <main+0x43e>
/home/tenebris/Disk/Documents/RootCauseAnalysis/evaluation/test_bin/libjpeg/libjpeg_heap_buffer_overflow/libjpeg-turbo/cjpeg.c:686
      free(outbuffer);
    2963:	e8 f8 f8 ff ff       	call   2260 <free@plt>
    2968:	eb 84                	jmp    28ee <main+0x43e>
select_file_type():
/home/tenebris/Disk/Documents/RootCauseAnalysis/evaluation/test_bin/libjpeg/libjpeg_heap_buffer_overflow/libjpeg-turbo/cjpeg.c:103
    ERREXIT(cinfo, JERR_INPUT_EMPTY);
    296a:	48 8b 84 24 d0 00 00 	mov    0xd0(%rsp),%rax
    2971:	00 
    2972:	48 89 ef             	mov    %rbp,%rdi
    2975:	c7 40 28 2a 00 00 00 	movl   $0x2a,0x28(%rax)
    297c:	ff 10                	call   *(%rax)
/home/tenebris/Disk/Documents/RootCauseAnalysis/evaluation/test_bin/libjpeg/libjpeg_heap_buffer_overflow/libjpeg-turbo/cjpeg.c:104
  if (ungetc(c, infile) == EOF)
    297e:	48 8b 34 24          	mov    (%rsp),%rsi
    2982:	83 cf ff             	or     $0xffffffff,%edi
    2985:	e8 e6 f9 ff ff       	call   2370 <ungetc@plt>
    298a:	83 c0 01             	add    $0x1,%eax
    298d:	0f 85 ed fa ff ff    	jne    2480 <main.cold>
/home/tenebris/Disk/Documents/RootCauseAnalysis/evaluation/test_bin/libjpeg/libjpeg_heap_buffer_overflow/libjpeg-turbo/cjpeg.c:105
    ERREXIT(cinfo, JERR_UNGETC_FAILED);
    2993:	48 8b 84 24 d0 00 00 	mov    0xd0(%rsp),%rax
    299a:	00 
    299b:	48 89 ef             	mov    %rbp,%rdi
    299e:	c7 40 28 12 04 00 00 	movl   $0x412,0x28(%rax)
    29a5:	ff 10                	call   *(%rax)
    29a7:	e9 88 fd ff ff       	jmp    2734 <main+0x284>
/home/tenebris/Disk/Documents/RootCauseAnalysis/evaluation/test_bin/libjpeg/libjpeg_heap_buffer_overflow/libjpeg-turbo/cjpeg.c:110
    return jinit_read_bmp(cinfo, TRUE);
    29ac:	be 01 00 00 00       	mov    $0x1,%esi
    29b1:	48 89 ef             	mov    %rbp,%rdi
    29b4:	e8 e7 55 00 00       	call   7fa0 <jinit_read_bmp>
    29b9:	49 89 c7             	mov    %rax,%r15
    29bc:	e9 37 fe ff ff       	jmp    27f8 <main+0x348>
main():
/home/tenebris/Disk/Documents/RootCauseAnalysis/evaluation/test_bin/libjpeg/libjpeg_heap_buffer_overflow/libjpeg-turbo/cjpeg.c:628
    fclose(icc_file);
    29c1:	4c 89 ff             	mov    %r15,%rdi
    29c4:	e8 d7 f8 ff ff       	call   22a0 <fclose@plt>
    29c9:	e9 30 fd ff ff       	jmp    26fe <main+0x24e>
fprintf():
/usr/include/x86_64-linux-gnu/bits/stdio2.h:105
    29ce:	4c 8b 05 8b a6 00 00 	mov    0xa68b(%rip),%r8        # d060 <icc_filename>
    29d5:	48 8b 0d 8c a6 00 00 	mov    0xa68c(%rip),%rcx        # d068 <progname>
    29dc:	48 8d 15 c2 67 00 00 	lea    0x67c2(%rip),%rdx        # 91a5 <_IO_stdin_used+0x1a5>
    29e3:	e9 4e fc ff ff       	jmp    2636 <main+0x186>
    29e8:	48 8b 0d 79 a6 00 00 	mov    0xa679(%rip),%rcx        # d068 <progname>
    29ef:	48 8b 3d 4a a6 00 00 	mov    0xa64a(%rip),%rdi        # d040 <stderr@GLIBC_2.2.5>
    29f6:	48 8d 15 8b 71 00 00 	lea    0x718b(%rip),%rdx        # 9b88 <_IO_stdin_used+0xb88>
    29fd:	31 c0                	xor    %eax,%eax
    29ff:	be 01 00 00 00       	mov    $0x1,%esi
    2a04:	e8 27 fa ff ff       	call   2430 <__fprintf_chk@plt>
main():
/home/tenebris/Disk/Documents/RootCauseAnalysis/evaluation/test_bin/libjpeg/libjpeg_heap_buffer_overflow/libjpeg-turbo/cjpeg.c:618
      fclose(icc_file);
    2a09:	4c 89 ff             	mov    %r15,%rdi
    2a0c:	e8 8f f8 ff ff       	call   22a0 <fclose@plt>
/home/tenebris/Disk/Documents/RootCauseAnalysis/evaluation/test_bin/libjpeg/libjpeg_heap_buffer_overflow/libjpeg-turbo/cjpeg.c:619
      exit(EXIT_FAILURE);
    2a11:	bf 01 00 00 00       	mov    $0x1,%edi
    2a16:	e8 f5 f9 ff ff       	call   2410 <exit@plt>
    2a1b:	e9 60 fa ff ff       	jmp    2480 <main.cold>
    2a20:	e9 5b fa ff ff       	jmp    2480 <main.cold>
    2a25:	66 2e 0f 1f 84 00 00 	cs nopw 0x0(%rax,%rax,1)
    2a2c:	00 00 00 
    2a2f:	90                   	nop

0000000000002a30 <_start>:
_start():
    2a30:	f3 0f 1e fa          	endbr64 
    2a34:	31 ed                	xor    %ebp,%ebp
    2a36:	49 89 d1             	mov    %rdx,%r9
    2a39:	5e                   	pop    %rsi
    2a3a:	48 89 e2             	mov    %rsp,%rdx
    2a3d:	48 83 e4 f0          	and    $0xfffffffffffffff0,%rsp
    2a41:	50                   	push   %rax
    2a42:	54                   	push   %rsp
    2a43:	45 31 c0             	xor    %r8d,%r8d
    2a46:	31 c9                	xor    %ecx,%ecx
    2a48:	48 8d 3d 61 fa ff ff 	lea    -0x59f(%rip),%rdi        # 24b0 <main>
    2a4f:	ff 15 73 a5 00 00    	call   *0xa573(%rip)        # cfc8 <__libc_start_main@GLIBC_2.34>
    2a55:	f4                   	hlt    
    2a56:	66 2e 0f 1f 84 00 00 	cs nopw 0x0(%rax,%rax,1)
    2a5d:	00 00 00 

0000000000002a60 <deregister_tm_clones>:
deregister_tm_clones():
    2a60:	48 8d 3d b9 a5 00 00 	lea    0xa5b9(%rip),%rdi        # d020 <stdout@GLIBC_2.2.5>
    2a67:	48 8d 05 b2 a5 00 00 	lea    0xa5b2(%rip),%rax        # d020 <stdout@GLIBC_2.2.5>
    2a6e:	48 39 f8             	cmp    %rdi,%rax
    2a71:	74 15                	je     2a88 <deregister_tm_clones+0x28>
    2a73:	48 8b 05 56 a5 00 00 	mov    0xa556(%rip),%rax        # cfd0 <_ITM_deregisterTMCloneTable@Base>
    2a7a:	48 85 c0             	test   %rax,%rax
    2a7d:	74 09                	je     2a88 <deregister_tm_clones+0x28>
    2a7f:	ff e0                	jmp    *%rax
    2a81:	0f 1f 80 00 00 00 00 	nopl   0x0(%rax)
    2a88:	c3                   	ret    
    2a89:	0f 1f 80 00 00 00 00 	nopl   0x0(%rax)

0000000000002a90 <register_tm_clones>:
register_tm_clones():
    2a90:	48 8d 3d 89 a5 00 00 	lea    0xa589(%rip),%rdi        # d020 <stdout@GLIBC_2.2.5>
    2a97:	48 8d 35 82 a5 00 00 	lea    0xa582(%rip),%rsi        # d020 <stdout@GLIBC_2.2.5>
    2a9e:	48 29 fe             	sub    %rdi,%rsi
    2aa1:	48 89 f0             	mov    %rsi,%rax
    2aa4:	48 c1 ee 3f          	shr    $0x3f,%rsi
    2aa8:	48 c1 f8 03          	sar    $0x3,%rax
    2aac:	48 01 c6             	add    %rax,%rsi
    2aaf:	48 d1 fe             	sar    %rsi
    2ab2:	74 14                	je     2ac8 <register_tm_clones+0x38>
    2ab4:	48 8b 05 25 a5 00 00 	mov    0xa525(%rip),%rax        # cfe0 <_ITM_registerTMCloneTable@Base>
    2abb:	48 85 c0             	test   %rax,%rax
    2abe:	74 08                	je     2ac8 <register_tm_clones+0x38>
    2ac0:	ff e0                	jmp    *%rax
    2ac2:	66 0f 1f 44 00 00    	nopw   0x0(%rax,%rax,1)
    2ac8:	c3                   	ret    
    2ac9:	0f 1f 80 00 00 00 00 	nopl   0x0(%rax)

0000000000002ad0 <__do_global_dtors_aux>:
__do_global_dtors_aux():
    2ad0:	f3 0f 1e fa          	endbr64 
    2ad4:	80 3d 6d a5 00 00 00 	cmpb   $0x0,0xa56d(%rip)        # d048 <completed.0>
    2adb:	75 2b                	jne    2b08 <__do_global_dtors_aux+0x38>
    2add:	55                   	push   %rbp
    2ade:	48 83 3d 02 a5 00 00 	cmpq   $0x0,0xa502(%rip)        # cfe8 <__cxa_finalize@GLIBC_2.2.5>
    2ae5:	00 
    2ae6:	48 89 e5             	mov    %rsp,%rbp
    2ae9:	74 0c                	je     2af7 <__do_global_dtors_aux+0x27>
    2aeb:	48 8b 3d 16 a5 00 00 	mov    0xa516(%rip),%rdi        # d008 <__dso_handle>
    2af2:	e8 59 f7 ff ff       	call   2250 <__cxa_finalize@plt>
    2af7:	e8 64 ff ff ff       	call   2a60 <deregister_tm_clones>
    2afc:	c6 05 45 a5 00 00 01 	movb   $0x1,0xa545(%rip)        # d048 <completed.0>
    2b03:	5d                   	pop    %rbp
    2b04:	c3                   	ret    
    2b05:	0f 1f 00             	nopl   (%rax)
    2b08:	c3                   	ret    
    2b09:	0f 1f 80 00 00 00 00 	nopl   0x0(%rax)

0000000000002b10 <frame_dummy>:
frame_dummy():
    2b10:	f3 0f 1e fa          	endbr64 
    2b14:	e9 77 ff ff ff       	jmp    2a90 <register_tm_clones>
    2b19:	0f 1f 80 00 00 00 00 	nopl   0x0(%rax)

0000000000002b20 <usage>:
usage():
/home/tenebris/Disk/Documents/RootCauseAnalysis/evaluation/test_bin/libjpeg/libjpeg_heap_buffer_overflow/libjpeg-turbo/cjpeg.c:155
{
    2b20:	41 54                	push   %r12
fprintf():
/usr/include/x86_64-linux-gnu/bits/stdio2.h:105
    2b22:	48 8b 0d 3f a5 00 00 	mov    0xa53f(%rip),%rcx        # d068 <progname>
    2b29:	be 01 00 00 00       	mov    $0x1,%esi
    2b2e:	31 c0                	xor    %eax,%eax
    2b30:	48 8b 3d 09 a5 00 00 	mov    0xa509(%rip),%rdi        # d040 <stderr@GLIBC_2.2.5>
    2b37:	48 8d 15 c6 64 00 00 	lea    0x64c6(%rip),%rdx        # 9004 <_IO_stdin_used+0x4>
    2b3e:	4c 8d 25 93 65 00 00 	lea    0x6593(%rip),%r12        # 90d8 <_IO_stdin_used+0xd8>
    2b45:	e8 e6 f8 ff ff       	call   2430 <__fprintf_chk@plt>
    2b4a:	ba 0c 00 00 00       	mov    $0xc,%edx
    2b4f:	48 8b 0d ea a4 00 00 	mov    0xa4ea(%rip),%rcx        # d040 <stderr@GLIBC_2.2.5>
    2b56:	be 01 00 00 00       	mov    $0x1,%esi
    2b5b:	48 8d 3d b8 64 00 00 	lea    0x64b8(%rip),%rdi        # 901a <_IO_stdin_used+0x1a>
    2b62:	e8 b9 f8 ff ff       	call   2420 <fwrite@plt>
    2b67:	ba 25 00 00 00       	mov    $0x25,%edx
    2b6c:	48 8b 0d cd a4 00 00 	mov    0xa4cd(%rip),%rcx        # d040 <stderr@GLIBC_2.2.5>
    2b73:	be 01 00 00 00       	mov    $0x1,%esi
    2b78:	48 8d 3d 29 68 00 00 	lea    0x6829(%rip),%rdi        # 93a8 <_IO_stdin_used+0x3a8>
    2b7f:	e8 9c f8 ff ff       	call   2420 <fwrite@plt>
    2b84:	ba 4d 00 00 00       	mov    $0x4d,%edx
    2b89:	48 8b 0d b0 a4 00 00 	mov    0xa4b0(%rip),%rcx        # d040 <stderr@GLIBC_2.2.5>
    2b90:	be 01 00 00 00       	mov    $0x1,%esi
    2b95:	48 8d 3d 34 68 00 00 	lea    0x6834(%rip),%rdi        # 93d0 <_IO_stdin_used+0x3d0>
    2b9c:	e8 7f f8 ff ff       	call   2420 <fwrite@plt>
    2ba1:	ba 24 00 00 00       	mov    $0x24,%edx
    2ba6:	48 8b 0d 93 a4 00 00 	mov    0xa493(%rip),%rcx        # d040 <stderr@GLIBC_2.2.5>
    2bad:	be 01 00 00 00       	mov    $0x1,%esi
    2bb2:	48 8d 3d 67 68 00 00 	lea    0x6867(%rip),%rdi        # 9420 <_IO_stdin_used+0x420>
    2bb9:	e8 62 f8 ff ff       	call   2420 <fwrite@plt>
    2bbe:	ba 2d 00 00 00       	mov    $0x2d,%edx
    2bc3:	48 8b 0d 76 a4 00 00 	mov    0xa476(%rip),%rcx        # d040 <stderr@GLIBC_2.2.5>
    2bca:	be 01 00 00 00       	mov    $0x1,%esi
    2bcf:	48 8d 3d 72 68 00 00 	lea    0x6872(%rip),%rdi        # 9448 <_IO_stdin_used+0x448>
    2bd6:	e8 45 f8 ff ff       	call   2420 <fwrite@plt>
    2bdb:	ba 26 00 00 00       	mov    $0x26,%edx
    2be0:	48 8b 0d 59 a4 00 00 	mov    0xa459(%rip),%rcx        # d040 <stderr@GLIBC_2.2.5>
    2be7:	be 01 00 00 00       	mov    $0x1,%esi
    2bec:	48 8d 3d 85 68 00 00 	lea    0x6885(%rip),%rdi        # 9478 <_IO_stdin_used+0x478>
    2bf3:	e8 28 f8 ff ff       	call   2420 <fwrite@plt>
    2bf8:	ba 4d 00 00 00       	mov    $0x4d,%edx
    2bfd:	48 8b 0d 3c a4 00 00 	mov    0xa43c(%rip),%rcx        # d040 <stderr@GLIBC_2.2.5>
    2c04:	be 01 00 00 00       	mov    $0x1,%esi
    2c09:	48 8d 3d 90 68 00 00 	lea    0x6890(%rip),%rdi        # 94a0 <_IO_stdin_used+0x4a0>
    2c10:	e8 0b f8 ff ff       	call   2420 <fwrite@plt>
    2c15:	ba 2e 00 00 00       	mov    $0x2e,%edx
    2c1a:	48 8b 0d 1f a4 00 00 	mov    0xa41f(%rip),%rcx        # d040 <stderr@GLIBC_2.2.5>
    2c21:	be 01 00 00 00       	mov    $0x1,%esi
    2c26:	48 8d 3d c3 68 00 00 	lea    0x68c3(%rip),%rdi        # 94f0 <_IO_stdin_used+0x4f0>
    2c2d:	e8 ee f7 ff ff       	call   2420 <fwrite@plt>
    2c32:	ba 41 00 00 00       	mov    $0x41,%edx
    2c37:	48 8b 0d 02 a4 00 00 	mov    0xa402(%rip),%rcx        # d040 <stderr@GLIBC_2.2.5>
    2c3e:	be 01 00 00 00       	mov    $0x1,%esi
    2c43:	48 8d 3d d6 68 00 00 	lea    0x68d6(%rip),%rdi        # 9520 <_IO_stdin_used+0x520>
    2c4a:	e8 d1 f7 ff ff       	call   2420 <fwrite@plt>
    2c4f:	ba 1d 00 00 00       	mov    $0x1d,%edx
    2c54:	48 8b 0d e5 a3 00 00 	mov    0xa3e5(%rip),%rcx        # d040 <stderr@GLIBC_2.2.5>
    2c5b:	be 01 00 00 00       	mov    $0x1,%esi
    2c60:	48 8d 3d c0 63 00 00 	lea    0x63c0(%rip),%rdi        # 9027 <_IO_stdin_used+0x27>
    2c67:	e8 b4 f7 ff ff       	call   2420 <fwrite@plt>
    2c6c:	ba 27 00 00 00       	mov    $0x27,%edx
    2c71:	48 8b 0d c8 a3 00 00 	mov    0xa3c8(%rip),%rcx        # d040 <stderr@GLIBC_2.2.5>
    2c78:	be 01 00 00 00       	mov    $0x1,%esi
    2c7d:	48 8d 3d e4 68 00 00 	lea    0x68e4(%rip),%rdi        # 9568 <_IO_stdin_used+0x568>
    2c84:	e8 97 f7 ff ff       	call   2420 <fwrite@plt>
    2c89:	48 8b 3d b0 a3 00 00 	mov    0xa3b0(%rip),%rdi        # d040 <stderr@GLIBC_2.2.5>
    2c90:	be 01 00 00 00       	mov    $0x1,%esi
    2c95:	31 c0                	xor    %eax,%eax
    2c97:	48 8d 0d a7 63 00 00 	lea    0x63a7(%rip),%rcx        # 9045 <_IO_stdin_used+0x45>
    2c9e:	48 8d 15 eb 68 00 00 	lea    0x68eb(%rip),%rdx        # 9590 <_IO_stdin_used+0x590>
    2ca5:	e8 86 f7 ff ff       	call   2430 <__fprintf_chk@plt>
    2caa:	4c 89 e1             	mov    %r12,%rcx
    2cad:	be 01 00 00 00       	mov    $0x1,%esi
    2cb2:	31 c0                	xor    %eax,%eax
    2cb4:	48 8b 3d 85 a3 00 00 	mov    0xa385(%rip),%rdi        # d040 <stderr@GLIBC_2.2.5>
    2cbb:	48 8d 15 fe 68 00 00 	lea    0x68fe(%rip),%rdx        # 95c0 <_IO_stdin_used+0x5c0>
    2cc2:	e8 69 f7 ff ff       	call   2430 <__fprintf_chk@plt>
    2cc7:	4c 89 e1             	mov    %r12,%rcx
    2cca:	be 01 00 00 00       	mov    $0x1,%esi
    2ccf:	31 c0                	xor    %eax,%eax
    2cd1:	48 8b 3d 68 a3 00 00 	mov    0xa368(%rip),%rdi        # d040 <stderr@GLIBC_2.2.5>
    2cd8:	48 8d 15 21 69 00 00 	lea    0x6921(%rip),%rdx        # 9600 <_IO_stdin_used+0x600>
    2cdf:	e8 4c f7 ff ff       	call   2430 <__fprintf_chk@plt>
    2ce4:	ba 35 00 00 00       	mov    $0x35,%edx
    2ce9:	48 8b 0d 50 a3 00 00 	mov    0xa350(%rip),%rcx        # d040 <stderr@GLIBC_2.2.5>
    2cf0:	be 01 00 00 00       	mov    $0x1,%esi
    2cf5:	48 8d 3d 3c 69 00 00 	lea    0x693c(%rip),%rdi        # 9638 <_IO_stdin_used+0x638>
    2cfc:	e8 1f f7 ff ff       	call   2420 <fwrite@plt>
    2d01:	ba 43 00 00 00       	mov    $0x43,%edx
    2d06:	48 8b 0d 33 a3 00 00 	mov    0xa333(%rip),%rcx        # d040 <stderr@GLIBC_2.2.5>
    2d0d:	be 01 00 00 00       	mov    $0x1,%esi
    2d12:	48 8d 3d 57 69 00 00 	lea    0x6957(%rip),%rdi        # 9670 <_IO_stdin_used+0x670>
    2d19:	e8 02 f7 ff ff       	call   2420 <fwrite@plt>
    2d1e:	ba 3e 00 00 00       	mov    $0x3e,%edx
    2d23:	48 8b 0d 16 a3 00 00 	mov    0xa316(%rip),%rcx        # d040 <stderr@GLIBC_2.2.5>
    2d2a:	be 01 00 00 00       	mov    $0x1,%esi
    2d2f:	48 8d 3d 82 69 00 00 	lea    0x6982(%rip),%rdi        # 96b8 <_IO_stdin_used+0x6b8>
    2d36:	e8 e5 f6 ff ff       	call   2420 <fwrite@plt>
    2d3b:	ba 33 00 00 00       	mov    $0x33,%edx
    2d40:	48 8b 0d f9 a2 00 00 	mov    0xa2f9(%rip),%rcx        # d040 <stderr@GLIBC_2.2.5>
    2d47:	be 01 00 00 00       	mov    $0x1,%esi
    2d4c:	48 8d 3d a5 69 00 00 	lea    0x69a5(%rip),%rdi        # 96f8 <_IO_stdin_used+0x6f8>
    2d53:	e8 c8 f6 ff ff       	call   2420 <fwrite@plt>
    2d58:	ba 2e 00 00 00       	mov    $0x2e,%edx
    2d5d:	48 8b 0d dc a2 00 00 	mov    0xa2dc(%rip),%rcx        # d040 <stderr@GLIBC_2.2.5>
    2d64:	be 01 00 00 00       	mov    $0x1,%esi
    2d69:	48 8d 3d c0 69 00 00 	lea    0x69c0(%rip),%rdi        # 9730 <_IO_stdin_used+0x730>
    2d70:	e8 ab f6 ff ff       	call   2420 <fwrite@plt>
    2d75:	ba 4e 00 00 00       	mov    $0x4e,%edx
    2d7a:	48 8b 0d bf a2 00 00 	mov    0xa2bf(%rip),%rcx        # d040 <stderr@GLIBC_2.2.5>
    2d81:	be 01 00 00 00       	mov    $0x1,%esi
    2d86:	48 8d 3d d3 69 00 00 	lea    0x69d3(%rip),%rdi        # 9760 <_IO_stdin_used+0x760>
    2d8d:	e8 8e f6 ff ff       	call   2420 <fwrite@plt>
    2d92:	ba 2b 00 00 00       	mov    $0x2b,%edx
    2d97:	48 8b 0d a2 a2 00 00 	mov    0xa2a2(%rip),%rcx        # d040 <stderr@GLIBC_2.2.5>
    2d9e:	be 01 00 00 00       	mov    $0x1,%esi
    2da3:	48 8d 3d 06 6a 00 00 	lea    0x6a06(%rip),%rdi        # 97b0 <_IO_stdin_used+0x7b0>
    2daa:	e8 71 f6 ff ff       	call   2420 <fwrite@plt>
    2daf:	ba 34 00 00 00       	mov    $0x34,%edx
    2db4:	48 8b 0d 85 a2 00 00 	mov    0xa285(%rip),%rcx        # d040 <stderr@GLIBC_2.2.5>
    2dbb:	be 01 00 00 00       	mov    $0x1,%esi
    2dc0:	48 8d 3d 19 6a 00 00 	lea    0x6a19(%rip),%rdi        # 97e0 <_IO_stdin_used+0x7e0>
    2dc7:	e8 54 f6 ff ff       	call   2420 <fwrite@plt>
    2dcc:	ba 16 00 00 00       	mov    $0x16,%edx
    2dd1:	48 8b 0d 68 a2 00 00 	mov    0xa268(%rip),%rcx        # d040 <stderr@GLIBC_2.2.5>
    2dd8:	be 01 00 00 00       	mov    $0x1,%esi
    2ddd:	48 8d 3d 6c 62 00 00 	lea    0x626c(%rip),%rdi        # 9050 <_IO_stdin_used+0x50>
    2de4:	e8 37 f6 ff ff       	call   2420 <fwrite@plt>
    2de9:	ba 34 00 00 00       	mov    $0x34,%edx
    2dee:	48 8b 0d 4b a2 00 00 	mov    0xa24b(%rip),%rcx        # d040 <stderr@GLIBC_2.2.5>
    2df5:	be 01 00 00 00       	mov    $0x1,%esi
    2dfa:	48 8d 3d 17 6a 00 00 	lea    0x6a17(%rip),%rdi        # 9818 <_IO_stdin_used+0x818>
    2e01:	e8 1a f6 ff ff       	call   2420 <fwrite@plt>
    2e06:	ba 37 00 00 00       	mov    $0x37,%edx
    2e0b:	48 8b 0d 2e a2 00 00 	mov    0xa22e(%rip),%rcx        # d040 <stderr@GLIBC_2.2.5>
    2e12:	be 01 00 00 00       	mov    $0x1,%esi
    2e17:	48 8d 3d 32 6a 00 00 	lea    0x6a32(%rip),%rdi        # 9850 <_IO_stdin_used+0x850>
    2e1e:	e8 fd f5 ff ff       	call   2420 <fwrite@plt>
    2e23:	ba 37 00 00 00       	mov    $0x37,%edx
    2e28:	48 8b 0d 11 a2 00 00 	mov    0xa211(%rip),%rcx        # d040 <stderr@GLIBC_2.2.5>
    2e2f:	be 01 00 00 00       	mov    $0x1,%esi
    2e34:	48 8d 3d 4d 6a 00 00 	lea    0x6a4d(%rip),%rdi        # 9888 <_IO_stdin_used+0x888>
    2e3b:	e8 e0 f5 ff ff       	call   2420 <fwrite@plt>
    2e40:	ba 34 00 00 00       	mov    $0x34,%edx
    2e45:	48 8b 0d f4 a1 00 00 	mov    0xa1f4(%rip),%rcx        # d040 <stderr@GLIBC_2.2.5>
    2e4c:	be 01 00 00 00       	mov    $0x1,%esi
    2e51:	48 8d 3d 68 6a 00 00 	lea    0x6a68(%rip),%rdi        # 98c0 <_IO_stdin_used+0x8c0>
    2e58:	e8 c3 f5 ff ff       	call   2420 <fwrite@plt>
    2e5d:	ba 38 00 00 00       	mov    $0x38,%edx
    2e62:	be 01 00 00 00       	mov    $0x1,%esi
    2e67:	48 8b 0d d2 a1 00 00 	mov    0xa1d2(%rip),%rcx        # d040 <stderr@GLIBC_2.2.5>
    2e6e:	48 8d 3d 83 6a 00 00 	lea    0x6a83(%rip),%rdi        # 98f8 <_IO_stdin_used+0x8f8>
    2e75:	e8 a6 f5 ff ff       	call   2420 <fwrite@plt>
usage():
/home/tenebris/Disk/Documents/RootCauseAnalysis/evaluation/test_bin/libjpeg/libjpeg_heap_buffer_overflow/libjpeg-turbo/cjpeg.c:213
  exit(EXIT_FAILURE);
    2e7a:	bf 01 00 00 00       	mov    $0x1,%edi
    2e7f:	e8 8c f5 ff ff       	call   2410 <exit@plt>
    2e84:	66 66 2e 0f 1f 84 00 	data16 cs nopw 0x0(%rax,%rax,1)
    2e8b:	00 00 00 00 
    2e8f:	90                   	nop

0000000000002e90 <parse_switches.constprop.0>:
parse_switches():
/home/tenebris/Disk/Documents/RootCauseAnalysis/evaluation/test_bin/libjpeg/libjpeg_heap_buffer_overflow/libjpeg-turbo/cjpeg.c:218
parse_switches(j_compress_ptr cinfo, int argc, char **argv,
    2e90:	41 57                	push   %r15
    2e92:	41 89 ca             	mov    %ecx,%r10d
    2e95:	41 56                	push   %r14
    2e97:	41 55                	push   %r13
    2e99:	41 54                	push   %r12
    2e9b:	55                   	push   %rbp
    2e9c:	53                   	push   %rbx
    2e9d:	48 83 ec 68          	sub    $0x68,%rsp
    2ea1:	64 48 8b 04 25 28 00 	mov    %fs:0x28,%rax
    2ea8:	00 00 
    2eaa:	48 89 44 24 58       	mov    %rax,0x58(%rsp)
    2eaf:	31 c0                	xor    %eax,%eax
/home/tenebris/Disk/Documents/RootCauseAnalysis/evaluation/test_bin/libjpeg/libjpeg_heap_buffer_overflow/libjpeg-turbo/cjpeg.c:247
  cinfo->err->trace_level = 0;
    2eb1:	48 8b 07             	mov    (%rdi),%rax
/home/tenebris/Disk/Documents/RootCauseAnalysis/evaluation/test_bin/libjpeg/libjpeg_heap_buffer_overflow/libjpeg-turbo/cjpeg.c:243
  is_targa = FALSE;
    2eb4:	c7 05 b2 a1 00 00 00 	movl   $0x0,0xa1b2(%rip)        # d070 <is_targa>
    2ebb:	00 00 00 
/home/tenebris/Disk/Documents/RootCauseAnalysis/evaluation/test_bin/libjpeg/libjpeg_heap_buffer_overflow/libjpeg-turbo/cjpeg.c:244
  icc_filename = NULL;
    2ebe:	48 c7 05 97 a1 00 00 	movq   $0x0,0xa197(%rip)        # d060 <icc_filename>
    2ec5:	00 00 00 00 
/home/tenebris/Disk/Documents/RootCauseAnalysis/evaluation/test_bin/libjpeg/libjpeg_heap_buffer_overflow/libjpeg-turbo/cjpeg.c:245
  outfilename = NULL;
    2ec9:	48 c7 05 84 a1 00 00 	movq   $0x0,0xa184(%rip)        # d058 <outfilename>
    2ed0:	00 00 00 00 
/home/tenebris/Disk/Documents/RootCauseAnalysis/evaluation/test_bin/libjpeg/libjpeg_heap_buffer_overflow/libjpeg-turbo/cjpeg.c:246
  memdst = FALSE;
    2ed4:	c7 05 72 a1 00 00 00 	movl   $0x0,0xa172(%rip)        # d050 <memdst>
    2edb:	00 00 00 
/home/tenebris/Disk/Documents/RootCauseAnalysis/evaluation/test_bin/libjpeg/libjpeg_heap_buffer_overflow/libjpeg-turbo/cjpeg.c:247
  cinfo->err->trace_level = 0;
    2ede:	c7 40 7c 00 00 00 00 	movl   $0x0,0x7c(%rax)
/home/tenebris/Disk/Documents/RootCauseAnalysis/evaluation/test_bin/libjpeg/libjpeg_heap_buffer_overflow/libjpeg-turbo/cjpeg.c:251
  for (argn = 1; argn < argc; argn++) {
    2ee5:	83 fe 01             	cmp    $0x1,%esi
    2ee8:	0f 8e 3e 02 00 00    	jle    312c <parse_switches.constprop.0+0x29c>
/home/tenebris/Disk/Documents/RootCauseAnalysis/evaluation/test_bin/libjpeg/libjpeg_heap_buffer_overflow/libjpeg-turbo/cjpeg.c:235
  char *qslotsarg = NULL;       /* saves -qslots parm if any */
    2eee:	48 c7 44 24 08 00 00 	movq   $0x0,0x8(%rsp)
    2ef5:	00 00 
    2ef7:	48 89 fd             	mov    %rdi,%rbp
    2efa:	41 89 f5             	mov    %esi,%r13d
    2efd:	48 89 d3             	mov    %rdx,%rbx
/home/tenebris/Disk/Documents/RootCauseAnalysis/evaluation/test_bin/libjpeg/libjpeg_heap_buffer_overflow/libjpeg-turbo/cjpeg.c:237
  char *scansarg = NULL;        /* saves -scans parm if any */
    2f00:	45 31 ff             	xor    %r15d,%r15d
/home/tenebris/Disk/Documents/RootCauseAnalysis/evaluation/test_bin/libjpeg/libjpeg_heap_buffer_overflow/libjpeg-turbo/cjpeg.c:236
  char *samplearg = NULL;       /* saves -sample parm if any */
    2f03:	45 31 f6             	xor    %r14d,%r14d
/home/tenebris/Disk/Documents/RootCauseAnalysis/evaluation/test_bin/libjpeg/libjpeg_heap_buffer_overflow/libjpeg-turbo/cjpeg.c:233
  char *qualityarg = NULL;      /* saves -quality parm if any */
    2f06:	45 31 db             	xor    %r11d,%r11d
/home/tenebris/Disk/Documents/RootCauseAnalysis/evaluation/test_bin/libjpeg/libjpeg_heap_buffer_overflow/libjpeg-turbo/cjpeg.c:251
  for (argn = 1; argn < argc; argn++) {
    2f09:	41 bc 01 00 00 00    	mov    $0x1,%r12d
/home/tenebris/Disk/Documents/RootCauseAnalysis/evaluation/test_bin/libjpeg/libjpeg_heap_buffer_overflow/libjpeg-turbo/cjpeg.c:234
  char *qtablefile = NULL;      /* saves -qtables filename if any */
    2f0f:	48 c7 44 24 10 00 00 	movq   $0x0,0x10(%rsp)
    2f16:	00 00 
/home/tenebris/Disk/Documents/RootCauseAnalysis/evaluation/test_bin/libjpeg/libjpeg_heap_buffer_overflow/libjpeg-turbo/cjpeg.c:242
  simple_progressive = FALSE;
    2f18:	c7 44 24 38 00 00 00 	movl   $0x0,0x38(%rsp)
    2f1f:	00 
/home/tenebris/Disk/Documents/RootCauseAnalysis/evaluation/test_bin/libjpeg/libjpeg_heap_buffer_overflow/libjpeg-turbo/cjpeg.c:241
  force_baseline = FALSE;       /* by default, allow 16-bit quantizers */
    2f20:	c7 44 24 04 00 00 00 	movl   $0x0,0x4(%rsp)
    2f27:	00 
/home/tenebris/Disk/Documents/RootCauseAnalysis/evaluation/test_bin/libjpeg/libjpeg_heap_buffer_overflow/libjpeg-turbo/cjpeg.c:252
    arg = argv[argn];
    2f28:	49 63 c4             	movslq %r12d,%rax
    2f2b:	48 8d 0c c5 00 00 00 	lea    0x0(,%rax,8),%rcx
    2f32:	00 
    2f33:	48 8b 04 c3          	mov    (%rbx,%rax,8),%rax
/home/tenebris/Disk/Documents/RootCauseAnalysis/evaluation/test_bin/libjpeg/libjpeg_heap_buffer_overflow/libjpeg-turbo/cjpeg.c:253
    if (*arg != '-') {
    2f37:	80 38 2d             	cmpb   $0x2d,(%rax)
    2f3a:	0f 84 c4 00 00 00    	je     3004 <parse_switches.constprop.0+0x174>
/home/tenebris/Disk/Documents/RootCauseAnalysis/evaluation/test_bin/libjpeg/libjpeg_heap_buffer_overflow/libjpeg-turbo/cjpeg.c:463
  if (for_real) {
    2f40:	45 85 d2             	test   %r10d,%r10d
    2f43:	0f 84 95 00 00 00    	je     2fde <parse_switches.constprop.0+0x14e>
/home/tenebris/Disk/Documents/RootCauseAnalysis/evaluation/test_bin/libjpeg/libjpeg_heap_buffer_overflow/libjpeg-turbo/cjpeg.c:467
    if (qualityarg != NULL)     /* process -quality if it was present */
    2f49:	4d 85 db             	test   %r11,%r11
    2f4c:	74 17                	je     2f65 <parse_switches.constprop.0+0xd5>
/home/tenebris/Disk/Documents/RootCauseAnalysis/evaluation/test_bin/libjpeg/libjpeg_heap_buffer_overflow/libjpeg-turbo/cjpeg.c:468
      if (!set_quality_ratings(cinfo, qualityarg, force_baseline))
    2f4e:	8b 54 24 04          	mov    0x4(%rsp),%edx
    2f52:	4c 89 de             	mov    %r11,%rsi
    2f55:	48 89 ef             	mov    %rbp,%rdi
    2f58:	e8 53 34 00 00       	call   63b0 <set_quality_ratings>
    2f5d:	85 c0                	test   %eax,%eax
    2f5f:	0f 84 4b 01 00 00    	je     30b0 <parse_switches.constprop.0+0x220>
/home/tenebris/Disk/Documents/RootCauseAnalysis/evaluation/test_bin/libjpeg/libjpeg_heap_buffer_overflow/libjpeg-turbo/cjpeg.c:471
    if (qtablefile != NULL)     /* process -qtables if it was present */
    2f65:	48 8b 44 24 10       	mov    0x10(%rsp),%rax
    2f6a:	48 85 c0             	test   %rax,%rax
    2f6d:	74 17                	je     2f86 <parse_switches.constprop.0+0xf6>
/home/tenebris/Disk/Documents/RootCauseAnalysis/evaluation/test_bin/libjpeg/libjpeg_heap_buffer_overflow/libjpeg-turbo/cjpeg.c:472
      if (!read_quant_tables(cinfo, qtablefile, force_baseline))
    2f6f:	8b 54 24 04          	mov    0x4(%rsp),%edx
    2f73:	48 89 c6             	mov    %rax,%rsi
    2f76:	48 89 ef             	mov    %rbp,%rdi
    2f79:	e8 d2 2e 00 00       	call   5e50 <read_quant_tables>
    2f7e:	85 c0                	test   %eax,%eax
    2f80:	0f 84 2a 01 00 00    	je     30b0 <parse_switches.constprop.0+0x220>
/home/tenebris/Disk/Documents/RootCauseAnalysis/evaluation/test_bin/libjpeg/libjpeg_heap_buffer_overflow/libjpeg-turbo/cjpeg.c:475
    if (qslotsarg != NULL)      /* process -qslots if it was present */
    2f86:	48 8b 44 24 08       	mov    0x8(%rsp),%rax
    2f8b:	48 85 c0             	test   %rax,%rax
    2f8e:	74 13                	je     2fa3 <parse_switches.constprop.0+0x113>
/home/tenebris/Disk/Documents/RootCauseAnalysis/evaluation/test_bin/libjpeg/libjpeg_heap_buffer_overflow/libjpeg-turbo/cjpeg.c:476
      if (!set_quant_slots(cinfo, qslotsarg))
    2f90:	48 89 c6             	mov    %rax,%rsi
    2f93:	48 89 ef             	mov    %rbp,%rdi
    2f96:	e8 35 35 00 00       	call   64d0 <set_quant_slots>
    2f9b:	85 c0                	test   %eax,%eax
    2f9d:	0f 84 0d 01 00 00    	je     30b0 <parse_switches.constprop.0+0x220>
/home/tenebris/Disk/Documents/RootCauseAnalysis/evaluation/test_bin/libjpeg/libjpeg_heap_buffer_overflow/libjpeg-turbo/cjpeg.c:479
    if (samplearg != NULL)      /* process -sample if it was present */
    2fa3:	4d 85 f6             	test   %r14,%r14
    2fa6:	74 13                	je     2fbb <parse_switches.constprop.0+0x12b>
/home/tenebris/Disk/Documents/RootCauseAnalysis/evaluation/test_bin/libjpeg/libjpeg_heap_buffer_overflow/libjpeg-turbo/cjpeg.c:480
      if (!set_sample_factors(cinfo, samplearg))
    2fa8:	4c 89 f6             	mov    %r14,%rsi
    2fab:	48 89 ef             	mov    %rbp,%rdi
    2fae:	e8 2d 36 00 00       	call   65e0 <set_sample_factors>
    2fb3:	85 c0                	test   %eax,%eax
    2fb5:	0f 84 f5 00 00 00    	je     30b0 <parse_switches.constprop.0+0x220>
/home/tenebris/Disk/Documents/RootCauseAnalysis/evaluation/test_bin/libjpeg/libjpeg_heap_buffer_overflow/libjpeg-turbo/cjpeg.c:484
    if (simple_progressive)     /* process -progressive; -scans can override */
    2fbb:	83 7c 24 38 00       	cmpl   $0x0,0x38(%rsp)
    2fc0:	0f 85 9b 00 00 00    	jne    3061 <parse_switches.constprop.0+0x1d1>
/home/tenebris/Disk/Documents/RootCauseAnalysis/evaluation/test_bin/libjpeg/libjpeg_heap_buffer_overflow/libjpeg-turbo/cjpeg.c:489
    if (scansarg != NULL)       /* process -scans if it was present */
    2fc6:	4d 85 ff             	test   %r15,%r15
    2fc9:	74 13                	je     2fde <parse_switches.constprop.0+0x14e>
/home/tenebris/Disk/Documents/RootCauseAnalysis/evaluation/test_bin/libjpeg/libjpeg_heap_buffer_overflow/libjpeg-turbo/cjpeg.c:490
      if (!read_scan_script(cinfo, scansarg))
    2fcb:	4c 89 fe             	mov    %r15,%rsi
    2fce:	48 89 ef             	mov    %rbp,%rdi
    2fd1:	e8 6a 30 00 00       	call   6040 <read_scan_script>
    2fd6:	85 c0                	test   %eax,%eax
    2fd8:	0f 84 d2 00 00 00    	je     30b0 <parse_switches.constprop.0+0x220>
/home/tenebris/Disk/Documents/RootCauseAnalysis/evaluation/test_bin/libjpeg/libjpeg_heap_buffer_overflow/libjpeg-turbo/cjpeg.c:496
}
    2fde:	48 8b 44 24 58       	mov    0x58(%rsp),%rax
    2fe3:	64 48 2b 04 25 28 00 	sub    %fs:0x28,%rax
    2fea:	00 00 
    2fec:	0f 85 df 03 00 00    	jne    33d1 <parse_switches.constprop.0+0x541>
    2ff2:	48 83 c4 68          	add    $0x68,%rsp
    2ff6:	44 89 e0             	mov    %r12d,%eax
    2ff9:	5b                   	pop    %rbx
    2ffa:	5d                   	pop    %rbp
    2ffb:	41 5c                	pop    %r12
    2ffd:	41 5d                	pop    %r13
    2fff:	41 5e                	pop    %r14
    3001:	41 5f                	pop    %r15
    3003:	c3                   	ret    
/home/tenebris/Disk/Documents/RootCauseAnalysis/evaluation/test_bin/libjpeg/libjpeg_heap_buffer_overflow/libjpeg-turbo/cjpeg.c:261
    arg++;                      /* advance past switch marker character */
    3004:	48 8d 78 01          	lea    0x1(%rax),%rdi
/home/tenebris/Disk/Documents/RootCauseAnalysis/evaluation/test_bin/libjpeg/libjpeg_heap_buffer_overflow/libjpeg-turbo/cjpeg.c:263
    if (keymatch(arg, "arithmetic", 1)) {
    3008:	ba 01 00 00 00       	mov    $0x1,%edx
    300d:	44 89 54 24 30       	mov    %r10d,0x30(%rsp)
    3012:	48 8d 35 4e 60 00 00 	lea    0x604e(%rip),%rsi        # 9067 <_IO_stdin_used+0x67>
    3019:	4c 89 5c 24 28       	mov    %r11,0x28(%rsp)
    301e:	48 89 4c 24 20       	mov    %rcx,0x20(%rsp)
    3023:	48 89 7c 24 18       	mov    %rdi,0x18(%rsp)
    3028:	e8 d3 09 00 00       	call   3a00 <keymatch>
    302d:	48 8b 7c 24 18       	mov    0x18(%rsp),%rdi
    3032:	48 8b 4c 24 20       	mov    0x20(%rsp),%rcx
    3037:	85 c0                	test   %eax,%eax
    3039:	4c 8b 5c 24 28       	mov    0x28(%rsp),%r11
    303e:	44 8b 54 24 30       	mov    0x30(%rsp),%r10d
    3043:	74 29                	je     306e <parse_switches.constprop.0+0x1de>
/home/tenebris/Disk/Documents/RootCauseAnalysis/evaluation/test_bin/libjpeg/libjpeg_heap_buffer_overflow/libjpeg-turbo/cjpeg.c:266
      cinfo->arith_code = TRUE;
    3045:	c7 85 04 01 00 00 01 	movl   $0x1,0x104(%rbp)
    304c:	00 00 00 
/home/tenebris/Disk/Documents/RootCauseAnalysis/evaluation/test_bin/libjpeg/libjpeg_heap_buffer_overflow/libjpeg-turbo/cjpeg.c:251
  for (argn = 1; argn < argc; argn++) {
    304f:	41 83 c4 01          	add    $0x1,%r12d
    3053:	45 39 e5             	cmp    %r12d,%r13d
    3056:	0f 8f cc fe ff ff    	jg     2f28 <parse_switches.constprop.0+0x98>
    305c:	e9 df fe ff ff       	jmp    2f40 <parse_switches.constprop.0+0xb0>
/home/tenebris/Disk/Documents/RootCauseAnalysis/evaluation/test_bin/libjpeg/libjpeg_heap_buffer_overflow/libjpeg-turbo/cjpeg.c:485
      jpeg_simple_progression(cinfo);
    3061:	48 89 ef             	mov    %rbp,%rdi
    3064:	e8 57 f2 ff ff       	call   22c0 <jpeg_simple_progression@plt>
    3069:	e9 58 ff ff ff       	jmp    2fc6 <parse_switches.constprop.0+0x136>
/home/tenebris/Disk/Documents/RootCauseAnalysis/evaluation/test_bin/libjpeg/libjpeg_heap_buffer_overflow/libjpeg-turbo/cjpeg.c:273
    } else if (keymatch(arg, "baseline", 1)) {
    306e:	ba 01 00 00 00       	mov    $0x1,%edx
    3073:	48 8d 35 f8 5f 00 00 	lea    0x5ff8(%rip),%rsi        # 9072 <_IO_stdin_used+0x72>
    307a:	44 89 54 24 30       	mov    %r10d,0x30(%rsp)
    307f:	4c 89 5c 24 28       	mov    %r11,0x28(%rsp)
    3084:	48 89 7c 24 18       	mov    %rdi,0x18(%rsp)
    3089:	48 89 4c 24 20       	mov    %rcx,0x20(%rsp)
    308e:	e8 6d 09 00 00       	call   3a00 <keymatch>
    3093:	48 8b 7c 24 18       	mov    0x18(%rsp),%rdi
    3098:	4c 8b 5c 24 28       	mov    0x28(%rsp),%r11
    309d:	85 c0                	test   %eax,%eax
    309f:	44 8b 54 24 30       	mov    0x30(%rsp),%r10d
    30a4:	74 0f                	je     30b5 <parse_switches.constprop.0+0x225>
/home/tenebris/Disk/Documents/RootCauseAnalysis/evaluation/test_bin/libjpeg/libjpeg_heap_buffer_overflow/libjpeg-turbo/cjpeg.c:275
      force_baseline = TRUE;
    30a6:	c7 44 24 04 01 00 00 	movl   $0x1,0x4(%rsp)
    30ad:	00 
    30ae:	eb 9f                	jmp    304f <parse_switches.constprop.0+0x1bf>
/home/tenebris/Disk/Documents/RootCauseAnalysis/evaluation/test_bin/libjpeg/libjpeg_heap_buffer_overflow/libjpeg-turbo/cjpeg.c:280
        usage();
    30b0:	e8 6b fa ff ff       	call   2b20 <usage>
/home/tenebris/Disk/Documents/RootCauseAnalysis/evaluation/test_bin/libjpeg/libjpeg_heap_buffer_overflow/libjpeg-turbo/cjpeg.c:277
    } else if (keymatch(arg, "dct", 2)) {
    30b5:	ba 02 00 00 00       	mov    $0x2,%edx
    30ba:	48 8d 35 ba 5f 00 00 	lea    0x5fba(%rip),%rsi        # 907b <_IO_stdin_used+0x7b>
    30c1:	e8 3a 09 00 00       	call   3a00 <keymatch>
    30c6:	48 8b 7c 24 18       	mov    0x18(%rsp),%rdi
    30cb:	48 8b 4c 24 20       	mov    0x20(%rsp),%rcx
    30d0:	85 c0                	test   %eax,%eax
    30d2:	4c 8b 5c 24 28       	mov    0x28(%rsp),%r11
    30d7:	44 8b 54 24 30       	mov    0x30(%rsp),%r10d
    30dc:	74 5f                	je     313d <parse_switches.constprop.0+0x2ad>
/home/tenebris/Disk/Documents/RootCauseAnalysis/evaluation/test_bin/libjpeg/libjpeg_heap_buffer_overflow/libjpeg-turbo/cjpeg.c:279
      if (++argn >= argc)       /* advance to next argument */
    30de:	41 83 c4 01          	add    $0x1,%r12d
    30e2:	45 39 ec             	cmp    %r13d,%r12d
    30e5:	7d c9                	jge    30b0 <parse_switches.constprop.0+0x220>
/home/tenebris/Disk/Documents/RootCauseAnalysis/evaluation/test_bin/libjpeg/libjpeg_heap_buffer_overflow/libjpeg-turbo/cjpeg.c:281
      if (keymatch(argv[argn], "int", 1)) {
    30e7:	48 8d 44 0b 08       	lea    0x8(%rbx,%rcx,1),%rax
    30ec:	ba 01 00 00 00       	mov    $0x1,%edx
    30f1:	44 89 54 24 20       	mov    %r10d,0x20(%rsp)
    30f6:	48 8d 35 82 5f 00 00 	lea    0x5f82(%rip),%rsi        # 907f <_IO_stdin_used+0x7f>
    30fd:	48 8b 38             	mov    (%rax),%rdi
    3100:	4c 89 5c 24 18       	mov    %r11,0x18(%rsp)
    3105:	48 89 44 24 28       	mov    %rax,0x28(%rsp)
    310a:	e8 f1 08 00 00       	call   3a00 <keymatch>
    310f:	4c 8b 5c 24 18       	mov    0x18(%rsp),%r11
    3114:	44 8b 54 24 20       	mov    0x20(%rsp),%r10d
    3119:	85 c0                	test   %eax,%eax
    311b:	74 77                	je     3194 <parse_switches.constprop.0+0x304>
/home/tenebris/Disk/Documents/RootCauseAnalysis/evaluation/test_bin/libjpeg/libjpeg_heap_buffer_overflow/libjpeg-turbo/cjpeg.c:282
        cinfo->dct_method = JDCT_ISLOW;
    311d:	c7 85 14 01 00 00 00 	movl   $0x0,0x114(%rbp)
    3124:	00 00 00 
    3127:	e9 23 ff ff ff       	jmp    304f <parse_switches.constprop.0+0x1bf>
/home/tenebris/Disk/Documents/RootCauseAnalysis/evaluation/test_bin/libjpeg/libjpeg_heap_buffer_overflow/libjpeg-turbo/cjpeg.c:463
  if (for_real) {
    312c:	85 c9                	test   %ecx,%ecx
/home/tenebris/Disk/Documents/RootCauseAnalysis/evaluation/test_bin/libjpeg/libjpeg_heap_buffer_overflow/libjpeg-turbo/cjpeg.c:251
  for (argn = 1; argn < argc; argn++) {
    312e:	41 bc 01 00 00 00    	mov    $0x1,%r12d
    3134:	44 0f 45 e1          	cmovne %ecx,%r12d
    3138:	e9 a1 fe ff ff       	jmp    2fde <parse_switches.constprop.0+0x14e>
/home/tenebris/Disk/Documents/RootCauseAnalysis/evaluation/test_bin/libjpeg/libjpeg_heap_buffer_overflow/libjpeg-turbo/cjpeg.c:290
    } else if (keymatch(arg, "debug", 1) || keymatch(arg, "verbose", 1)) {
    313d:	ba 01 00 00 00       	mov    $0x1,%edx
    3142:	48 8d 35 45 5f 00 00 	lea    0x5f45(%rip),%rsi        # 908e <_IO_stdin_used+0x8e>
    3149:	44 89 54 24 30       	mov    %r10d,0x30(%rsp)
    314e:	4c 89 5c 24 28       	mov    %r11,0x28(%rsp)
    3153:	48 89 4c 24 20       	mov    %rcx,0x20(%rsp)
    3158:	48 89 7c 24 18       	mov    %rdi,0x18(%rsp)
    315d:	e8 9e 08 00 00       	call   3a00 <keymatch>
    3162:	48 8b 7c 24 18       	mov    0x18(%rsp),%rdi
    3167:	48 8b 4c 24 20       	mov    0x20(%rsp),%rcx
    316c:	85 c0                	test   %eax,%eax
    316e:	4c 8b 5c 24 28       	mov    0x28(%rsp),%r11
    3173:	44 8b 54 24 30       	mov    0x30(%rsp),%r10d
    3178:	74 5e                	je     31d8 <parse_switches.constprop.0+0x348>
/home/tenebris/Disk/Documents/RootCauseAnalysis/evaluation/test_bin/libjpeg/libjpeg_heap_buffer_overflow/libjpeg-turbo/cjpeg.c:295
      if (!printed_version) {
    317a:	83 3d d3 9e 00 00 00 	cmpl   $0x0,0x9ed3(%rip)        # d054 <printed_version.0>
    3181:	0f 84 72 01 00 00    	je     32f9 <parse_switches.constprop.0+0x469>
/home/tenebris/Disk/Documents/RootCauseAnalysis/evaluation/test_bin/libjpeg/libjpeg_heap_buffer_overflow/libjpeg-turbo/cjpeg.c:303
      cinfo->err->trace_level++;
    3187:	48 8b 45 00          	mov    0x0(%rbp),%rax
    318b:	83 40 7c 01          	addl   $0x1,0x7c(%rax)
/home/tenebris/Disk/Documents/RootCauseAnalysis/evaluation/test_bin/libjpeg/libjpeg_heap_buffer_overflow/libjpeg-turbo/cjpeg.c:290
    } else if (keymatch(arg, "debug", 1) || keymatch(arg, "verbose", 1)) {
    318f:	e9 bb fe ff ff       	jmp    304f <parse_switches.constprop.0+0x1bf>
/home/tenebris/Disk/Documents/RootCauseAnalysis/evaluation/test_bin/libjpeg/libjpeg_heap_buffer_overflow/libjpeg-turbo/cjpeg.c:283
      } else if (keymatch(argv[argn], "fast", 2)) {
    3194:	48 8b 44 24 28       	mov    0x28(%rsp),%rax
    3199:	ba 02 00 00 00       	mov    $0x2,%edx
    319e:	44 89 54 24 20       	mov    %r10d,0x20(%rsp)
    31a3:	48 8d 35 d9 5e 00 00 	lea    0x5ed9(%rip),%rsi        # 9083 <_IO_stdin_used+0x83>
    31aa:	4c 89 5c 24 18       	mov    %r11,0x18(%rsp)
    31af:	48 8b 38             	mov    (%rax),%rdi
    31b2:	e8 49 08 00 00       	call   3a00 <keymatch>
    31b7:	4c 8b 5c 24 18       	mov    0x18(%rsp),%r11
    31bc:	44 8b 54 24 20       	mov    0x20(%rsp),%r10d
    31c1:	85 c0                	test   %eax,%eax
    31c3:	0f 84 c4 01 00 00    	je     338d <parse_switches.constprop.0+0x4fd>
/home/tenebris/Disk/Documents/RootCauseAnalysis/evaluation/test_bin/libjpeg/libjpeg_heap_buffer_overflow/libjpeg-turbo/cjpeg.c:284
        cinfo->dct_method = JDCT_IFAST;
    31c9:	c7 85 14 01 00 00 01 	movl   $0x1,0x114(%rbp)
    31d0:	00 00 00 
    31d3:	e9 77 fe ff ff       	jmp    304f <parse_switches.constprop.0+0x1bf>
/home/tenebris/Disk/Documents/RootCauseAnalysis/evaluation/test_bin/libjpeg/libjpeg_heap_buffer_overflow/libjpeg-turbo/cjpeg.c:290
    } else if (keymatch(arg, "debug", 1) || keymatch(arg, "verbose", 1)) {
    31d8:	ba 01 00 00 00       	mov    $0x1,%edx
    31dd:	48 8d 35 b0 5e 00 00 	lea    0x5eb0(%rip),%rsi        # 9094 <_IO_stdin_used+0x94>
    31e4:	44 89 54 24 30       	mov    %r10d,0x30(%rsp)
    31e9:	4c 89 5c 24 28       	mov    %r11,0x28(%rsp)
    31ee:	48 89 4c 24 20       	mov    %rcx,0x20(%rsp)
    31f3:	48 89 7c 24 18       	mov    %rdi,0x18(%rsp)
    31f8:	e8 03 08 00 00       	call   3a00 <keymatch>
    31fd:	48 8b 7c 24 18       	mov    0x18(%rsp),%rdi
    3202:	48 8b 4c 24 20       	mov    0x20(%rsp),%rcx
    3207:	85 c0                	test   %eax,%eax
    3209:	4c 8b 5c 24 28       	mov    0x28(%rsp),%r11
    320e:	44 8b 54 24 30       	mov    0x30(%rsp),%r10d
    3213:	0f 85 61 ff ff ff    	jne    317a <parse_switches.constprop.0+0x2ea>
/home/tenebris/Disk/Documents/RootCauseAnalysis/evaluation/test_bin/libjpeg/libjpeg_heap_buffer_overflow/libjpeg-turbo/cjpeg.c:305
    } else if (keymatch(arg, "version", 4)) {
    3219:	ba 04 00 00 00       	mov    $0x4,%edx
    321e:	48 8d 35 c4 5e 00 00 	lea    0x5ec4(%rip),%rsi        # 90e9 <_IO_stdin_used+0xe9>
    3225:	44 89 54 24 30       	mov    %r10d,0x30(%rsp)
    322a:	4c 89 5c 24 28       	mov    %r11,0x28(%rsp)
    322f:	48 89 4c 24 20       	mov    %rcx,0x20(%rsp)
    3234:	48 89 7c 24 18       	mov    %rdi,0x18(%rsp)
    3239:	e8 c2 07 00 00       	call   3a00 <keymatch>
    323e:	48 8b 7c 24 18       	mov    0x18(%rsp),%rdi
    3243:	48 8b 4c 24 20       	mov    0x20(%rsp),%rcx
    3248:	85 c0                	test   %eax,%eax
    324a:	4c 8b 5c 24 28       	mov    0x28(%rsp),%r11
    324f:	44 8b 54 24 30       	mov    0x30(%rsp),%r10d
    3254:	0f 85 26 02 00 00    	jne    3480 <parse_switches.constprop.0+0x5f0>
/home/tenebris/Disk/Documents/RootCauseAnalysis/evaluation/test_bin/libjpeg/libjpeg_heap_buffer_overflow/libjpeg-turbo/cjpeg.c:310
    } else if (keymatch(arg, "grayscale", 2) ||
    325a:	ba 02 00 00 00       	mov    $0x2,%edx
    325f:	48 8d 35 8b 5e 00 00 	lea    0x5e8b(%rip),%rsi        # 90f1 <_IO_stdin_used+0xf1>
    3266:	44 89 54 24 30       	mov    %r10d,0x30(%rsp)
    326b:	4c 89 5c 24 28       	mov    %r11,0x28(%rsp)
    3270:	48 89 4c 24 20       	mov    %rcx,0x20(%rsp)
    3275:	48 89 7c 24 18       	mov    %rdi,0x18(%rsp)
    327a:	e8 81 07 00 00       	call   3a00 <keymatch>
    327f:	48 8b 7c 24 18       	mov    0x18(%rsp),%rdi
    3284:	48 8b 4c 24 20       	mov    0x20(%rsp),%rcx
    3289:	85 c0                	test   %eax,%eax
    328b:	4c 8b 5c 24 28       	mov    0x28(%rsp),%r11
    3290:	44 8b 54 24 30       	mov    0x30(%rsp),%r10d
    3295:	75 3c                	jne    32d3 <parse_switches.constprop.0+0x443>
/home/tenebris/Disk/Documents/RootCauseAnalysis/evaluation/test_bin/libjpeg/libjpeg_heap_buffer_overflow/libjpeg-turbo/cjpeg.c:311
               keymatch(arg, "greyscale", 2)) {
    3297:	ba 02 00 00 00       	mov    $0x2,%edx
    329c:	48 8d 35 58 5e 00 00 	lea    0x5e58(%rip),%rsi        # 90fb <_IO_stdin_used+0xfb>
    32a3:	44 89 54 24 30       	mov    %r10d,0x30(%rsp)
    32a8:	4c 89 5c 24 28       	mov    %r11,0x28(%rsp)
    32ad:	48 89 7c 24 18       	mov    %rdi,0x18(%rsp)
    32b2:	48 89 4c 24 20       	mov    %rcx,0x20(%rsp)
    32b7:	e8 44 07 00 00       	call   3a00 <keymatch>
/home/tenebris/Disk/Documents/RootCauseAnalysis/evaluation/test_bin/libjpeg/libjpeg_heap_buffer_overflow/libjpeg-turbo/cjpeg.c:310
    } else if (keymatch(arg, "grayscale", 2) ||
    32bc:	48 8b 7c 24 18       	mov    0x18(%rsp),%rdi
    32c1:	4c 8b 5c 24 28       	mov    0x28(%rsp),%r11
    32c6:	85 c0                	test   %eax,%eax
    32c8:	44 8b 54 24 30       	mov    0x30(%rsp),%r10d
    32cd:	0f 84 03 01 00 00    	je     33d6 <parse_switches.constprop.0+0x546>
/home/tenebris/Disk/Documents/RootCauseAnalysis/evaluation/test_bin/libjpeg/libjpeg_heap_buffer_overflow/libjpeg-turbo/cjpeg.c:313
      jpeg_set_colorspace(cinfo, JCS_GRAYSCALE);
    32d3:	be 01 00 00 00       	mov    $0x1,%esi
    32d8:	48 89 ef             	mov    %rbp,%rdi
    32db:	44 89 54 24 20       	mov    %r10d,0x20(%rsp)
    32e0:	4c 89 5c 24 18       	mov    %r11,0x18(%rsp)
    32e5:	e8 56 f1 ff ff       	call   2440 <jpeg_set_colorspace@plt>
    32ea:	4c 8b 5c 24 18       	mov    0x18(%rsp),%r11
    32ef:	44 8b 54 24 20       	mov    0x20(%rsp),%r10d
    32f4:	e9 56 fd ff ff       	jmp    304f <parse_switches.constprop.0+0x1bf>
fprintf():
/usr/include/x86_64-linux-gnu/bits/stdio2.h:105
    32f9:	48 8b 3d 40 9d 00 00 	mov    0x9d40(%rip),%rdi        # d040 <stderr@GLIBC_2.2.5>
    3300:	4c 8d 0d 95 5d 00 00 	lea    0x5d95(%rip),%r9        # 909c <_IO_stdin_used+0x9c>
    3307:	31 c0                	xor    %eax,%eax
    3309:	4c 8d 05 95 5d 00 00 	lea    0x5d95(%rip),%r8        # 90a5 <_IO_stdin_used+0xa5>
    3310:	48 8d 0d 95 5d 00 00 	lea    0x5d95(%rip),%rcx        # 90ac <_IO_stdin_used+0xac>
    3317:	be 01 00 00 00       	mov    $0x1,%esi
    331c:	44 89 54 24 20       	mov    %r10d,0x20(%rsp)
    3321:	48 8d 15 92 5d 00 00 	lea    0x5d92(%rip),%rdx        # 90ba <_IO_stdin_used+0xba>
    3328:	4c 89 5c 24 18       	mov    %r11,0x18(%rsp)
    332d:	e8 fe f0 ff ff       	call   2430 <__fprintf_chk@plt>
    3332:	48 8b 3d 07 9d 00 00 	mov    0x9d07(%rip),%rdi        # d040 <stderr@GLIBC_2.2.5>
    3339:	be 01 00 00 00       	mov    $0x1,%esi
    333e:	31 c0                	xor    %eax,%eax
    3340:	48 8d 0d f1 65 00 00 	lea    0x65f1(%rip),%rcx        # 9938 <_IO_stdin_used+0x938>
    3347:	48 8d 15 86 5d 00 00 	lea    0x5d86(%rip),%rdx        # 90d4 <_IO_stdin_used+0xd4>
    334e:	e8 dd f0 ff ff       	call   2430 <__fprintf_chk@plt>
    3353:	48 8b 3d e6 9c 00 00 	mov    0x9ce6(%rip),%rdi        # d040 <stderr@GLIBC_2.2.5>
    335a:	be 01 00 00 00       	mov    $0x1,%esi
    335f:	31 c0                	xor    %eax,%eax
    3361:	48 8d 0d 71 5d 00 00 	lea    0x5d71(%rip),%rcx        # 90d9 <_IO_stdin_used+0xd9>
    3368:	48 8d 15 b9 67 00 00 	lea    0x67b9(%rip),%rdx        # 9b28 <_IO_stdin_used+0xb28>
    336f:	e8 bc f0 ff ff       	call   2430 <__fprintf_chk@plt>
parse_switches():
/home/tenebris/Disk/Documents/RootCauseAnalysis/evaluation/test_bin/libjpeg/libjpeg_heap_buffer_overflow/libjpeg-turbo/cjpeg.c:301
        printed_version = TRUE;
    3374:	44 8b 54 24 20       	mov    0x20(%rsp),%r10d
    3379:	4c 8b 5c 24 18       	mov    0x18(%rsp),%r11
    337e:	c7 05 cc 9c 00 00 01 	movl   $0x1,0x9ccc(%rip)        # d054 <printed_version.0>
    3385:	00 00 00 
    3388:	e9 fa fd ff ff       	jmp    3187 <parse_switches.constprop.0+0x2f7>
/home/tenebris/Disk/Documents/RootCauseAnalysis/evaluation/test_bin/libjpeg/libjpeg_heap_buffer_overflow/libjpeg-turbo/cjpeg.c:285
      } else if (keymatch(argv[argn], "float", 2)) {
    338d:	48 8b 44 24 28       	mov    0x28(%rsp),%rax
    3392:	ba 02 00 00 00       	mov    $0x2,%edx
    3397:	44 89 54 24 20       	mov    %r10d,0x20(%rsp)
    339c:	48 8d 35 e5 5c 00 00 	lea    0x5ce5(%rip),%rsi        # 9088 <_IO_stdin_used+0x88>
    33a3:	4c 89 5c 24 18       	mov    %r11,0x18(%rsp)
    33a8:	48 8b 38             	mov    (%rax),%rdi
    33ab:	e8 50 06 00 00       	call   3a00 <keymatch>
    33b0:	85 c0                	test   %eax,%eax
    33b2:	0f 84 f8 fc ff ff    	je     30b0 <parse_switches.constprop.0+0x220>
/home/tenebris/Disk/Documents/RootCauseAnalysis/evaluation/test_bin/libjpeg/libjpeg_heap_buffer_overflow/libjpeg-turbo/cjpeg.c:286
        cinfo->dct_method = JDCT_FLOAT;
    33b8:	c7 85 14 01 00 00 02 	movl   $0x2,0x114(%rbp)
    33bf:	00 00 00 
    33c2:	4c 8b 5c 24 18       	mov    0x18(%rsp),%r11
    33c7:	44 8b 54 24 20       	mov    0x20(%rsp),%r10d
    33cc:	e9 7e fc ff ff       	jmp    304f <parse_switches.constprop.0+0x1bf>
/home/tenebris/Disk/Documents/RootCauseAnalysis/evaluation/test_bin/libjpeg/libjpeg_heap_buffer_overflow/libjpeg-turbo/cjpeg.c:496
}
    33d1:	e8 da ee ff ff       	call   22b0 <__stack_chk_fail@plt>
/home/tenebris/Disk/Documents/RootCauseAnalysis/evaluation/test_bin/libjpeg/libjpeg_heap_buffer_overflow/libjpeg-turbo/cjpeg.c:315
    } else if (keymatch(arg, "rgb", 3)) {
    33d6:	ba 03 00 00 00       	mov    $0x3,%edx
    33db:	48 8d 35 23 5d 00 00 	lea    0x5d23(%rip),%rsi        # 9105 <_IO_stdin_used+0x105>
    33e2:	e8 19 06 00 00       	call   3a00 <keymatch>
    33e7:	48 8b 7c 24 18       	mov    0x18(%rsp),%rdi
    33ec:	48 8b 4c 24 20       	mov    0x20(%rsp),%rcx
    33f1:	85 c0                	test   %eax,%eax
    33f3:	4c 8b 5c 24 28       	mov    0x28(%rsp),%r11
    33f8:	44 8b 54 24 30       	mov    0x30(%rsp),%r10d
    33fd:	74 26                	je     3425 <parse_switches.constprop.0+0x595>
/home/tenebris/Disk/Documents/RootCauseAnalysis/evaluation/test_bin/libjpeg/libjpeg_heap_buffer_overflow/libjpeg-turbo/cjpeg.c:317
      jpeg_set_colorspace(cinfo, JCS_RGB);
    33ff:	be 02 00 00 00       	mov    $0x2,%esi
    3404:	48 89 ef             	mov    %rbp,%rdi
    3407:	44 89 54 24 20       	mov    %r10d,0x20(%rsp)
    340c:	4c 89 5c 24 18       	mov    %r11,0x18(%rsp)
    3411:	e8 2a f0 ff ff       	call   2440 <jpeg_set_colorspace@plt>
    3416:	4c 8b 5c 24 18       	mov    0x18(%rsp),%r11
    341b:	44 8b 54 24 20       	mov    0x20(%rsp),%r10d
    3420:	e9 2a fc ff ff       	jmp    304f <parse_switches.constprop.0+0x1bf>
/home/tenebris/Disk/Documents/RootCauseAnalysis/evaluation/test_bin/libjpeg/libjpeg_heap_buffer_overflow/libjpeg-turbo/cjpeg.c:319
    } else if (keymatch(arg, "icc", 1)) {
    3425:	ba 01 00 00 00       	mov    $0x1,%edx
    342a:	48 8d 35 d8 5c 00 00 	lea    0x5cd8(%rip),%rsi        # 9109 <_IO_stdin_used+0x109>
    3431:	44 89 54 24 30       	mov    %r10d,0x30(%rsp)
    3436:	4c 89 5c 24 28       	mov    %r11,0x28(%rsp)
    343b:	48 89 4c 24 20       	mov    %rcx,0x20(%rsp)
    3440:	48 89 7c 24 18       	mov    %rdi,0x18(%rsp)
    3445:	e8 b6 05 00 00       	call   3a00 <keymatch>
    344a:	48 8b 7c 24 18       	mov    0x18(%rsp),%rdi
    344f:	48 8b 4c 24 20       	mov    0x20(%rsp),%rcx
    3454:	85 c0                	test   %eax,%eax
    3456:	4c 8b 5c 24 28       	mov    0x28(%rsp),%r11
    345b:	44 8b 54 24 30       	mov    0x30(%rsp),%r10d
    3460:	74 54                	je     34b6 <parse_switches.constprop.0+0x626>
/home/tenebris/Disk/Documents/RootCauseAnalysis/evaluation/test_bin/libjpeg/libjpeg_heap_buffer_overflow/libjpeg-turbo/cjpeg.c:321
      if (++argn >= argc)       /* advance to next argument */
    3462:	41 83 c4 01          	add    $0x1,%r12d
    3466:	45 39 e5             	cmp    %r12d,%r13d
    3469:	0f 8e 41 fc ff ff    	jle    30b0 <parse_switches.constprop.0+0x220>
/home/tenebris/Disk/Documents/RootCauseAnalysis/evaluation/test_bin/libjpeg/libjpeg_heap_buffer_overflow/libjpeg-turbo/cjpeg.c:323
      icc_filename = argv[argn];
    346f:	48 8b 44 0b 08       	mov    0x8(%rbx,%rcx,1),%rax
    3474:	48 89 05 e5 9b 00 00 	mov    %rax,0x9be5(%rip)        # d060 <icc_filename>
    347b:	e9 cf fb ff ff       	jmp    304f <parse_switches.constprop.0+0x1bf>
fprintf():
/usr/include/x86_64-linux-gnu/bits/stdio2.h:105
    3480:	48 8b 3d b9 9b 00 00 	mov    0x9bb9(%rip),%rdi        # d040 <stderr@GLIBC_2.2.5>
    3487:	4c 8d 0d 0e 5c 00 00 	lea    0x5c0e(%rip),%r9        # 909c <_IO_stdin_used+0x9c>
    348e:	31 c0                	xor    %eax,%eax
    3490:	4c 8d 05 0e 5c 00 00 	lea    0x5c0e(%rip),%r8        # 90a5 <_IO_stdin_used+0xa5>
    3497:	48 8d 0d 0e 5c 00 00 	lea    0x5c0e(%rip),%rcx        # 90ac <_IO_stdin_used+0xac>
    349e:	48 8d 15 15 5c 00 00 	lea    0x5c15(%rip),%rdx        # 90ba <_IO_stdin_used+0xba>
    34a5:	be 01 00 00 00       	mov    $0x1,%esi
    34aa:	e8 81 ef ff ff       	call   2430 <__fprintf_chk@plt>
parse_switches():
/home/tenebris/Disk/Documents/RootCauseAnalysis/evaluation/test_bin/libjpeg/libjpeg_heap_buffer_overflow/libjpeg-turbo/cjpeg.c:308
      exit(EXIT_SUCCESS);
    34af:	31 ff                	xor    %edi,%edi
    34b1:	e8 5a ef ff ff       	call   2410 <exit@plt>
/home/tenebris/Disk/Documents/RootCauseAnalysis/evaluation/test_bin/libjpeg/libjpeg_heap_buffer_overflow/libjpeg-turbo/cjpeg.c:325
    } else if (keymatch(arg, "maxmemory", 3)) {
    34b6:	ba 03 00 00 00       	mov    $0x3,%edx
    34bb:	48 8d 35 4b 5c 00 00 	lea    0x5c4b(%rip),%rsi        # 910d <_IO_stdin_used+0x10d>
    34c2:	44 89 54 24 30       	mov    %r10d,0x30(%rsp)
    34c7:	4c 89 5c 24 28       	mov    %r11,0x28(%rsp)
    34cc:	48 89 4c 24 20       	mov    %rcx,0x20(%rsp)
    34d1:	48 89 7c 24 18       	mov    %rdi,0x18(%rsp)
    34d6:	e8 25 05 00 00       	call   3a00 <keymatch>
    34db:	48 8b 7c 24 18       	mov    0x18(%rsp),%rdi
    34e0:	48 8b 4c 24 20       	mov    0x20(%rsp),%rcx
    34e5:	85 c0                	test   %eax,%eax
    34e7:	4c 8b 5c 24 28       	mov    0x28(%rsp),%r11
    34ec:	44 8b 54 24 30       	mov    0x30(%rsp),%r10d
    34f1:	74 73                	je     3566 <parse_switches.constprop.0+0x6d6>
/home/tenebris/Disk/Documents/RootCauseAnalysis/evaluation/test_bin/libjpeg/libjpeg_heap_buffer_overflow/libjpeg-turbo/cjpeg.c:330
      if (++argn >= argc)       /* advance to next argument */
    34f3:	41 83 c4 01          	add    $0x1,%r12d
    34f7:	44 89 54 24 20       	mov    %r10d,0x20(%rsp)
    34fc:	4c 89 5c 24 18       	mov    %r11,0x18(%rsp)
/home/tenebris/Disk/Documents/RootCauseAnalysis/evaluation/test_bin/libjpeg/libjpeg_heap_buffer_overflow/libjpeg-turbo/cjpeg.c:328
      char ch = 'x';
    3501:	c6 44 24 42 78       	movb   $0x78,0x42(%rsp)
/home/tenebris/Disk/Documents/RootCauseAnalysis/evaluation/test_bin/libjpeg/libjpeg_heap_buffer_overflow/libjpeg-turbo/cjpeg.c:330
      if (++argn >= argc)       /* advance to next argument */
    3506:	45 39 e5             	cmp    %r12d,%r13d
    3509:	0f 8e a1 fb ff ff    	jle    30b0 <parse_switches.constprop.0+0x220>
/home/tenebris/Disk/Documents/RootCauseAnalysis/evaluation/test_bin/libjpeg/libjpeg_heap_buffer_overflow/libjpeg-turbo/cjpeg.c:332
      if (sscanf(argv[argn], "%ld%c", &lval, &ch) < 1)
    350f:	48 8b 7c 0b 08       	mov    0x8(%rbx,%rcx,1),%rdi
    3514:	4c 8d 44 24 42       	lea    0x42(%rsp),%r8
    3519:	31 c0                	xor    %eax,%eax
    351b:	48 8d 54 24 48       	lea    0x48(%rsp),%rdx
    3520:	4c 89 c1             	mov    %r8,%rcx
    3523:	48 8d 35 ed 5b 00 00 	lea    0x5bed(%rip),%rsi        # 9117 <_IO_stdin_used+0x117>
    352a:	e8 21 ee ff ff       	call   2350 <__isoc99_sscanf@plt>
    352f:	85 c0                	test   %eax,%eax
    3531:	0f 8e 79 fb ff ff    	jle    30b0 <parse_switches.constprop.0+0x220>
/home/tenebris/Disk/Documents/RootCauseAnalysis/evaluation/test_bin/libjpeg/libjpeg_heap_buffer_overflow/libjpeg-turbo/cjpeg.c:334
      if (ch == 'm' || ch == 'M')
    3537:	0f b6 44 24 42       	movzbl 0x42(%rsp),%eax
    353c:	4c 8b 5c 24 18       	mov    0x18(%rsp),%r11
    3541:	44 8b 54 24 20       	mov    0x20(%rsp),%r10d
    3546:	83 e0 df             	and    $0xffffffdf,%eax
    3549:	3c 4d                	cmp    $0x4d,%al
    354b:	74 65                	je     35b2 <parse_switches.constprop.0+0x722>
    354d:	48 8b 44 24 48       	mov    0x48(%rsp),%rax
/home/tenebris/Disk/Documents/RootCauseAnalysis/evaluation/test_bin/libjpeg/libjpeg_heap_buffer_overflow/libjpeg-turbo/cjpeg.c:336
      cinfo->mem->max_memory_to_use = lval * 1000L;
    3552:	48 69 c0 e8 03 00 00 	imul   $0x3e8,%rax,%rax
    3559:	48 8b 55 08          	mov    0x8(%rbp),%rdx
    355d:	48 89 42 58          	mov    %rax,0x58(%rdx)
    3561:	e9 e9 fa ff ff       	jmp    304f <parse_switches.constprop.0+0x1bf>
/home/tenebris/Disk/Documents/RootCauseAnalysis/evaluation/test_bin/libjpeg/libjpeg_heap_buffer_overflow/libjpeg-turbo/cjpeg.c:338
    } else if (keymatch(arg, "optimize", 1) || keymatch(arg, "optimise", 1)) {
    3566:	ba 01 00 00 00       	mov    $0x1,%edx
    356b:	48 8d 35 ab 5b 00 00 	lea    0x5bab(%rip),%rsi        # 911d <_IO_stdin_used+0x11d>
    3572:	44 89 54 24 30       	mov    %r10d,0x30(%rsp)
    3577:	4c 89 5c 24 28       	mov    %r11,0x28(%rsp)
    357c:	48 89 4c 24 20       	mov    %rcx,0x20(%rsp)
    3581:	48 89 7c 24 18       	mov    %rdi,0x18(%rsp)
    3586:	e8 75 04 00 00       	call   3a00 <keymatch>
    358b:	48 8b 7c 24 18       	mov    0x18(%rsp),%rdi
    3590:	48 8b 4c 24 20       	mov    0x20(%rsp),%rcx
    3595:	85 c0                	test   %eax,%eax
    3597:	4c 8b 5c 24 28       	mov    0x28(%rsp),%r11
    359c:	44 8b 54 24 30       	mov    0x30(%rsp),%r10d
    35a1:	74 1f                	je     35c2 <parse_switches.constprop.0+0x732>
/home/tenebris/Disk/Documents/RootCauseAnalysis/evaluation/test_bin/libjpeg/libjpeg_heap_buffer_overflow/libjpeg-turbo/cjpeg.c:341
      cinfo->optimize_coding = TRUE;
    35a3:	c7 85 08 01 00 00 01 	movl   $0x1,0x108(%rbp)
    35aa:	00 00 00 
    35ad:	e9 9d fa ff ff       	jmp    304f <parse_switches.constprop.0+0x1bf>
/home/tenebris/Disk/Documents/RootCauseAnalysis/evaluation/test_bin/libjpeg/libjpeg_heap_buffer_overflow/libjpeg-turbo/cjpeg.c:335
        lval *= 1000L;
    35b2:	48 69 44 24 48 e8 03 	imul   $0x3e8,0x48(%rsp),%rax
    35b9:	00 00 
    35bb:	48 89 44 24 48       	mov    %rax,0x48(%rsp)
    35c0:	eb 90                	jmp    3552 <parse_switches.constprop.0+0x6c2>
/home/tenebris/Disk/Documents/RootCauseAnalysis/evaluation/test_bin/libjpeg/libjpeg_heap_buffer_overflow/libjpeg-turbo/cjpeg.c:338
    } else if (keymatch(arg, "optimize", 1) || keymatch(arg, "optimise", 1)) {
    35c2:	ba 01 00 00 00       	mov    $0x1,%edx
    35c7:	48 8d 35 58 5b 00 00 	lea    0x5b58(%rip),%rsi        # 9126 <_IO_stdin_used+0x126>
    35ce:	44 89 54 24 30       	mov    %r10d,0x30(%rsp)
    35d3:	4c 89 5c 24 28       	mov    %r11,0x28(%rsp)
    35d8:	48 89 7c 24 18       	mov    %rdi,0x18(%rsp)
    35dd:	48 89 4c 24 20       	mov    %rcx,0x20(%rsp)
    35e2:	e8 19 04 00 00       	call   3a00 <keymatch>
    35e7:	48 8b 7c 24 18       	mov    0x18(%rsp),%rdi
    35ec:	4c 8b 5c 24 28       	mov    0x28(%rsp),%r11
    35f1:	85 c0                	test   %eax,%eax
    35f3:	44 8b 54 24 30       	mov    0x30(%rsp),%r10d
    35f8:	75 a9                	jne    35a3 <parse_switches.constprop.0+0x713>
/home/tenebris/Disk/Documents/RootCauseAnalysis/evaluation/test_bin/libjpeg/libjpeg_heap_buffer_overflow/libjpeg-turbo/cjpeg.c:348
    } else if (keymatch(arg, "outfile", 4)) {
    35fa:	ba 04 00 00 00       	mov    $0x4,%edx
    35ff:	48 8d 35 29 5b 00 00 	lea    0x5b29(%rip),%rsi        # 912f <_IO_stdin_used+0x12f>
    3606:	e8 f5 03 00 00       	call   3a00 <keymatch>
    360b:	48 8b 7c 24 18       	mov    0x18(%rsp),%rdi
    3610:	48 8b 4c 24 20       	mov    0x20(%rsp),%rcx
    3615:	85 c0                	test   %eax,%eax
    3617:	4c 8b 5c 24 28       	mov    0x28(%rsp),%r11
    361c:	44 8b 54 24 30       	mov    0x30(%rsp),%r10d
    3621:	74 1e                	je     3641 <parse_switches.constprop.0+0x7b1>
/home/tenebris/Disk/Documents/RootCauseAnalysis/evaluation/test_bin/libjpeg/libjpeg_heap_buffer_overflow/libjpeg-turbo/cjpeg.c:350
      if (++argn >= argc)       /* advance to next argument */
    3623:	41 83 c4 01          	add    $0x1,%r12d
    3627:	45 39 e5             	cmp    %r12d,%r13d
    362a:	0f 8e 80 fa ff ff    	jle    30b0 <parse_switches.constprop.0+0x220>
/home/tenebris/Disk/Documents/RootCauseAnalysis/evaluation/test_bin/libjpeg/libjpeg_heap_buffer_overflow/libjpeg-turbo/cjpeg.c:352
      outfilename = argv[argn]; /* save it away for later use */
    3630:	48 8b 44 0b 08       	mov    0x8(%rbx,%rcx,1),%rax
    3635:	48 89 05 1c 9a 00 00 	mov    %rax,0x9a1c(%rip)        # d058 <outfilename>
    363c:	e9 0e fa ff ff       	jmp    304f <parse_switches.constprop.0+0x1bf>
/home/tenebris/Disk/Documents/RootCauseAnalysis/evaluation/test_bin/libjpeg/libjpeg_heap_buffer_overflow/libjpeg-turbo/cjpeg.c:354
    } else if (keymatch(arg, "progressive", 1)) {
    3641:	ba 01 00 00 00       	mov    $0x1,%edx
    3646:	48 8d 35 ea 5a 00 00 	lea    0x5aea(%rip),%rsi        # 9137 <_IO_stdin_used+0x137>
    364d:	44 89 54 24 30       	mov    %r10d,0x30(%rsp)
    3652:	4c 89 5c 24 28       	mov    %r11,0x28(%rsp)
    3657:	48 89 7c 24 18       	mov    %rdi,0x18(%rsp)
    365c:	48 89 4c 24 20       	mov    %rcx,0x20(%rsp)
    3661:	e8 9a 03 00 00       	call   3a00 <keymatch>
    3666:	48 8b 7c 24 18       	mov    0x18(%rsp),%rdi
    366b:	4c 8b 5c 24 28       	mov    0x28(%rsp),%r11
    3670:	85 c0                	test   %eax,%eax
    3672:	44 8b 54 24 30       	mov    0x30(%rsp),%r10d
    3677:	74 0d                	je     3686 <parse_switches.constprop.0+0x7f6>
/home/tenebris/Disk/Documents/RootCauseAnalysis/evaluation/test_bin/libjpeg/libjpeg_heap_buffer_overflow/libjpeg-turbo/cjpeg.c:357
      simple_progressive = TRUE;
    3679:	c7 44 24 38 01 00 00 	movl   $0x1,0x38(%rsp)
    3680:	00 
    3681:	e9 c9 f9 ff ff       	jmp    304f <parse_switches.constprop.0+0x1bf>
/home/tenebris/Disk/Documents/RootCauseAnalysis/evaluation/test_bin/libjpeg/libjpeg_heap_buffer_overflow/libjpeg-turbo/cjpeg.c:365
    } else if (keymatch(arg, "memdst", 2)) {
    3686:	ba 02 00 00 00       	mov    $0x2,%edx
    368b:	48 8d 35 b1 5a 00 00 	lea    0x5ab1(%rip),%rsi        # 9143 <_IO_stdin_used+0x143>
    3692:	e8 69 03 00 00       	call   3a00 <keymatch>
    3697:	48 8b 7c 24 18       	mov    0x18(%rsp),%rdi
    369c:	48 8b 4c 24 20       	mov    0x20(%rsp),%rcx
    36a1:	85 c0                	test   %eax,%eax
    36a3:	4c 8b 5c 24 28       	mov    0x28(%rsp),%r11
    36a8:	44 8b 54 24 30       	mov    0x30(%rsp),%r10d
    36ad:	74 0f                	je     36be <parse_switches.constprop.0+0x82e>
/home/tenebris/Disk/Documents/RootCauseAnalysis/evaluation/test_bin/libjpeg/libjpeg_heap_buffer_overflow/libjpeg-turbo/cjpeg.c:368
      memdst = TRUE;
    36af:	c7 05 97 99 00 00 01 	movl   $0x1,0x9997(%rip)        # d050 <memdst>
    36b6:	00 00 00 
    36b9:	e9 91 f9 ff ff       	jmp    304f <parse_switches.constprop.0+0x1bf>
/home/tenebris/Disk/Documents/RootCauseAnalysis/evaluation/test_bin/libjpeg/libjpeg_heap_buffer_overflow/libjpeg-turbo/cjpeg.c:375
    } else if (keymatch(arg, "quality", 1)) {
    36be:	ba 01 00 00 00       	mov    $0x1,%edx
    36c3:	48 8d 35 80 5a 00 00 	lea    0x5a80(%rip),%rsi        # 914a <_IO_stdin_used+0x14a>
    36ca:	44 89 54 24 30       	mov    %r10d,0x30(%rsp)
    36cf:	4c 89 5c 24 28       	mov    %r11,0x28(%rsp)
    36d4:	48 89 4c 24 20       	mov    %rcx,0x20(%rsp)
    36d9:	48 89 7c 24 18       	mov    %rdi,0x18(%rsp)
    36de:	e8 1d 03 00 00       	call   3a00 <keymatch>
    36e3:	48 8b 7c 24 18       	mov    0x18(%rsp),%rdi
    36e8:	48 8b 4c 24 20       	mov    0x20(%rsp),%rcx
    36ed:	85 c0                	test   %eax,%eax
    36ef:	4c 8b 5c 24 28       	mov    0x28(%rsp),%r11
    36f4:	44 8b 54 24 30       	mov    0x30(%rsp),%r10d
    36f9:	74 17                	je     3712 <parse_switches.constprop.0+0x882>
/home/tenebris/Disk/Documents/RootCauseAnalysis/evaluation/test_bin/libjpeg/libjpeg_heap_buffer_overflow/libjpeg-turbo/cjpeg.c:377
      if (++argn >= argc)       /* advance to next argument */
    36fb:	41 83 c4 01          	add    $0x1,%r12d
    36ff:	45 39 e5             	cmp    %r12d,%r13d
    3702:	0f 8e a8 f9 ff ff    	jle    30b0 <parse_switches.constprop.0+0x220>
/home/tenebris/Disk/Documents/RootCauseAnalysis/evaluation/test_bin/libjpeg/libjpeg_heap_buffer_overflow/libjpeg-turbo/cjpeg.c:379
      qualityarg = argv[argn];
    3708:	4c 8b 5c 0b 08       	mov    0x8(%rbx,%rcx,1),%r11
    370d:	e9 3d f9 ff ff       	jmp    304f <parse_switches.constprop.0+0x1bf>
/home/tenebris/Disk/Documents/RootCauseAnalysis/evaluation/test_bin/libjpeg/libjpeg_heap_buffer_overflow/libjpeg-turbo/cjpeg.c:381
    } else if (keymatch(arg, "qslots", 2)) {
    3712:	ba 02 00 00 00       	mov    $0x2,%edx
    3717:	48 8d 35 34 5a 00 00 	lea    0x5a34(%rip),%rsi        # 9152 <_IO_stdin_used+0x152>
    371e:	44 89 54 24 30       	mov    %r10d,0x30(%rsp)
    3723:	4c 89 5c 24 28       	mov    %r11,0x28(%rsp)
    3728:	48 89 4c 24 20       	mov    %rcx,0x20(%rsp)
    372d:	48 89 7c 24 18       	mov    %rdi,0x18(%rsp)
    3732:	e8 c9 02 00 00       	call   3a00 <keymatch>
    3737:	48 8b 7c 24 18       	mov    0x18(%rsp),%rdi
    373c:	48 8b 4c 24 20       	mov    0x20(%rsp),%rcx
    3741:	85 c0                	test   %eax,%eax
    3743:	4c 8b 5c 24 28       	mov    0x28(%rsp),%r11
    3748:	44 8b 54 24 30       	mov    0x30(%rsp),%r10d
    374d:	74 1c                	je     376b <parse_switches.constprop.0+0x8db>
/home/tenebris/Disk/Documents/RootCauseAnalysis/evaluation/test_bin/libjpeg/libjpeg_heap_buffer_overflow/libjpeg-turbo/cjpeg.c:383
      if (++argn >= argc)       /* advance to next argument */
    374f:	41 83 c4 01          	add    $0x1,%r12d
    3753:	45 39 e5             	cmp    %r12d,%r13d
    3756:	0f 8e 54 f9 ff ff    	jle    30b0 <parse_switches.constprop.0+0x220>
/home/tenebris/Disk/Documents/RootCauseAnalysis/evaluation/test_bin/libjpeg/libjpeg_heap_buffer_overflow/libjpeg-turbo/cjpeg.c:385
      qslotsarg = argv[argn];
    375c:	48 8b 44 0b 08       	mov    0x8(%rbx,%rcx,1),%rax
    3761:	48 89 44 24 08       	mov    %rax,0x8(%rsp)
    3766:	e9 e4 f8 ff ff       	jmp    304f <parse_switches.constprop.0+0x1bf>
/home/tenebris/Disk/Documents/RootCauseAnalysis/evaluation/test_bin/libjpeg/libjpeg_heap_buffer_overflow/libjpeg-turbo/cjpeg.c:391
    } else if (keymatch(arg, "qtables", 2)) {
    376b:	ba 02 00 00 00       	mov    $0x2,%edx
    3770:	48 8d 35 e2 59 00 00 	lea    0x59e2(%rip),%rsi        # 9159 <_IO_stdin_used+0x159>
    3777:	44 89 54 24 30       	mov    %r10d,0x30(%rsp)
    377c:	4c 89 5c 24 28       	mov    %r11,0x28(%rsp)
    3781:	48 89 4c 24 20       	mov    %rcx,0x20(%rsp)
    3786:	48 89 7c 24 18       	mov    %rdi,0x18(%rsp)
    378b:	e8 70 02 00 00       	call   3a00 <keymatch>
    3790:	48 8b 7c 24 18       	mov    0x18(%rsp),%rdi
    3795:	48 8b 4c 24 20       	mov    0x20(%rsp),%rcx
    379a:	85 c0                	test   %eax,%eax
    379c:	4c 8b 5c 24 28       	mov    0x28(%rsp),%r11
    37a1:	44 8b 54 24 30       	mov    0x30(%rsp),%r10d
    37a6:	74 1c                	je     37c4 <parse_switches.constprop.0+0x934>
/home/tenebris/Disk/Documents/RootCauseAnalysis/evaluation/test_bin/libjpeg/libjpeg_heap_buffer_overflow/libjpeg-turbo/cjpeg.c:393
      if (++argn >= argc)       /* advance to next argument */
    37a8:	41 83 c4 01          	add    $0x1,%r12d
    37ac:	45 39 e5             	cmp    %r12d,%r13d
    37af:	0f 8e fb f8 ff ff    	jle    30b0 <parse_switches.constprop.0+0x220>
/home/tenebris/Disk/Documents/RootCauseAnalysis/evaluation/test_bin/libjpeg/libjpeg_heap_buffer_overflow/libjpeg-turbo/cjpeg.c:395
      qtablefile = argv[argn];
    37b5:	48 8b 44 0b 08       	mov    0x8(%rbx,%rcx,1),%rax
    37ba:	48 89 44 24 10       	mov    %rax,0x10(%rsp)
    37bf:	e9 8b f8 ff ff       	jmp    304f <parse_switches.constprop.0+0x1bf>
/home/tenebris/Disk/Documents/RootCauseAnalysis/evaluation/test_bin/libjpeg/libjpeg_heap_buffer_overflow/libjpeg-turbo/cjpeg.c:398
    } else if (keymatch(arg, "restart", 1)) {
    37c4:	ba 01 00 00 00       	mov    $0x1,%edx
    37c9:	48 8d 35 91 59 00 00 	lea    0x5991(%rip),%rsi        # 9161 <_IO_stdin_used+0x161>
    37d0:	44 89 54 24 3c       	mov    %r10d,0x3c(%rsp)
    37d5:	4c 89 5c 24 30       	mov    %r11,0x30(%rsp)
    37da:	48 89 4c 24 20       	mov    %rcx,0x20(%rsp)
    37df:	48 89 7c 24 18       	mov    %rdi,0x18(%rsp)
    37e4:	89 44 24 28          	mov    %eax,0x28(%rsp)
    37e8:	e8 13 02 00 00       	call   3a00 <keymatch>
    37ed:	48 8b 7c 24 18       	mov    0x18(%rsp),%rdi
    37f2:	48 8b 4c 24 20       	mov    0x20(%rsp),%rcx
    37f7:	85 c0                	test   %eax,%eax
    37f9:	4c 8b 5c 24 30       	mov    0x30(%rsp),%r11
    37fe:	44 8b 54 24 3c       	mov    0x3c(%rsp),%r10d
    3803:	0f 84 86 00 00 00    	je     388f <parse_switches.constprop.0+0x9ff>
/home/tenebris/Disk/Documents/RootCauseAnalysis/evaluation/test_bin/libjpeg/libjpeg_heap_buffer_overflow/libjpeg-turbo/cjpeg.c:403
      if (++argn >= argc)       /* advance to next argument */
    3809:	41 83 c4 01          	add    $0x1,%r12d
    380d:	44 89 54 24 20       	mov    %r10d,0x20(%rsp)
    3812:	4c 89 5c 24 18       	mov    %r11,0x18(%rsp)
/home/tenebris/Disk/Documents/RootCauseAnalysis/evaluation/test_bin/libjpeg/libjpeg_heap_buffer_overflow/libjpeg-turbo/cjpeg.c:401
      char ch = 'x';
    3817:	c6 44 24 43 78       	movb   $0x78,0x43(%rsp)
/home/tenebris/Disk/Documents/RootCauseAnalysis/evaluation/test_bin/libjpeg/libjpeg_heap_buffer_overflow/libjpeg-turbo/cjpeg.c:403
      if (++argn >= argc)       /* advance to next argument */
    381c:	45 39 e5             	cmp    %r12d,%r13d
    381f:	0f 8e 8b f8 ff ff    	jle    30b0 <parse_switches.constprop.0+0x220>
/home/tenebris/Disk/Documents/RootCauseAnalysis/evaluation/test_bin/libjpeg/libjpeg_heap_buffer_overflow/libjpeg-turbo/cjpeg.c:405
      if (sscanf(argv[argn], "%ld%c", &lval, &ch) < 1)
    3825:	48 8b 7c 0b 08       	mov    0x8(%rbx,%rcx,1),%rdi
    382a:	4c 8d 4c 24 43       	lea    0x43(%rsp),%r9
    382f:	31 c0                	xor    %eax,%eax
    3831:	48 8d 54 24 50       	lea    0x50(%rsp),%rdx
    3836:	4c 89 c9             	mov    %r9,%rcx
    3839:	48 8d 35 d7 58 00 00 	lea    0x58d7(%rip),%rsi        # 9117 <_IO_stdin_used+0x117>
    3840:	e8 0b eb ff ff       	call   2350 <__isoc99_sscanf@plt>
    3845:	85 c0                	test   %eax,%eax
    3847:	0f 8e 63 f8 ff ff    	jle    30b0 <parse_switches.constprop.0+0x220>
/home/tenebris/Disk/Documents/RootCauseAnalysis/evaluation/test_bin/libjpeg/libjpeg_heap_buffer_overflow/libjpeg-turbo/cjpeg.c:407
      if (lval < 0 || lval > 65535L)
    384d:	48 8b 44 24 50       	mov    0x50(%rsp),%rax
    3852:	48 3d ff ff 00 00    	cmp    $0xffff,%rax
    3858:	0f 87 52 f8 ff ff    	ja     30b0 <parse_switches.constprop.0+0x220>
/home/tenebris/Disk/Documents/RootCauseAnalysis/evaluation/test_bin/libjpeg/libjpeg_heap_buffer_overflow/libjpeg-turbo/cjpeg.c:409
      if (ch == 'b' || ch == 'B') {
    385e:	0f b6 54 24 43       	movzbl 0x43(%rsp),%edx
    3863:	4c 8b 5c 24 18       	mov    0x18(%rsp),%r11
/home/tenebris/Disk/Documents/RootCauseAnalysis/evaluation/test_bin/libjpeg/libjpeg_heap_buffer_overflow/libjpeg-turbo/cjpeg.c:413
        cinfo->restart_in_rows = (int)lval;
    3868:	41 89 c0             	mov    %eax,%r8d
/home/tenebris/Disk/Documents/RootCauseAnalysis/evaluation/test_bin/libjpeg/libjpeg_heap_buffer_overflow/libjpeg-turbo/cjpeg.c:409
      if (ch == 'b' || ch == 'B') {
    386b:	44 8b 54 24 20       	mov    0x20(%rsp),%r10d
    3870:	83 e2 df             	and    $0xffffffdf,%edx
    3873:	80 fa 42             	cmp    $0x42,%dl
    3876:	75 0b                	jne    3883 <parse_switches.constprop.0+0x9f3>
/home/tenebris/Disk/Documents/RootCauseAnalysis/evaluation/test_bin/libjpeg/libjpeg_heap_buffer_overflow/libjpeg-turbo/cjpeg.c:410
        cinfo->restart_interval = (unsigned int)lval;
    3878:	89 85 18 01 00 00    	mov    %eax,0x118(%rbp)
/home/tenebris/Disk/Documents/RootCauseAnalysis/evaluation/test_bin/libjpeg/libjpeg_heap_buffer_overflow/libjpeg-turbo/cjpeg.c:411
        cinfo->restart_in_rows = 0; /* else prior '-restart n' overrides me */
    387e:	44 8b 44 24 28       	mov    0x28(%rsp),%r8d
    3883:	44 89 85 1c 01 00 00 	mov    %r8d,0x11c(%rbp)
    388a:	e9 c0 f7 ff ff       	jmp    304f <parse_switches.constprop.0+0x1bf>
/home/tenebris/Disk/Documents/RootCauseAnalysis/evaluation/test_bin/libjpeg/libjpeg_heap_buffer_overflow/libjpeg-turbo/cjpeg.c:417
    } else if (keymatch(arg, "sample", 2)) {
    388f:	ba 02 00 00 00       	mov    $0x2,%edx
    3894:	48 8d 35 ce 58 00 00 	lea    0x58ce(%rip),%rsi        # 9169 <_IO_stdin_used+0x169>
    389b:	44 89 54 24 30       	mov    %r10d,0x30(%rsp)
    38a0:	4c 89 5c 24 28       	mov    %r11,0x28(%rsp)
    38a5:	48 89 4c 24 20       	mov    %rcx,0x20(%rsp)
    38aa:	48 89 7c 24 18       	mov    %rdi,0x18(%rsp)
    38af:	e8 4c 01 00 00       	call   3a00 <keymatch>
    38b4:	48 8b 7c 24 18       	mov    0x18(%rsp),%rdi
    38b9:	48 8b 4c 24 20       	mov    0x20(%rsp),%rcx
    38be:	85 c0                	test   %eax,%eax
    38c0:	4c 8b 5c 24 28       	mov    0x28(%rsp),%r11
    38c5:	44 8b 54 24 30       	mov    0x30(%rsp),%r10d
    38ca:	74 17                	je     38e3 <parse_switches.constprop.0+0xa53>
/home/tenebris/Disk/Documents/RootCauseAnalysis/evaluation/test_bin/libjpeg/libjpeg_heap_buffer_overflow/libjpeg-turbo/cjpeg.c:419
      if (++argn >= argc)       /* advance to next argument */
    38cc:	41 83 c4 01          	add    $0x1,%r12d
    38d0:	45 39 e5             	cmp    %r12d,%r13d
    38d3:	0f 8e d7 f7 ff ff    	jle    30b0 <parse_switches.constprop.0+0x220>
/home/tenebris/Disk/Documents/RootCauseAnalysis/evaluation/test_bin/libjpeg/libjpeg_heap_buffer_overflow/libjpeg-turbo/cjpeg.c:421
      samplearg = argv[argn];
    38d9:	4c 8b 74 0b 08       	mov    0x8(%rbx,%rcx,1),%r14
    38de:	e9 6c f7 ff ff       	jmp    304f <parse_switches.constprop.0+0x1bf>
/home/tenebris/Disk/Documents/RootCauseAnalysis/evaluation/test_bin/libjpeg/libjpeg_heap_buffer_overflow/libjpeg-turbo/cjpeg.c:427
    } else if (keymatch(arg, "scans", 4)) {
    38e3:	ba 04 00 00 00       	mov    $0x4,%edx
    38e8:	48 8d 35 81 58 00 00 	lea    0x5881(%rip),%rsi        # 9170 <_IO_stdin_used+0x170>
    38ef:	44 89 54 24 30       	mov    %r10d,0x30(%rsp)
    38f4:	4c 89 5c 24 28       	mov    %r11,0x28(%rsp)
    38f9:	48 89 4c 24 20       	mov    %rcx,0x20(%rsp)
    38fe:	48 89 7c 24 18       	mov    %rdi,0x18(%rsp)
    3903:	e8 f8 00 00 00       	call   3a00 <keymatch>
    3908:	48 8b 7c 24 18       	mov    0x18(%rsp),%rdi
    390d:	48 8b 4c 24 20       	mov    0x20(%rsp),%rcx
    3912:	85 c0                	test   %eax,%eax
    3914:	4c 8b 5c 24 28       	mov    0x28(%rsp),%r11
    3919:	44 8b 54 24 30       	mov    0x30(%rsp),%r10d
    391e:	74 17                	je     3937 <parse_switches.constprop.0+0xaa7>
/home/tenebris/Disk/Documents/RootCauseAnalysis/evaluation/test_bin/libjpeg/libjpeg_heap_buffer_overflow/libjpeg-turbo/cjpeg.c:430
      if (++argn >= argc)       /* advance to next argument */
    3920:	41 83 c4 01          	add    $0x1,%r12d
    3924:	45 39 e5             	cmp    %r12d,%r13d
    3927:	0f 8e 83 f7 ff ff    	jle    30b0 <parse_switches.constprop.0+0x220>
/home/tenebris/Disk/Documents/RootCauseAnalysis/evaluation/test_bin/libjpeg/libjpeg_heap_buffer_overflow/libjpeg-turbo/cjpeg.c:432
      scansarg = argv[argn];
    392d:	4c 8b 7c 0b 08       	mov    0x8(%rbx,%rcx,1),%r15
    3932:	e9 18 f7 ff ff       	jmp    304f <parse_switches.constprop.0+0x1bf>
/home/tenebris/Disk/Documents/RootCauseAnalysis/evaluation/test_bin/libjpeg/libjpeg_heap_buffer_overflow/libjpeg-turbo/cjpeg.c:440
    } else if (keymatch(arg, "smooth", 2)) {
    3937:	ba 02 00 00 00       	mov    $0x2,%edx
    393c:	48 8d 35 33 58 00 00 	lea    0x5833(%rip),%rsi        # 9176 <_IO_stdin_used+0x176>
    3943:	44 89 54 24 30       	mov    %r10d,0x30(%rsp)
    3948:	4c 89 5c 24 20       	mov    %r11,0x20(%rsp)
    394d:	48 89 7c 24 18       	mov    %rdi,0x18(%rsp)
    3952:	48 89 4c 24 28       	mov    %rcx,0x28(%rsp)
    3957:	e8 a4 00 00 00       	call   3a00 <keymatch>
    395c:	4c 8b 5c 24 20       	mov    0x20(%rsp),%r11
    3961:	44 8b 54 24 30       	mov    0x30(%rsp),%r10d
    3966:	85 c0                	test   %eax,%eax
    3968:	48 8b 7c 24 18       	mov    0x18(%rsp),%rdi
    396d:	44 89 54 24 20       	mov    %r10d,0x20(%rsp)
    3972:	4c 89 5c 24 18       	mov    %r11,0x18(%rsp)
    3977:	74 55                	je     39ce <parse_switches.constprop.0+0xb3e>
/home/tenebris/Disk/Documents/RootCauseAnalysis/evaluation/test_bin/libjpeg/libjpeg_heap_buffer_overflow/libjpeg-turbo/cjpeg.c:444
      if (++argn >= argc)       /* advance to next argument */
    3979:	41 83 c4 01          	add    $0x1,%r12d
    397d:	45 39 e5             	cmp    %r12d,%r13d
    3980:	0f 8e 2a f7 ff ff    	jle    30b0 <parse_switches.constprop.0+0x220>
/home/tenebris/Disk/Documents/RootCauseAnalysis/evaluation/test_bin/libjpeg/libjpeg_heap_buffer_overflow/libjpeg-turbo/cjpeg.c:446
      if (sscanf(argv[argn], "%d", &val) != 1)
    3986:	48 8b 4c 24 28       	mov    0x28(%rsp),%rcx
    398b:	31 c0                	xor    %eax,%eax
    398d:	48 8d 54 24 44       	lea    0x44(%rsp),%rdx
    3992:	48 8d 35 ac 58 00 00 	lea    0x58ac(%rip),%rsi        # 9245 <_IO_stdin_used+0x245>
    3999:	48 8b 7c 0b 08       	mov    0x8(%rbx,%rcx,1),%rdi
    399e:	e8 ad e9 ff ff       	call   2350 <__isoc99_sscanf@plt>
    39a3:	83 e8 01             	sub    $0x1,%eax
    39a6:	0f 85 04 f7 ff ff    	jne    30b0 <parse_switches.constprop.0+0x220>
/home/tenebris/Disk/Documents/RootCauseAnalysis/evaluation/test_bin/libjpeg/libjpeg_heap_buffer_overflow/libjpeg-turbo/cjpeg.c:448
      if (val < 0 || val > 100)
    39ac:	8b 44 24 44          	mov    0x44(%rsp),%eax
    39b0:	83 f8 64             	cmp    $0x64,%eax
    39b3:	0f 87 f7 f6 ff ff    	ja     30b0 <parse_switches.constprop.0+0x220>
/home/tenebris/Disk/Documents/RootCauseAnalysis/evaluation/test_bin/libjpeg/libjpeg_heap_buffer_overflow/libjpeg-turbo/cjpeg.c:450
      cinfo->smoothing_factor = val;
    39b9:	4c 8b 5c 24 18       	mov    0x18(%rsp),%r11
    39be:	44 8b 54 24 20       	mov    0x20(%rsp),%r10d
    39c3:	89 85 10 01 00 00    	mov    %eax,0x110(%rbp)
    39c9:	e9 81 f6 ff ff       	jmp    304f <parse_switches.constprop.0+0x1bf>
/home/tenebris/Disk/Documents/RootCauseAnalysis/evaluation/test_bin/libjpeg/libjpeg_heap_buffer_overflow/libjpeg-turbo/cjpeg.c:452
    } else if (keymatch(arg, "targa", 1)) {
    39ce:	ba 01 00 00 00       	mov    $0x1,%edx
    39d3:	48 8d 35 a3 57 00 00 	lea    0x57a3(%rip),%rsi        # 917d <_IO_stdin_used+0x17d>
    39da:	e8 21 00 00 00       	call   3a00 <keymatch>
    39df:	85 c0                	test   %eax,%eax
    39e1:	0f 84 c9 f6 ff ff    	je     30b0 <parse_switches.constprop.0+0x220>
/home/tenebris/Disk/Documents/RootCauseAnalysis/evaluation/test_bin/libjpeg/libjpeg_heap_buffer_overflow/libjpeg-turbo/cjpeg.c:454
      is_targa = TRUE;
    39e7:	c7 05 7f 96 00 00 01 	movl   $0x1,0x967f(%rip)        # d070 <is_targa>
    39ee:	00 00 00 
    39f1:	4c 8b 5c 24 18       	mov    0x18(%rsp),%r11
    39f6:	44 8b 54 24 20       	mov    0x20(%rsp),%r10d
    39fb:	e9 4f f6 ff ff       	jmp    304f <parse_switches.constprop.0+0x1bf>

0000000000003a00 <keymatch>:
keymatch():
/home/tenebris/Disk/Documents/RootCauseAnalysis/evaluation/test_bin/libjpeg/libjpeg_heap_buffer_overflow/libjpeg-turbo/cdjpeg.c:87
 * minchars is length of minimum legal abbreviation.
 */

GLOBAL(boolean)
keymatch(char *arg, const char *keyword, int minchars)
{
    3a00:	f3 0f 1e fa          	endbr64 
    3a04:	41 57                	push   %r15
    3a06:	41 56                	push   %r14
    3a08:	41 55                	push   %r13
    3a0a:	41 54                	push   %r12
    3a0c:	55                   	push   %rbp
    3a0d:	53                   	push   %rbx
    3a0e:	48 83 ec 18          	sub    $0x18,%rsp
/home/tenebris/Disk/Documents/RootCauseAnalysis/evaluation/test_bin/libjpeg/libjpeg_heap_buffer_overflow/libjpeg-turbo/cdjpeg.c:91
  register int ca, ck;
  register int nmatched = 0;

  while ((ca = *arg++) != '\0') {
    3a12:	4c 0f be 3f          	movsbq (%rdi),%r15
/home/tenebris/Disk/Documents/RootCauseAnalysis/evaluation/test_bin/libjpeg/libjpeg_heap_buffer_overflow/libjpeg-turbo/cdjpeg.c:87
{
    3a16:	89 54 24 0c          	mov    %edx,0xc(%rsp)
/home/tenebris/Disk/Documents/RootCauseAnalysis/evaluation/test_bin/libjpeg/libjpeg_heap_buffer_overflow/libjpeg-turbo/cdjpeg.c:91
  while ((ca = *arg++) != '\0') {
    3a1a:	45 85 ff             	test   %r15d,%r15d
    3a1d:	74 64                	je     3a83 <keymatch+0x83>
    3a1f:	49 89 fc             	mov    %rdi,%r12
    3a22:	49 89 f5             	mov    %rsi,%r13
    3a25:	4c 89 fb             	mov    %r15,%rbx
    3a28:	31 ed                	xor    %ebp,%ebp
    3a2a:	eb 3a                	jmp    3a66 <keymatch+0x66>
    3a2c:	0f 1f 40 00          	nopl   0x0(%rax)
/home/tenebris/Disk/Documents/RootCauseAnalysis/evaluation/test_bin/libjpeg/libjpeg_heap_buffer_overflow/libjpeg-turbo/cdjpeg.c:94
    if ((ck = *keyword++) == '\0')
      return FALSE;             /* arg longer than keyword, no good */
    if (isupper(ca))            /* force arg to lcase (assume ck is already) */
    3a30:	e8 3b ea ff ff       	call   2470 <__ctype_b_loc@plt>
    3a35:	48 8b 00             	mov    (%rax),%rax
    3a38:	f6 44 58 01 01       	testb  $0x1,0x1(%rax,%rbx,2)
    3a3d:	74 0c                	je     3a4b <keymatch+0x4b>
tolower():
/usr/include/ctype.h:209

# ifdef __USE_EXTERN_INLINES
__extern_inline int
__NTH (tolower (int __c))
{
  return __c >= -128 && __c < 256 ? (*__ctype_tolower_loc ())[__c] : __c;
    3a3f:	e8 1c ea ff ff       	call   2460 <__ctype_tolower_loc@plt>
    3a44:	48 8b 00             	mov    (%rax),%rax
    3a47:	44 8b 3c 98          	mov    (%rax,%rbx,4),%r15d
keymatch():
/home/tenebris/Disk/Documents/RootCauseAnalysis/evaluation/test_bin/libjpeg/libjpeg_heap_buffer_overflow/libjpeg-turbo/cdjpeg.c:96
      ca = tolower(ca);
    if (ca != ck)
    3a4b:	45 39 f7             	cmp    %r14d,%r15d
    3a4e:	75 48                	jne    3a98 <keymatch+0x98>
/home/tenebris/Disk/Documents/RootCauseAnalysis/evaluation/test_bin/libjpeg/libjpeg_heap_buffer_overflow/libjpeg-turbo/cdjpeg.c:91
  while ((ca = *arg++) != '\0') {
    3a50:	49 0f be 5c 2c 01    	movsbq 0x1(%r12,%rbp,1),%rbx
    3a56:	8d 45 01             	lea    0x1(%rbp),%eax
    3a59:	48 83 c5 01          	add    $0x1,%rbp
    3a5d:	44 0f be fb          	movsbl %bl,%r15d
    3a61:	45 85 ff             	test   %r15d,%r15d
    3a64:	74 22                	je     3a88 <keymatch+0x88>
/home/tenebris/Disk/Documents/RootCauseAnalysis/evaluation/test_bin/libjpeg/libjpeg_heap_buffer_overflow/libjpeg-turbo/cdjpeg.c:92
    if ((ck = *keyword++) == '\0')
    3a66:	45 0f be 74 2d 00    	movsbl 0x0(%r13,%rbp,1),%r14d
    3a6c:	45 85 f6             	test   %r14d,%r14d
    3a6f:	75 bf                	jne    3a30 <keymatch+0x30>
/home/tenebris/Disk/Documents/RootCauseAnalysis/evaluation/test_bin/libjpeg/libjpeg_heap_buffer_overflow/libjpeg-turbo/cdjpeg.c:104
  }
  /* reached end of argument; fail if it's too short for unique abbrev */
  if (nmatched < minchars)
    return FALSE;
  return TRUE;                  /* A-OK */
}
    3a71:	48 83 c4 18          	add    $0x18,%rsp
    3a75:	44 89 f0             	mov    %r14d,%eax
    3a78:	5b                   	pop    %rbx
    3a79:	5d                   	pop    %rbp
    3a7a:	41 5c                	pop    %r12
    3a7c:	41 5d                	pop    %r13
    3a7e:	41 5e                	pop    %r14
    3a80:	41 5f                	pop    %r15
    3a82:	c3                   	ret    
/home/tenebris/Disk/Documents/RootCauseAnalysis/evaluation/test_bin/libjpeg/libjpeg_heap_buffer_overflow/libjpeg-turbo/cdjpeg.c:89
  register int nmatched = 0;
    3a83:	31 c0                	xor    %eax,%eax
    3a85:	0f 1f 00             	nopl   (%rax)
/home/tenebris/Disk/Documents/RootCauseAnalysis/evaluation/test_bin/libjpeg/libjpeg_heap_buffer_overflow/libjpeg-turbo/cdjpeg.c:101
  if (nmatched < minchars)
    3a88:	45 31 f6             	xor    %r14d,%r14d
    3a8b:	39 44 24 0c          	cmp    %eax,0xc(%rsp)
    3a8f:	41 0f 9e c6          	setle  %r14b
    3a93:	eb dc                	jmp    3a71 <keymatch+0x71>
    3a95:	0f 1f 00             	nopl   (%rax)
/home/tenebris/Disk/Documents/RootCauseAnalysis/evaluation/test_bin/libjpeg/libjpeg_heap_buffer_overflow/libjpeg-turbo/cdjpeg.c:93
      return FALSE;             /* arg longer than keyword, no good */
    3a98:	45 31 f6             	xor    %r14d,%r14d
    3a9b:	eb d4                	jmp    3a71 <keymatch+0x71>
    3a9d:	0f 1f 00             	nopl   (%rax)

0000000000003aa0 <read_stdin>:
read_stdin():
/home/tenebris/Disk/Documents/RootCauseAnalysis/evaluation/test_bin/libjpeg/libjpeg_heap_buffer_overflow/libjpeg-turbo/cdjpeg.c:114
 * Non-Unix systems often require some hacking to get out of text mode.
 */

GLOBAL(FILE *)
read_stdin(void)
{
    3aa0:	f3 0f 1e fa          	endbr64 
/home/tenebris/Disk/Documents/RootCauseAnalysis/evaluation/test_bin/libjpeg/libjpeg_heap_buffer_overflow/libjpeg-turbo/cdjpeg.c:127
    fprintf(stderr, "Cannot reopen stdin\n");
    exit(EXIT_FAILURE);
  }
#endif
  return input_file;
}
    3aa4:	48 8b 05 85 95 00 00 	mov    0x9585(%rip),%rax        # d030 <stdin@GLIBC_2.2.5>
    3aab:	c3                   	ret    
    3aac:	0f 1f 40 00          	nopl   0x0(%rax)

0000000000003ab0 <write_stdout>:
write_stdout():
/home/tenebris/Disk/Documents/RootCauseAnalysis/evaluation/test_bin/libjpeg/libjpeg_heap_buffer_overflow/libjpeg-turbo/cdjpeg.c:132


GLOBAL(FILE *)
write_stdout(void)
{
    3ab0:	f3 0f 1e fa          	endbr64 
/home/tenebris/Disk/Documents/RootCauseAnalysis/evaluation/test_bin/libjpeg/libjpeg_heap_buffer_overflow/libjpeg-turbo/cdjpeg.c:145
    fprintf(stderr, "Cannot reopen stdout\n");
    exit(EXIT_FAILURE);
  }
#endif
  return output_file;
}
    3ab4:	48 8b 05 65 95 00 00 	mov    0x9565(%rip),%rax        # d020 <stdout@GLIBC_2.2.5>
    3abb:	c3                   	ret    
    3abc:	0f 1f 40 00          	nopl   0x0(%rax)

0000000000003ac0 <jinit_read_gif>:
jinit_read_gif():
/home/tenebris/Disk/Documents/RootCauseAnalysis/evaluation/test_bin/libjpeg/libjpeg_heap_buffer_overflow/libjpeg-turbo/rdgif.c:33
 * The module selection routine for GIF format input.
 */

GLOBAL(cjpeg_source_ptr)
jinit_read_gif(j_compress_ptr cinfo)
{
    3ac0:	f3 0f 1e fa          	endbr64 
    3ac4:	50                   	push   %rax
    3ac5:	58                   	pop    %rax
fprintf():
/usr/include/x86_64-linux-gnu/bits/stdio2.h:105
    3ac6:	48 8d 3d 03 65 00 00 	lea    0x6503(%rip),%rdi        # 9fd0 <_IO_stdin_used+0xfd0>
    3acd:	ba 34 00 00 00       	mov    $0x34,%edx
    3ad2:	be 01 00 00 00       	mov    $0x1,%esi
jinit_read_gif():
/home/tenebris/Disk/Documents/RootCauseAnalysis/evaluation/test_bin/libjpeg/libjpeg_heap_buffer_overflow/libjpeg-turbo/rdgif.c:33
    3ad7:	48 83 ec 08          	sub    $0x8,%rsp
fprintf():
/usr/include/x86_64-linux-gnu/bits/stdio2.h:105
    3adb:	48 8b 0d 5e 95 00 00 	mov    0x955e(%rip),%rcx        # d040 <stderr@GLIBC_2.2.5>
    3ae2:	e8 39 e9 ff ff       	call   2420 <fwrite@plt>
jinit_read_gif():
/home/tenebris/Disk/Documents/RootCauseAnalysis/evaluation/test_bin/libjpeg/libjpeg_heap_buffer_overflow/libjpeg-turbo/rdgif.c:35
  fprintf(stderr, "GIF input is unsupported for legal reasons.  Sorry.\n");
  exit(EXIT_FAILURE);
    3ae7:	bf 01 00 00 00       	mov    $0x1,%edi
    3aec:	e8 1f e9 ff ff       	call   2410 <exit@plt>
    3af1:	66 2e 0f 1f 84 00 00 	cs nopw 0x0(%rax,%rax,1)
    3af8:	00 00 00 
    3afb:	0f 1f 44 00 00       	nopl   0x0(%rax,%rax,1)

0000000000003b00 <finish_input_ppm>:
finish_input_ppm():
/home/tenebris/Disk/Documents/RootCauseAnalysis/evaluation/test_bin/libjpeg/libjpeg_heap_buffer_overflow/libjpeg-turbo/rdppm.c:741
 * Finish up at the end of the file.
 */

METHODDEF(void)
finish_input_ppm(j_compress_ptr cinfo, cjpeg_source_ptr sinfo)
{
    3b00:	f3 0f 1e fa          	endbr64 
/home/tenebris/Disk/Documents/RootCauseAnalysis/evaluation/test_bin/libjpeg/libjpeg_heap_buffer_overflow/libjpeg-turbo/rdppm.c:743
  /* no work */
}
    3b04:	c3                   	ret    
    3b05:	66 66 2e 0f 1f 84 00 	data16 cs nopw 0x0(%rax,%rax,1)
    3b0c:	00 00 00 00 

0000000000003b10 <get_scaled_gray_row>:
get_scaled_gray_row():
/home/tenebris/Disk/Documents/RootCauseAnalysis/evaluation/test_bin/libjpeg/libjpeg_heap_buffer_overflow/libjpeg-turbo/rdppm.c:318
{
    3b10:	f3 0f 1e fa          	endbr64 
    3b14:	41 54                	push   %r12
    3b16:	49 89 fc             	mov    %rdi,%r12
    3b19:	55                   	push   %rbp
    3b1a:	53                   	push   %rbx
fread():
/usr/include/x86_64-linux-gnu/bits/stdio2.h:293
    return __fread_alias (__ptr, __size, __n, __stream);
    3b1b:	48 8b 4e 18          	mov    0x18(%rsi),%rcx
get_scaled_gray_row():
/home/tenebris/Disk/Documents/RootCauseAnalysis/evaluation/test_bin/libjpeg/libjpeg_heap_buffer_overflow/libjpeg-turbo/rdppm.c:318
    3b1f:	48 89 f3             	mov    %rsi,%rbx
fread():
/usr/include/x86_64-linux-gnu/bits/stdio2.h:293
    3b22:	48 8b 56 40          	mov    0x40(%rsi),%rdx
    3b26:	48 8b 7e 30          	mov    0x30(%rsi),%rdi
get_scaled_gray_row():
/home/tenebris/Disk/Documents/RootCauseAnalysis/evaluation/test_bin/libjpeg/libjpeg_heap_buffer_overflow/libjpeg-turbo/rdppm.c:322
  register JSAMPLE *rescale = source->rescale;
    3b2a:	48 8b 6e 48          	mov    0x48(%rsi),%rbp
fread():
/usr/include/x86_64-linux-gnu/bits/stdio2.h:293
    3b2e:	be 01 00 00 00       	mov    $0x1,%esi
    3b33:	e8 48 e7 ff ff       	call   2280 <fread@plt>
get_scaled_gray_row():
/home/tenebris/Disk/Documents/RootCauseAnalysis/evaluation/test_bin/libjpeg/libjpeg_heap_buffer_overflow/libjpeg-turbo/rdppm.c:325
  if (!ReadOK(source->pub.input_file, source->iobuffer, source->buffer_width))
    3b38:	48 39 43 40          	cmp    %rax,0x40(%rbx)
    3b3c:	74 10                	je     3b4e <get_scaled_gray_row+0x3e>
/home/tenebris/Disk/Documents/RootCauseAnalysis/evaluation/test_bin/libjpeg/libjpeg_heap_buffer_overflow/libjpeg-turbo/rdppm.c:326
    ERREXIT(cinfo, JERR_INPUT_EOF);
    3b3e:	49 8b 04 24          	mov    (%r12),%rax
    3b42:	4c 89 e7             	mov    %r12,%rdi
    3b45:	c7 40 28 2b 00 00 00 	movl   $0x2b,0x28(%rax)
    3b4c:	ff 10                	call   *(%rax)
/home/tenebris/Disk/Documents/RootCauseAnalysis/evaluation/test_bin/libjpeg/libjpeg_heap_buffer_overflow/libjpeg-turbo/rdppm.c:327
  ptr = source->pub.buffer[0];
    3b4e:	48 8b 43 20          	mov    0x20(%rbx),%rax
/home/tenebris/Disk/Documents/RootCauseAnalysis/evaluation/test_bin/libjpeg/libjpeg_heap_buffer_overflow/libjpeg-turbo/rdppm.c:329
  for (col = cinfo->image_width; col > 0; col--) {
    3b52:	41 8b 4c 24 30       	mov    0x30(%r12),%ecx
/home/tenebris/Disk/Documents/RootCauseAnalysis/evaluation/test_bin/libjpeg/libjpeg_heap_buffer_overflow/libjpeg-turbo/rdppm.c:328
  bufferptr = source->iobuffer;
    3b57:	48 8b 7b 30          	mov    0x30(%rbx),%rdi
/home/tenebris/Disk/Documents/RootCauseAnalysis/evaluation/test_bin/libjpeg/libjpeg_heap_buffer_overflow/libjpeg-turbo/rdppm.c:327
  ptr = source->pub.buffer[0];
    3b5b:	48 8b 30             	mov    (%rax),%rsi
/home/tenebris/Disk/Documents/RootCauseAnalysis/evaluation/test_bin/libjpeg/libjpeg_heap_buffer_overflow/libjpeg-turbo/rdppm.c:329
  for (col = cinfo->image_width; col > 0; col--) {
    3b5e:	85 c9                	test   %ecx,%ecx
    3b60:	74 1b                	je     3b7d <get_scaled_gray_row+0x6d>
    3b62:	31 c0                	xor    %eax,%eax
    3b64:	0f 1f 40 00          	nopl   0x0(%rax)
/home/tenebris/Disk/Documents/RootCauseAnalysis/evaluation/test_bin/libjpeg/libjpeg_heap_buffer_overflow/libjpeg-turbo/rdppm.c:330 (discriminator 3)
    *ptr++ = rescale[UCH(*bufferptr++)];
    3b68:	0f b6 14 07          	movzbl (%rdi,%rax,1),%edx
    3b6c:	0f b6 54 15 00       	movzbl 0x0(%rbp,%rdx,1),%edx
    3b71:	88 14 06             	mov    %dl,(%rsi,%rax,1)
/home/tenebris/Disk/Documents/RootCauseAnalysis/evaluation/test_bin/libjpeg/libjpeg_heap_buffer_overflow/libjpeg-turbo/rdppm.c:329 (discriminator 3)
  for (col = cinfo->image_width; col > 0; col--) {
    3b74:	48 83 c0 01          	add    $0x1,%rax
    3b78:	48 39 c1             	cmp    %rax,%rcx
    3b7b:	75 eb                	jne    3b68 <get_scaled_gray_row+0x58>
/home/tenebris/Disk/Documents/RootCauseAnalysis/evaluation/test_bin/libjpeg/libjpeg_heap_buffer_overflow/libjpeg-turbo/rdppm.c:333
}
    3b7d:	5b                   	pop    %rbx
    3b7e:	b8 01 00 00 00       	mov    $0x1,%eax
    3b83:	5d                   	pop    %rbp
    3b84:	41 5c                	pop    %r12
    3b86:	c3                   	ret    
    3b87:	66 0f 1f 84 00 00 00 	nopw   0x0(%rax,%rax,1)
    3b8e:	00 00 

0000000000003b90 <get_gray_rgb_row>:
get_gray_rgb_row():
/home/tenebris/Disk/Documents/RootCauseAnalysis/evaluation/test_bin/libjpeg/libjpeg_heap_buffer_overflow/libjpeg-turbo/rdppm.c:340
{
    3b90:	f3 0f 1e fa          	endbr64 
    3b94:	41 57                	push   %r15
/home/tenebris/Disk/Documents/RootCauseAnalysis/evaluation/test_bin/libjpeg/libjpeg_heap_buffer_overflow/libjpeg-turbo/rdppm.c:347
  register int rindex = rgb_red[cinfo->in_color_space];
    3b96:	48 8d 15 03 66 00 00 	lea    0x6603(%rip),%rdx        # a1a0 <rgb_red>
/home/tenebris/Disk/Documents/RootCauseAnalysis/evaluation/test_bin/libjpeg/libjpeg_heap_buffer_overflow/libjpeg-turbo/rdppm.c:340
{
    3b9d:	41 56                	push   %r14
    3b9f:	41 55                	push   %r13
    3ba1:	41 54                	push   %r12
    3ba3:	49 89 f4             	mov    %rsi,%r12
    3ba6:	55                   	push   %rbp
    3ba7:	48 89 fd             	mov    %rdi,%rbp
    3baa:	53                   	push   %rbx
    3bab:	48 83 ec 18          	sub    $0x18,%rsp
/home/tenebris/Disk/Documents/RootCauseAnalysis/evaluation/test_bin/libjpeg/libjpeg_heap_buffer_overflow/libjpeg-turbo/rdppm.c:347
  register int rindex = rgb_red[cinfo->in_color_space];
    3baf:	8b 47 3c             	mov    0x3c(%rdi),%eax
/home/tenebris/Disk/Documents/RootCauseAnalysis/evaluation/test_bin/libjpeg/libjpeg_heap_buffer_overflow/libjpeg-turbo/rdppm.c:344
  register JSAMPLE *rescale = source->rescale;
    3bb2:	4c 8b 7e 48          	mov    0x48(%rsi),%r15
/home/tenebris/Disk/Documents/RootCauseAnalysis/evaluation/test_bin/libjpeg/libjpeg_heap_buffer_overflow/libjpeg-turbo/rdppm.c:346
  unsigned int maxval = source->maxval;
    3bb6:	8b 5e 50             	mov    0x50(%rsi),%ebx
fread():
/usr/include/x86_64-linux-gnu/bits/stdio2.h:293
    3bb9:	49 8b 4c 24 18       	mov    0x18(%r12),%rcx
get_gray_rgb_row():
/home/tenebris/Disk/Documents/RootCauseAnalysis/evaluation/test_bin/libjpeg/libjpeg_heap_buffer_overflow/libjpeg-turbo/rdppm.c:347
  register int rindex = rgb_red[cinfo->in_color_space];
    3bbe:	8b 3c 82             	mov    (%rdx,%rax,4),%edi
/home/tenebris/Disk/Documents/RootCauseAnalysis/evaluation/test_bin/libjpeg/libjpeg_heap_buffer_overflow/libjpeg-turbo/rdppm.c:348
  register int gindex = rgb_green[cinfo->in_color_space];
    3bc1:	48 8d 15 78 65 00 00 	lea    0x6578(%rip),%rdx        # a140 <rgb_green>
    3bc8:	8b 34 82             	mov    (%rdx,%rax,4),%esi
/home/tenebris/Disk/Documents/RootCauseAnalysis/evaluation/test_bin/libjpeg/libjpeg_heap_buffer_overflow/libjpeg-turbo/rdppm.c:349
  register int bindex = rgb_blue[cinfo->in_color_space];
    3bcb:	48 8d 15 0e 65 00 00 	lea    0x650e(%rip),%rdx        # a0e0 <rgb_blue>
/home/tenebris/Disk/Documents/RootCauseAnalysis/evaluation/test_bin/libjpeg/libjpeg_heap_buffer_overflow/libjpeg-turbo/rdppm.c:347
  register int rindex = rgb_red[cinfo->in_color_space];
    3bd2:	89 7c 24 04          	mov    %edi,0x4(%rsp)
/home/tenebris/Disk/Documents/RootCauseAnalysis/evaluation/test_bin/libjpeg/libjpeg_heap_buffer_overflow/libjpeg-turbo/rdppm.c:349
  register int bindex = rgb_blue[cinfo->in_color_space];
    3bd6:	8b 3c 82             	mov    (%rdx,%rax,4),%edi
/home/tenebris/Disk/Documents/RootCauseAnalysis/evaluation/test_bin/libjpeg/libjpeg_heap_buffer_overflow/libjpeg-turbo/rdppm.c:350
  register int aindex = alpha_index[cinfo->in_color_space];
    3bd9:	48 8d 15 40 64 00 00 	lea    0x6440(%rip),%rdx        # a020 <alpha_index>
    3be0:	4c 63 34 82          	movslq (%rdx,%rax,4),%r14
/home/tenebris/Disk/Documents/RootCauseAnalysis/evaluation/test_bin/libjpeg/libjpeg_heap_buffer_overflow/libjpeg-turbo/rdppm.c:351
  register int ps = rgb_pixelsize[cinfo->in_color_space];
    3be4:	48 8d 15 95 64 00 00 	lea    0x6495(%rip),%rdx        # a080 <rgb_pixelsize>
/home/tenebris/Disk/Documents/RootCauseAnalysis/evaluation/test_bin/libjpeg/libjpeg_heap_buffer_overflow/libjpeg-turbo/rdppm.c:348
  register int gindex = rgb_green[cinfo->in_color_space];
    3beb:	89 74 24 08          	mov    %esi,0x8(%rsp)
fread():
/usr/include/x86_64-linux-gnu/bits/stdio2.h:293
    3bef:	be 01 00 00 00       	mov    $0x1,%esi
get_gray_rgb_row():
/home/tenebris/Disk/Documents/RootCauseAnalysis/evaluation/test_bin/libjpeg/libjpeg_heap_buffer_overflow/libjpeg-turbo/rdppm.c:349
  register int bindex = rgb_blue[cinfo->in_color_space];
    3bf4:	89 7c 24 0c          	mov    %edi,0xc(%rsp)
/home/tenebris/Disk/Documents/RootCauseAnalysis/evaluation/test_bin/libjpeg/libjpeg_heap_buffer_overflow/libjpeg-turbo/rdppm.c:351
  register int ps = rgb_pixelsize[cinfo->in_color_space];
    3bf8:	44 8b 2c 82          	mov    (%rdx,%rax,4),%r13d
fread():
/usr/include/x86_64-linux-gnu/bits/stdio2.h:293
    3bfc:	49 8b 7c 24 30       	mov    0x30(%r12),%rdi
    3c01:	49 8b 54 24 40       	mov    0x40(%r12),%rdx
    3c06:	e8 75 e6 ff ff       	call   2280 <fread@plt>
get_gray_rgb_row():
/home/tenebris/Disk/Documents/RootCauseAnalysis/evaluation/test_bin/libjpeg/libjpeg_heap_buffer_overflow/libjpeg-turbo/rdppm.c:353
  if (!ReadOK(source->pub.input_file, source->iobuffer, source->buffer_width))
    3c0b:	49 39 44 24 40       	cmp    %rax,0x40(%r12)
    3c10:	74 10                	je     3c22 <get_gray_rgb_row+0x92>
/home/tenebris/Disk/Documents/RootCauseAnalysis/evaluation/test_bin/libjpeg/libjpeg_heap_buffer_overflow/libjpeg-turbo/rdppm.c:354
    ERREXIT(cinfo, JERR_INPUT_EOF);
    3c12:	48 8b 45 00          	mov    0x0(%rbp),%rax
    3c16:	48 89 ef             	mov    %rbp,%rdi
    3c19:	c7 40 28 2b 00 00 00 	movl   $0x2b,0x28(%rax)
    3c20:	ff 10                	call   *(%rax)
/home/tenebris/Disk/Documents/RootCauseAnalysis/evaluation/test_bin/libjpeg/libjpeg_heap_buffer_overflow/libjpeg-turbo/rdppm.c:355
  ptr = source->pub.buffer[0];
    3c22:	49 8b 44 24 20       	mov    0x20(%r12),%rax
/home/tenebris/Disk/Documents/RootCauseAnalysis/evaluation/test_bin/libjpeg/libjpeg_heap_buffer_overflow/libjpeg-turbo/rdppm.c:356
  bufferptr = source->iobuffer;
    3c27:	49 8b 54 24 30       	mov    0x30(%r12),%rdx
/home/tenebris/Disk/Documents/RootCauseAnalysis/evaluation/test_bin/libjpeg/libjpeg_heap_buffer_overflow/libjpeg-turbo/rdppm.c:359
      GRAY_RGB_READ_LOOP(*bufferptr++, ptr[aindex] = 0xFF;)
    3c2c:	8b 75 30             	mov    0x30(%rbp),%esi
/home/tenebris/Disk/Documents/RootCauseAnalysis/evaluation/test_bin/libjpeg/libjpeg_heap_buffer_overflow/libjpeg-turbo/rdppm.c:355
  ptr = source->pub.buffer[0];
    3c2f:	48 8b 00             	mov    (%rax),%rax
/home/tenebris/Disk/Documents/RootCauseAnalysis/evaluation/test_bin/libjpeg/libjpeg_heap_buffer_overflow/libjpeg-turbo/rdppm.c:357
  if (maxval == MAXJSAMPLE) {
    3c32:	81 fb ff 00 00 00    	cmp    $0xff,%ebx
    3c38:	0f 84 22 01 00 00    	je     3d60 <get_gray_rgb_row+0x1d0>
/home/tenebris/Disk/Documents/RootCauseAnalysis/evaluation/test_bin/libjpeg/libjpeg_heap_buffer_overflow/libjpeg-turbo/rdppm.c:363
    if (aindex >= 0)
    3c3e:	45 85 f6             	test   %r14d,%r14d
    3c41:	0f 88 99 00 00 00    	js     3ce0 <get_gray_rgb_row+0x150>
/home/tenebris/Disk/Documents/RootCauseAnalysis/evaluation/test_bin/libjpeg/libjpeg_heap_buffer_overflow/libjpeg-turbo/rdppm.c:364
      GRAY_RGB_READ_LOOP(rescale[UCH(*bufferptr++)], ptr[aindex] = 0xFF;)
    3c47:	85 f6                	test   %esi,%esi
    3c49:	74 51                	je     3c9c <get_gray_rgb_row+0x10c>
/home/tenebris/Disk/Documents/RootCauseAnalysis/evaluation/test_bin/libjpeg/libjpeg_heap_buffer_overflow/libjpeg-turbo/rdppm.c:359
      GRAY_RGB_READ_LOOP(*bufferptr++, ptr[aindex] = 0xFF;)
    3c4b:	48 63 5c 24 0c       	movslq 0xc(%rsp),%rbx
    3c50:	4c 63 64 24 08       	movslq 0x8(%rsp),%r12
    3c55:	4d 63 cd             	movslq %r13d,%r9
    3c58:	48 8d 3c 32          	lea    (%rdx,%rsi,1),%rdi
    3c5c:	48 63 6c 24 04       	movslq 0x4(%rsp),%rbp
    3c61:	48 01 d8             	add    %rbx,%rax
    3c64:	41 83 fd 01          	cmp    $0x1,%r13d
    3c68:	75 46                	jne    3cb0 <get_gray_rgb_row+0x120>
    3c6a:	66 0f 1f 44 00 00    	nopw   0x0(%rax,%rax,1)
/home/tenebris/Disk/Documents/RootCauseAnalysis/evaluation/test_bin/libjpeg/libjpeg_heap_buffer_overflow/libjpeg-turbo/rdppm.c:364
      GRAY_RGB_READ_LOOP(rescale[UCH(*bufferptr++)], ptr[aindex] = 0xFF;)
    3c70:	0f b6 0a             	movzbl (%rdx),%ecx
    3c73:	48 83 c2 01          	add    $0x1,%rdx
    3c77:	41 0f b6 34 0f       	movzbl (%r15,%rcx,1),%esi
    3c7c:	48 89 c1             	mov    %rax,%rcx
    3c7f:	48 83 c0 01          	add    $0x1,%rax
    3c83:	48 29 d9             	sub    %rbx,%rcx
    3c86:	40 88 70 ff          	mov    %sil,-0x1(%rax)
    3c8a:	42 88 34 21          	mov    %sil,(%rcx,%r12,1)
    3c8e:	40 88 34 29          	mov    %sil,(%rcx,%rbp,1)
    3c92:	42 c6 04 31 ff       	movb   $0xff,(%rcx,%r14,1)
    3c97:	48 39 fa             	cmp    %rdi,%rdx
    3c9a:	75 d4                	jne    3c70 <get_gray_rgb_row+0xe0>
/home/tenebris/Disk/Documents/RootCauseAnalysis/evaluation/test_bin/libjpeg/libjpeg_heap_buffer_overflow/libjpeg-turbo/rdppm.c:369
}
    3c9c:	48 83 c4 18          	add    $0x18,%rsp
    3ca0:	b8 01 00 00 00       	mov    $0x1,%eax
    3ca5:	5b                   	pop    %rbx
    3ca6:	5d                   	pop    %rbp
    3ca7:	41 5c                	pop    %r12
    3ca9:	41 5d                	pop    %r13
    3cab:	41 5e                	pop    %r14
    3cad:	41 5f                	pop    %r15
    3caf:	c3                   	ret    
/home/tenebris/Disk/Documents/RootCauseAnalysis/evaluation/test_bin/libjpeg/libjpeg_heap_buffer_overflow/libjpeg-turbo/rdppm.c:364 (discriminator 3)
      GRAY_RGB_READ_LOOP(rescale[UCH(*bufferptr++)], ptr[aindex] = 0xFF;)
    3cb0:	0f b6 0a             	movzbl (%rdx),%ecx
    3cb3:	48 83 c2 01          	add    $0x1,%rdx
    3cb7:	41 0f b6 34 0f       	movzbl (%r15,%rcx,1),%esi
    3cbc:	48 89 c1             	mov    %rax,%rcx
    3cbf:	48 29 d9             	sub    %rbx,%rcx
    3cc2:	40 88 30             	mov    %sil,(%rax)
    3cc5:	4c 01 c8             	add    %r9,%rax
    3cc8:	42 88 34 21          	mov    %sil,(%rcx,%r12,1)
    3ccc:	40 88 34 29          	mov    %sil,(%rcx,%rbp,1)
    3cd0:	42 c6 04 31 ff       	movb   $0xff,(%rcx,%r14,1)
    3cd5:	48 39 fa             	cmp    %rdi,%rdx
    3cd8:	75 d6                	jne    3cb0 <get_gray_rgb_row+0x120>
    3cda:	eb c0                	jmp    3c9c <get_gray_rgb_row+0x10c>
    3cdc:	0f 1f 40 00          	nopl   0x0(%rax)
/home/tenebris/Disk/Documents/RootCauseAnalysis/evaluation/test_bin/libjpeg/libjpeg_heap_buffer_overflow/libjpeg-turbo/rdppm.c:366
      GRAY_RGB_READ_LOOP(rescale[UCH(*bufferptr++)],)
    3ce0:	85 f6                	test   %esi,%esi
    3ce2:	74 b8                	je     3c9c <get_gray_rgb_row+0x10c>
/home/tenebris/Disk/Documents/RootCauseAnalysis/evaluation/test_bin/libjpeg/libjpeg_heap_buffer_overflow/libjpeg-turbo/rdppm.c:359
      GRAY_RGB_READ_LOOP(*bufferptr++, ptr[aindex] = 0xFF;)
    3ce4:	48 63 5c 24 0c       	movslq 0xc(%rsp),%rbx
    3ce9:	4c 63 64 24 08       	movslq 0x8(%rsp),%r12
    3cee:	4d 63 cd             	movslq %r13d,%r9
    3cf1:	48 01 d6             	add    %rdx,%rsi
    3cf4:	48 63 6c 24 04       	movslq 0x4(%rsp),%rbp
    3cf9:	48 01 d8             	add    %rbx,%rax
    3cfc:	41 83 fd 01          	cmp    $0x1,%r13d
    3d00:	75 36                	jne    3d38 <get_gray_rgb_row+0x1a8>
    3d02:	66 0f 1f 44 00 00    	nopw   0x0(%rax,%rax,1)
/home/tenebris/Disk/Documents/RootCauseAnalysis/evaluation/test_bin/libjpeg/libjpeg_heap_buffer_overflow/libjpeg-turbo/rdppm.c:366
      GRAY_RGB_READ_LOOP(rescale[UCH(*bufferptr++)],)
    3d08:	0f b6 0a             	movzbl (%rdx),%ecx
    3d0b:	48 89 c7             	mov    %rax,%rdi
    3d0e:	48 83 c2 01          	add    $0x1,%rdx
    3d12:	48 83 c0 01          	add    $0x1,%rax
    3d16:	48 29 df             	sub    %rbx,%rdi
    3d19:	41 0f b6 0c 0f       	movzbl (%r15,%rcx,1),%ecx
    3d1e:	88 48 ff             	mov    %cl,-0x1(%rax)
    3d21:	42 88 0c 27          	mov    %cl,(%rdi,%r12,1)
    3d25:	88 0c 2f             	mov    %cl,(%rdi,%rbp,1)
    3d28:	48 39 f2             	cmp    %rsi,%rdx
    3d2b:	75 db                	jne    3d08 <get_gray_rgb_row+0x178>
    3d2d:	e9 6a ff ff ff       	jmp    3c9c <get_gray_rgb_row+0x10c>
    3d32:	66 0f 1f 44 00 00    	nopw   0x0(%rax,%rax,1)
/home/tenebris/Disk/Documents/RootCauseAnalysis/evaluation/test_bin/libjpeg/libjpeg_heap_buffer_overflow/libjpeg-turbo/rdppm.c:366 (discriminator 3)
    3d38:	0f b6 0a             	movzbl (%rdx),%ecx
    3d3b:	48 89 c7             	mov    %rax,%rdi
    3d3e:	48 83 c2 01          	add    $0x1,%rdx
    3d42:	48 29 df             	sub    %rbx,%rdi
    3d45:	41 0f b6 0c 0f       	movzbl (%r15,%rcx,1),%ecx
    3d4a:	88 08                	mov    %cl,(%rax)
    3d4c:	4c 01 c8             	add    %r9,%rax
    3d4f:	42 88 0c 27          	mov    %cl,(%rdi,%r12,1)
    3d53:	88 0c 2f             	mov    %cl,(%rdi,%rbp,1)
    3d56:	48 39 f2             	cmp    %rsi,%rdx
    3d59:	75 dd                	jne    3d38 <get_gray_rgb_row+0x1a8>
    3d5b:	e9 3c ff ff ff       	jmp    3c9c <get_gray_rgb_row+0x10c>
/home/tenebris/Disk/Documents/RootCauseAnalysis/evaluation/test_bin/libjpeg/libjpeg_heap_buffer_overflow/libjpeg-turbo/rdppm.c:358
    if (aindex >= 0)
    3d60:	45 85 f6             	test   %r14d,%r14d
    3d63:	0f 88 87 00 00 00    	js     3df0 <get_gray_rgb_row+0x260>
/home/tenebris/Disk/Documents/RootCauseAnalysis/evaluation/test_bin/libjpeg/libjpeg_heap_buffer_overflow/libjpeg-turbo/rdppm.c:359
      GRAY_RGB_READ_LOOP(*bufferptr++, ptr[aindex] = 0xFF;)
    3d69:	85 f6                	test   %esi,%esi
    3d6b:	0f 84 2b ff ff ff    	je     3c9c <get_gray_rgb_row+0x10c>
    3d71:	48 63 5c 24 0c       	movslq 0xc(%rsp),%rbx
    3d76:	4c 63 64 24 08       	movslq 0x8(%rsp),%r12
    3d7b:	4d 63 c5             	movslq %r13d,%r8
    3d7e:	48 8d 3c 32          	lea    (%rdx,%rsi,1),%rdi
    3d82:	48 63 6c 24 04       	movslq 0x4(%rsp),%rbp
    3d87:	48 01 d8             	add    %rbx,%rax
    3d8a:	41 83 fd 01          	cmp    $0x1,%r13d
    3d8e:	75 30                	jne    3dc0 <get_gray_rgb_row+0x230>
    3d90:	0f b6 32             	movzbl (%rdx),%esi
    3d93:	48 89 c1             	mov    %rax,%rcx
    3d96:	48 83 c2 01          	add    $0x1,%rdx
    3d9a:	48 83 c0 01          	add    $0x1,%rax
    3d9e:	48 29 d9             	sub    %rbx,%rcx
    3da1:	40 88 70 ff          	mov    %sil,-0x1(%rax)
    3da5:	42 88 34 21          	mov    %sil,(%rcx,%r12,1)
    3da9:	40 88 34 29          	mov    %sil,(%rcx,%rbp,1)
    3dad:	42 c6 04 31 ff       	movb   $0xff,(%rcx,%r14,1)
    3db2:	48 39 fa             	cmp    %rdi,%rdx
    3db5:	75 d9                	jne    3d90 <get_gray_rgb_row+0x200>
    3db7:	e9 e0 fe ff ff       	jmp    3c9c <get_gray_rgb_row+0x10c>
    3dbc:	0f 1f 40 00          	nopl   0x0(%rax)
/home/tenebris/Disk/Documents/RootCauseAnalysis/evaluation/test_bin/libjpeg/libjpeg_heap_buffer_overflow/libjpeg-turbo/rdppm.c:359 (discriminator 3)
    3dc0:	0f b6 32             	movzbl (%rdx),%esi
    3dc3:	48 89 c1             	mov    %rax,%rcx
    3dc6:	48 83 c2 01          	add    $0x1,%rdx
    3dca:	48 29 d9             	sub    %rbx,%rcx
    3dcd:	40 88 30             	mov    %sil,(%rax)
    3dd0:	4c 01 c0             	add    %r8,%rax
    3dd3:	42 88 34 21          	mov    %sil,(%rcx,%r12,1)
    3dd7:	40 88 34 29          	mov    %sil,(%rcx,%rbp,1)
    3ddb:	42 c6 04 31 ff       	movb   $0xff,(%rcx,%r14,1)
    3de0:	48 39 fa             	cmp    %rdi,%rdx
    3de3:	75 db                	jne    3dc0 <get_gray_rgb_row+0x230>
    3de5:	e9 b2 fe ff ff       	jmp    3c9c <get_gray_rgb_row+0x10c>
    3dea:	66 0f 1f 44 00 00    	nopw   0x0(%rax,%rax,1)
/home/tenebris/Disk/Documents/RootCauseAnalysis/evaluation/test_bin/libjpeg/libjpeg_heap_buffer_overflow/libjpeg-turbo/rdppm.c:361
      GRAY_RGB_READ_LOOP(*bufferptr++,)
    3df0:	85 f6                	test   %esi,%esi
    3df2:	0f 84 a4 fe ff ff    	je     3c9c <get_gray_rgb_row+0x10c>
/home/tenebris/Disk/Documents/RootCauseAnalysis/evaluation/test_bin/libjpeg/libjpeg_heap_buffer_overflow/libjpeg-turbo/rdppm.c:359
      GRAY_RGB_READ_LOOP(*bufferptr++, ptr[aindex] = 0xFF;)
    3df8:	48 63 5c 24 0c       	movslq 0xc(%rsp),%rbx
    3dfd:	4c 63 64 24 08       	movslq 0x8(%rsp),%r12
    3e02:	4d 63 c5             	movslq %r13d,%r8
    3e05:	48 01 d6             	add    %rdx,%rsi
    3e08:	48 63 6c 24 04       	movslq 0x4(%rsp),%rbp
    3e0d:	48 01 d8             	add    %rbx,%rax
    3e10:	41 83 fd 01          	cmp    $0x1,%r13d
    3e14:	75 32                	jne    3e48 <get_gray_rgb_row+0x2b8>
    3e16:	66 2e 0f 1f 84 00 00 	cs nopw 0x0(%rax,%rax,1)
    3e1d:	00 00 00 
/home/tenebris/Disk/Documents/RootCauseAnalysis/evaluation/test_bin/libjpeg/libjpeg_heap_buffer_overflow/libjpeg-turbo/rdppm.c:361
      GRAY_RGB_READ_LOOP(*bufferptr++,)
    3e20:	0f b6 0a             	movzbl (%rdx),%ecx
    3e23:	48 89 c7             	mov    %rax,%rdi
    3e26:	48 83 c2 01          	add    $0x1,%rdx
    3e2a:	48 83 c0 01          	add    $0x1,%rax
    3e2e:	48 29 df             	sub    %rbx,%rdi
    3e31:	88 48 ff             	mov    %cl,-0x1(%rax)
    3e34:	42 88 0c 27          	mov    %cl,(%rdi,%r12,1)
    3e38:	88 0c 2f             	mov    %cl,(%rdi,%rbp,1)
    3e3b:	48 39 f2             	cmp    %rsi,%rdx
    3e3e:	75 e0                	jne    3e20 <get_gray_rgb_row+0x290>
    3e40:	e9 57 fe ff ff       	jmp    3c9c <get_gray_rgb_row+0x10c>
    3e45:	0f 1f 00             	nopl   (%rax)
/home/tenebris/Disk/Documents/RootCauseAnalysis/evaluation/test_bin/libjpeg/libjpeg_heap_buffer_overflow/libjpeg-turbo/rdppm.c:361 (discriminator 3)
    3e48:	0f b6 0a             	movzbl (%rdx),%ecx
    3e4b:	48 89 c7             	mov    %rax,%rdi
    3e4e:	48 83 c2 01          	add    $0x1,%rdx
    3e52:	48 29 df             	sub    %rbx,%rdi
    3e55:	88 08                	mov    %cl,(%rax)
    3e57:	4c 01 c0             	add    %r8,%rax
    3e5a:	42 88 0c 27          	mov    %cl,(%rdi,%r12,1)
    3e5e:	88 0c 2f             	mov    %cl,(%rdi,%rbp,1)
    3e61:	48 39 f2             	cmp    %rsi,%rdx
    3e64:	75 e2                	jne    3e48 <get_gray_rgb_row+0x2b8>
    3e66:	e9 31 fe ff ff       	jmp    3c9c <get_gray_rgb_row+0x10c>
    3e6b:	0f 1f 44 00 00       	nopl   0x0(%rax,%rax,1)

0000000000003e70 <get_gray_cmyk_row>:
get_gray_cmyk_row():
/home/tenebris/Disk/Documents/RootCauseAnalysis/evaluation/test_bin/libjpeg/libjpeg_heap_buffer_overflow/libjpeg-turbo/rdppm.c:376
{
    3e70:	f3 0f 1e fa          	endbr64 
    3e74:	41 55                	push   %r13
    3e76:	41 54                	push   %r12
    3e78:	49 89 fc             	mov    %rdi,%r12
    3e7b:	55                   	push   %rbp
    3e7c:	53                   	push   %rbx
    3e7d:	48 89 f3             	mov    %rsi,%rbx
    3e80:	48 83 ec 08          	sub    $0x8,%rsp
fread():
/usr/include/x86_64-linux-gnu/bits/stdio2.h:293
    3e84:	48 8b 4e 18          	mov    0x18(%rsi),%rcx
    3e88:	48 8b 56 40          	mov    0x40(%rsi),%rdx
    3e8c:	48 8b 7e 30          	mov    0x30(%rsi),%rdi
get_gray_cmyk_row():
/home/tenebris/Disk/Documents/RootCauseAnalysis/evaluation/test_bin/libjpeg/libjpeg_heap_buffer_overflow/libjpeg-turbo/rdppm.c:380
  register JSAMPLE *rescale = source->rescale;
    3e90:	48 8b 6e 48          	mov    0x48(%rsi),%rbp
/home/tenebris/Disk/Documents/RootCauseAnalysis/evaluation/test_bin/libjpeg/libjpeg_heap_buffer_overflow/libjpeg-turbo/rdppm.c:382
  unsigned int maxval = source->maxval;
    3e94:	44 8b 6e 50          	mov    0x50(%rsi),%r13d
fread():
/usr/include/x86_64-linux-gnu/bits/stdio2.h:293
    3e98:	be 01 00 00 00       	mov    $0x1,%esi
    3e9d:	e8 de e3 ff ff       	call   2280 <fread@plt>
get_gray_cmyk_row():
/home/tenebris/Disk/Documents/RootCauseAnalysis/evaluation/test_bin/libjpeg/libjpeg_heap_buffer_overflow/libjpeg-turbo/rdppm.c:384
  if (!ReadOK(source->pub.input_file, source->iobuffer, source->buffer_width))
    3ea2:	48 39 43 40          	cmp    %rax,0x40(%rbx)
    3ea6:	74 10                	je     3eb8 <get_gray_cmyk_row+0x48>
/home/tenebris/Disk/Documents/RootCauseAnalysis/evaluation/test_bin/libjpeg/libjpeg_heap_buffer_overflow/libjpeg-turbo/rdppm.c:385
    ERREXIT(cinfo, JERR_INPUT_EOF);
    3ea8:	49 8b 04 24          	mov    (%r12),%rax
    3eac:	4c 89 e7             	mov    %r12,%rdi
    3eaf:	c7 40 28 2b 00 00 00 	movl   $0x2b,0x28(%rax)
    3eb6:	ff 10                	call   *(%rax)
/home/tenebris/Disk/Documents/RootCauseAnalysis/evaluation/test_bin/libjpeg/libjpeg_heap_buffer_overflow/libjpeg-turbo/rdppm.c:386
  ptr = source->pub.buffer[0];
    3eb8:	48 8b 43 20          	mov    0x20(%rbx),%rax
/home/tenebris/Disk/Documents/RootCauseAnalysis/evaluation/test_bin/libjpeg/libjpeg_heap_buffer_overflow/libjpeg-turbo/rdppm.c:387
  bufferptr = source->iobuffer;
    3ebc:	48 8b 53 30          	mov    0x30(%rbx),%rdx
/home/tenebris/Disk/Documents/RootCauseAnalysis/evaluation/test_bin/libjpeg/libjpeg_heap_buffer_overflow/libjpeg-turbo/rdppm.c:389
    for (col = cinfo->image_width; col > 0; col--) {
    3ec0:	41 8b 4c 24 30       	mov    0x30(%r12),%ecx
/home/tenebris/Disk/Documents/RootCauseAnalysis/evaluation/test_bin/libjpeg/libjpeg_heap_buffer_overflow/libjpeg-turbo/rdppm.c:386
  ptr = source->pub.buffer[0];
    3ec5:	48 8b 00             	mov    (%rax),%rax
/home/tenebris/Disk/Documents/RootCauseAnalysis/evaluation/test_bin/libjpeg/libjpeg_heap_buffer_overflow/libjpeg-turbo/rdppm.c:388
  if (maxval == MAXJSAMPLE) {
    3ec8:	41 81 fd ff 00 00 00 	cmp    $0xff,%r13d
    3ecf:	0f 84 eb 00 00 00    	je     3fc0 <get_gray_cmyk_row+0x150>
/home/tenebris/Disk/Documents/RootCauseAnalysis/evaluation/test_bin/libjpeg/libjpeg_heap_buffer_overflow/libjpeg-turbo/rdppm.c:395
    for (col = cinfo->image_width; col > 0; col--) {
    3ed5:	85 c9                	test   %ecx,%ecx
    3ed7:	0f 84 9c 00 00 00    	je     3f79 <get_gray_cmyk_row+0x109>
    3edd:	f2 0f 10 0d 03 63 00 	movsd  0x6303(%rip),%xmm1        # a1e8 <rgb_red+0x48>
    3ee4:	00 
    3ee5:	f2 0f 10 1d 03 63 00 	movsd  0x6303(%rip),%xmm3        # a1f0 <rgb_red+0x50>
    3eec:	00 
    3eed:	48 8d 34 88          	lea    (%rax,%rcx,4),%rsi
rgb_to_cmyk():
/home/tenebris/Disk/Documents/RootCauseAnalysis/evaluation/test_bin/libjpeg/libjpeg_heap_buffer_overflow/libjpeg-turbo/cmyk.h:41
  else {
    ctmp = (ctmp - ktmp) / (1.0 - ktmp);
    mtmp = (mtmp - ktmp) / (1.0 - ktmp);
    ytmp = (ytmp - ktmp) / (1.0 - ktmp);
  }
  *c = (JSAMPLE)(255.0 - ctmp * 255.0 + 0.5);
    3ef1:	f2 0f 10 2d ff 62 00 	movsd  0x62ff(%rip),%xmm5        # a1f8 <rgb_red+0x58>
    3ef8:	00 
    3ef9:	0f 1f 80 00 00 00 00 	nopl   0x0(%rax)
get_gray_cmyk_row():
/home/tenebris/Disk/Documents/RootCauseAnalysis/evaluation/test_bin/libjpeg/libjpeg_heap_buffer_overflow/libjpeg-turbo/rdppm.c:396 (discriminator 3)
      JSAMPLE gray = rescale[UCH(*bufferptr++)];
    3f00:	0f b6 0a             	movzbl (%rdx),%ecx
rgb_to_cmyk():
/home/tenebris/Disk/Documents/RootCauseAnalysis/evaluation/test_bin/libjpeg/libjpeg_heap_buffer_overflow/libjpeg-turbo/cmyk.h:30 (discriminator 3)
  double ctmp = 1.0 - ((double)r / 255.0);
    3f03:	66 0f ef d2          	pxor   %xmm2,%xmm2
    3f07:	66 0f 28 c3          	movapd %xmm3,%xmm0
get_gray_cmyk_row():
/home/tenebris/Disk/Documents/RootCauseAnalysis/evaluation/test_bin/libjpeg/libjpeg_heap_buffer_overflow/libjpeg-turbo/rdppm.c:396 (discriminator 3)
    3f0b:	48 83 c2 01          	add    $0x1,%rdx
rgb_to_cmyk():
/home/tenebris/Disk/Documents/RootCauseAnalysis/evaluation/test_bin/libjpeg/libjpeg_heap_buffer_overflow/libjpeg-turbo/cmyk.h:30 (discriminator 3)
    3f0f:	0f b6 4c 0d 00       	movzbl 0x0(%rbp,%rcx,1),%ecx
    3f14:	f2 0f 2a d1          	cvtsi2sd %ecx,%xmm2
    3f18:	f2 0f 5e d1          	divsd  %xmm1,%xmm2
    3f1c:	f2 0f 5c c2          	subsd  %xmm2,%xmm0
/home/tenebris/Disk/Documents/RootCauseAnalysis/evaluation/test_bin/libjpeg/libjpeg_heap_buffer_overflow/libjpeg-turbo/cmyk.h:35 (discriminator 3)
  if (ktmp == 1.0) ctmp = mtmp = ytmp = 0.0;
    3f20:	66 0f 2e c3          	ucomisd %xmm3,%xmm0
    3f24:	7a 02                	jp     3f28 <get_gray_cmyk_row+0xb8>
    3f26:	74 68                	je     3f90 <get_gray_cmyk_row+0x120>
/home/tenebris/Disk/Documents/RootCauseAnalysis/evaluation/test_bin/libjpeg/libjpeg_heap_buffer_overflow/libjpeg-turbo/cmyk.h:37
    ctmp = (ctmp - ktmp) / (1.0 - ktmp);
    3f28:	66 0f 28 d0          	movapd %xmm0,%xmm2
    3f2c:	66 0f 28 e3          	movapd %xmm3,%xmm4
get_gray_cmyk_row():
/home/tenebris/Disk/Documents/RootCauseAnalysis/evaluation/test_bin/libjpeg/libjpeg_heap_buffer_overflow/libjpeg-turbo/rdppm.c:398
      ptr += 4;
    3f30:	48 83 c0 04          	add    $0x4,%rax
rgb_to_cmyk():
/home/tenebris/Disk/Documents/RootCauseAnalysis/evaluation/test_bin/libjpeg/libjpeg_heap_buffer_overflow/libjpeg-turbo/cmyk.h:37
    3f34:	f2 0f 5c e0          	subsd  %xmm0,%xmm4
    3f38:	f2 0f 5c d0          	subsd  %xmm0,%xmm2
/home/tenebris/Disk/Documents/RootCauseAnalysis/evaluation/test_bin/libjpeg/libjpeg_heap_buffer_overflow/libjpeg-turbo/cmyk.h:44
  *m = (JSAMPLE)(255.0 - mtmp * 255.0 + 0.5);
  *y = (JSAMPLE)(255.0 - ytmp * 255.0 + 0.5);
  *k = (JSAMPLE)(255.0 - ktmp * 255.0 + 0.5);
    3f3c:	f2 0f 59 c1          	mulsd  %xmm1,%xmm0
/home/tenebris/Disk/Documents/RootCauseAnalysis/evaluation/test_bin/libjpeg/libjpeg_heap_buffer_overflow/libjpeg-turbo/cmyk.h:37
    ctmp = (ctmp - ktmp) / (1.0 - ktmp);
    3f40:	f2 0f 5e d4          	divsd  %xmm4,%xmm2
/home/tenebris/Disk/Documents/RootCauseAnalysis/evaluation/test_bin/libjpeg/libjpeg_heap_buffer_overflow/libjpeg-turbo/cmyk.h:41
  *c = (JSAMPLE)(255.0 - ctmp * 255.0 + 0.5);
    3f44:	66 0f 28 e1          	movapd %xmm1,%xmm4
    3f48:	f2 0f 59 d1          	mulsd  %xmm1,%xmm2
    3f4c:	f2 0f 5c e2          	subsd  %xmm2,%xmm4
/home/tenebris/Disk/Documents/RootCauseAnalysis/evaluation/test_bin/libjpeg/libjpeg_heap_buffer_overflow/libjpeg-turbo/cmyk.h:44
  *k = (JSAMPLE)(255.0 - ktmp * 255.0 + 0.5);
    3f50:	66 0f 28 d1          	movapd %xmm1,%xmm2
    3f54:	f2 0f 5c d0          	subsd  %xmm0,%xmm2
/home/tenebris/Disk/Documents/RootCauseAnalysis/evaluation/test_bin/libjpeg/libjpeg_heap_buffer_overflow/libjpeg-turbo/cmyk.h:41
  *c = (JSAMPLE)(255.0 - ctmp * 255.0 + 0.5);
    3f58:	f2 0f 58 e5          	addsd  %xmm5,%xmm4
/home/tenebris/Disk/Documents/RootCauseAnalysis/evaluation/test_bin/libjpeg/libjpeg_heap_buffer_overflow/libjpeg-turbo/cmyk.h:44
  *k = (JSAMPLE)(255.0 - ktmp * 255.0 + 0.5);
    3f5c:	f2 0f 58 d5          	addsd  %xmm5,%xmm2
/home/tenebris/Disk/Documents/RootCauseAnalysis/evaluation/test_bin/libjpeg/libjpeg_heap_buffer_overflow/libjpeg-turbo/cmyk.h:41
  *c = (JSAMPLE)(255.0 - ctmp * 255.0 + 0.5);
    3f60:	f2 0f 2c cc          	cvttsd2si %xmm4,%ecx
    3f64:	88 48 fc             	mov    %cl,-0x4(%rax)
/home/tenebris/Disk/Documents/RootCauseAnalysis/evaluation/test_bin/libjpeg/libjpeg_heap_buffer_overflow/libjpeg-turbo/cmyk.h:42
  *m = (JSAMPLE)(255.0 - mtmp * 255.0 + 0.5);
    3f67:	88 48 fd             	mov    %cl,-0x3(%rax)
/home/tenebris/Disk/Documents/RootCauseAnalysis/evaluation/test_bin/libjpeg/libjpeg_heap_buffer_overflow/libjpeg-turbo/cmyk.h:43
  *y = (JSAMPLE)(255.0 - ytmp * 255.0 + 0.5);
    3f6a:	88 48 fe             	mov    %cl,-0x2(%rax)
/home/tenebris/Disk/Documents/RootCauseAnalysis/evaluation/test_bin/libjpeg/libjpeg_heap_buffer_overflow/libjpeg-turbo/cmyk.h:44
  *k = (JSAMPLE)(255.0 - ktmp * 255.0 + 0.5);
    3f6d:	f2 0f 2c ca          	cvttsd2si %xmm2,%ecx
    3f71:	88 48 ff             	mov    %cl,-0x1(%rax)
get_gray_cmyk_row():
/home/tenebris/Disk/Documents/RootCauseAnalysis/evaluation/test_bin/libjpeg/libjpeg_heap_buffer_overflow/libjpeg-turbo/rdppm.c:395
    for (col = cinfo->image_width; col > 0; col--) {
    3f74:	48 39 f0             	cmp    %rsi,%rax
    3f77:	75 87                	jne    3f00 <get_gray_cmyk_row+0x90>
/home/tenebris/Disk/Documents/RootCauseAnalysis/evaluation/test_bin/libjpeg/libjpeg_heap_buffer_overflow/libjpeg-turbo/rdppm.c:402
}
    3f79:	48 83 c4 08          	add    $0x8,%rsp
    3f7d:	b8 01 00 00 00       	mov    $0x1,%eax
    3f82:	5b                   	pop    %rbx
    3f83:	5d                   	pop    %rbp
    3f84:	41 5c                	pop    %r12
    3f86:	41 5d                	pop    %r13
    3f88:	c3                   	ret    
    3f89:	0f 1f 80 00 00 00 00 	nopl   0x0(%rax)
rgb_to_cmyk():
/home/tenebris/Disk/Documents/RootCauseAnalysis/evaluation/test_bin/libjpeg/libjpeg_heap_buffer_overflow/libjpeg-turbo/cmyk.h:41
  *c = (JSAMPLE)(255.0 - ctmp * 255.0 + 0.5);
    3f90:	c6 00 ff             	movb   $0xff,(%rax)
get_gray_cmyk_row():
/home/tenebris/Disk/Documents/RootCauseAnalysis/evaluation/test_bin/libjpeg/libjpeg_heap_buffer_overflow/libjpeg-turbo/rdppm.c:398
      ptr += 4;
    3f93:	48 83 c0 04          	add    $0x4,%rax
rgb_to_cmyk():
/home/tenebris/Disk/Documents/RootCauseAnalysis/evaluation/test_bin/libjpeg/libjpeg_heap_buffer_overflow/libjpeg-turbo/cmyk.h:42
  *m = (JSAMPLE)(255.0 - mtmp * 255.0 + 0.5);
    3f97:	c6 40 fd ff          	movb   $0xff,-0x3(%rax)
/home/tenebris/Disk/Documents/RootCauseAnalysis/evaluation/test_bin/libjpeg/libjpeg_heap_buffer_overflow/libjpeg-turbo/cmyk.h:43
  *y = (JSAMPLE)(255.0 - ytmp * 255.0 + 0.5);
    3f9b:	c6 40 fe ff          	movb   $0xff,-0x2(%rax)
/home/tenebris/Disk/Documents/RootCauseAnalysis/evaluation/test_bin/libjpeg/libjpeg_heap_buffer_overflow/libjpeg-turbo/cmyk.h:44
  *k = (JSAMPLE)(255.0 - ktmp * 255.0 + 0.5);
    3f9f:	c6 40 ff 00          	movb   $0x0,-0x1(%rax)
get_gray_cmyk_row():
/home/tenebris/Disk/Documents/RootCauseAnalysis/evaluation/test_bin/libjpeg/libjpeg_heap_buffer_overflow/libjpeg-turbo/rdppm.c:395
    for (col = cinfo->image_width; col > 0; col--) {
    3fa3:	48 39 f0             	cmp    %rsi,%rax
    3fa6:	0f 85 54 ff ff ff    	jne    3f00 <get_gray_cmyk_row+0x90>
/home/tenebris/Disk/Documents/RootCauseAnalysis/evaluation/test_bin/libjpeg/libjpeg_heap_buffer_overflow/libjpeg-turbo/rdppm.c:402
}
    3fac:	48 83 c4 08          	add    $0x8,%rsp
    3fb0:	b8 01 00 00 00       	mov    $0x1,%eax
    3fb5:	5b                   	pop    %rbx
    3fb6:	5d                   	pop    %rbp
    3fb7:	41 5c                	pop    %r12
    3fb9:	41 5d                	pop    %r13
    3fbb:	c3                   	ret    
    3fbc:	0f 1f 40 00          	nopl   0x0(%rax)
/home/tenebris/Disk/Documents/RootCauseAnalysis/evaluation/test_bin/libjpeg/libjpeg_heap_buffer_overflow/libjpeg-turbo/rdppm.c:389
    for (col = cinfo->image_width; col > 0; col--) {
    3fc0:	85 c9                	test   %ecx,%ecx
    3fc2:	74 b5                	je     3f79 <get_gray_cmyk_row+0x109>
    3fc4:	f2 0f 10 0d 1c 62 00 	movsd  0x621c(%rip),%xmm1        # a1e8 <rgb_red+0x48>
    3fcb:	00 
    3fcc:	f2 0f 10 1d 1c 62 00 	movsd  0x621c(%rip),%xmm3        # a1f0 <rgb_red+0x50>
    3fd3:	00 
    3fd4:	48 8d 34 88          	lea    (%rax,%rcx,4),%rsi
rgb_to_cmyk():
/home/tenebris/Disk/Documents/RootCauseAnalysis/evaluation/test_bin/libjpeg/libjpeg_heap_buffer_overflow/libjpeg-turbo/cmyk.h:41
  *c = (JSAMPLE)(255.0 - ctmp * 255.0 + 0.5);
    3fd8:	f2 0f 10 2d 18 62 00 	movsd  0x6218(%rip),%xmm5        # a1f8 <rgb_red+0x58>
    3fdf:	00 
/home/tenebris/Disk/Documents/RootCauseAnalysis/evaluation/test_bin/libjpeg/libjpeg_heap_buffer_overflow/libjpeg-turbo/cmyk.h:30 (discriminator 3)
  double ctmp = 1.0 - ((double)r / 255.0);
    3fe0:	0f b6 0a             	movzbl (%rdx),%ecx
    3fe3:	66 0f ef d2          	pxor   %xmm2,%xmm2
    3fe7:	66 0f 28 c3          	movapd %xmm3,%xmm0
get_gray_cmyk_row():
/home/tenebris/Disk/Documents/RootCauseAnalysis/evaluation/test_bin/libjpeg/libjpeg_heap_buffer_overflow/libjpeg-turbo/rdppm.c:390 (discriminator 3)
      JSAMPLE gray = *bufferptr++;
    3feb:	48 83 c2 01          	add    $0x1,%rdx
rgb_to_cmyk():
/home/tenebris/Disk/Documents/RootCauseAnalysis/evaluation/test_bin/libjpeg/libjpeg_heap_buffer_overflow/libjpeg-turbo/cmyk.h:30 (discriminator 3)
    3fef:	f2 0f 2a d1          	cvtsi2sd %ecx,%xmm2
    3ff3:	f2 0f 5e d1          	divsd  %xmm1,%xmm2
    3ff7:	f2 0f 5c c2          	subsd  %xmm2,%xmm0
/home/tenebris/Disk/Documents/RootCauseAnalysis/evaluation/test_bin/libjpeg/libjpeg_heap_buffer_overflow/libjpeg-turbo/cmyk.h:35 (discriminator 3)
  if (ktmp == 1.0) ctmp = mtmp = ytmp = 0.0;
    3ffb:	66 0f 2e c3          	ucomisd %xmm3,%xmm0
    3fff:	7a 02                	jp     4003 <get_gray_cmyk_row+0x193>
    4001:	74 65                	je     4068 <get_gray_cmyk_row+0x1f8>
/home/tenebris/Disk/Documents/RootCauseAnalysis/evaluation/test_bin/libjpeg/libjpeg_heap_buffer_overflow/libjpeg-turbo/cmyk.h:37
    ctmp = (ctmp - ktmp) / (1.0 - ktmp);
    4003:	66 0f 28 d0          	movapd %xmm0,%xmm2
    4007:	66 0f 28 e3          	movapd %xmm3,%xmm4
get_gray_cmyk_row():
/home/tenebris/Disk/Documents/RootCauseAnalysis/evaluation/test_bin/libjpeg/libjpeg_heap_buffer_overflow/libjpeg-turbo/rdppm.c:392
      ptr += 4;
    400b:	48 83 c0 04          	add    $0x4,%rax
rgb_to_cmyk():
/home/tenebris/Disk/Documents/RootCauseAnalysis/evaluation/test_bin/libjpeg/libjpeg_heap_buffer_overflow/libjpeg-turbo/cmyk.h:37
    400f:	f2 0f 5c e0          	subsd  %xmm0,%xmm4
    4013:	f2 0f 5c d0          	subsd  %xmm0,%xmm2
/home/tenebris/Disk/Documents/RootCauseAnalysis/evaluation/test_bin/libjpeg/libjpeg_heap_buffer_overflow/libjpeg-turbo/cmyk.h:44
  *k = (JSAMPLE)(255.0 - ktmp * 255.0 + 0.5);
    4017:	f2 0f 59 c1          	mulsd  %xmm1,%xmm0
/home/tenebris/Disk/Documents/RootCauseAnalysis/evaluation/test_bin/libjpeg/libjpeg_heap_buffer_overflow/libjpeg-turbo/cmyk.h:37
    ctmp = (ctmp - ktmp) / (1.0 - ktmp);
    401b:	f2 0f 5e d4          	divsd  %xmm4,%xmm2
/home/tenebris/Disk/Documents/RootCauseAnalysis/evaluation/test_bin/libjpeg/libjpeg_heap_buffer_overflow/libjpeg-turbo/cmyk.h:41
  *c = (JSAMPLE)(255.0 - ctmp * 255.0 + 0.5);
    401f:	66 0f 28 e1          	movapd %xmm1,%xmm4
    4023:	f2 0f 59 d1          	mulsd  %xmm1,%xmm2
    4027:	f2 0f 5c e2          	subsd  %xmm2,%xmm4
/home/tenebris/Disk/Documents/RootCauseAnalysis/evaluation/test_bin/libjpeg/libjpeg_heap_buffer_overflow/libjpeg-turbo/cmyk.h:44
  *k = (JSAMPLE)(255.0 - ktmp * 255.0 + 0.5);
    402b:	66 0f 28 d1          	movapd %xmm1,%xmm2
    402f:	f2 0f 5c d0          	subsd  %xmm0,%xmm2
/home/tenebris/Disk/Documents/RootCauseAnalysis/evaluation/test_bin/libjpeg/libjpeg_heap_buffer_overflow/libjpeg-turbo/cmyk.h:41
  *c = (JSAMPLE)(255.0 - ctmp * 255.0 + 0.5);
    4033:	f2 0f 58 e5          	addsd  %xmm5,%xmm4
/home/tenebris/Disk/Documents/RootCauseAnalysis/evaluation/test_bin/libjpeg/libjpeg_heap_buffer_overflow/libjpeg-turbo/cmyk.h:44
  *k = (JSAMPLE)(255.0 - ktmp * 255.0 + 0.5);
    4037:	f2 0f 58 d5          	addsd  %xmm5,%xmm2
/home/tenebris/Disk/Documents/RootCauseAnalysis/evaluation/test_bin/libjpeg/libjpeg_heap_buffer_overflow/libjpeg-turbo/cmyk.h:41
  *c = (JSAMPLE)(255.0 - ctmp * 255.0 + 0.5);
    403b:	f2 0f 2c cc          	cvttsd2si %xmm4,%ecx
    403f:	88 48 fc             	mov    %cl,-0x4(%rax)
/home/tenebris/Disk/Documents/RootCauseAnalysis/evaluation/test_bin/libjpeg/libjpeg_heap_buffer_overflow/libjpeg-turbo/cmyk.h:42
  *m = (JSAMPLE)(255.0 - mtmp * 255.0 + 0.5);
    4042:	88 48 fd             	mov    %cl,-0x3(%rax)
/home/tenebris/Disk/Documents/RootCauseAnalysis/evaluation/test_bin/libjpeg/libjpeg_heap_buffer_overflow/libjpeg-turbo/cmyk.h:43
  *y = (JSAMPLE)(255.0 - ytmp * 255.0 + 0.5);
    4045:	88 48 fe             	mov    %cl,-0x2(%rax)
/home/tenebris/Disk/Documents/RootCauseAnalysis/evaluation/test_bin/libjpeg/libjpeg_heap_buffer_overflow/libjpeg-turbo/cmyk.h:44
  *k = (JSAMPLE)(255.0 - ktmp * 255.0 + 0.5);
    4048:	f2 0f 2c ca          	cvttsd2si %xmm2,%ecx
    404c:	88 48 ff             	mov    %cl,-0x1(%rax)
get_gray_cmyk_row():
/home/tenebris/Disk/Documents/RootCauseAnalysis/evaluation/test_bin/libjpeg/libjpeg_heap_buffer_overflow/libjpeg-turbo/rdppm.c:389
    for (col = cinfo->image_width; col > 0; col--) {
    404f:	48 39 f0             	cmp    %rsi,%rax
    4052:	75 8c                	jne    3fe0 <get_gray_cmyk_row+0x170>
/home/tenebris/Disk/Documents/RootCauseAnalysis/evaluation/test_bin/libjpeg/libjpeg_heap_buffer_overflow/libjpeg-turbo/rdppm.c:402
}
    4054:	48 83 c4 08          	add    $0x8,%rsp
    4058:	b8 01 00 00 00       	mov    $0x1,%eax
    405d:	5b                   	pop    %rbx
    405e:	5d                   	pop    %rbp
    405f:	41 5c                	pop    %r12
    4061:	41 5d                	pop    %r13
    4063:	c3                   	ret    
    4064:	0f 1f 40 00          	nopl   0x0(%rax)
rgb_to_cmyk():
/home/tenebris/Disk/Documents/RootCauseAnalysis/evaluation/test_bin/libjpeg/libjpeg_heap_buffer_overflow/libjpeg-turbo/cmyk.h:41
  *c = (JSAMPLE)(255.0 - ctmp * 255.0 + 0.5);
    4068:	c6 00 ff             	movb   $0xff,(%rax)
get_gray_cmyk_row():
/home/tenebris/Disk/Documents/RootCauseAnalysis/evaluation/test_bin/libjpeg/libjpeg_heap_buffer_overflow/libjpeg-turbo/rdppm.c:392
      ptr += 4;
    406b:	48 83 c0 04          	add    $0x4,%rax
rgb_to_cmyk():
/home/tenebris/Disk/Documents/RootCauseAnalysis/evaluation/test_bin/libjpeg/libjpeg_heap_buffer_overflow/libjpeg-turbo/cmyk.h:42
  *m = (JSAMPLE)(255.0 - mtmp * 255.0 + 0.5);
    406f:	c6 40 fd ff          	movb   $0xff,-0x3(%rax)
/home/tenebris/Disk/Documents/RootCauseAnalysis/evaluation/test_bin/libjpeg/libjpeg_heap_buffer_overflow/libjpeg-turbo/cmyk.h:43
  *y = (JSAMPLE)(255.0 - ytmp * 255.0 + 0.5);
    4073:	c6 40 fe ff          	movb   $0xff,-0x2(%rax)
/home/tenebris/Disk/Documents/RootCauseAnalysis/evaluation/test_bin/libjpeg/libjpeg_heap_buffer_overflow/libjpeg-turbo/cmyk.h:44
  *k = (JSAMPLE)(255.0 - ktmp * 255.0 + 0.5);
    4077:	c6 40 ff 00          	movb   $0x0,-0x1(%rax)
get_gray_cmyk_row():
/home/tenebris/Disk/Documents/RootCauseAnalysis/evaluation/test_bin/libjpeg/libjpeg_heap_buffer_overflow/libjpeg-turbo/rdppm.c:389
    for (col = cinfo->image_width; col > 0; col--) {
    407b:	48 39 f0             	cmp    %rsi,%rax
    407e:	0f 85 5c ff ff ff    	jne    3fe0 <get_gray_cmyk_row+0x170>
/home/tenebris/Disk/Documents/RootCauseAnalysis/evaluation/test_bin/libjpeg/libjpeg_heap_buffer_overflow/libjpeg-turbo/rdppm.c:402
}
    4084:	48 83 c4 08          	add    $0x8,%rsp
    4088:	b8 01 00 00 00       	mov    $0x1,%eax
    408d:	5b                   	pop    %rbx
    408e:	5d                   	pop    %rbp
    408f:	41 5c                	pop    %r12
    4091:	41 5d                	pop    %r13
    4093:	c3                   	ret    
    4094:	66 66 2e 0f 1f 84 00 	data16 cs nopw 0x0(%rax,%rax,1)
    409b:	00 00 00 00 
    409f:	90                   	nop

00000000000040a0 <get_rgb_row>:
get_rgb_row():
/home/tenebris/Disk/Documents/RootCauseAnalysis/evaluation/test_bin/libjpeg/libjpeg_heap_buffer_overflow/libjpeg-turbo/rdppm.c:408
{
    40a0:	f3 0f 1e fa          	endbr64 
    40a4:	41 57                	push   %r15
/home/tenebris/Disk/Documents/RootCauseAnalysis/evaluation/test_bin/libjpeg/libjpeg_heap_buffer_overflow/libjpeg-turbo/rdppm.c:415
  register int rindex = rgb_red[cinfo->in_color_space];
    40a6:	48 8d 15 f3 60 00 00 	lea    0x60f3(%rip),%rdx        # a1a0 <rgb_red>
/home/tenebris/Disk/Documents/RootCauseAnalysis/evaluation/test_bin/libjpeg/libjpeg_heap_buffer_overflow/libjpeg-turbo/rdppm.c:408
{
    40ad:	41 56                	push   %r14
    40af:	41 55                	push   %r13
    40b1:	41 54                	push   %r12
    40b3:	49 89 f4             	mov    %rsi,%r12
    40b6:	55                   	push   %rbp
    40b7:	48 89 fd             	mov    %rdi,%rbp
    40ba:	53                   	push   %rbx
    40bb:	48 83 ec 18          	sub    $0x18,%rsp
/home/tenebris/Disk/Documents/RootCauseAnalysis/evaluation/test_bin/libjpeg/libjpeg_heap_buffer_overflow/libjpeg-turbo/rdppm.c:415
  register int rindex = rgb_red[cinfo->in_color_space];
    40bf:	8b 47 3c             	mov    0x3c(%rdi),%eax
fread():
/usr/include/x86_64-linux-gnu/bits/stdio2.h:293
    40c2:	48 8b 4e 18          	mov    0x18(%rsi),%rcx
get_rgb_row():
/home/tenebris/Disk/Documents/RootCauseAnalysis/evaluation/test_bin/libjpeg/libjpeg_heap_buffer_overflow/libjpeg-turbo/rdppm.c:412
  register JSAMPLE *rescale = source->rescale;
    40c6:	4c 8b 7e 48          	mov    0x48(%rsi),%r15
/home/tenebris/Disk/Documents/RootCauseAnalysis/evaluation/test_bin/libjpeg/libjpeg_heap_buffer_overflow/libjpeg-turbo/rdppm.c:414
  unsigned int maxval = source->maxval;
    40ca:	8b 5e 50             	mov    0x50(%rsi),%ebx
/home/tenebris/Disk/Documents/RootCauseAnalysis/evaluation/test_bin/libjpeg/libjpeg_heap_buffer_overflow/libjpeg-turbo/rdppm.c:415
  register int rindex = rgb_red[cinfo->in_color_space];
    40cd:	8b 3c 82             	mov    (%rdx,%rax,4),%edi
/home/tenebris/Disk/Documents/RootCauseAnalysis/evaluation/test_bin/libjpeg/libjpeg_heap_buffer_overflow/libjpeg-turbo/rdppm.c:416
  register int gindex = rgb_green[cinfo->in_color_space];
    40d0:	48 8d 15 69 60 00 00 	lea    0x6069(%rip),%rdx        # a140 <rgb_green>
/home/tenebris/Disk/Documents/RootCauseAnalysis/evaluation/test_bin/libjpeg/libjpeg_heap_buffer_overflow/libjpeg-turbo/rdppm.c:415
  register int rindex = rgb_red[cinfo->in_color_space];
    40d7:	89 7c 24 04          	mov    %edi,0x4(%rsp)
/home/tenebris/Disk/Documents/RootCauseAnalysis/evaluation/test_bin/libjpeg/libjpeg_heap_buffer_overflow/libjpeg-turbo/rdppm.c:416
  register int gindex = rgb_green[cinfo->in_color_space];
    40db:	8b 3c 82             	mov    (%rdx,%rax,4),%edi
/home/tenebris/Disk/Documents/RootCauseAnalysis/evaluation/test_bin/libjpeg/libjpeg_heap_buffer_overflow/libjpeg-turbo/rdppm.c:417
  register int bindex = rgb_blue[cinfo->in_color_space];
    40de:	48 8d 15 fb 5f 00 00 	lea    0x5ffb(%rip),%rdx        # a0e0 <rgb_blue>
/home/tenebris/Disk/Documents/RootCauseAnalysis/evaluation/test_bin/libjpeg/libjpeg_heap_buffer_overflow/libjpeg-turbo/rdppm.c:416
  register int gindex = rgb_green[cinfo->in_color_space];
    40e5:	89 7c 24 08          	mov    %edi,0x8(%rsp)
/home/tenebris/Disk/Documents/RootCauseAnalysis/evaluation/test_bin/libjpeg/libjpeg_heap_buffer_overflow/libjpeg-turbo/rdppm.c:417
  register int bindex = rgb_blue[cinfo->in_color_space];
    40e9:	8b 3c 82             	mov    (%rdx,%rax,4),%edi
/home/tenebris/Disk/Documents/RootCauseAnalysis/evaluation/test_bin/libjpeg/libjpeg_heap_buffer_overflow/libjpeg-turbo/rdppm.c:418
  register int aindex = alpha_index[cinfo->in_color_space];
    40ec:	48 8d 15 2d 5f 00 00 	lea    0x5f2d(%rip),%rdx        # a020 <alpha_index>
    40f3:	4c 63 2c 82          	movslq (%rdx,%rax,4),%r13
/home/tenebris/Disk/Documents/RootCauseAnalysis/evaluation/test_bin/libjpeg/libjpeg_heap_buffer_overflow/libjpeg-turbo/rdppm.c:419
  register int ps = rgb_pixelsize[cinfo->in_color_space];
    40f7:	48 8d 15 82 5f 00 00 	lea    0x5f82(%rip),%rdx        # a080 <rgb_pixelsize>
/home/tenebris/Disk/Documents/RootCauseAnalysis/evaluation/test_bin/libjpeg/libjpeg_heap_buffer_overflow/libjpeg-turbo/rdppm.c:417
  register int bindex = rgb_blue[cinfo->in_color_space];
    40fe:	89 7c 24 0c          	mov    %edi,0xc(%rsp)
/home/tenebris/Disk/Documents/RootCauseAnalysis/evaluation/test_bin/libjpeg/libjpeg_heap_buffer_overflow/libjpeg-turbo/rdppm.c:419
  register int ps = rgb_pixelsize[cinfo->in_color_space];
    4102:	44 8b 34 82          	mov    (%rdx,%rax,4),%r14d
fread():
/usr/include/x86_64-linux-gnu/bits/stdio2.h:293
    4106:	48 8b 7e 30          	mov    0x30(%rsi),%rdi
    410a:	48 8b 56 40          	mov    0x40(%rsi),%rdx
    410e:	be 01 00 00 00       	mov    $0x1,%esi
    4113:	e8 68 e1 ff ff       	call   2280 <fread@plt>
get_rgb_row():
/home/tenebris/Disk/Documents/RootCauseAnalysis/evaluation/test_bin/libjpeg/libjpeg_heap_buffer_overflow/libjpeg-turbo/rdppm.c:421
  if (!ReadOK(source->pub.input_file, source->iobuffer, source->buffer_width))
    4118:	49 39 44 24 40       	cmp    %rax,0x40(%r12)
    411d:	74 10                	je     412f <get_rgb_row+0x8f>
/home/tenebris/Disk/Documents/RootCauseAnalysis/evaluation/test_bin/libjpeg/libjpeg_heap_buffer_overflow/libjpeg-turbo/rdppm.c:422
    ERREXIT(cinfo, JERR_INPUT_EOF);
    411f:	48 8b 45 00          	mov    0x0(%rbp),%rax
    4123:	48 89 ef             	mov    %rbp,%rdi
    4126:	c7 40 28 2b 00 00 00 	movl   $0x2b,0x28(%rax)
    412d:	ff 10                	call   *(%rax)
/home/tenebris/Disk/Documents/RootCauseAnalysis/evaluation/test_bin/libjpeg/libjpeg_heap_buffer_overflow/libjpeg-turbo/rdppm.c:423
  ptr = source->pub.buffer[0];
    412f:	49 8b 44 24 20       	mov    0x20(%r12),%rax
/home/tenebris/Disk/Documents/RootCauseAnalysis/evaluation/test_bin/libjpeg/libjpeg_heap_buffer_overflow/libjpeg-turbo/rdppm.c:427
      RGB_READ_LOOP(*bufferptr++, ptr[aindex] = 0xFF;)
    4134:	8b 4d 30             	mov    0x30(%rbp),%ecx
/home/tenebris/Disk/Documents/RootCauseAnalysis/evaluation/test_bin/libjpeg/libjpeg_heap_buffer_overflow/libjpeg-turbo/rdppm.c:423
  ptr = source->pub.buffer[0];
    4137:	48 8b 10             	mov    (%rax),%rdx
/home/tenebris/Disk/Documents/RootCauseAnalysis/evaluation/test_bin/libjpeg/libjpeg_heap_buffer_overflow/libjpeg-turbo/rdppm.c:424
  bufferptr = source->iobuffer;
    413a:	49 8b 44 24 30       	mov    0x30(%r12),%rax
/home/tenebris/Disk/Documents/RootCauseAnalysis/evaluation/test_bin/libjpeg/libjpeg_heap_buffer_overflow/libjpeg-turbo/rdppm.c:425
  if (maxval == MAXJSAMPLE) {
    413f:	81 fb ff 00 00 00    	cmp    $0xff,%ebx
    4145:	0f 84 f5 00 00 00    	je     4240 <get_rgb_row+0x1a0>
/home/tenebris/Disk/Documents/RootCauseAnalysis/evaluation/test_bin/libjpeg/libjpeg_heap_buffer_overflow/libjpeg-turbo/rdppm.c:431
    if (aindex >= 0)
    414b:	45 85 ed             	test   %r13d,%r13d
    414e:	0f 88 7c 00 00 00    	js     41d0 <get_rgb_row+0x130>
/home/tenebris/Disk/Documents/RootCauseAnalysis/evaluation/test_bin/libjpeg/libjpeg_heap_buffer_overflow/libjpeg-turbo/rdppm.c:432
      RGB_READ_LOOP(rescale[UCH(*bufferptr++)], ptr[aindex] = 0xFF;)
    4154:	85 c9                	test   %ecx,%ecx
    4156:	74 64                	je     41bc <get_rgb_row+0x11c>
/home/tenebris/Disk/Documents/RootCauseAnalysis/evaluation/test_bin/libjpeg/libjpeg_heap_buffer_overflow/libjpeg-turbo/rdppm.c:427
      RGB_READ_LOOP(*bufferptr++, ptr[aindex] = 0xFF;)
    4158:	48 63 5c 24 04       	movslq 0x4(%rsp),%rbx
    415d:	4c 63 64 24 08       	movslq 0x8(%rsp),%r12
    4162:	49 63 fe             	movslq %r14d,%rdi
    4165:	48 63 6c 24 0c       	movslq 0xc(%rsp),%rbp
    416a:	48 01 da             	add    %rbx,%rdx
    416d:	41 83 fe 01          	cmp    $0x1,%r14d
    4171:	0f 85 99 01 00 00    	jne    4310 <get_rgb_row+0x270>
    4177:	48 8d 3c 49          	lea    (%rcx,%rcx,2),%rdi
    417b:	48 01 c7             	add    %rax,%rdi
    417e:	66 90                	xchg   %ax,%ax
/home/tenebris/Disk/Documents/RootCauseAnalysis/evaluation/test_bin/libjpeg/libjpeg_heap_buffer_overflow/libjpeg-turbo/rdppm.c:432
      RGB_READ_LOOP(rescale[UCH(*bufferptr++)], ptr[aindex] = 0xFF;)
    4180:	0f b6 08             	movzbl (%rax),%ecx
    4183:	48 83 c0 03          	add    $0x3,%rax
    4187:	41 0f b6 0c 0f       	movzbl (%r15,%rcx,1),%ecx
    418c:	88 0a                	mov    %cl,(%rdx)
    418e:	0f b6 48 fe          	movzbl -0x2(%rax),%ecx
    4192:	41 0f b6 34 0f       	movzbl (%r15,%rcx,1),%esi
    4197:	48 89 d1             	mov    %rdx,%rcx
    419a:	48 83 c2 01          	add    $0x1,%rdx
    419e:	48 29 d9             	sub    %rbx,%rcx
    41a1:	42 88 34 21          	mov    %sil,(%rcx,%r12,1)
    41a5:	0f b6 70 ff          	movzbl -0x1(%rax),%esi
    41a9:	41 0f b6 34 37       	movzbl (%r15,%rsi,1),%esi
    41ae:	40 88 34 29          	mov    %sil,(%rcx,%rbp,1)
    41b2:	42 c6 04 29 ff       	movb   $0xff,(%rcx,%r13,1)
    41b7:	48 39 c7             	cmp    %rax,%rdi
    41ba:	75 c4                	jne    4180 <get_rgb_row+0xe0>
/home/tenebris/Disk/Documents/RootCauseAnalysis/evaluation/test_bin/libjpeg/libjpeg_heap_buffer_overflow/libjpeg-turbo/rdppm.c:437
}
    41bc:	48 83 c4 18          	add    $0x18,%rsp
    41c0:	b8 01 00 00 00       	mov    $0x1,%eax
    41c5:	5b                   	pop    %rbx
    41c6:	5d                   	pop    %rbp
    41c7:	41 5c                	pop    %r12
    41c9:	41 5d                	pop    %r13
    41cb:	41 5e                	pop    %r14
    41cd:	41 5f                	pop    %r15
    41cf:	c3                   	ret    
/home/tenebris/Disk/Documents/RootCauseAnalysis/evaluation/test_bin/libjpeg/libjpeg_heap_buffer_overflow/libjpeg-turbo/rdppm.c:434
      RGB_READ_LOOP(rescale[UCH(*bufferptr++)],)
    41d0:	85 c9                	test   %ecx,%ecx
    41d2:	74 e8                	je     41bc <get_rgb_row+0x11c>
/home/tenebris/Disk/Documents/RootCauseAnalysis/evaluation/test_bin/libjpeg/libjpeg_heap_buffer_overflow/libjpeg-turbo/rdppm.c:427
      RGB_READ_LOOP(*bufferptr++, ptr[aindex] = 0xFF;)
    41d4:	48 63 5c 24 04       	movslq 0x4(%rsp),%rbx
    41d9:	4c 63 64 24 08       	movslq 0x8(%rsp),%r12
    41de:	49 63 fe             	movslq %r14d,%rdi
    41e1:	48 63 6c 24 0c       	movslq 0xc(%rsp),%rbp
    41e6:	48 01 da             	add    %rbx,%rdx
    41e9:	41 83 fe 01          	cmp    $0x1,%r14d
    41ed:	0f 85 6d 01 00 00    	jne    4360 <get_rgb_row+0x2c0>
    41f3:	48 8d 3c 49          	lea    (%rcx,%rcx,2),%rdi
    41f7:	48 01 c7             	add    %rax,%rdi
    41fa:	66 0f 1f 44 00 00    	nopw   0x0(%rax,%rax,1)
/home/tenebris/Disk/Documents/RootCauseAnalysis/evaluation/test_bin/libjpeg/libjpeg_heap_buffer_overflow/libjpeg-turbo/rdppm.c:434
      RGB_READ_LOOP(rescale[UCH(*bufferptr++)],)
    4200:	0f b6 08             	movzbl (%rax),%ecx
    4203:	48 83 c0 03          	add    $0x3,%rax
    4207:	41 0f b6 0c 0f       	movzbl (%r15,%rcx,1),%ecx
    420c:	88 0a                	mov    %cl,(%rdx)
    420e:	0f b6 48 fe          	movzbl -0x2(%rax),%ecx
    4212:	41 0f b6 34 0f       	movzbl (%r15,%rcx,1),%esi
    4217:	48 89 d1             	mov    %rdx,%rcx
    421a:	48 83 c2 01          	add    $0x1,%rdx
    421e:	48 29 d9             	sub    %rbx,%rcx
    4221:	42 88 34 21          	mov    %sil,(%rcx,%r12,1)
    4225:	0f b6 70 ff          	movzbl -0x1(%rax),%esi
    4229:	41 0f b6 34 37       	movzbl (%r15,%rsi,1),%esi
    422e:	40 88 34 29          	mov    %sil,(%rcx,%rbp,1)
    4232:	48 39 c7             	cmp    %rax,%rdi
    4235:	75 c9                	jne    4200 <get_rgb_row+0x160>
    4237:	eb 83                	jmp    41bc <get_rgb_row+0x11c>
    4239:	0f 1f 80 00 00 00 00 	nopl   0x0(%rax)
/home/tenebris/Disk/Documents/RootCauseAnalysis/evaluation/test_bin/libjpeg/libjpeg_heap_buffer_overflow/libjpeg-turbo/rdppm.c:426
    if (aindex >= 0)
    4240:	45 85 ed             	test   %r13d,%r13d
    4243:	78 6b                	js     42b0 <get_rgb_row+0x210>
/home/tenebris/Disk/Documents/RootCauseAnalysis/evaluation/test_bin/libjpeg/libjpeg_heap_buffer_overflow/libjpeg-turbo/rdppm.c:427
      RGB_READ_LOOP(*bufferptr++, ptr[aindex] = 0xFF;)
    4245:	85 c9                	test   %ecx,%ecx
    4247:	0f 84 6f ff ff ff    	je     41bc <get_rgb_row+0x11c>
    424d:	48 63 5c 24 04       	movslq 0x4(%rsp),%rbx
    4252:	4c 63 64 24 08       	movslq 0x8(%rsp),%r12
    4257:	49 63 fe             	movslq %r14d,%rdi
    425a:	48 63 6c 24 0c       	movslq 0xc(%rsp),%rbp
    425f:	48 01 da             	add    %rbx,%rdx
    4262:	41 83 fe 01          	cmp    $0x1,%r14d
    4266:	0f 85 44 01 00 00    	jne    43b0 <get_rgb_row+0x310>
    426c:	48 8d 3c 49          	lea    (%rcx,%rcx,2),%rdi
    4270:	48 01 c7             	add    %rax,%rdi
    4273:	0f 1f 44 00 00       	nopl   0x0(%rax,%rax,1)
    4278:	0f b6 08             	movzbl (%rax),%ecx
    427b:	48 83 c0 03          	add    $0x3,%rax
    427f:	88 0a                	mov    %cl,(%rdx)
    4281:	48 89 d1             	mov    %rdx,%rcx
    4284:	0f b6 70 fe          	movzbl -0x2(%rax),%esi
    4288:	48 83 c2 01          	add    $0x1,%rdx
    428c:	48 29 d9             	sub    %rbx,%rcx
    428f:	42 88 34 21          	mov    %sil,(%rcx,%r12,1)
    4293:	0f b6 70 ff          	movzbl -0x1(%rax),%esi
    4297:	40 88 34 29          	mov    %sil,(%rcx,%rbp,1)
    429b:	42 c6 04 29 ff       	movb   $0xff,(%rcx,%r13,1)
    42a0:	48 39 c7             	cmp    %rax,%rdi
    42a3:	75 d3                	jne    4278 <get_rgb_row+0x1d8>
    42a5:	e9 12 ff ff ff       	jmp    41bc <get_rgb_row+0x11c>
    42aa:	66 0f 1f 44 00 00    	nopw   0x0(%rax,%rax,1)
/home/tenebris/Disk/Documents/RootCauseAnalysis/evaluation/test_bin/libjpeg/libjpeg_heap_buffer_overflow/libjpeg-turbo/rdppm.c:429
      RGB_READ_LOOP(*bufferptr++,)
    42b0:	85 c9                	test   %ecx,%ecx
    42b2:	0f 84 04 ff ff ff    	je     41bc <get_rgb_row+0x11c>
/home/tenebris/Disk/Documents/RootCauseAnalysis/evaluation/test_bin/libjpeg/libjpeg_heap_buffer_overflow/libjpeg-turbo/rdppm.c:427
      RGB_READ_LOOP(*bufferptr++, ptr[aindex] = 0xFF;)
    42b8:	48 63 5c 24 04       	movslq 0x4(%rsp),%rbx
    42bd:	4c 63 64 24 08       	movslq 0x8(%rsp),%r12
    42c2:	49 63 fe             	movslq %r14d,%rdi
    42c5:	48 63 6c 24 0c       	movslq 0xc(%rsp),%rbp
    42ca:	48 01 da             	add    %rbx,%rdx
    42cd:	41 83 fe 01          	cmp    $0x1,%r14d
    42d1:	0f 85 1a 01 00 00    	jne    43f1 <get_rgb_row+0x351>
    42d7:	48 8d 3c 49          	lea    (%rcx,%rcx,2),%rdi
    42db:	48 01 c7             	add    %rax,%rdi
    42de:	66 90                	xchg   %ax,%ax
/home/tenebris/Disk/Documents/RootCauseAnalysis/evaluation/test_bin/libjpeg/libjpeg_heap_buffer_overflow/libjpeg-turbo/rdppm.c:429
      RGB_READ_LOOP(*bufferptr++,)
    42e0:	0f b6 08             	movzbl (%rax),%ecx
    42e3:	48 83 c0 03          	add    $0x3,%rax
    42e7:	88 0a                	mov    %cl,(%rdx)
    42e9:	48 89 d1             	mov    %rdx,%rcx
    42ec:	0f b6 70 fe          	movzbl -0x2(%rax),%esi
    42f0:	48 83 c2 01          	add    $0x1,%rdx
    42f4:	48 29 d9             	sub    %rbx,%rcx
    42f7:	42 88 34 21          	mov    %sil,(%rcx,%r12,1)
    42fb:	0f b6 70 ff          	movzbl -0x1(%rax),%esi
    42ff:	40 88 34 29          	mov    %sil,(%rcx,%rbp,1)
    4303:	48 39 c7             	cmp    %rax,%rdi
    4306:	75 d8                	jne    42e0 <get_rgb_row+0x240>
    4308:	e9 af fe ff ff       	jmp    41bc <get_rgb_row+0x11c>
    430d:	0f 1f 00             	nopl   (%rax)
    4310:	4c 8d 0c 49          	lea    (%rcx,%rcx,2),%r9
    4314:	49 01 c1             	add    %rax,%r9
    4317:	66 0f 1f 84 00 00 00 	nopw   0x0(%rax,%rax,1)
    431e:	00 00 
/home/tenebris/Disk/Documents/RootCauseAnalysis/evaluation/test_bin/libjpeg/libjpeg_heap_buffer_overflow/libjpeg-turbo/rdppm.c:432 (discriminator 3)
      RGB_READ_LOOP(rescale[UCH(*bufferptr++)], ptr[aindex] = 0xFF;)
    4320:	0f b6 08             	movzbl (%rax),%ecx
    4323:	48 83 c0 03          	add    $0x3,%rax
    4327:	41 0f b6 0c 0f       	movzbl (%r15,%rcx,1),%ecx
    432c:	88 0a                	mov    %cl,(%rdx)
    432e:	0f b6 48 fe          	movzbl -0x2(%rax),%ecx
    4332:	41 0f b6 34 0f       	movzbl (%r15,%rcx,1),%esi
    4337:	48 89 d1             	mov    %rdx,%rcx
    433a:	48 01 fa             	add    %rdi,%rdx
    433d:	48 29 d9             	sub    %rbx,%rcx
    4340:	42 88 34 21          	mov    %sil,(%rcx,%r12,1)
    4344:	0f b6 70 ff          	movzbl -0x1(%rax),%esi
    4348:	41 0f b6 34 37       	movzbl (%r15,%rsi,1),%esi
    434d:	40 88 34 29          	mov    %sil,(%rcx,%rbp,1)
    4351:	42 c6 04 29 ff       	movb   $0xff,(%rcx,%r13,1)
    4356:	49 39 c1             	cmp    %rax,%r9
    4359:	75 c5                	jne    4320 <get_rgb_row+0x280>
    435b:	e9 5c fe ff ff       	jmp    41bc <get_rgb_row+0x11c>
    4360:	4c 8d 0c 49          	lea    (%rcx,%rcx,2),%r9
    4364:	49 01 c1             	add    %rax,%r9
    4367:	66 0f 1f 84 00 00 00 	nopw   0x0(%rax,%rax,1)
    436e:	00 00 
/home/tenebris/Disk/Documents/RootCauseAnalysis/evaluation/test_bin/libjpeg/libjpeg_heap_buffer_overflow/libjpeg-turbo/rdppm.c:434 (discriminator 3)
      RGB_READ_LOOP(rescale[UCH(*bufferptr++)],)
    4370:	0f b6 08             	movzbl (%rax),%ecx
    4373:	48 83 c0 03          	add    $0x3,%rax
    4377:	41 0f b6 0c 0f       	movzbl (%r15,%rcx,1),%ecx
    437c:	88 0a                	mov    %cl,(%rdx)
    437e:	0f b6 48 fe          	movzbl -0x2(%rax),%ecx
    4382:	41 0f b6 34 0f       	movzbl (%r15,%rcx,1),%esi
    4387:	48 89 d1             	mov    %rdx,%rcx
    438a:	48 01 fa             	add    %rdi,%rdx
    438d:	48 29 d9             	sub    %rbx,%rcx
    4390:	42 88 34 21          	mov    %sil,(%rcx,%r12,1)
    4394:	0f b6 70 ff          	movzbl -0x1(%rax),%esi
    4398:	41 0f b6 34 37       	movzbl (%r15,%rsi,1),%esi
    439d:	40 88 34 29          	mov    %sil,(%rcx,%rbp,1)
    43a1:	49 39 c1             	cmp    %rax,%r9
    43a4:	75 ca                	jne    4370 <get_rgb_row+0x2d0>
    43a6:	e9 11 fe ff ff       	jmp    41bc <get_rgb_row+0x11c>
    43ab:	0f 1f 44 00 00       	nopl   0x0(%rax,%rax,1)
    43b0:	4c 8d 04 49          	lea    (%rcx,%rcx,2),%r8
    43b4:	49 01 c0             	add    %rax,%r8
    43b7:	66 0f 1f 84 00 00 00 	nopw   0x0(%rax,%rax,1)
    43be:	00 00 
/home/tenebris/Disk/Documents/RootCauseAnalysis/evaluation/test_bin/libjpeg/libjpeg_heap_buffer_overflow/libjpeg-turbo/rdppm.c:427 (discriminator 3)
      RGB_READ_LOOP(*bufferptr++, ptr[aindex] = 0xFF;)
    43c0:	0f b6 08             	movzbl (%rax),%ecx
    43c3:	48 83 c0 03          	add    $0x3,%rax
    43c7:	88 0a                	mov    %cl,(%rdx)
    43c9:	48 89 d1             	mov    %rdx,%rcx
    43cc:	0f b6 70 fe          	movzbl -0x2(%rax),%esi
    43d0:	48 01 fa             	add    %rdi,%rdx
    43d3:	48 29 d9             	sub    %rbx,%rcx
    43d6:	42 88 34 21          	mov    %sil,(%rcx,%r12,1)
    43da:	0f b6 70 ff          	movzbl -0x1(%rax),%esi
    43de:	40 88 34 29          	mov    %sil,(%rcx,%rbp,1)
    43e2:	42 c6 04 29 ff       	movb   $0xff,(%rcx,%r13,1)
    43e7:	49 39 c0             	cmp    %rax,%r8
    43ea:	75 d4                	jne    43c0 <get_rgb_row+0x320>
    43ec:	e9 cb fd ff ff       	jmp    41bc <get_rgb_row+0x11c>
    43f1:	4c 8d 04 49          	lea    (%rcx,%rcx,2),%r8
    43f5:	49 01 c0             	add    %rax,%r8
    43f8:	0f 1f 84 00 00 00 00 	nopl   0x0(%rax,%rax,1)
    43ff:	00 
/home/tenebris/Disk/Documents/RootCauseAnalysis/evaluation/test_bin/libjpeg/libjpeg_heap_buffer_overflow/libjpeg-turbo/rdppm.c:429 (discriminator 3)
      RGB_READ_LOOP(*bufferptr++,)
    4400:	0f b6 08             	movzbl (%rax),%ecx
    4403:	48 83 c0 03          	add    $0x3,%rax
    4407:	88 0a                	mov    %cl,(%rdx)
    4409:	48 89 d1             	mov    %rdx,%rcx
    440c:	0f b6 70 fe          	movzbl -0x2(%rax),%esi
    4410:	48 01 fa             	add    %rdi,%rdx
    4413:	48 29 d9             	sub    %rbx,%rcx
    4416:	42 88 34 21          	mov    %sil,(%rcx,%r12,1)
    441a:	0f b6 70 ff          	movzbl -0x1(%rax),%esi
    441e:	40 88 34 29          	mov    %sil,(%rcx,%rbp,1)
    4422:	49 39 c0             	cmp    %rax,%r8
    4425:	75 d9                	jne    4400 <get_rgb_row+0x360>
    4427:	e9 90 fd ff ff       	jmp    41bc <get_rgb_row+0x11c>
    442c:	0f 1f 40 00          	nopl   0x0(%rax)

0000000000004430 <get_rgb_cmyk_row>:
get_rgb_cmyk_row():
/home/tenebris/Disk/Documents/RootCauseAnalysis/evaluation/test_bin/libjpeg/libjpeg_heap_buffer_overflow/libjpeg-turbo/rdppm.c:444
{
    4430:	f3 0f 1e fa          	endbr64 
    4434:	41 55                	push   %r13
    4436:	41 54                	push   %r12
    4438:	49 89 fc             	mov    %rdi,%r12
    443b:	55                   	push   %rbp
    443c:	48 89 f5             	mov    %rsi,%rbp
    443f:	53                   	push   %rbx
    4440:	48 83 ec 08          	sub    $0x8,%rsp
fread():
/usr/include/x86_64-linux-gnu/bits/stdio2.h:293
    4444:	48 8b 4e 18          	mov    0x18(%rsi),%rcx
    4448:	48 8b 56 40          	mov    0x40(%rsi),%rdx
    444c:	48 8b 7e 30          	mov    0x30(%rsi),%rdi
get_rgb_cmyk_row():
/home/tenebris/Disk/Documents/RootCauseAnalysis/evaluation/test_bin/libjpeg/libjpeg_heap_buffer_overflow/libjpeg-turbo/rdppm.c:448
  register JSAMPLE *rescale = source->rescale;
    4450:	48 8b 5e 48          	mov    0x48(%rsi),%rbx
/home/tenebris/Disk/Documents/RootCauseAnalysis/evaluation/test_bin/libjpeg/libjpeg_heap_buffer_overflow/libjpeg-turbo/rdppm.c:450
  unsigned int maxval = source->maxval;
    4454:	44 8b 6e 50          	mov    0x50(%rsi),%r13d
fread():
/usr/include/x86_64-linux-gnu/bits/stdio2.h:293
    4458:	be 01 00 00 00       	mov    $0x1,%esi
    445d:	e8 1e de ff ff       	call   2280 <fread@plt>
get_rgb_cmyk_row():
/home/tenebris/Disk/Documents/RootCauseAnalysis/evaluation/test_bin/libjpeg/libjpeg_heap_buffer_overflow/libjpeg-turbo/rdppm.c:452
  if (!ReadOK(source->pub.input_file, source->iobuffer, source->buffer_width))
    4462:	48 39 45 40          	cmp    %rax,0x40(%rbp)
    4466:	74 10                	je     4478 <get_rgb_cmyk_row+0x48>
/home/tenebris/Disk/Documents/RootCauseAnalysis/evaluation/test_bin/libjpeg/libjpeg_heap_buffer_overflow/libjpeg-turbo/rdppm.c:453
    ERREXIT(cinfo, JERR_INPUT_EOF);
    4468:	49 8b 04 24          	mov    (%r12),%rax
    446c:	4c 89 e7             	mov    %r12,%rdi
    446f:	c7 40 28 2b 00 00 00 	movl   $0x2b,0x28(%rax)
    4476:	ff 10                	call   *(%rax)
/home/tenebris/Disk/Documents/RootCauseAnalysis/evaluation/test_bin/libjpeg/libjpeg_heap_buffer_overflow/libjpeg-turbo/rdppm.c:454
  ptr = source->pub.buffer[0];
    4478:	48 8b 45 20          	mov    0x20(%rbp),%rax
/home/tenebris/Disk/Documents/RootCauseAnalysis/evaluation/test_bin/libjpeg/libjpeg_heap_buffer_overflow/libjpeg-turbo/rdppm.c:455
  bufferptr = source->iobuffer;
    447c:	48 8b 55 30          	mov    0x30(%rbp),%rdx
/home/tenebris/Disk/Documents/RootCauseAnalysis/evaluation/test_bin/libjpeg/libjpeg_heap_buffer_overflow/libjpeg-turbo/rdppm.c:457
    for (col = cinfo->image_width; col > 0; col--) {
    4480:	41 8b 4c 24 30       	mov    0x30(%r12),%ecx
/home/tenebris/Disk/Documents/RootCauseAnalysis/evaluation/test_bin/libjpeg/libjpeg_heap_buffer_overflow/libjpeg-turbo/rdppm.c:454
  ptr = source->pub.buffer[0];
    4485:	48 8b 00             	mov    (%rax),%rax
/home/tenebris/Disk/Documents/RootCauseAnalysis/evaluation/test_bin/libjpeg/libjpeg_heap_buffer_overflow/libjpeg-turbo/rdppm.c:456
  if (maxval == MAXJSAMPLE) {
    4488:	41 81 fd ff 00 00 00 	cmp    $0xff,%r13d
    448f:	0f 84 6b 01 00 00    	je     4600 <get_rgb_cmyk_row+0x1d0>
/home/tenebris/Disk/Documents/RootCauseAnalysis/evaluation/test_bin/libjpeg/libjpeg_heap_buffer_overflow/libjpeg-turbo/rdppm.c:465
    for (col = cinfo->image_width; col > 0; col--) {
    4495:	85 c9                	test   %ecx,%ecx
    4497:	0f 84 23 01 00 00    	je     45c0 <get_rgb_cmyk_row+0x190>
    449d:	f2 0f 10 05 43 5d 00 	movsd  0x5d43(%rip),%xmm0        # a1e8 <rgb_red+0x48>
    44a4:	00 
    44a5:	f2 0f 10 15 43 5d 00 	movsd  0x5d43(%rip),%xmm2        # a1f0 <rgb_red+0x50>
    44ac:	00 
    44ad:	48 8d 0c 88          	lea    (%rax,%rcx,4),%rcx
rgb_to_cmyk():
/home/tenebris/Disk/Documents/RootCauseAnalysis/evaluation/test_bin/libjpeg/libjpeg_heap_buffer_overflow/libjpeg-turbo/cmyk.h:41
  *c = (JSAMPLE)(255.0 - ctmp * 255.0 + 0.5);
    44b1:	f2 0f 10 35 3f 5d 00 	movsd  0x5d3f(%rip),%xmm6        # a1f8 <rgb_red+0x58>
    44b8:	00 
    44b9:	0f 1f 80 00 00 00 00 	nopl   0x0(%rax)
get_rgb_cmyk_row():
/home/tenebris/Disk/Documents/RootCauseAnalysis/evaluation/test_bin/libjpeg/libjpeg_heap_buffer_overflow/libjpeg-turbo/rdppm.c:466 (discriminator 3)
      JSAMPLE r = rescale[UCH(*bufferptr++)];
    44c0:	0f b6 3a             	movzbl (%rdx),%edi
rgb_to_cmyk():
/home/tenebris/Disk/Documents/RootCauseAnalysis/evaluation/test_bin/libjpeg/libjpeg_heap_buffer_overflow/libjpeg-turbo/cmyk.h:30 (discriminator 3)
  double ctmp = 1.0 - ((double)r / 255.0);
    44c3:	66 0f ef c9          	pxor   %xmm1,%xmm1
get_rgb_cmyk_row():
/home/tenebris/Disk/Documents/RootCauseAnalysis/evaluation/test_bin/libjpeg/libjpeg_heap_buffer_overflow/libjpeg-turbo/rdppm.c:467 (discriminator 3)
      JSAMPLE g = rescale[UCH(*bufferptr++)];
    44c7:	0f b6 72 01          	movzbl 0x1(%rdx),%esi
rgb_to_cmyk():
/home/tenebris/Disk/Documents/RootCauseAnalysis/evaluation/test_bin/libjpeg/libjpeg_heap_buffer_overflow/libjpeg-turbo/cmyk.h:30 (discriminator 3)
    44cb:	66 0f 28 ea          	movapd %xmm2,%xmm5
    44cf:	48 83 c2 03          	add    $0x3,%rdx
/home/tenebris/Disk/Documents/RootCauseAnalysis/evaluation/test_bin/libjpeg/libjpeg_heap_buffer_overflow/libjpeg-turbo/cmyk.h:31 (discriminator 3)
  double mtmp = 1.0 - ((double)g / 255.0);
    44d3:	66 0f 28 e2          	movapd %xmm2,%xmm4
/home/tenebris/Disk/Documents/RootCauseAnalysis/evaluation/test_bin/libjpeg/libjpeg_heap_buffer_overflow/libjpeg-turbo/cmyk.h:32 (discriminator 3)
  double ytmp = 1.0 - ((double)b / 255.0);
    44d7:	66 0f 28 da          	movapd %xmm2,%xmm3
/home/tenebris/Disk/Documents/RootCauseAnalysis/evaluation/test_bin/libjpeg/libjpeg_heap_buffer_overflow/libjpeg-turbo/cmyk.h:30 (discriminator 3)
  double ctmp = 1.0 - ((double)r / 255.0);
    44db:	0f b6 3c 3b          	movzbl (%rbx,%rdi,1),%edi
/home/tenebris/Disk/Documents/RootCauseAnalysis/evaluation/test_bin/libjpeg/libjpeg_heap_buffer_overflow/libjpeg-turbo/cmyk.h:31 (discriminator 3)
  double mtmp = 1.0 - ((double)g / 255.0);
    44df:	0f b6 34 33          	movzbl (%rbx,%rsi,1),%esi
/home/tenebris/Disk/Documents/RootCauseAnalysis/evaluation/test_bin/libjpeg/libjpeg_heap_buffer_overflow/libjpeg-turbo/cmyk.h:30 (discriminator 3)
  double ctmp = 1.0 - ((double)r / 255.0);
    44e3:	f2 0f 2a cf          	cvtsi2sd %edi,%xmm1
    44e7:	f2 0f 5e c8          	divsd  %xmm0,%xmm1
    44eb:	f2 0f 5c e9          	subsd  %xmm1,%xmm5
/home/tenebris/Disk/Documents/RootCauseAnalysis/evaluation/test_bin/libjpeg/libjpeg_heap_buffer_overflow/libjpeg-turbo/cmyk.h:31 (discriminator 3)
  double mtmp = 1.0 - ((double)g / 255.0);
    44ef:	66 0f ef c9          	pxor   %xmm1,%xmm1
    44f3:	f2 0f 2a ce          	cvtsi2sd %esi,%xmm1
get_rgb_cmyk_row():
/home/tenebris/Disk/Documents/RootCauseAnalysis/evaluation/test_bin/libjpeg/libjpeg_heap_buffer_overflow/libjpeg-turbo/rdppm.c:468 (discriminator 3)
      JSAMPLE b = rescale[UCH(*bufferptr++)];
    44f7:	0f b6 72 ff          	movzbl -0x1(%rdx),%esi
rgb_to_cmyk():
/home/tenebris/Disk/Documents/RootCauseAnalysis/evaluation/test_bin/libjpeg/libjpeg_heap_buffer_overflow/libjpeg-turbo/cmyk.h:32 (discriminator 3)
  double ytmp = 1.0 - ((double)b / 255.0);
    44fb:	0f b6 34 33          	movzbl (%rbx,%rsi,1),%esi
/home/tenebris/Disk/Documents/RootCauseAnalysis/evaluation/test_bin/libjpeg/libjpeg_heap_buffer_overflow/libjpeg-turbo/cmyk.h:31 (discriminator 3)
  double mtmp = 1.0 - ((double)g / 255.0);
    44ff:	f2 0f 5e c8          	divsd  %xmm0,%xmm1
    4503:	f2 0f 5c e1          	subsd  %xmm1,%xmm4
/home/tenebris/Disk/Documents/RootCauseAnalysis/evaluation/test_bin/libjpeg/libjpeg_heap_buffer_overflow/libjpeg-turbo/cmyk.h:32 (discriminator 3)
  double ytmp = 1.0 - ((double)b / 255.0);
    4507:	66 0f ef c9          	pxor   %xmm1,%xmm1
    450b:	f2 0f 2a ce          	cvtsi2sd %esi,%xmm1
    450f:	f2 0f 5e c8          	divsd  %xmm0,%xmm1
    4513:	f2 0f 5c d9          	subsd  %xmm1,%xmm3
/home/tenebris/Disk/Documents/RootCauseAnalysis/evaluation/test_bin/libjpeg/libjpeg_heap_buffer_overflow/libjpeg-turbo/cmyk.h:33 (discriminator 3)
  double ktmp = MIN(MIN(ctmp, mtmp), ytmp);
    4517:	66 0f 28 cd          	movapd %xmm5,%xmm1
    451b:	f2 0f 5d cc          	minsd  %xmm4,%xmm1
    451f:	f2 0f 5d cb          	minsd  %xmm3,%xmm1
/home/tenebris/Disk/Documents/RootCauseAnalysis/evaluation/test_bin/libjpeg/libjpeg_heap_buffer_overflow/libjpeg-turbo/cmyk.h:35 (discriminator 3)
  if (ktmp == 1.0) ctmp = mtmp = ytmp = 0.0;
    4523:	66 0f 2e ca          	ucomisd %xmm2,%xmm1
    4527:	7a 06                	jp     452f <get_rgb_cmyk_row+0xff>
/home/tenebris/Disk/Documents/RootCauseAnalysis/evaluation/test_bin/libjpeg/libjpeg_heap_buffer_overflow/libjpeg-turbo/cmyk.h:35
    4529:	0f 84 a1 00 00 00    	je     45d0 <get_rgb_cmyk_row+0x1a0>
/home/tenebris/Disk/Documents/RootCauseAnalysis/evaluation/test_bin/libjpeg/libjpeg_heap_buffer_overflow/libjpeg-turbo/cmyk.h:37
    ctmp = (ctmp - ktmp) / (1.0 - ktmp);
    452f:	66 0f 28 fa          	movapd %xmm2,%xmm7
    4533:	f2 0f 5c e9          	subsd  %xmm1,%xmm5
/home/tenebris/Disk/Documents/RootCauseAnalysis/evaluation/test_bin/libjpeg/libjpeg_heap_buffer_overflow/libjpeg-turbo/cmyk.h:38
    mtmp = (mtmp - ktmp) / (1.0 - ktmp);
    4537:	f2 0f 5c e1          	subsd  %xmm1,%xmm4
get_rgb_cmyk_row():
/home/tenebris/Disk/Documents/RootCauseAnalysis/evaluation/test_bin/libjpeg/libjpeg_heap_buffer_overflow/libjpeg-turbo/rdppm.c:470
      ptr += 4;
    453b:	48 83 c0 04          	add    $0x4,%rax
rgb_to_cmyk():
/home/tenebris/Disk/Documents/RootCauseAnalysis/evaluation/test_bin/libjpeg/libjpeg_heap_buffer_overflow/libjpeg-turbo/cmyk.h:37
    ctmp = (ctmp - ktmp) / (1.0 - ktmp);
    453f:	f2 0f 5c f9          	subsd  %xmm1,%xmm7
/home/tenebris/Disk/Documents/RootCauseAnalysis/evaluation/test_bin/libjpeg/libjpeg_heap_buffer_overflow/libjpeg-turbo/cmyk.h:39
    ytmp = (ytmp - ktmp) / (1.0 - ktmp);
    4543:	f2 0f 5c d9          	subsd  %xmm1,%xmm3
/home/tenebris/Disk/Documents/RootCauseAnalysis/evaluation/test_bin/libjpeg/libjpeg_heap_buffer_overflow/libjpeg-turbo/cmyk.h:41
  *c = (JSAMPLE)(255.0 - ctmp * 255.0 + 0.5);
    4547:	66 44 0f 28 c0       	movapd %xmm0,%xmm8
/home/tenebris/Disk/Documents/RootCauseAnalysis/evaluation/test_bin/libjpeg/libjpeg_heap_buffer_overflow/libjpeg-turbo/cmyk.h:44
  *k = (JSAMPLE)(255.0 - ktmp * 255.0 + 0.5);
    454c:	f2 0f 59 c8          	mulsd  %xmm0,%xmm1
/home/tenebris/Disk/Documents/RootCauseAnalysis/evaluation/test_bin/libjpeg/libjpeg_heap_buffer_overflow/libjpeg-turbo/cmyk.h:37
    ctmp = (ctmp - ktmp) / (1.0 - ktmp);
    4550:	f2 0f 5e ef          	divsd  %xmm7,%xmm5
/home/tenebris/Disk/Documents/RootCauseAnalysis/evaluation/test_bin/libjpeg/libjpeg_heap_buffer_overflow/libjpeg-turbo/cmyk.h:38
    mtmp = (mtmp - ktmp) / (1.0 - ktmp);
    4554:	f2 0f 5e e7          	divsd  %xmm7,%xmm4
/home/tenebris/Disk/Documents/RootCauseAnalysis/evaluation/test_bin/libjpeg/libjpeg_heap_buffer_overflow/libjpeg-turbo/cmyk.h:41
  *c = (JSAMPLE)(255.0 - ctmp * 255.0 + 0.5);
    4558:	f2 0f 59 e8          	mulsd  %xmm0,%xmm5
    455c:	f2 44 0f 5c c5       	subsd  %xmm5,%xmm8
/home/tenebris/Disk/Documents/RootCauseAnalysis/evaluation/test_bin/libjpeg/libjpeg_heap_buffer_overflow/libjpeg-turbo/cmyk.h:42
  *m = (JSAMPLE)(255.0 - mtmp * 255.0 + 0.5);
    4561:	66 0f 28 e8          	movapd %xmm0,%xmm5
/home/tenebris/Disk/Documents/RootCauseAnalysis/evaluation/test_bin/libjpeg/libjpeg_heap_buffer_overflow/libjpeg-turbo/cmyk.h:41
  *c = (JSAMPLE)(255.0 - ctmp * 255.0 + 0.5);
    4565:	f2 44 0f 58 c6       	addsd  %xmm6,%xmm8
    456a:	f2 41 0f 2c f0       	cvttsd2si %xmm8,%esi
/home/tenebris/Disk/Documents/RootCauseAnalysis/evaluation/test_bin/libjpeg/libjpeg_heap_buffer_overflow/libjpeg-turbo/cmyk.h:39
    ytmp = (ytmp - ktmp) / (1.0 - ktmp);
    456f:	f2 0f 5e df          	divsd  %xmm7,%xmm3
/home/tenebris/Disk/Documents/RootCauseAnalysis/evaluation/test_bin/libjpeg/libjpeg_heap_buffer_overflow/libjpeg-turbo/cmyk.h:41
  *c = (JSAMPLE)(255.0 - ctmp * 255.0 + 0.5);
    4573:	40 88 70 fc          	mov    %sil,-0x4(%rax)
/home/tenebris/Disk/Documents/RootCauseAnalysis/evaluation/test_bin/libjpeg/libjpeg_heap_buffer_overflow/libjpeg-turbo/cmyk.h:42
  *m = (JSAMPLE)(255.0 - mtmp * 255.0 + 0.5);
    4577:	f2 0f 59 e0          	mulsd  %xmm0,%xmm4
    457b:	f2 0f 5c ec          	subsd  %xmm4,%xmm5
/home/tenebris/Disk/Documents/RootCauseAnalysis/evaluation/test_bin/libjpeg/libjpeg_heap_buffer_overflow/libjpeg-turbo/cmyk.h:43
  *y = (JSAMPLE)(255.0 - ytmp * 255.0 + 0.5);
    457f:	66 0f 28 e0          	movapd %xmm0,%xmm4
/home/tenebris/Disk/Documents/RootCauseAnalysis/evaluation/test_bin/libjpeg/libjpeg_heap_buffer_overflow/libjpeg-turbo/cmyk.h:42
  *m = (JSAMPLE)(255.0 - mtmp * 255.0 + 0.5);
    4583:	f2 0f 58 ee          	addsd  %xmm6,%xmm5
    4587:	f2 0f 2c f5          	cvttsd2si %xmm5,%esi
    458b:	40 88 70 fd          	mov    %sil,-0x3(%rax)
/home/tenebris/Disk/Documents/RootCauseAnalysis/evaluation/test_bin/libjpeg/libjpeg_heap_buffer_overflow/libjpeg-turbo/cmyk.h:43
  *y = (JSAMPLE)(255.0 - ytmp * 255.0 + 0.5);
    458f:	f2 0f 59 d8          	mulsd  %xmm0,%xmm3
    4593:	f2 0f 5c e3          	subsd  %xmm3,%xmm4
/home/tenebris/Disk/Documents/RootCauseAnalysis/evaluation/test_bin/libjpeg/libjpeg_heap_buffer_overflow/libjpeg-turbo/cmyk.h:44
  *k = (JSAMPLE)(255.0 - ktmp * 255.0 + 0.5);
    4597:	66 0f 28 d8          	movapd %xmm0,%xmm3
    459b:	f2 0f 5c d9          	subsd  %xmm1,%xmm3
/home/tenebris/Disk/Documents/RootCauseAnalysis/evaluation/test_bin/libjpeg/libjpeg_heap_buffer_overflow/libjpeg-turbo/cmyk.h:43
  *y = (JSAMPLE)(255.0 - ytmp * 255.0 + 0.5);
    459f:	f2 0f 58 e6          	addsd  %xmm6,%xmm4
/home/tenebris/Disk/Documents/RootCauseAnalysis/evaluation/test_bin/libjpeg/libjpeg_heap_buffer_overflow/libjpeg-turbo/cmyk.h:44
  *k = (JSAMPLE)(255.0 - ktmp * 255.0 + 0.5);
    45a3:	f2 0f 58 de          	addsd  %xmm6,%xmm3
/home/tenebris/Disk/Documents/RootCauseAnalysis/evaluation/test_bin/libjpeg/libjpeg_heap_buffer_overflow/libjpeg-turbo/cmyk.h:43
  *y = (JSAMPLE)(255.0 - ytmp * 255.0 + 0.5);
    45a7:	f2 0f 2c f4          	cvttsd2si %xmm4,%esi
    45ab:	40 88 70 fe          	mov    %sil,-0x2(%rax)
/home/tenebris/Disk/Documents/RootCauseAnalysis/evaluation/test_bin/libjpeg/libjpeg_heap_buffer_overflow/libjpeg-turbo/cmyk.h:44
  *k = (JSAMPLE)(255.0 - ktmp * 255.0 + 0.5);
    45af:	f2 0f 2c f3          	cvttsd2si %xmm3,%esi
    45b3:	40 88 70 ff          	mov    %sil,-0x1(%rax)
get_rgb_cmyk_row():
/home/tenebris/Disk/Documents/RootCauseAnalysis/evaluation/test_bin/libjpeg/libjpeg_heap_buffer_overflow/libjpeg-turbo/rdppm.c:465
    for (col = cinfo->image_width; col > 0; col--) {
    45b7:	48 39 c8             	cmp    %rcx,%rax
    45ba:	0f 85 00 ff ff ff    	jne    44c0 <get_rgb_cmyk_row+0x90>
/home/tenebris/Disk/Documents/RootCauseAnalysis/evaluation/test_bin/libjpeg/libjpeg_heap_buffer_overflow/libjpeg-turbo/rdppm.c:474
}
    45c0:	48 83 c4 08          	add    $0x8,%rsp
    45c4:	b8 01 00 00 00       	mov    $0x1,%eax
    45c9:	5b                   	pop    %rbx
    45ca:	5d                   	pop    %rbp
    45cb:	41 5c                	pop    %r12
    45cd:	41 5d                	pop    %r13
    45cf:	c3                   	ret    
rgb_to_cmyk():
/home/tenebris/Disk/Documents/RootCauseAnalysis/evaluation/test_bin/libjpeg/libjpeg_heap_buffer_overflow/libjpeg-turbo/cmyk.h:41
  *c = (JSAMPLE)(255.0 - ctmp * 255.0 + 0.5);
    45d0:	c6 00 ff             	movb   $0xff,(%rax)
get_rgb_cmyk_row():
/home/tenebris/Disk/Documents/RootCauseAnalysis/evaluation/test_bin/libjpeg/libjpeg_heap_buffer_overflow/libjpeg-turbo/rdppm.c:470
      ptr += 4;
    45d3:	48 83 c0 04          	add    $0x4,%rax
rgb_to_cmyk():
/home/tenebris/Disk/Documents/RootCauseAnalysis/evaluation/test_bin/libjpeg/libjpeg_heap_buffer_overflow/libjpeg-turbo/cmyk.h:42
  *m = (JSAMPLE)(255.0 - mtmp * 255.0 + 0.5);
    45d7:	c6 40 fd ff          	movb   $0xff,-0x3(%rax)
/home/tenebris/Disk/Documents/RootCauseAnalysis/evaluation/test_bin/libjpeg/libjpeg_heap_buffer_overflow/libjpeg-turbo/cmyk.h:43
  *y = (JSAMPLE)(255.0 - ytmp * 255.0 + 0.5);
    45db:	c6 40 fe ff          	movb   $0xff,-0x2(%rax)
/home/tenebris/Disk/Documents/RootCauseAnalysis/evaluation/test_bin/libjpeg/libjpeg_heap_buffer_overflow/libjpeg-turbo/cmyk.h:44
  *k = (JSAMPLE)(255.0 - ktmp * 255.0 + 0.5);
    45df:	c6 40 ff 00          	movb   $0x0,-0x1(%rax)
get_rgb_cmyk_row():
/home/tenebris/Disk/Documents/RootCauseAnalysis/evaluation/test_bin/libjpeg/libjpeg_heap_buffer_overflow/libjpeg-turbo/rdppm.c:465
    for (col = cinfo->image_width; col > 0; col--) {
    45e3:	48 39 c8             	cmp    %rcx,%rax
    45e6:	0f 85 d4 fe ff ff    	jne    44c0 <get_rgb_cmyk_row+0x90>
/home/tenebris/Disk/Documents/RootCauseAnalysis/evaluation/test_bin/libjpeg/libjpeg_heap_buffer_overflow/libjpeg-turbo/rdppm.c:474
}
    45ec:	48 83 c4 08          	add    $0x8,%rsp
    45f0:	b8 01 00 00 00       	mov    $0x1,%eax
    45f5:	5b                   	pop    %rbx
    45f6:	5d                   	pop    %rbp
    45f7:	41 5c                	pop    %r12
    45f9:	41 5d                	pop    %r13
    45fb:	c3                   	ret    
    45fc:	0f 1f 40 00          	nopl   0x0(%rax)
/home/tenebris/Disk/Documents/RootCauseAnalysis/evaluation/test_bin/libjpeg/libjpeg_heap_buffer_overflow/libjpeg-turbo/rdppm.c:457
    for (col = cinfo->image_width; col > 0; col--) {
    4600:	85 c9                	test   %ecx,%ecx
    4602:	74 bc                	je     45c0 <get_rgb_cmyk_row+0x190>
    4604:	f2 0f 10 05 dc 5b 00 	movsd  0x5bdc(%rip),%xmm0        # a1e8 <rgb_red+0x48>
    460b:	00 
    460c:	f2 0f 10 15 dc 5b 00 	movsd  0x5bdc(%rip),%xmm2        # a1f0 <rgb_red+0x50>
    4613:	00 
    4614:	48 8d 34 88          	lea    (%rax,%rcx,4),%rsi
rgb_to_cmyk():
/home/tenebris/Disk/Documents/RootCauseAnalysis/evaluation/test_bin/libjpeg/libjpeg_heap_buffer_overflow/libjpeg-turbo/cmyk.h:41
  *c = (JSAMPLE)(255.0 - ctmp * 255.0 + 0.5);
    4618:	f2 0f 10 35 d8 5b 00 	movsd  0x5bd8(%rip),%xmm6        # a1f8 <rgb_red+0x58>
    461f:	00 
get_rgb_cmyk_row():
/home/tenebris/Disk/Documents/RootCauseAnalysis/evaluation/test_bin/libjpeg/libjpeg_heap_buffer_overflow/libjpeg-turbo/rdppm.c:458 (discriminator 3)
      JSAMPLE r = *bufferptr++;
    4620:	0f b6 3a             	movzbl (%rdx),%edi
rgb_to_cmyk():
/home/tenebris/Disk/Documents/RootCauseAnalysis/evaluation/test_bin/libjpeg/libjpeg_heap_buffer_overflow/libjpeg-turbo/cmyk.h:30 (discriminator 3)
  double ctmp = 1.0 - ((double)r / 255.0);
    4623:	66 0f ef c9          	pxor   %xmm1,%xmm1
get_rgb_cmyk_row():
/home/tenebris/Disk/Documents/RootCauseAnalysis/evaluation/test_bin/libjpeg/libjpeg_heap_buffer_overflow/libjpeg-turbo/rdppm.c:459 (discriminator 3)
      JSAMPLE g = *bufferptr++;
    4627:	0f b6 4a 01          	movzbl 0x1(%rdx),%ecx
rgb_to_cmyk():
/home/tenebris/Disk/Documents/RootCauseAnalysis/evaluation/test_bin/libjpeg/libjpeg_heap_buffer_overflow/libjpeg-turbo/cmyk.h:30 (discriminator 3)
    462b:	66 0f 28 ea          	movapd %xmm2,%xmm5
    462f:	48 83 c2 03          	add    $0x3,%rdx
/home/tenebris/Disk/Documents/RootCauseAnalysis/evaluation/test_bin/libjpeg/libjpeg_heap_buffer_overflow/libjpeg-turbo/cmyk.h:31 (discriminator 3)
  double mtmp = 1.0 - ((double)g / 255.0);
    4633:	66 0f 28 e2          	movapd %xmm2,%xmm4
/home/tenebris/Disk/Documents/RootCauseAnalysis/evaluation/test_bin/libjpeg/libjpeg_heap_buffer_overflow/libjpeg-turbo/cmyk.h:32 (discriminator 3)
  double ytmp = 1.0 - ((double)b / 255.0);
    4637:	66 0f 28 da          	movapd %xmm2,%xmm3
/home/tenebris/Disk/Documents/RootCauseAnalysis/evaluation/test_bin/libjpeg/libjpeg_heap_buffer_overflow/libjpeg-turbo/cmyk.h:30 (discriminator 3)
  double ctmp = 1.0 - ((double)r / 255.0);
    463b:	f2 0f 2a cf          	cvtsi2sd %edi,%xmm1
    463f:	f2 0f 5e c8          	divsd  %xmm0,%xmm1
    4643:	f2 0f 5c e9          	subsd  %xmm1,%xmm5
/home/tenebris/Disk/Documents/RootCauseAnalysis/evaluation/test_bin/libjpeg/libjpeg_heap_buffer_overflow/libjpeg-turbo/cmyk.h:31 (discriminator 3)
  double mtmp = 1.0 - ((double)g / 255.0);
    4647:	66 0f ef c9          	pxor   %xmm1,%xmm1
    464b:	f2 0f 2a c9          	cvtsi2sd %ecx,%xmm1
/home/tenebris/Disk/Documents/RootCauseAnalysis/evaluation/test_bin/libjpeg/libjpeg_heap_buffer_overflow/libjpeg-turbo/cmyk.h:32 (discriminator 3)
  double ytmp = 1.0 - ((double)b / 255.0);
    464f:	0f b6 4a ff          	movzbl -0x1(%rdx),%ecx
/home/tenebris/Disk/Documents/RootCauseAnalysis/evaluation/test_bin/libjpeg/libjpeg_heap_buffer_overflow/libjpeg-turbo/cmyk.h:31 (discriminator 3)
  double mtmp = 1.0 - ((double)g / 255.0);
    4653:	f2 0f 5e c8          	divsd  %xmm0,%xmm1
    4657:	f2 0f 5c e1          	subsd  %xmm1,%xmm4
/home/tenebris/Disk/Documents/RootCauseAnalysis/evaluation/test_bin/libjpeg/libjpeg_heap_buffer_overflow/libjpeg-turbo/cmyk.h:32 (discriminator 3)
  double ytmp = 1.0 - ((double)b / 255.0);
    465b:	66 0f ef c9          	pxor   %xmm1,%xmm1
    465f:	f2 0f 2a c9          	cvtsi2sd %ecx,%xmm1
    4663:	f2 0f 5e c8          	divsd  %xmm0,%xmm1
    4667:	f2 0f 5c d9          	subsd  %xmm1,%xmm3
/home/tenebris/Disk/Documents/RootCauseAnalysis/evaluation/test_bin/libjpeg/libjpeg_heap_buffer_overflow/libjpeg-turbo/cmyk.h:33 (discriminator 3)
  double ktmp = MIN(MIN(ctmp, mtmp), ytmp);
    466b:	66 0f 28 cd          	movapd %xmm5,%xmm1
    466f:	f2 0f 5d cc          	minsd  %xmm4,%xmm1
    4673:	f2 0f 5d cb          	minsd  %xmm3,%xmm1
/home/tenebris/Disk/Documents/RootCauseAnalysis/evaluation/test_bin/libjpeg/libjpeg_heap_buffer_overflow/libjpeg-turbo/cmyk.h:35 (discriminator 3)
  if (ktmp == 1.0) ctmp = mtmp = ytmp = 0.0;
    4677:	66 0f 2e ca          	ucomisd %xmm2,%xmm1
    467b:	7a 06                	jp     4683 <get_rgb_cmyk_row+0x253>
/home/tenebris/Disk/Documents/RootCauseAnalysis/evaluation/test_bin/libjpeg/libjpeg_heap_buffer_overflow/libjpeg-turbo/cmyk.h:35
    467d:	0f 84 9d 00 00 00    	je     4720 <get_rgb_cmyk_row+0x2f0>
/home/tenebris/Disk/Documents/RootCauseAnalysis/evaluation/test_bin/libjpeg/libjpeg_heap_buffer_overflow/libjpeg-turbo/cmyk.h:37
    ctmp = (ctmp - ktmp) / (1.0 - ktmp);
    4683:	66 0f 28 fa          	movapd %xmm2,%xmm7
    4687:	f2 0f 5c e9          	subsd  %xmm1,%xmm5
/home/tenebris/Disk/Documents/RootCauseAnalysis/evaluation/test_bin/libjpeg/libjpeg_heap_buffer_overflow/libjpeg-turbo/cmyk.h:38
    mtmp = (mtmp - ktmp) / (1.0 - ktmp);
    468b:	f2 0f 5c e1          	subsd  %xmm1,%xmm4
get_rgb_cmyk_row():
/home/tenebris/Disk/Documents/RootCauseAnalysis/evaluation/test_bin/libjpeg/libjpeg_heap_buffer_overflow/libjpeg-turbo/rdppm.c:462
      ptr += 4;
    468f:	48 83 c0 04          	add    $0x4,%rax
rgb_to_cmyk():
/home/tenebris/Disk/Documents/RootCauseAnalysis/evaluation/test_bin/libjpeg/libjpeg_heap_buffer_overflow/libjpeg-turbo/cmyk.h:37
    ctmp = (ctmp - ktmp) / (1.0 - ktmp);
    4693:	f2 0f 5c f9          	subsd  %xmm1,%xmm7
/home/tenebris/Disk/Documents/RootCauseAnalysis/evaluation/test_bin/libjpeg/libjpeg_heap_buffer_overflow/libjpeg-turbo/cmyk.h:39
    ytmp = (ytmp - ktmp) / (1.0 - ktmp);
    4697:	f2 0f 5c d9          	subsd  %xmm1,%xmm3
/home/tenebris/Disk/Documents/RootCauseAnalysis/evaluation/test_bin/libjpeg/libjpeg_heap_buffer_overflow/libjpeg-turbo/cmyk.h:41
  *c = (JSAMPLE)(255.0 - ctmp * 255.0 + 0.5);
    469b:	66 44 0f 28 c0       	movapd %xmm0,%xmm8
/home/tenebris/Disk/Documents/RootCauseAnalysis/evaluation/test_bin/libjpeg/libjpeg_heap_buffer_overflow/libjpeg-turbo/cmyk.h:44
  *k = (JSAMPLE)(255.0 - ktmp * 255.0 + 0.5);
    46a0:	f2 0f 59 c8          	mulsd  %xmm0,%xmm1
/home/tenebris/Disk/Documents/RootCauseAnalysis/evaluation/test_bin/libjpeg/libjpeg_heap_buffer_overflow/libjpeg-turbo/cmyk.h:37
    ctmp = (ctmp - ktmp) / (1.0 - ktmp);
    46a4:	f2 0f 5e ef          	divsd  %xmm7,%xmm5
/home/tenebris/Disk/Documents/RootCauseAnalysis/evaluation/test_bin/libjpeg/libjpeg_heap_buffer_overflow/libjpeg-turbo/cmyk.h:38
    mtmp = (mtmp - ktmp) / (1.0 - ktmp);
    46a8:	f2 0f 5e e7          	divsd  %xmm7,%xmm4
/home/tenebris/Disk/Documents/RootCauseAnalysis/evaluation/test_bin/libjpeg/libjpeg_heap_buffer_overflow/libjpeg-turbo/cmyk.h:41
  *c = (JSAMPLE)(255.0 - ctmp * 255.0 + 0.5);
    46ac:	f2 0f 59 e8          	mulsd  %xmm0,%xmm5
    46b0:	f2 44 0f 5c c5       	subsd  %xmm5,%xmm8
/home/tenebris/Disk/Documents/RootCauseAnalysis/evaluation/test_bin/libjpeg/libjpeg_heap_buffer_overflow/libjpeg-turbo/cmyk.h:42
  *m = (JSAMPLE)(255.0 - mtmp * 255.0 + 0.5);
    46b5:	66 0f 28 e8          	movapd %xmm0,%xmm5
/home/tenebris/Disk/Documents/RootCauseAnalysis/evaluation/test_bin/libjpeg/libjpeg_heap_buffer_overflow/libjpeg-turbo/cmyk.h:41
  *c = (JSAMPLE)(255.0 - ctmp * 255.0 + 0.5);
    46b9:	f2 44 0f 58 c6       	addsd  %xmm6,%xmm8
    46be:	f2 41 0f 2c c8       	cvttsd2si %xmm8,%ecx
/home/tenebris/Disk/Documents/RootCauseAnalysis/evaluation/test_bin/libjpeg/libjpeg_heap_buffer_overflow/libjpeg-turbo/cmyk.h:39
    ytmp = (ytmp - ktmp) / (1.0 - ktmp);
    46c3:	f2 0f 5e df          	divsd  %xmm7,%xmm3
/home/tenebris/Disk/Documents/RootCauseAnalysis/evaluation/test_bin/libjpeg/libjpeg_heap_buffer_overflow/libjpeg-turbo/cmyk.h:41
  *c = (JSAMPLE)(255.0 - ctmp * 255.0 + 0.5);
    46c7:	88 48 fc             	mov    %cl,-0x4(%rax)
/home/tenebris/Disk/Documents/RootCauseAnalysis/evaluation/test_bin/libjpeg/libjpeg_heap_buffer_overflow/libjpeg-turbo/cmyk.h:42
  *m = (JSAMPLE)(255.0 - mtmp * 255.0 + 0.5);
    46ca:	f2 0f 59 e0          	mulsd  %xmm0,%xmm4
    46ce:	f2 0f 5c ec          	subsd  %xmm4,%xmm5
/home/tenebris/Disk/Documents/RootCauseAnalysis/evaluation/test_bin/libjpeg/libjpeg_heap_buffer_overflow/libjpeg-turbo/cmyk.h:43
  *y = (JSAMPLE)(255.0 - ytmp * 255.0 + 0.5);
    46d2:	66 0f 28 e0          	movapd %xmm0,%xmm4
/home/tenebris/Disk/Documents/RootCauseAnalysis/evaluation/test_bin/libjpeg/libjpeg_heap_buffer_overflow/libjpeg-turbo/cmyk.h:42
  *m = (JSAMPLE)(255.0 - mtmp * 255.0 + 0.5);
    46d6:	f2 0f 58 ee          	addsd  %xmm6,%xmm5
    46da:	f2 0f 2c cd          	cvttsd2si %xmm5,%ecx
    46de:	88 48 fd             	mov    %cl,-0x3(%rax)
/home/tenebris/Disk/Documents/RootCauseAnalysis/evaluation/test_bin/libjpeg/libjpeg_heap_buffer_overflow/libjpeg-turbo/cmyk.h:43
  *y = (JSAMPLE)(255.0 - ytmp * 255.0 + 0.5);
    46e1:	f2 0f 59 d8          	mulsd  %xmm0,%xmm3
    46e5:	f2 0f 5c e3          	subsd  %xmm3,%xmm4
/home/tenebris/Disk/Documents/RootCauseAnalysis/evaluation/test_bin/libjpeg/libjpeg_heap_buffer_overflow/libjpeg-turbo/cmyk.h:44
  *k = (JSAMPLE)(255.0 - ktmp * 255.0 + 0.5);
    46e9:	66 0f 28 d8          	movapd %xmm0,%xmm3
    46ed:	f2 0f 5c d9          	subsd  %xmm1,%xmm3
/home/tenebris/Disk/Documents/RootCauseAnalysis/evaluation/test_bin/libjpeg/libjpeg_heap_buffer_overflow/libjpeg-turbo/cmyk.h:43
  *y = (JSAMPLE)(255.0 - ytmp * 255.0 + 0.5);
    46f1:	f2 0f 58 e6          	addsd  %xmm6,%xmm4
/home/tenebris/Disk/Documents/RootCauseAnalysis/evaluation/test_bin/libjpeg/libjpeg_heap_buffer_overflow/libjpeg-turbo/cmyk.h:44
  *k = (JSAMPLE)(255.0 - ktmp * 255.0 + 0.5);
    46f5:	f2 0f 58 de          	addsd  %xmm6,%xmm3
/home/tenebris/Disk/Documents/RootCauseAnalysis/evaluation/test_bin/libjpeg/libjpeg_heap_buffer_overflow/libjpeg-turbo/cmyk.h:43
  *y = (JSAMPLE)(255.0 - ytmp * 255.0 + 0.5);
    46f9:	f2 0f 2c cc          	cvttsd2si %xmm4,%ecx
    46fd:	88 48 fe             	mov    %cl,-0x2(%rax)
/home/tenebris/Disk/Documents/RootCauseAnalysis/evaluation/test_bin/libjpeg/libjpeg_heap_buffer_overflow/libjpeg-turbo/cmyk.h:44
  *k = (JSAMPLE)(255.0 - ktmp * 255.0 + 0.5);
    4700:	f2 0f 2c cb          	cvttsd2si %xmm3,%ecx
    4704:	88 48 ff             	mov    %cl,-0x1(%rax)
get_rgb_cmyk_row():
/home/tenebris/Disk/Documents/RootCauseAnalysis/evaluation/test_bin/libjpeg/libjpeg_heap_buffer_overflow/libjpeg-turbo/rdppm.c:457
    for (col = cinfo->image_width; col > 0; col--) {
    4707:	48 39 c6             	cmp    %rax,%rsi
    470a:	0f 85 10 ff ff ff    	jne    4620 <get_rgb_cmyk_row+0x1f0>
/home/tenebris/Disk/Documents/RootCauseAnalysis/evaluation/test_bin/libjpeg/libjpeg_heap_buffer_overflow/libjpeg-turbo/rdppm.c:474
}
    4710:	48 83 c4 08          	add    $0x8,%rsp
    4714:	b8 01 00 00 00       	mov    $0x1,%eax
    4719:	5b                   	pop    %rbx
    471a:	5d                   	pop    %rbp
    471b:	41 5c                	pop    %r12
    471d:	41 5d                	pop    %r13
    471f:	c3                   	ret    
rgb_to_cmyk():
/home/tenebris/Disk/Documents/RootCauseAnalysis/evaluation/test_bin/libjpeg/libjpeg_heap_buffer_overflow/libjpeg-turbo/cmyk.h:41
  *c = (JSAMPLE)(255.0 - ctmp * 255.0 + 0.5);
    4720:	c6 00 ff             	movb   $0xff,(%rax)
get_rgb_cmyk_row():
/home/tenebris/Disk/Documents/RootCauseAnalysis/evaluation/test_bin/libjpeg/libjpeg_heap_buffer_overflow/libjpeg-turbo/rdppm.c:462
      ptr += 4;
    4723:	48 83 c0 04          	add    $0x4,%rax
rgb_to_cmyk():
/home/tenebris/Disk/Documents/RootCauseAnalysis/evaluation/test_bin/libjpeg/libjpeg_heap_buffer_overflow/libjpeg-turbo/cmyk.h:42
  *m = (JSAMPLE)(255.0 - mtmp * 255.0 + 0.5);
    4727:	c6 40 fd ff          	movb   $0xff,-0x3(%rax)
/home/tenebris/Disk/Documents/RootCauseAnalysis/evaluation/test_bin/libjpeg/libjpeg_heap_buffer_overflow/libjpeg-turbo/cmyk.h:43
  *y = (JSAMPLE)(255.0 - ytmp * 255.0 + 0.5);
    472b:	c6 40 fe ff          	movb   $0xff,-0x2(%rax)
/home/tenebris/Disk/Documents/RootCauseAnalysis/evaluation/test_bin/libjpeg/libjpeg_heap_buffer_overflow/libjpeg-turbo/cmyk.h:44
  *k = (JSAMPLE)(255.0 - ktmp * 255.0 + 0.5);
    472f:	c6 40 ff 00          	movb   $0x0,-0x1(%rax)
get_rgb_cmyk_row():
/home/tenebris/Disk/Documents/RootCauseAnalysis/evaluation/test_bin/libjpeg/libjpeg_heap_buffer_overflow/libjpeg-turbo/rdppm.c:457
    for (col = cinfo->image_width; col > 0; col--) {
    4733:	48 39 f0             	cmp    %rsi,%rax
    4736:	0f 85 e4 fe ff ff    	jne    4620 <get_rgb_cmyk_row+0x1f0>
/home/tenebris/Disk/Documents/RootCauseAnalysis/evaluation/test_bin/libjpeg/libjpeg_heap_buffer_overflow/libjpeg-turbo/rdppm.c:474
}
    473c:	48 83 c4 08          	add    $0x8,%rsp
    4740:	b8 01 00 00 00       	mov    $0x1,%eax
    4745:	5b                   	pop    %rbx
    4746:	5d                   	pop    %rbp
    4747:	41 5c                	pop    %r12
    4749:	41 5d                	pop    %r13
    474b:	c3                   	ret    
    474c:	0f 1f 40 00          	nopl   0x0(%rax)

0000000000004750 <get_word_gray_row>:
get_word_gray_row():
/home/tenebris/Disk/Documents/RootCauseAnalysis/evaluation/test_bin/libjpeg/libjpeg_heap_buffer_overflow/libjpeg-turbo/rdppm.c:495
{
    4750:	f3 0f 1e fa          	endbr64 
    4754:	41 57                	push   %r15
    4756:	49 89 ff             	mov    %rdi,%r15
    4759:	41 56                	push   %r14
    475b:	41 55                	push   %r13
    475d:	41 54                	push   %r12
    475f:	55                   	push   %rbp
    4760:	53                   	push   %rbx
    4761:	48 89 f3             	mov    %rsi,%rbx
    4764:	48 83 ec 18          	sub    $0x18,%rsp
/home/tenebris/Disk/Documents/RootCauseAnalysis/evaluation/test_bin/libjpeg/libjpeg_heap_buffer_overflow/libjpeg-turbo/rdppm.c:501
  unsigned int maxval = source->maxval;
    4768:	8b 46 50             	mov    0x50(%rsi),%eax
fread():
/usr/include/x86_64-linux-gnu/bits/stdio2.h:293
    476b:	48 8b 4e 18          	mov    0x18(%rsi),%rcx
    476f:	48 8b 56 40          	mov    0x40(%rsi),%rdx
    4773:	48 8b 7e 30          	mov    0x30(%rsi),%rdi
get_word_gray_row():
/home/tenebris/Disk/Documents/RootCauseAnalysis/evaluation/test_bin/libjpeg/libjpeg_heap_buffer_overflow/libjpeg-turbo/rdppm.c:499
  register JSAMPLE *rescale = source->rescale;
    4777:	4c 8b 6e 48          	mov    0x48(%rsi),%r13
fread():
/usr/include/x86_64-linux-gnu/bits/stdio2.h:293
    477b:	be 01 00 00 00       	mov    $0x1,%esi
get_word_gray_row():
/home/tenebris/Disk/Documents/RootCauseAnalysis/evaluation/test_bin/libjpeg/libjpeg_heap_buffer_overflow/libjpeg-turbo/rdppm.c:501
  unsigned int maxval = source->maxval;
    4780:	89 44 24 0c          	mov    %eax,0xc(%rsp)
fread():
/usr/include/x86_64-linux-gnu/bits/stdio2.h:293
    4784:	e8 f7 da ff ff       	call   2280 <fread@plt>
get_word_gray_row():
/home/tenebris/Disk/Documents/RootCauseAnalysis/evaluation/test_bin/libjpeg/libjpeg_heap_buffer_overflow/libjpeg-turbo/rdppm.c:503
  if (!ReadOK(source->pub.input_file, source->iobuffer, source->buffer_width))
    4789:	48 39 43 40          	cmp    %rax,0x40(%rbx)
    478d:	74 0f                	je     479e <get_word_gray_row+0x4e>
/home/tenebris/Disk/Documents/RootCauseAnalysis/evaluation/test_bin/libjpeg/libjpeg_heap_buffer_overflow/libjpeg-turbo/rdppm.c:504
    ERREXIT(cinfo, JERR_INPUT_EOF);
    478f:	49 8b 07             	mov    (%r15),%rax
    4792:	4c 89 ff             	mov    %r15,%rdi
    4795:	c7 40 28 2b 00 00 00 	movl   $0x2b,0x28(%rax)
    479c:	ff 10                	call   *(%rax)
/home/tenebris/Disk/Documents/RootCauseAnalysis/evaluation/test_bin/libjpeg/libjpeg_heap_buffer_overflow/libjpeg-turbo/rdppm.c:505
  ptr = source->pub.buffer[0];
    479e:	48 8b 43 20          	mov    0x20(%rbx),%rax
/home/tenebris/Disk/Documents/RootCauseAnalysis/evaluation/test_bin/libjpeg/libjpeg_heap_buffer_overflow/libjpeg-turbo/rdppm.c:507
  for (col = cinfo->image_width; col > 0; col--) {
    47a2:	45 8b 67 30          	mov    0x30(%r15),%r12d
/home/tenebris/Disk/Documents/RootCauseAnalysis/evaluation/test_bin/libjpeg/libjpeg_heap_buffer_overflow/libjpeg-turbo/rdppm.c:506
  bufferptr = source->iobuffer;
    47a6:	4c 8b 73 30          	mov    0x30(%rbx),%r14
/home/tenebris/Disk/Documents/RootCauseAnalysis/evaluation/test_bin/libjpeg/libjpeg_heap_buffer_overflow/libjpeg-turbo/rdppm.c:505
  ptr = source->pub.buffer[0];
    47aa:	48 8b 28             	mov    (%rax),%rbp
/home/tenebris/Disk/Documents/RootCauseAnalysis/evaluation/test_bin/libjpeg/libjpeg_heap_buffer_overflow/libjpeg-turbo/rdppm.c:507
  for (col = cinfo->image_width; col > 0; col--) {
    47ad:	45 85 e4             	test   %r12d,%r12d
    47b0:	74 3f                	je     47f1 <get_word_gray_row+0xa1>
    47b2:	49 01 ec             	add    %rbp,%r12
    47b5:	0f 1f 00             	nopl   (%rax)
/home/tenebris/Disk/Documents/RootCauseAnalysis/evaluation/test_bin/libjpeg/libjpeg_heap_buffer_overflow/libjpeg-turbo/rdppm.c:510
    temp |= UCH(*bufferptr++);
    47b8:	41 0f b7 1e          	movzwl (%r14),%ebx
    47bc:	49 83 c6 02          	add    $0x2,%r14
    47c0:	66 c1 c3 08          	rol    $0x8,%bx
/home/tenebris/Disk/Documents/RootCauseAnalysis/evaluation/test_bin/libjpeg/libjpeg_heap_buffer_overflow/libjpeg-turbo/rdppm.c:511
    if (temp > maxval)
    47c4:	0f b7 c3             	movzwl %bx,%eax
    47c7:	39 44 24 0c          	cmp    %eax,0xc(%rsp)
    47cb:	73 0f                	jae    47dc <get_word_gray_row+0x8c>
/home/tenebris/Disk/Documents/RootCauseAnalysis/evaluation/test_bin/libjpeg/libjpeg_heap_buffer_overflow/libjpeg-turbo/rdppm.c:512
      ERREXIT(cinfo, JERR_PPM_TOOLARGE);
    47cd:	49 8b 07             	mov    (%r15),%rax
    47d0:	4c 89 ff             	mov    %r15,%rdi
    47d3:	c7 40 28 04 04 00 00 	movl   $0x404,0x28(%rax)
    47da:	ff 10                	call   *(%rax)
/home/tenebris/Disk/Documents/RootCauseAnalysis/evaluation/test_bin/libjpeg/libjpeg_heap_buffer_overflow/libjpeg-turbo/rdppm.c:513 (discriminator 2)
    *ptr++ = rescale[temp];
    47dc:	0f b7 db             	movzwl %bx,%ebx
    47df:	48 83 c5 01          	add    $0x1,%rbp
    47e3:	41 0f b6 44 1d 00    	movzbl 0x0(%r13,%rbx,1),%eax
    47e9:	88 45 ff             	mov    %al,-0x1(%rbp)
/home/tenebris/Disk/Documents/RootCauseAnalysis/evaluation/test_bin/libjpeg/libjpeg_heap_buffer_overflow/libjpeg-turbo/rdppm.c:507 (discriminator 2)
  for (col = cinfo->image_width; col > 0; col--) {
    47ec:	49 39 ec             	cmp    %rbp,%r12
    47ef:	75 c7                	jne    47b8 <get_word_gray_row+0x68>
/home/tenebris/Disk/Documents/RootCauseAnalysis/evaluation/test_bin/libjpeg/libjpeg_heap_buffer_overflow/libjpeg-turbo/rdppm.c:516
}
    47f1:	48 83 c4 18          	add    $0x18,%rsp
    47f5:	b8 01 00 00 00       	mov    $0x1,%eax
    47fa:	5b                   	pop    %rbx
    47fb:	5d                   	pop    %rbp
    47fc:	41 5c                	pop    %r12
    47fe:	41 5d                	pop    %r13
    4800:	41 5e                	pop    %r14
    4802:	41 5f                	pop    %r15
    4804:	c3                   	ret    
    4805:	66 66 2e 0f 1f 84 00 	data16 cs nopw 0x0(%rax,%rax,1)
    480c:	00 00 00 00 

0000000000004810 <get_word_rgb_row>:
get_word_rgb_row():
/home/tenebris/Disk/Documents/RootCauseAnalysis/evaluation/test_bin/libjpeg/libjpeg_heap_buffer_overflow/libjpeg-turbo/rdppm.c:522
{
    4810:	f3 0f 1e fa          	endbr64 
    4814:	41 57                	push   %r15
    4816:	41 56                	push   %r14
    4818:	41 55                	push   %r13
    481a:	49 89 fd             	mov    %rdi,%r13
    481d:	41 54                	push   %r12
    481f:	55                   	push   %rbp
    4820:	53                   	push   %rbx
    4821:	48 89 f3             	mov    %rsi,%rbx
    4824:	48 83 ec 18          	sub    $0x18,%rsp
fread():
/usr/include/x86_64-linux-gnu/bits/stdio2.h:293
    4828:	48 8b 4e 18          	mov    0x18(%rsi),%rcx
    482c:	48 8b 56 40          	mov    0x40(%rsi),%rdx
    4830:	48 8b 7e 30          	mov    0x30(%rsi),%rdi
get_word_rgb_row():
/home/tenebris/Disk/Documents/RootCauseAnalysis/evaluation/test_bin/libjpeg/libjpeg_heap_buffer_overflow/libjpeg-turbo/rdppm.c:526
  register JSAMPLE *rescale = source->rescale;
    4834:	4c 8b 76 48          	mov    0x48(%rsi),%r14
/home/tenebris/Disk/Documents/RootCauseAnalysis/evaluation/test_bin/libjpeg/libjpeg_heap_buffer_overflow/libjpeg-turbo/rdppm.c:528
  unsigned int maxval = source->maxval;
    4838:	8b 6e 50             	mov    0x50(%rsi),%ebp
fread():
/usr/include/x86_64-linux-gnu/bits/stdio2.h:293
    483b:	be 01 00 00 00       	mov    $0x1,%esi
    4840:	e8 3b da ff ff       	call   2280 <fread@plt>
get_word_rgb_row():
/home/tenebris/Disk/Documents/RootCauseAnalysis/evaluation/test_bin/libjpeg/libjpeg_heap_buffer_overflow/libjpeg-turbo/rdppm.c:530
  if (!ReadOK(source->pub.input_file, source->iobuffer, source->buffer_width))
    4845:	48 39 43 40          	cmp    %rax,0x40(%rbx)
    4849:	74 10                	je     485b <get_word_rgb_row+0x4b>
/home/tenebris/Disk/Documents/RootCauseAnalysis/evaluation/test_bin/libjpeg/libjpeg_heap_buffer_overflow/libjpeg-turbo/rdppm.c:531
    ERREXIT(cinfo, JERR_INPUT_EOF);
    484b:	49 8b 45 00          	mov    0x0(%r13),%rax
    484f:	4c 89 ef             	mov    %r13,%rdi
    4852:	c7 40 28 2b 00 00 00 	movl   $0x2b,0x28(%rax)
    4859:	ff 10                	call   *(%rax)
/home/tenebris/Disk/Documents/RootCauseAnalysis/evaluation/test_bin/libjpeg/libjpeg_heap_buffer_overflow/libjpeg-turbo/rdppm.c:532
  ptr = source->pub.buffer[0];
    485b:	48 8b 43 20          	mov    0x20(%rbx),%rax
/home/tenebris/Disk/Documents/RootCauseAnalysis/evaluation/test_bin/libjpeg/libjpeg_heap_buffer_overflow/libjpeg-turbo/rdppm.c:534
  for (col = cinfo->image_width; col > 0; col--) {
    485f:	41 8b 55 30          	mov    0x30(%r13),%edx
/home/tenebris/Disk/Documents/RootCauseAnalysis/evaluation/test_bin/libjpeg/libjpeg_heap_buffer_overflow/libjpeg-turbo/rdppm.c:533
  bufferptr = source->iobuffer;
    4863:	4c 8b 63 30          	mov    0x30(%rbx),%r12
/home/tenebris/Disk/Documents/RootCauseAnalysis/evaluation/test_bin/libjpeg/libjpeg_heap_buffer_overflow/libjpeg-turbo/rdppm.c:532
  ptr = source->pub.buffer[0];
    4867:	4c 8b 38             	mov    (%rax),%r15
/home/tenebris/Disk/Documents/RootCauseAnalysis/evaluation/test_bin/libjpeg/libjpeg_heap_buffer_overflow/libjpeg-turbo/rdppm.c:534
  for (col = cinfo->image_width; col > 0; col--) {
    486a:	85 d2                	test   %edx,%edx
    486c:	0f 84 a6 00 00 00    	je     4918 <get_word_rgb_row+0x108>
    4872:	48 8d 04 52          	lea    (%rdx,%rdx,2),%rax
    4876:	4c 01 f8             	add    %r15,%rax
    4879:	48 89 44 24 08       	mov    %rax,0x8(%rsp)
    487e:	66 90                	xchg   %ax,%ax
/home/tenebris/Disk/Documents/RootCauseAnalysis/evaluation/test_bin/libjpeg/libjpeg_heap_buffer_overflow/libjpeg-turbo/rdppm.c:537
    temp |= UCH(*bufferptr++);
    4880:	41 0f b7 1c 24       	movzwl (%r12),%ebx
    4885:	66 c1 c3 08          	rol    $0x8,%bx
/home/tenebris/Disk/Documents/RootCauseAnalysis/evaluation/test_bin/libjpeg/libjpeg_heap_buffer_overflow/libjpeg-turbo/rdppm.c:538
    if (temp > maxval)
    4889:	0f b7 d3             	movzwl %bx,%edx
    488c:	39 d5                	cmp    %edx,%ebp
    488e:	73 10                	jae    48a0 <get_word_rgb_row+0x90>
/home/tenebris/Disk/Documents/RootCauseAnalysis/evaluation/test_bin/libjpeg/libjpeg_heap_buffer_overflow/libjpeg-turbo/rdppm.c:539
      ERREXIT(cinfo, JERR_PPM_TOOLARGE);
    4890:	49 8b 55 00          	mov    0x0(%r13),%rdx
    4894:	4c 89 ef             	mov    %r13,%rdi
    4897:	c7 42 28 04 04 00 00 	movl   $0x404,0x28(%rdx)
    489e:	ff 12                	call   *(%rdx)
/home/tenebris/Disk/Documents/RootCauseAnalysis/evaluation/test_bin/libjpeg/libjpeg_heap_buffer_overflow/libjpeg-turbo/rdppm.c:540
    *ptr++ = rescale[temp];
    48a0:	0f b7 db             	movzwl %bx,%ebx
    48a3:	41 0f b6 14 1e       	movzbl (%r14,%rbx,1),%edx
    48a8:	41 88 17             	mov    %dl,(%r15)
/home/tenebris/Disk/Documents/RootCauseAnalysis/evaluation/test_bin/libjpeg/libjpeg_heap_buffer_overflow/libjpeg-turbo/rdppm.c:542
    temp |= UCH(*bufferptr++);
    48ab:	41 0f b7 5c 24 02    	movzwl 0x2(%r12),%ebx
    48b1:	66 c1 c3 08          	rol    $0x8,%bx
/home/tenebris/Disk/Documents/RootCauseAnalysis/evaluation/test_bin/libjpeg/libjpeg_heap_buffer_overflow/libjpeg-turbo/rdppm.c:543
    if (temp > maxval)
    48b5:	0f b7 d3             	movzwl %bx,%edx
    48b8:	39 d5                	cmp    %edx,%ebp
    48ba:	73 10                	jae    48cc <get_word_rgb_row+0xbc>
/home/tenebris/Disk/Documents/RootCauseAnalysis/evaluation/test_bin/libjpeg/libjpeg_heap_buffer_overflow/libjpeg-turbo/rdppm.c:544
      ERREXIT(cinfo, JERR_PPM_TOOLARGE);
    48bc:	49 8b 55 00          	mov    0x0(%r13),%rdx
    48c0:	4c 89 ef             	mov    %r13,%rdi
    48c3:	c7 42 28 04 04 00 00 	movl   $0x404,0x28(%rdx)
    48ca:	ff 12                	call   *(%rdx)
/home/tenebris/Disk/Documents/RootCauseAnalysis/evaluation/test_bin/libjpeg/libjpeg_heap_buffer_overflow/libjpeg-turbo/rdppm.c:545
    *ptr++ = rescale[temp];
    48cc:	0f b7 db             	movzwl %bx,%ebx
    48cf:	49 83 c4 06          	add    $0x6,%r12
    48d3:	41 0f b6 14 1e       	movzbl (%r14,%rbx,1),%edx
    48d8:	41 88 57 01          	mov    %dl,0x1(%r15)
/home/tenebris/Disk/Documents/RootCauseAnalysis/evaluation/test_bin/libjpeg/libjpeg_heap_buffer_overflow/libjpeg-turbo/rdppm.c:547
    temp |= UCH(*bufferptr++);
    48dc:	41 0f b7 5c 24 fe    	movzwl -0x2(%r12),%ebx
    48e2:	66 c1 c3 08          	rol    $0x8,%bx
/home/tenebris/Disk/Documents/RootCauseAnalysis/evaluation/test_bin/libjpeg/libjpeg_heap_buffer_overflow/libjpeg-turbo/rdppm.c:548
    if (temp > maxval)
    48e6:	0f b7 d3             	movzwl %bx,%edx
    48e9:	39 d5                	cmp    %edx,%ebp
    48eb:	73 10                	jae    48fd <get_word_rgb_row+0xed>
/home/tenebris/Disk/Documents/RootCauseAnalysis/evaluation/test_bin/libjpeg/libjpeg_heap_buffer_overflow/libjpeg-turbo/rdppm.c:549
      ERREXIT(cinfo, JERR_PPM_TOOLARGE);
    48ed:	49 8b 55 00          	mov    0x0(%r13),%rdx
    48f1:	4c 89 ef             	mov    %r13,%rdi
    48f4:	c7 42 28 04 04 00 00 	movl   $0x404,0x28(%rdx)
    48fb:	ff 12                	call   *(%rdx)
/home/tenebris/Disk/Documents/RootCauseAnalysis/evaluation/test_bin/libjpeg/libjpeg_heap_buffer_overflow/libjpeg-turbo/rdppm.c:550 (discriminator 2)
    *ptr++ = rescale[temp];
    48fd:	0f b7 db             	movzwl %bx,%ebx
    4900:	49 83 c7 03          	add    $0x3,%r15
    4904:	41 0f b6 14 1e       	movzbl (%r14,%rbx,1),%edx
    4909:	41 88 57 ff          	mov    %dl,-0x1(%r15)
/home/tenebris/Disk/Documents/RootCauseAnalysis/evaluation/test_bin/libjpeg/libjpeg_heap_buffer_overflow/libjpeg-turbo/rdppm.c:534 (discriminator 2)
  for (col = cinfo->image_width; col > 0; col--) {
    490d:	4c 3b 7c 24 08       	cmp    0x8(%rsp),%r15
    4912:	0f 85 68 ff ff ff    	jne    4880 <get_word_rgb_row+0x70>
/home/tenebris/Disk/Documents/RootCauseAnalysis/evaluation/test_bin/libjpeg/libjpeg_heap_buffer_overflow/libjpeg-turbo/rdppm.c:553
}
    4918:	48 83 c4 18          	add    $0x18,%rsp
    491c:	b8 01 00 00 00       	mov    $0x1,%eax
    4921:	5b                   	pop    %rbx
    4922:	5d                   	pop    %rbp
    4923:	41 5c                	pop    %r12
    4925:	41 5d                	pop    %r13
    4927:	41 5e                	pop    %r14
    4929:	41 5f                	pop    %r15
    492b:	c3                   	ret    
    492c:	0f 1f 40 00          	nopl   0x0(%rax)

0000000000004930 <get_raw_row>:
get_raw_row():
/home/tenebris/Disk/Documents/RootCauseAnalysis/evaluation/test_bin/libjpeg/libjpeg_heap_buffer_overflow/libjpeg-turbo/rdppm.c:483
{
    4930:	f3 0f 1e fa          	endbr64 
    4934:	55                   	push   %rbp
    4935:	48 89 fd             	mov    %rdi,%rbp
    4938:	53                   	push   %rbx
    4939:	48 89 f3             	mov    %rsi,%rbx
    493c:	48 83 ec 08          	sub    $0x8,%rsp
fread():
/usr/include/x86_64-linux-gnu/bits/stdio2.h:293
    4940:	48 8b 4e 18          	mov    0x18(%rsi),%rcx
    4944:	48 8b 56 40          	mov    0x40(%rsi),%rdx
    4948:	48 8b 7e 30          	mov    0x30(%rsi),%rdi
    494c:	be 01 00 00 00       	mov    $0x1,%esi
    4951:	e8 2a d9 ff ff       	call   2280 <fread@plt>
get_raw_row():
/home/tenebris/Disk/Documents/RootCauseAnalysis/evaluation/test_bin/libjpeg/libjpeg_heap_buffer_overflow/libjpeg-turbo/rdppm.c:486
  if (!ReadOK(source->pub.input_file, source->iobuffer, source->buffer_width))
    4956:	48 39 43 40          	cmp    %rax,0x40(%rbx)
    495a:	74 10                	je     496c <get_raw_row+0x3c>
/home/tenebris/Disk/Documents/RootCauseAnalysis/evaluation/test_bin/libjpeg/libjpeg_heap_buffer_overflow/libjpeg-turbo/rdppm.c:487
    ERREXIT(cinfo, JERR_INPUT_EOF);
    495c:	48 8b 45 00          	mov    0x0(%rbp),%rax
    4960:	48 89 ef             	mov    %rbp,%rdi
    4963:	c7 40 28 2b 00 00 00 	movl   $0x2b,0x28(%rax)
    496a:	ff 10                	call   *(%rax)
/home/tenebris/Disk/Documents/RootCauseAnalysis/evaluation/test_bin/libjpeg/libjpeg_heap_buffer_overflow/libjpeg-turbo/rdppm.c:489
}
    496c:	48 83 c4 08          	add    $0x8,%rsp
    4970:	b8 01 00 00 00       	mov    $0x1,%eax
    4975:	5b                   	pop    %rbx
    4976:	5d                   	pop    %rbp
    4977:	c3                   	ret    
    4978:	0f 1f 84 00 00 00 00 	nopl   0x0(%rax,%rax,1)
    497f:	00 

0000000000004980 <read_pbm_integer>:
read_pbm_integer():
/home/tenebris/Disk/Documents/RootCauseAnalysis/evaluation/test_bin/libjpeg/libjpeg_heap_buffer_overflow/libjpeg-turbo/rdppm.c:107
{
    4980:	41 55                	push   %r13
    4982:	41 89 d5             	mov    %edx,%r13d
    4985:	41 54                	push   %r12
/home/tenebris/Disk/Documents/RootCauseAnalysis/evaluation/test_bin/libjpeg/libjpeg_heap_buffer_overflow/libjpeg-turbo/rdppm.c:116
  } while (ch == ' ' || ch == '\t' || ch == '\n' || ch == '\r');
    4987:	49 bc ff d9 ff ff fe 	movabs $0xfffffffeffffd9ff,%r12
    498e:	ff ff ff 
/home/tenebris/Disk/Documents/RootCauseAnalysis/evaluation/test_bin/libjpeg/libjpeg_heap_buffer_overflow/libjpeg-turbo/rdppm.c:107
{
    4991:	55                   	push   %rbp
    4992:	48 89 fd             	mov    %rdi,%rbp
    4995:	53                   	push   %rbx
    4996:	48 89 f3             	mov    %rsi,%rbx
    4999:	48 83 ec 08          	sub    $0x8,%rsp
    499d:	0f 1f 00             	nopl   (%rax)
pbm_getc():
/home/tenebris/Disk/Documents/RootCauseAnalysis/evaluation/test_bin/libjpeg/libjpeg_heap_buffer_overflow/libjpeg-turbo/rdppm.c:91
  ch = getc(infile);
    49a0:	48 89 df             	mov    %rbx,%rdi
    49a3:	e8 a8 da ff ff       	call   2450 <getc@plt>
/home/tenebris/Disk/Documents/RootCauseAnalysis/evaluation/test_bin/libjpeg/libjpeg_heap_buffer_overflow/libjpeg-turbo/rdppm.c:92
  if (ch == '#') {
    49a8:	83 f8 23             	cmp    $0x23,%eax
    49ab:	0f 84 97 00 00 00    	je     4a48 <read_pbm_integer+0xc8>
read_pbm_integer():
/home/tenebris/Disk/Documents/RootCauseAnalysis/evaluation/test_bin/libjpeg/libjpeg_heap_buffer_overflow/libjpeg-turbo/rdppm.c:114
    if (ch == EOF)
    49b1:	83 f8 ff             	cmp    $0xffffffff,%eax
    49b4:	0f 84 a4 00 00 00    	je     4a5e <read_pbm_integer+0xde>
/home/tenebris/Disk/Documents/RootCauseAnalysis/evaluation/test_bin/libjpeg/libjpeg_heap_buffer_overflow/libjpeg-turbo/rdppm.c:116
  } while (ch == ' ' || ch == '\t' || ch == '\n' || ch == '\r');
    49ba:	83 f8 20             	cmp    $0x20,%eax
    49bd:	0f 86 cd 00 00 00    	jbe    4a90 <read_pbm_integer+0x110>
/home/tenebris/Disk/Documents/RootCauseAnalysis/evaluation/test_bin/libjpeg/libjpeg_heap_buffer_overflow/libjpeg-turbo/rdppm.c:118 (discriminator 1)
  if (ch < '0' || ch > '9')
    49c3:	44 8d 60 d0          	lea    -0x30(%rax),%r12d
    49c7:	41 83 fc 09          	cmp    $0x9,%r12d
    49cb:	76 1c                	jbe    49e9 <read_pbm_integer+0x69>
    49cd:	e9 a2 00 00 00       	jmp    4a74 <read_pbm_integer+0xf4>
    49d2:	66 0f 1f 44 00 00    	nopw   0x0(%rax,%rax,1)
/home/tenebris/Disk/Documents/RootCauseAnalysis/evaluation/test_bin/libjpeg/libjpeg_heap_buffer_overflow/libjpeg-turbo/rdppm.c:122
  while ((ch = pbm_getc(infile)) >= '0' && ch <= '9') {
    49d8:	8d 50 d0             	lea    -0x30(%rax),%edx
    49db:	83 fa 09             	cmp    $0x9,%edx
    49de:	77 40                	ja     4a20 <read_pbm_integer+0xa0>
/home/tenebris/Disk/Documents/RootCauseAnalysis/evaluation/test_bin/libjpeg/libjpeg_heap_buffer_overflow/libjpeg-turbo/rdppm.c:123
    val *= 10;
    49e0:	43 8d 14 a4          	lea    (%r12,%r12,4),%edx
/home/tenebris/Disk/Documents/RootCauseAnalysis/evaluation/test_bin/libjpeg/libjpeg_heap_buffer_overflow/libjpeg-turbo/rdppm.c:124
    val += ch - '0';
    49e4:	44 8d 64 50 d0       	lea    -0x30(%rax,%rdx,2),%r12d
pbm_getc():
/home/tenebris/Disk/Documents/RootCauseAnalysis/evaluation/test_bin/libjpeg/libjpeg_heap_buffer_overflow/libjpeg-turbo/rdppm.c:91
  ch = getc(infile);
    49e9:	48 89 df             	mov    %rbx,%rdi
    49ec:	e8 5f da ff ff       	call   2450 <getc@plt>
/home/tenebris/Disk/Documents/RootCauseAnalysis/evaluation/test_bin/libjpeg/libjpeg_heap_buffer_overflow/libjpeg-turbo/rdppm.c:92
  if (ch == '#') {
    49f1:	83 f8 23             	cmp    $0x23,%eax
    49f4:	75 e2                	jne    49d8 <read_pbm_integer+0x58>
    49f6:	66 2e 0f 1f 84 00 00 	cs nopw 0x0(%rax,%rax,1)
    49fd:	00 00 00 
/home/tenebris/Disk/Documents/RootCauseAnalysis/evaluation/test_bin/libjpeg/libjpeg_heap_buffer_overflow/libjpeg-turbo/rdppm.c:94
      ch = getc(infile);
    4a00:	48 89 df             	mov    %rbx,%rdi
    4a03:	e8 48 da ff ff       	call   2450 <getc@plt>
/home/tenebris/Disk/Documents/RootCauseAnalysis/evaluation/test_bin/libjpeg/libjpeg_heap_buffer_overflow/libjpeg-turbo/rdppm.c:95
    } while (ch != '\n' && ch != EOF);
    4a08:	83 f8 0a             	cmp    $0xa,%eax
    4a0b:	74 cb                	je     49d8 <read_pbm_integer+0x58>
    4a0d:	83 f8 ff             	cmp    $0xffffffff,%eax
    4a10:	75 ee                	jne    4a00 <read_pbm_integer+0x80>
read_pbm_integer():
/home/tenebris/Disk/Documents/RootCauseAnalysis/evaluation/test_bin/libjpeg/libjpeg_heap_buffer_overflow/libjpeg-turbo/rdppm.c:122
  while ((ch = pbm_getc(infile)) >= '0' && ch <= '9') {
    4a12:	8d 50 d0             	lea    -0x30(%rax),%edx
    4a15:	83 fa 09             	cmp    $0x9,%edx
    4a18:	76 c6                	jbe    49e0 <read_pbm_integer+0x60>
    4a1a:	66 0f 1f 44 00 00    	nopw   0x0(%rax,%rax,1)
/home/tenebris/Disk/Documents/RootCauseAnalysis/evaluation/test_bin/libjpeg/libjpeg_heap_buffer_overflow/libjpeg-turbo/rdppm.c:127
  if (val > maxval)
    4a20:	45 39 ec             	cmp    %r13d,%r12d
    4a23:	76 10                	jbe    4a35 <read_pbm_integer+0xb5>
/home/tenebris/Disk/Documents/RootCauseAnalysis/evaluation/test_bin/libjpeg/libjpeg_heap_buffer_overflow/libjpeg-turbo/rdppm.c:128
    ERREXIT(cinfo, JERR_PPM_TOOLARGE);
    4a25:	48 8b 45 00          	mov    0x0(%rbp),%rax
    4a29:	48 89 ef             	mov    %rbp,%rdi
    4a2c:	c7 40 28 04 04 00 00 	movl   $0x404,0x28(%rax)
    4a33:	ff 10                	call   *(%rax)
/home/tenebris/Disk/Documents/RootCauseAnalysis/evaluation/test_bin/libjpeg/libjpeg_heap_buffer_overflow/libjpeg-turbo/rdppm.c:131
}
    4a35:	48 83 c4 08          	add    $0x8,%rsp
    4a39:	44 89 e0             	mov    %r12d,%eax
    4a3c:	5b                   	pop    %rbx
    4a3d:	5d                   	pop    %rbp
    4a3e:	41 5c                	pop    %r12
    4a40:	41 5d                	pop    %r13
    4a42:	c3                   	ret    
    4a43:	0f 1f 44 00 00       	nopl   0x0(%rax,%rax,1)
pbm_getc():
/home/tenebris/Disk/Documents/RootCauseAnalysis/evaluation/test_bin/libjpeg/libjpeg_heap_buffer_overflow/libjpeg-turbo/rdppm.c:94
      ch = getc(infile);
    4a48:	48 89 df             	mov    %rbx,%rdi
    4a4b:	e8 00 da ff ff       	call   2450 <getc@plt>
/home/tenebris/Disk/Documents/RootCauseAnalysis/evaluation/test_bin/libjpeg/libjpeg_heap_buffer_overflow/libjpeg-turbo/rdppm.c:95
    } while (ch != '\n' && ch != EOF);
    4a50:	83 f8 0a             	cmp    $0xa,%eax
    4a53:	0f 84 58 ff ff ff    	je     49b1 <read_pbm_integer+0x31>
    4a59:	83 f8 ff             	cmp    $0xffffffff,%eax
    4a5c:	75 ea                	jne    4a48 <read_pbm_integer+0xc8>
read_pbm_integer():
/home/tenebris/Disk/Documents/RootCauseAnalysis/evaluation/test_bin/libjpeg/libjpeg_heap_buffer_overflow/libjpeg-turbo/rdppm.c:115
      ERREXIT(cinfo, JERR_INPUT_EOF);
    4a5e:	48 8b 45 00          	mov    0x0(%rbp),%rax
    4a62:	48 89 ef             	mov    %rbp,%rdi
/home/tenebris/Disk/Documents/RootCauseAnalysis/evaluation/test_bin/libjpeg/libjpeg_heap_buffer_overflow/libjpeg-turbo/rdppm.c:118
  if (ch < '0' || ch > '9')
    4a65:	41 bc cf ff ff ff    	mov    $0xffffffcf,%r12d
/home/tenebris/Disk/Documents/RootCauseAnalysis/evaluation/test_bin/libjpeg/libjpeg_heap_buffer_overflow/libjpeg-turbo/rdppm.c:115
      ERREXIT(cinfo, JERR_INPUT_EOF);
    4a6b:	c7 40 28 2b 00 00 00 	movl   $0x2b,0x28(%rax)
    4a72:	ff 10                	call   *(%rax)
/home/tenebris/Disk/Documents/RootCauseAnalysis/evaluation/test_bin/libjpeg/libjpeg_heap_buffer_overflow/libjpeg-turbo/rdppm.c:119
    ERREXIT(cinfo, JERR_PPM_NONNUMERIC);
    4a74:	48 8b 45 00          	mov    0x0(%rbp),%rax
    4a78:	48 89 ef             	mov    %rbp,%rdi
    4a7b:	c7 40 28 03 04 00 00 	movl   $0x403,0x28(%rax)
    4a82:	ff 10                	call   *(%rax)
    4a84:	e9 60 ff ff ff       	jmp    49e9 <read_pbm_integer+0x69>
    4a89:	0f 1f 80 00 00 00 00 	nopl   0x0(%rax)
/home/tenebris/Disk/Documents/RootCauseAnalysis/evaluation/test_bin/libjpeg/libjpeg_heap_buffer_overflow/libjpeg-turbo/rdppm.c:116
  } while (ch == ' ' || ch == '\t' || ch == '\n' || ch == '\r');
    4a90:	49 0f a3 c4          	bt     %rax,%r12
    4a94:	0f 83 06 ff ff ff    	jae    49a0 <read_pbm_integer+0x20>
    4a9a:	e9 24 ff ff ff       	jmp    49c3 <read_pbm_integer+0x43>
    4a9f:	90                   	nop

0000000000004aa0 <get_text_rgb_cmyk_row>:
get_text_rgb_cmyk_row():
/home/tenebris/Disk/Documents/RootCauseAnalysis/evaluation/test_bin/libjpeg/libjpeg_heap_buffer_overflow/libjpeg-turbo/rdppm.c:285
{
    4aa0:	f3 0f 1e fa          	endbr64 
    4aa4:	41 57                	push   %r15
    4aa6:	41 56                	push   %r14
    4aa8:	41 55                	push   %r13
    4aaa:	41 54                	push   %r12
    4aac:	55                   	push   %rbp
    4aad:	53                   	push   %rbx
    4aae:	48 89 fb             	mov    %rdi,%rbx
    4ab1:	48 83 ec 28          	sub    $0x28,%rsp
/home/tenebris/Disk/Documents/RootCauseAnalysis/evaluation/test_bin/libjpeg/libjpeg_heap_buffer_overflow/libjpeg-turbo/rdppm.c:293
  ptr = source->pub.buffer[0];
    4ab5:	48 8b 46 20          	mov    0x20(%rsi),%rax
/home/tenebris/Disk/Documents/RootCauseAnalysis/evaluation/test_bin/libjpeg/libjpeg_heap_buffer_overflow/libjpeg-turbo/rdppm.c:291
  unsigned int maxval = source->maxval;
    4ab9:	44 8b 76 50          	mov    0x50(%rsi),%r14d
/home/tenebris/Disk/Documents/RootCauseAnalysis/evaluation/test_bin/libjpeg/libjpeg_heap_buffer_overflow/libjpeg-turbo/rdppm.c:287
  FILE *infile = source->pub.input_file;
    4abd:	48 8b 6e 18          	mov    0x18(%rsi),%rbp
/home/tenebris/Disk/Documents/RootCauseAnalysis/evaluation/test_bin/libjpeg/libjpeg_heap_buffer_overflow/libjpeg-turbo/rdppm.c:289
  register JSAMPLE *rescale = source->rescale;
    4ac1:	4c 8b 7e 48          	mov    0x48(%rsi),%r15
/home/tenebris/Disk/Documents/RootCauseAnalysis/evaluation/test_bin/libjpeg/libjpeg_heap_buffer_overflow/libjpeg-turbo/rdppm.c:293
  ptr = source->pub.buffer[0];
    4ac5:	48 8b 08             	mov    (%rax),%rcx
/home/tenebris/Disk/Documents/RootCauseAnalysis/evaluation/test_bin/libjpeg/libjpeg_heap_buffer_overflow/libjpeg-turbo/rdppm.c:295
    for (col = cinfo->image_width; col > 0; col--) {
    4ac8:	8b 47 30             	mov    0x30(%rdi),%eax
/home/tenebris/Disk/Documents/RootCauseAnalysis/evaluation/test_bin/libjpeg/libjpeg_heap_buffer_overflow/libjpeg-turbo/rdppm.c:294
  if (maxval == MAXJSAMPLE) {
    4acb:	41 81 fe ff 00 00 00 	cmp    $0xff,%r14d
    4ad2:	0f 84 b8 01 00 00    	je     4c90 <get_text_rgb_cmyk_row+0x1f0>
/home/tenebris/Disk/Documents/RootCauseAnalysis/evaluation/test_bin/libjpeg/libjpeg_heap_buffer_overflow/libjpeg-turbo/rdppm.c:303
    for (col = cinfo->image_width; col > 0; col--) {
    4ad8:	85 c0                	test   %eax,%eax
    4ada:	0f 84 70 01 00 00    	je     4c50 <get_text_rgb_cmyk_row+0x1b0>
    4ae0:	48 8d 04 81          	lea    (%rcx,%rax,4),%rax
    4ae4:	f2 0f 10 05 fc 56 00 	movsd  0x56fc(%rip),%xmm0        # a1e8 <rgb_red+0x48>
    4aeb:	00 
    4aec:	f2 0f 10 15 fc 56 00 	movsd  0x56fc(%rip),%xmm2        # a1f0 <rgb_red+0x50>
    4af3:	00 
    4af4:	48 89 44 24 18       	mov    %rax,0x18(%rsp)
    4af9:	0f 1f 80 00 00 00 00 	nopl   0x0(%rax)
/home/tenebris/Disk/Documents/RootCauseAnalysis/evaluation/test_bin/libjpeg/libjpeg_heap_buffer_overflow/libjpeg-turbo/rdppm.c:304 (discriminator 3)
      JSAMPLE r = rescale[read_pbm_integer(cinfo, infile, maxval)];
    4b00:	44 89 f2             	mov    %r14d,%edx
    4b03:	48 89 ee             	mov    %rbp,%rsi
    4b06:	48 89 df             	mov    %rbx,%rdi
    4b09:	48 89 0c 24          	mov    %rcx,(%rsp)
    4b0d:	f2 0f 11 54 24 10    	movsd  %xmm2,0x10(%rsp)
    4b13:	f2 0f 11 44 24 08    	movsd  %xmm0,0x8(%rsp)
    4b19:	e8 62 fe ff ff       	call   4980 <read_pbm_integer>
/home/tenebris/Disk/Documents/RootCauseAnalysis/evaluation/test_bin/libjpeg/libjpeg_heap_buffer_overflow/libjpeg-turbo/rdppm.c:305 (discriminator 3)
      JSAMPLE g = rescale[read_pbm_integer(cinfo, infile, maxval)];
    4b1e:	44 89 f2             	mov    %r14d,%edx
    4b21:	48 89 ee             	mov    %rbp,%rsi
    4b24:	48 89 df             	mov    %rbx,%rdi
/home/tenebris/Disk/Documents/RootCauseAnalysis/evaluation/test_bin/libjpeg/libjpeg_heap_buffer_overflow/libjpeg-turbo/rdppm.c:304 (discriminator 3)
      JSAMPLE r = rescale[read_pbm_integer(cinfo, infile, maxval)];
    4b27:	89 c0                	mov    %eax,%eax
    4b29:	45 0f b6 2c 07       	movzbl (%r15,%rax,1),%r13d
/home/tenebris/Disk/Documents/RootCauseAnalysis/evaluation/test_bin/libjpeg/libjpeg_heap_buffer_overflow/libjpeg-turbo/rdppm.c:305 (discriminator 3)
      JSAMPLE g = rescale[read_pbm_integer(cinfo, infile, maxval)];
    4b2e:	e8 4d fe ff ff       	call   4980 <read_pbm_integer>
/home/tenebris/Disk/Documents/RootCauseAnalysis/evaluation/test_bin/libjpeg/libjpeg_heap_buffer_overflow/libjpeg-turbo/rdppm.c:306 (discriminator 3)
      JSAMPLE b = rescale[read_pbm_integer(cinfo, infile, maxval)];
    4b33:	44 89 f2             	mov    %r14d,%edx
    4b36:	48 89 ee             	mov    %rbp,%rsi
    4b39:	48 89 df             	mov    %rbx,%rdi
/home/tenebris/Disk/Documents/RootCauseAnalysis/evaluation/test_bin/libjpeg/libjpeg_heap_buffer_overflow/libjpeg-turbo/rdppm.c:305 (discriminator 3)
      JSAMPLE g = rescale[read_pbm_integer(cinfo, infile, maxval)];
    4b3c:	89 c0                	mov    %eax,%eax
    4b3e:	45 0f b6 24 07       	movzbl (%r15,%rax,1),%r12d
/home/tenebris/Disk/Documents/RootCauseAnalysis/evaluation/test_bin/libjpeg/libjpeg_heap_buffer_overflow/libjpeg-turbo/rdppm.c:306 (discriminator 3)
      JSAMPLE b = rescale[read_pbm_integer(cinfo, infile, maxval)];
    4b43:	e8 38 fe ff ff       	call   4980 <read_pbm_integer>
rgb_to_cmyk():
/home/tenebris/Disk/Documents/RootCauseAnalysis/evaluation/test_bin/libjpeg/libjpeg_heap_buffer_overflow/libjpeg-turbo/cmyk.h:30 (discriminator 3)
  double ctmp = 1.0 - ((double)r / 255.0);
    4b48:	66 0f ef c9          	pxor   %xmm1,%xmm1
    4b4c:	f2 0f 10 44 24 08    	movsd  0x8(%rsp),%xmm0
    4b52:	f2 0f 10 54 24 10    	movsd  0x10(%rsp),%xmm2
    4b58:	f2 41 0f 2a cd       	cvtsi2sd %r13d,%xmm1
get_text_rgb_cmyk_row():
/home/tenebris/Disk/Documents/RootCauseAnalysis/evaluation/test_bin/libjpeg/libjpeg_heap_buffer_overflow/libjpeg-turbo/rdppm.c:306 (discriminator 3)
    4b5d:	89 c0                	mov    %eax,%eax
rgb_to_cmyk():
/home/tenebris/Disk/Documents/RootCauseAnalysis/evaluation/test_bin/libjpeg/libjpeg_heap_buffer_overflow/libjpeg-turbo/cmyk.h:35 (discriminator 3)
  if (ktmp == 1.0) ctmp = mtmp = ytmp = 0.0;
    4b5f:	48 8b 0c 24          	mov    (%rsp),%rcx
/home/tenebris/Disk/Documents/RootCauseAnalysis/evaluation/test_bin/libjpeg/libjpeg_heap_buffer_overflow/libjpeg-turbo/cmyk.h:30 (discriminator 3)
  double ctmp = 1.0 - ((double)r / 255.0);
    4b63:	66 0f 28 ea          	movapd %xmm2,%xmm5
/home/tenebris/Disk/Documents/RootCauseAnalysis/evaluation/test_bin/libjpeg/libjpeg_heap_buffer_overflow/libjpeg-turbo/cmyk.h:32 (discriminator 3)
  double ytmp = 1.0 - ((double)b / 255.0);
    4b67:	41 0f b6 04 07       	movzbl (%r15,%rax,1),%eax
/home/tenebris/Disk/Documents/RootCauseAnalysis/evaluation/test_bin/libjpeg/libjpeg_heap_buffer_overflow/libjpeg-turbo/cmyk.h:31 (discriminator 3)
  double mtmp = 1.0 - ((double)g / 255.0);
    4b6c:	66 0f 28 e2          	movapd %xmm2,%xmm4
/home/tenebris/Disk/Documents/RootCauseAnalysis/evaluation/test_bin/libjpeg/libjpeg_heap_buffer_overflow/libjpeg-turbo/cmyk.h:32 (discriminator 3)
  double ytmp = 1.0 - ((double)b / 255.0);
    4b70:	66 0f 28 da          	movapd %xmm2,%xmm3
/home/tenebris/Disk/Documents/RootCauseAnalysis/evaluation/test_bin/libjpeg/libjpeg_heap_buffer_overflow/libjpeg-turbo/cmyk.h:30 (discriminator 3)
  double ctmp = 1.0 - ((double)r / 255.0);
    4b74:	f2 0f 5e c8          	divsd  %xmm0,%xmm1
    4b78:	f2 0f 5c e9          	subsd  %xmm1,%xmm5
/home/tenebris/Disk/Documents/RootCauseAnalysis/evaluation/test_bin/libjpeg/libjpeg_heap_buffer_overflow/libjpeg-turbo/cmyk.h:31 (discriminator 3)
  double mtmp = 1.0 - ((double)g / 255.0);
    4b7c:	66 0f ef c9          	pxor   %xmm1,%xmm1
    4b80:	f2 41 0f 2a cc       	cvtsi2sd %r12d,%xmm1
    4b85:	f2 0f 5e c8          	divsd  %xmm0,%xmm1
    4b89:	f2 0f 5c e1          	subsd  %xmm1,%xmm4
/home/tenebris/Disk/Documents/RootCauseAnalysis/evaluation/test_bin/libjpeg/libjpeg_heap_buffer_overflow/libjpeg-turbo/cmyk.h:32 (discriminator 3)
  double ytmp = 1.0 - ((double)b / 255.0);
    4b8d:	66 0f ef c9          	pxor   %xmm1,%xmm1
    4b91:	f2 0f 2a c8          	cvtsi2sd %eax,%xmm1
    4b95:	f2 0f 5e c8          	divsd  %xmm0,%xmm1
    4b99:	f2 0f 5c d9          	subsd  %xmm1,%xmm3
/home/tenebris/Disk/Documents/RootCauseAnalysis/evaluation/test_bin/libjpeg/libjpeg_heap_buffer_overflow/libjpeg-turbo/cmyk.h:33 (discriminator 3)
  double ktmp = MIN(MIN(ctmp, mtmp), ytmp);
    4b9d:	66 0f 28 cd          	movapd %xmm5,%xmm1
    4ba1:	f2 0f 5d cc          	minsd  %xmm4,%xmm1
    4ba5:	f2 0f 5d cb          	minsd  %xmm3,%xmm1
/home/tenebris/Disk/Documents/RootCauseAnalysis/evaluation/test_bin/libjpeg/libjpeg_heap_buffer_overflow/libjpeg-turbo/cmyk.h:35 (discriminator 3)
  if (ktmp == 1.0) ctmp = mtmp = ytmp = 0.0;
    4ba9:	66 0f 2e ca          	ucomisd %xmm2,%xmm1
    4bad:	7a 06                	jp     4bb5 <get_text_rgb_cmyk_row+0x115>
/home/tenebris/Disk/Documents/RootCauseAnalysis/evaluation/test_bin/libjpeg/libjpeg_heap_buffer_overflow/libjpeg-turbo/cmyk.h:35
    4baf:	0f 84 b3 00 00 00    	je     4c68 <get_text_rgb_cmyk_row+0x1c8>
/home/tenebris/Disk/Documents/RootCauseAnalysis/evaluation/test_bin/libjpeg/libjpeg_heap_buffer_overflow/libjpeg-turbo/cmyk.h:37
    ctmp = (ctmp - ktmp) / (1.0 - ktmp);
    4bb5:	66 0f 28 f2          	movapd %xmm2,%xmm6
    4bb9:	f2 0f 5c e9          	subsd  %xmm1,%xmm5
/home/tenebris/Disk/Documents/RootCauseAnalysis/evaluation/test_bin/libjpeg/libjpeg_heap_buffer_overflow/libjpeg-turbo/cmyk.h:38
    mtmp = (mtmp - ktmp) / (1.0 - ktmp);
    4bbd:	f2 0f 5c e1          	subsd  %xmm1,%xmm4
get_text_rgb_cmyk_row():
/home/tenebris/Disk/Documents/RootCauseAnalysis/evaluation/test_bin/libjpeg/libjpeg_heap_buffer_overflow/libjpeg-turbo/rdppm.c:308
      ptr += 4;
    4bc1:	48 83 c1 04          	add    $0x4,%rcx
rgb_to_cmyk():
/home/tenebris/Disk/Documents/RootCauseAnalysis/evaluation/test_bin/libjpeg/libjpeg_heap_buffer_overflow/libjpeg-turbo/cmyk.h:37
    ctmp = (ctmp - ktmp) / (1.0 - ktmp);
    4bc5:	f2 0f 5c f1          	subsd  %xmm1,%xmm6
/home/tenebris/Disk/Documents/RootCauseAnalysis/evaluation/test_bin/libjpeg/libjpeg_heap_buffer_overflow/libjpeg-turbo/cmyk.h:39
    ytmp = (ytmp - ktmp) / (1.0 - ktmp);
    4bc9:	f2 0f 5c d9          	subsd  %xmm1,%xmm3
/home/tenebris/Disk/Documents/RootCauseAnalysis/evaluation/test_bin/libjpeg/libjpeg_heap_buffer_overflow/libjpeg-turbo/cmyk.h:41
  *c = (JSAMPLE)(255.0 - ctmp * 255.0 + 0.5);
    4bcd:	66 0f 28 f8          	movapd %xmm0,%xmm7
/home/tenebris/Disk/Documents/RootCauseAnalysis/evaluation/test_bin/libjpeg/libjpeg_heap_buffer_overflow/libjpeg-turbo/cmyk.h:44
  *k = (JSAMPLE)(255.0 - ktmp * 255.0 + 0.5);
    4bd1:	f2 0f 59 c8          	mulsd  %xmm0,%xmm1
/home/tenebris/Disk/Documents/RootCauseAnalysis/evaluation/test_bin/libjpeg/libjpeg_heap_buffer_overflow/libjpeg-turbo/cmyk.h:37
    ctmp = (ctmp - ktmp) / (1.0 - ktmp);
    4bd5:	f2 0f 5e ee          	divsd  %xmm6,%xmm5
/home/tenebris/Disk/Documents/RootCauseAnalysis/evaluation/test_bin/libjpeg/libjpeg_heap_buffer_overflow/libjpeg-turbo/cmyk.h:38
    mtmp = (mtmp - ktmp) / (1.0 - ktmp);
    4bd9:	f2 0f 5e e6          	divsd  %xmm6,%xmm4
/home/tenebris/Disk/Documents/RootCauseAnalysis/evaluation/test_bin/libjpeg/libjpeg_heap_buffer_overflow/libjpeg-turbo/cmyk.h:41
  *c = (JSAMPLE)(255.0 - ctmp * 255.0 + 0.5);
    4bdd:	f2 0f 59 e8          	mulsd  %xmm0,%xmm5
    4be1:	f2 0f 5c fd          	subsd  %xmm5,%xmm7
    4be5:	f2 0f 58 3d 0b 56 00 	addsd  0x560b(%rip),%xmm7        # a1f8 <rgb_red+0x58>
    4bec:	00 
/home/tenebris/Disk/Documents/RootCauseAnalysis/evaluation/test_bin/libjpeg/libjpeg_heap_buffer_overflow/libjpeg-turbo/cmyk.h:42
  *m = (JSAMPLE)(255.0 - mtmp * 255.0 + 0.5);
    4bed:	66 0f 28 e8          	movapd %xmm0,%xmm5
/home/tenebris/Disk/Documents/RootCauseAnalysis/evaluation/test_bin/libjpeg/libjpeg_heap_buffer_overflow/libjpeg-turbo/cmyk.h:41
  *c = (JSAMPLE)(255.0 - ctmp * 255.0 + 0.5);
    4bf1:	f2 0f 2c c7          	cvttsd2si %xmm7,%eax
/home/tenebris/Disk/Documents/RootCauseAnalysis/evaluation/test_bin/libjpeg/libjpeg_heap_buffer_overflow/libjpeg-turbo/cmyk.h:39
    ytmp = (ytmp - ktmp) / (1.0 - ktmp);
    4bf5:	f2 0f 5e de          	divsd  %xmm6,%xmm3
/home/tenebris/Disk/Documents/RootCauseAnalysis/evaluation/test_bin/libjpeg/libjpeg_heap_buffer_overflow/libjpeg-turbo/cmyk.h:41
  *c = (JSAMPLE)(255.0 - ctmp * 255.0 + 0.5);
    4bf9:	88 41 fc             	mov    %al,-0x4(%rcx)
/home/tenebris/Disk/Documents/RootCauseAnalysis/evaluation/test_bin/libjpeg/libjpeg_heap_buffer_overflow/libjpeg-turbo/cmyk.h:42
  *m = (JSAMPLE)(255.0 - mtmp * 255.0 + 0.5);
    4bfc:	f2 0f 59 e0          	mulsd  %xmm0,%xmm4
    4c00:	f2 0f 5c ec          	subsd  %xmm4,%xmm5
    4c04:	f2 0f 58 2d ec 55 00 	addsd  0x55ec(%rip),%xmm5        # a1f8 <rgb_red+0x58>
    4c0b:	00 
/home/tenebris/Disk/Documents/RootCauseAnalysis/evaluation/test_bin/libjpeg/libjpeg_heap_buffer_overflow/libjpeg-turbo/cmyk.h:43
  *y = (JSAMPLE)(255.0 - ytmp * 255.0 + 0.5);
    4c0c:	66 0f 28 e0          	movapd %xmm0,%xmm4
/home/tenebris/Disk/Documents/RootCauseAnalysis/evaluation/test_bin/libjpeg/libjpeg_heap_buffer_overflow/libjpeg-turbo/cmyk.h:42
  *m = (JSAMPLE)(255.0 - mtmp * 255.0 + 0.5);
    4c10:	f2 0f 2c c5          	cvttsd2si %xmm5,%eax
    4c14:	88 41 fd             	mov    %al,-0x3(%rcx)
/home/tenebris/Disk/Documents/RootCauseAnalysis/evaluation/test_bin/libjpeg/libjpeg_heap_buffer_overflow/libjpeg-turbo/cmyk.h:43
  *y = (JSAMPLE)(255.0 - ytmp * 255.0 + 0.5);
    4c17:	f2 0f 59 d8          	mulsd  %xmm0,%xmm3
    4c1b:	f2 0f 5c e3          	subsd  %xmm3,%xmm4
    4c1f:	f2 0f 58 25 d1 55 00 	addsd  0x55d1(%rip),%xmm4        # a1f8 <rgb_red+0x58>
    4c26:	00 
/home/tenebris/Disk/Documents/RootCauseAnalysis/evaluation/test_bin/libjpeg/libjpeg_heap_buffer_overflow/libjpeg-turbo/cmyk.h:44
  *k = (JSAMPLE)(255.0 - ktmp * 255.0 + 0.5);
    4c27:	66 0f 28 d8          	movapd %xmm0,%xmm3
    4c2b:	f2 0f 5c d9          	subsd  %xmm1,%xmm3
    4c2f:	f2 0f 58 1d c1 55 00 	addsd  0x55c1(%rip),%xmm3        # a1f8 <rgb_red+0x58>
    4c36:	00 
/home/tenebris/Disk/Documents/RootCauseAnalysis/evaluation/test_bin/libjpeg/libjpeg_heap_buffer_overflow/libjpeg-turbo/cmyk.h:43
  *y = (JSAMPLE)(255.0 - ytmp * 255.0 + 0.5);
    4c37:	f2 0f 2c c4          	cvttsd2si %xmm4,%eax
    4c3b:	88 41 fe             	mov    %al,-0x2(%rcx)
/home/tenebris/Disk/Documents/RootCauseAnalysis/evaluation/test_bin/libjpeg/libjpeg_heap_buffer_overflow/libjpeg-turbo/cmyk.h:44
  *k = (JSAMPLE)(255.0 - ktmp * 255.0 + 0.5);
    4c3e:	f2 0f 2c c3          	cvttsd2si %xmm3,%eax
    4c42:	88 41 ff             	mov    %al,-0x1(%rcx)
get_text_rgb_cmyk_row():
/home/tenebris/Disk/Documents/RootCauseAnalysis/evaluation/test_bin/libjpeg/libjpeg_heap_buffer_overflow/libjpeg-turbo/rdppm.c:303
    for (col = cinfo->image_width; col > 0; col--) {
    4c45:	48 3b 4c 24 18       	cmp    0x18(%rsp),%rcx
    4c4a:	0f 85 b0 fe ff ff    	jne    4b00 <get_text_rgb_cmyk_row+0x60>
/home/tenebris/Disk/Documents/RootCauseAnalysis/evaluation/test_bin/libjpeg/libjpeg_heap_buffer_overflow/libjpeg-turbo/rdppm.c:312
}
    4c50:	48 83 c4 28          	add    $0x28,%rsp
    4c54:	b8 01 00 00 00       	mov    $0x1,%eax
    4c59:	5b                   	pop    %rbx
    4c5a:	5d                   	pop    %rbp
    4c5b:	41 5c                	pop    %r12
    4c5d:	41 5d                	pop    %r13
    4c5f:	41 5e                	pop    %r14
    4c61:	41 5f                	pop    %r15
    4c63:	c3                   	ret    
    4c64:	0f 1f 40 00          	nopl   0x0(%rax)
rgb_to_cmyk():
/home/tenebris/Disk/Documents/RootCauseAnalysis/evaluation/test_bin/libjpeg/libjpeg_heap_buffer_overflow/libjpeg-turbo/cmyk.h:41
  *c = (JSAMPLE)(255.0 - ctmp * 255.0 + 0.5);
    4c68:	c6 01 ff             	movb   $0xff,(%rcx)
get_text_rgb_cmyk_row():
/home/tenebris/Disk/Documents/RootCauseAnalysis/evaluation/test_bin/libjpeg/libjpeg_heap_buffer_overflow/libjpeg-turbo/rdppm.c:308
      ptr += 4;
    4c6b:	48 83 c1 04          	add    $0x4,%rcx
rgb_to_cmyk():
/home/tenebris/Disk/Documents/RootCauseAnalysis/evaluation/test_bin/libjpeg/libjpeg_heap_buffer_overflow/libjpeg-turbo/cmyk.h:42
  *m = (JSAMPLE)(255.0 - mtmp * 255.0 + 0.5);
    4c6f:	c6 41 fd ff          	movb   $0xff,-0x3(%rcx)
/home/tenebris/Disk/Documents/RootCauseAnalysis/evaluation/test_bin/libjpeg/libjpeg_heap_buffer_overflow/libjpeg-turbo/cmyk.h:43
  *y = (JSAMPLE)(255.0 - ytmp * 255.0 + 0.5);
    4c73:	c6 41 fe ff          	movb   $0xff,-0x2(%rcx)
/home/tenebris/Disk/Documents/RootCauseAnalysis/evaluation/test_bin/libjpeg/libjpeg_heap_buffer_overflow/libjpeg-turbo/cmyk.h:44
  *k = (JSAMPLE)(255.0 - ktmp * 255.0 + 0.5);
    4c77:	c6 41 ff 00          	movb   $0x0,-0x1(%rcx)
get_text_rgb_cmyk_row():
/home/tenebris/Disk/Documents/RootCauseAnalysis/evaluation/test_bin/libjpeg/libjpeg_heap_buffer_overflow/libjpeg-turbo/rdppm.c:303
    for (col = cinfo->image_width; col > 0; col--) {
    4c7b:	48 3b 4c 24 18       	cmp    0x18(%rsp),%rcx
    4c80:	0f 85 7a fe ff ff    	jne    4b00 <get_text_rgb_cmyk_row+0x60>
    4c86:	eb c8                	jmp    4c50 <get_text_rgb_cmyk_row+0x1b0>
    4c88:	0f 1f 84 00 00 00 00 	nopl   0x0(%rax,%rax,1)
    4c8f:	00 
/home/tenebris/Disk/Documents/RootCauseAnalysis/evaluation/test_bin/libjpeg/libjpeg_heap_buffer_overflow/libjpeg-turbo/rdppm.c:295
    for (col = cinfo->image_width; col > 0; col--) {
    4c90:	85 c0                	test   %eax,%eax
    4c92:	74 bc                	je     4c50 <get_text_rgb_cmyk_row+0x1b0>
    4c94:	f2 0f 10 05 4c 55 00 	movsd  0x554c(%rip),%xmm0        # a1e8 <rgb_red+0x48>
    4c9b:	00 
    4c9c:	f2 0f 10 15 4c 55 00 	movsd  0x554c(%rip),%xmm2        # a1f0 <rgb_red+0x50>
    4ca3:	00 
    4ca4:	4c 8d 34 81          	lea    (%rcx,%rax,4),%r14
    4ca8:	0f 1f 84 00 00 00 00 	nopl   0x0(%rax,%rax,1)
    4caf:	00 
/home/tenebris/Disk/Documents/RootCauseAnalysis/evaluation/test_bin/libjpeg/libjpeg_heap_buffer_overflow/libjpeg-turbo/rdppm.c:296 (discriminator 3)
      JSAMPLE r = read_pbm_integer(cinfo, infile, maxval);
    4cb0:	ba ff 00 00 00       	mov    $0xff,%edx
    4cb5:	48 89 ee             	mov    %rbp,%rsi
    4cb8:	48 89 df             	mov    %rbx,%rdi
    4cbb:	48 89 0c 24          	mov    %rcx,(%rsp)
    4cbf:	f2 0f 11 54 24 10    	movsd  %xmm2,0x10(%rsp)
    4cc5:	f2 0f 11 44 24 08    	movsd  %xmm0,0x8(%rsp)
    4ccb:	e8 b0 fc ff ff       	call   4980 <read_pbm_integer>
/home/tenebris/Disk/Documents/RootCauseAnalysis/evaluation/test_bin/libjpeg/libjpeg_heap_buffer_overflow/libjpeg-turbo/rdppm.c:297 (discriminator 3)
      JSAMPLE g = read_pbm_integer(cinfo, infile, maxval);
    4cd0:	ba ff 00 00 00       	mov    $0xff,%edx
    4cd5:	48 89 ee             	mov    %rbp,%rsi
    4cd8:	48 89 df             	mov    %rbx,%rdi
/home/tenebris/Disk/Documents/RootCauseAnalysis/evaluation/test_bin/libjpeg/libjpeg_heap_buffer_overflow/libjpeg-turbo/rdppm.c:296 (discriminator 3)
      JSAMPLE r = read_pbm_integer(cinfo, infile, maxval);
    4cdb:	41 89 c5             	mov    %eax,%r13d
/home/tenebris/Disk/Documents/RootCauseAnalysis/evaluation/test_bin/libjpeg/libjpeg_heap_buffer_overflow/libjpeg-turbo/rdppm.c:297 (discriminator 3)
      JSAMPLE g = read_pbm_integer(cinfo, infile, maxval);
    4cde:	e8 9d fc ff ff       	call   4980 <read_pbm_integer>
/home/tenebris/Disk/Documents/RootCauseAnalysis/evaluation/test_bin/libjpeg/libjpeg_heap_buffer_overflow/libjpeg-turbo/rdppm.c:298 (discriminator 3)
      JSAMPLE b = read_pbm_integer(cinfo, infile, maxval);
    4ce3:	ba ff 00 00 00       	mov    $0xff,%edx
    4ce8:	48 89 ee             	mov    %rbp,%rsi
    4ceb:	48 89 df             	mov    %rbx,%rdi
/home/tenebris/Disk/Documents/RootCauseAnalysis/evaluation/test_bin/libjpeg/libjpeg_heap_buffer_overflow/libjpeg-turbo/rdppm.c:297 (discriminator 3)
      JSAMPLE g = read_pbm_integer(cinfo, infile, maxval);
    4cee:	41 89 c4             	mov    %eax,%r12d
rgb_to_cmyk():
/home/tenebris/Disk/Documents/RootCauseAnalysis/evaluation/test_bin/libjpeg/libjpeg_heap_buffer_overflow/libjpeg-turbo/cmyk.h:30 (discriminator 3)
  double ctmp = 1.0 - ((double)r / 255.0);
    4cf1:	45 0f b6 ed          	movzbl %r13b,%r13d
get_text_rgb_cmyk_row():
/home/tenebris/Disk/Documents/RootCauseAnalysis/evaluation/test_bin/libjpeg/libjpeg_heap_buffer_overflow/libjpeg-turbo/rdppm.c:298 (discriminator 3)
      JSAMPLE b = read_pbm_integer(cinfo, infile, maxval);
    4cf5:	e8 86 fc ff ff       	call   4980 <read_pbm_integer>
rgb_to_cmyk():
/home/tenebris/Disk/Documents/RootCauseAnalysis/evaluation/test_bin/libjpeg/libjpeg_heap_buffer_overflow/libjpeg-turbo/cmyk.h:30 (discriminator 3)
    4cfa:	66 0f ef c9          	pxor   %xmm1,%xmm1
    4cfe:	f2 0f 10 44 24 08    	movsd  0x8(%rsp),%xmm0
    4d04:	f2 0f 10 54 24 10    	movsd  0x10(%rsp),%xmm2
    4d0a:	f2 41 0f 2a cd       	cvtsi2sd %r13d,%xmm1
/home/tenebris/Disk/Documents/RootCauseAnalysis/evaluation/test_bin/libjpeg/libjpeg_heap_buffer_overflow/libjpeg-turbo/cmyk.h:31 (discriminator 3)
  double mtmp = 1.0 - ((double)g / 255.0);
    4d0f:	45 0f b6 e4          	movzbl %r12b,%r12d
/home/tenebris/Disk/Documents/RootCauseAnalysis/evaluation/test_bin/libjpeg/libjpeg_heap_buffer_overflow/libjpeg-turbo/cmyk.h:32 (discriminator 3)
  double ytmp = 1.0 - ((double)b / 255.0);
    4d13:	0f b6 c0             	movzbl %al,%eax
/home/tenebris/Disk/Documents/RootCauseAnalysis/evaluation/test_bin/libjpeg/libjpeg_heap_buffer_overflow/libjpeg-turbo/cmyk.h:35 (discriminator 3)
  if (ktmp == 1.0) ctmp = mtmp = ytmp = 0.0;
    4d16:	48 8b 0c 24          	mov    (%rsp),%rcx
/home/tenebris/Disk/Documents/RootCauseAnalysis/evaluation/test_bin/libjpeg/libjpeg_heap_buffer_overflow/libjpeg-turbo/cmyk.h:30 (discriminator 3)
  double ctmp = 1.0 - ((double)r / 255.0);
    4d1a:	66 0f 28 ea          	movapd %xmm2,%xmm5
/home/tenebris/Disk/Documents/RootCauseAnalysis/evaluation/test_bin/libjpeg/libjpeg_heap_buffer_overflow/libjpeg-turbo/cmyk.h:31 (discriminator 3)
  double mtmp = 1.0 - ((double)g / 255.0);
    4d1e:	66 0f 28 e2          	movapd %xmm2,%xmm4
/home/tenebris/Disk/Documents/RootCauseAnalysis/evaluation/test_bin/libjpeg/libjpeg_heap_buffer_overflow/libjpeg-turbo/cmyk.h:32 (discriminator 3)
  double ytmp = 1.0 - ((double)b / 255.0);
    4d22:	66 0f 28 da          	movapd %xmm2,%xmm3
/home/tenebris/Disk/Documents/RootCauseAnalysis/evaluation/test_bin/libjpeg/libjpeg_heap_buffer_overflow/libjpeg-turbo/cmyk.h:30 (discriminator 3)
  double ctmp = 1.0 - ((double)r / 255.0);
    4d26:	f2 0f 5e c8          	divsd  %xmm0,%xmm1
    4d2a:	f2 0f 5c e9          	subsd  %xmm1,%xmm5
/home/tenebris/Disk/Documents/RootCauseAnalysis/evaluation/test_bin/libjpeg/libjpeg_heap_buffer_overflow/libjpeg-turbo/cmyk.h:31 (discriminator 3)
  double mtmp = 1.0 - ((double)g / 255.0);
    4d2e:	66 0f ef c9          	pxor   %xmm1,%xmm1
    4d32:	f2 41 0f 2a cc       	cvtsi2sd %r12d,%xmm1
    4d37:	f2 0f 5e c8          	divsd  %xmm0,%xmm1
    4d3b:	f2 0f 5c e1          	subsd  %xmm1,%xmm4
/home/tenebris/Disk/Documents/RootCauseAnalysis/evaluation/test_bin/libjpeg/libjpeg_heap_buffer_overflow/libjpeg-turbo/cmyk.h:32 (discriminator 3)
  double ytmp = 1.0 - ((double)b / 255.0);
    4d3f:	66 0f ef c9          	pxor   %xmm1,%xmm1
    4d43:	f2 0f 2a c8          	cvtsi2sd %eax,%xmm1
    4d47:	f2 0f 5e c8          	divsd  %xmm0,%xmm1
    4d4b:	f2 0f 5c d9          	subsd  %xmm1,%xmm3
/home/tenebris/Disk/Documents/RootCauseAnalysis/evaluation/test_bin/libjpeg/libjpeg_heap_buffer_overflow/libjpeg-turbo/cmyk.h:33 (discriminator 3)
  double ktmp = MIN(MIN(ctmp, mtmp), ytmp);
    4d4f:	66 0f 28 cd          	movapd %xmm5,%xmm1
    4d53:	f2 0f 5d cc          	minsd  %xmm4,%xmm1
    4d57:	f2 0f 5d cb          	minsd  %xmm3,%xmm1
/home/tenebris/Disk/Documents/RootCauseAnalysis/evaluation/test_bin/libjpeg/libjpeg_heap_buffer_overflow/libjpeg-turbo/cmyk.h:35 (discriminator 3)
  if (ktmp == 1.0) ctmp = mtmp = ytmp = 0.0;
    4d5b:	66 0f 2e ca          	ucomisd %xmm2,%xmm1
    4d5f:	7a 06                	jp     4d67 <get_text_rgb_cmyk_row+0x2c7>
/home/tenebris/Disk/Documents/RootCauseAnalysis/evaluation/test_bin/libjpeg/libjpeg_heap_buffer_overflow/libjpeg-turbo/cmyk.h:35
    4d61:	0f 84 a1 00 00 00    	je     4e08 <get_text_rgb_cmyk_row+0x368>
/home/tenebris/Disk/Documents/RootCauseAnalysis/evaluation/test_bin/libjpeg/libjpeg_heap_buffer_overflow/libjpeg-turbo/cmyk.h:37
    ctmp = (ctmp - ktmp) / (1.0 - ktmp);
    4d67:	66 0f 28 f2          	movapd %xmm2,%xmm6
    4d6b:	f2 0f 5c e9          	subsd  %xmm1,%xmm5
/home/tenebris/Disk/Documents/RootCauseAnalysis/evaluation/test_bin/libjpeg/libjpeg_heap_buffer_overflow/libjpeg-turbo/cmyk.h:38
    mtmp = (mtmp - ktmp) / (1.0 - ktmp);
    4d6f:	f2 0f 5c e1          	subsd  %xmm1,%xmm4
get_text_rgb_cmyk_row():
/home/tenebris/Disk/Documents/RootCauseAnalysis/evaluation/test_bin/libjpeg/libjpeg_heap_buffer_overflow/libjpeg-turbo/rdppm.c:300
      ptr += 4;
    4d73:	48 83 c1 04          	add    $0x4,%rcx
rgb_to_cmyk():
/home/tenebris/Disk/Documents/RootCauseAnalysis/evaluation/test_bin/libjpeg/libjpeg_heap_buffer_overflow/libjpeg-turbo/cmyk.h:37
    ctmp = (ctmp - ktmp) / (1.0 - ktmp);
    4d77:	f2 0f 5c f1          	subsd  %xmm1,%xmm6
/home/tenebris/Disk/Documents/RootCauseAnalysis/evaluation/test_bin/libjpeg/libjpeg_heap_buffer_overflow/libjpeg-turbo/cmyk.h:39
    ytmp = (ytmp - ktmp) / (1.0 - ktmp);
    4d7b:	f2 0f 5c d9          	subsd  %xmm1,%xmm3
/home/tenebris/Disk/Documents/RootCauseAnalysis/evaluation/test_bin/libjpeg/libjpeg_heap_buffer_overflow/libjpeg-turbo/cmyk.h:41
  *c = (JSAMPLE)(255.0 - ctmp * 255.0 + 0.5);
    4d7f:	66 0f 28 f8          	movapd %xmm0,%xmm7
/home/tenebris/Disk/Documents/RootCauseAnalysis/evaluation/test_bin/libjpeg/libjpeg_heap_buffer_overflow/libjpeg-turbo/cmyk.h:44
  *k = (JSAMPLE)(255.0 - ktmp * 255.0 + 0.5);
    4d83:	f2 0f 59 c8          	mulsd  %xmm0,%xmm1
/home/tenebris/Disk/Documents/RootCauseAnalysis/evaluation/test_bin/libjpeg/libjpeg_heap_buffer_overflow/libjpeg-turbo/cmyk.h:37
    ctmp = (ctmp - ktmp) / (1.0 - ktmp);
    4d87:	f2 0f 5e ee          	divsd  %xmm6,%xmm5
/home/tenebris/Disk/Documents/RootCauseAnalysis/evaluation/test_bin/libjpeg/libjpeg_heap_buffer_overflow/libjpeg-turbo/cmyk.h:38
    mtmp = (mtmp - ktmp) / (1.0 - ktmp);
    4d8b:	f2 0f 5e e6          	divsd  %xmm6,%xmm4
/home/tenebris/Disk/Documents/RootCauseAnalysis/evaluation/test_bin/libjpeg/libjpeg_heap_buffer_overflow/libjpeg-turbo/cmyk.h:41
  *c = (JSAMPLE)(255.0 - ctmp * 255.0 + 0.5);
    4d8f:	f2 0f 59 e8          	mulsd  %xmm0,%xmm5
    4d93:	f2 0f 5c fd          	subsd  %xmm5,%xmm7
    4d97:	f2 0f 58 3d 59 54 00 	addsd  0x5459(%rip),%xmm7        # a1f8 <rgb_red+0x58>
    4d9e:	00 
/home/tenebris/Disk/Documents/RootCauseAnalysis/evaluation/test_bin/libjpeg/libjpeg_heap_buffer_overflow/libjpeg-turbo/cmyk.h:42
  *m = (JSAMPLE)(255.0 - mtmp * 255.0 + 0.5);
    4d9f:	66 0f 28 e8          	movapd %xmm0,%xmm5
/home/tenebris/Disk/Documents/RootCauseAnalysis/evaluation/test_bin/libjpeg/libjpeg_heap_buffer_overflow/libjpeg-turbo/cmyk.h:41
  *c = (JSAMPLE)(255.0 - ctmp * 255.0 + 0.5);
    4da3:	f2 0f 2c c7          	cvttsd2si %xmm7,%eax
/home/tenebris/Disk/Documents/RootCauseAnalysis/evaluation/test_bin/libjpeg/libjpeg_heap_buffer_overflow/libjpeg-turbo/cmyk.h:39
    ytmp = (ytmp - ktmp) / (1.0 - ktmp);
    4da7:	f2 0f 5e de          	divsd  %xmm6,%xmm3
/home/tenebris/Disk/Documents/RootCauseAnalysis/evaluation/test_bin/libjpeg/libjpeg_heap_buffer_overflow/libjpeg-turbo/cmyk.h:41
  *c = (JSAMPLE)(255.0 - ctmp * 255.0 + 0.5);
    4dab:	88 41 fc             	mov    %al,-0x4(%rcx)
/home/tenebris/Disk/Documents/RootCauseAnalysis/evaluation/test_bin/libjpeg/libjpeg_heap_buffer_overflow/libjpeg-turbo/cmyk.h:42
  *m = (JSAMPLE)(255.0 - mtmp * 255.0 + 0.5);
    4dae:	f2 0f 59 e0          	mulsd  %xmm0,%xmm4
    4db2:	f2 0f 5c ec          	subsd  %xmm4,%xmm5
    4db6:	f2 0f 58 2d 3a 54 00 	addsd  0x543a(%rip),%xmm5        # a1f8 <rgb_red+0x58>
    4dbd:	00 
/home/tenebris/Disk/Documents/RootCauseAnalysis/evaluation/test_bin/libjpeg/libjpeg_heap_buffer_overflow/libjpeg-turbo/cmyk.h:43
  *y = (JSAMPLE)(255.0 - ytmp * 255.0 + 0.5);
    4dbe:	66 0f 28 e0          	movapd %xmm0,%xmm4
/home/tenebris/Disk/Documents/RootCauseAnalysis/evaluation/test_bin/libjpeg/libjpeg_heap_buffer_overflow/libjpeg-turbo/cmyk.h:42
  *m = (JSAMPLE)(255.0 - mtmp * 255.0 + 0.5);
    4dc2:	f2 0f 2c c5          	cvttsd2si %xmm5,%eax
    4dc6:	88 41 fd             	mov    %al,-0x3(%rcx)
/home/tenebris/Disk/Documents/RootCauseAnalysis/evaluation/test_bin/libjpeg/libjpeg_heap_buffer_overflow/libjpeg-turbo/cmyk.h:43
  *y = (JSAMPLE)(255.0 - ytmp * 255.0 + 0.5);
    4dc9:	f2 0f 59 d8          	mulsd  %xmm0,%xmm3
    4dcd:	f2 0f 5c e3          	subsd  %xmm3,%xmm4
    4dd1:	f2 0f 58 25 1f 54 00 	addsd  0x541f(%rip),%xmm4        # a1f8 <rgb_red+0x58>
    4dd8:	00 
/home/tenebris/Disk/Documents/RootCauseAnalysis/evaluation/test_bin/libjpeg/libjpeg_heap_buffer_overflow/libjpeg-turbo/cmyk.h:44
  *k = (JSAMPLE)(255.0 - ktmp * 255.0 + 0.5);
    4dd9:	66 0f 28 d8          	movapd %xmm0,%xmm3
    4ddd:	f2 0f 5c d9          	subsd  %xmm1,%xmm3
    4de1:	f2 0f 58 1d 0f 54 00 	addsd  0x540f(%rip),%xmm3        # a1f8 <rgb_red+0x58>
    4de8:	00 
/home/tenebris/Disk/Documents/RootCauseAnalysis/evaluation/test_bin/libjpeg/libjpeg_heap_buffer_overflow/libjpeg-turbo/cmyk.h:43
  *y = (JSAMPLE)(255.0 - ytmp * 255.0 + 0.5);
    4de9:	f2 0f 2c c4          	cvttsd2si %xmm4,%eax
    4ded:	88 41 fe             	mov    %al,-0x2(%rcx)
/home/tenebris/Disk/Documents/RootCauseAnalysis/evaluation/test_bin/libjpeg/libjpeg_heap_buffer_overflow/libjpeg-turbo/cmyk.h:44
  *k = (JSAMPLE)(255.0 - ktmp * 255.0 + 0.5);
    4df0:	f2 0f 2c c3          	cvttsd2si %xmm3,%eax
    4df4:	88 41 ff             	mov    %al,-0x1(%rcx)
get_text_rgb_cmyk_row():
/home/tenebris/Disk/Documents/RootCauseAnalysis/evaluation/test_bin/libjpeg/libjpeg_heap_buffer_overflow/libjpeg-turbo/rdppm.c:295
    for (col = cinfo->image_width; col > 0; col--) {
    4df7:	49 39 ce             	cmp    %rcx,%r14
    4dfa:	0f 85 b0 fe ff ff    	jne    4cb0 <get_text_rgb_cmyk_row+0x210>
    4e00:	e9 4b fe ff ff       	jmp    4c50 <get_text_rgb_cmyk_row+0x1b0>
    4e05:	0f 1f 00             	nopl   (%rax)
rgb_to_cmyk():
/home/tenebris/Disk/Documents/RootCauseAnalysis/evaluation/test_bin/libjpeg/libjpeg_heap_buffer_overflow/libjpeg-turbo/cmyk.h:41
  *c = (JSAMPLE)(255.0 - ctmp * 255.0 + 0.5);
    4e08:	c6 01 ff             	movb   $0xff,(%rcx)
get_text_rgb_cmyk_row():
/home/tenebris/Disk/Documents/RootCauseAnalysis/evaluation/test_bin/libjpeg/libjpeg_heap_buffer_overflow/libjpeg-turbo/rdppm.c:300
      ptr += 4;
    4e0b:	48 83 c1 04          	add    $0x4,%rcx
rgb_to_cmyk():
/home/tenebris/Disk/Documents/RootCauseAnalysis/evaluation/test_bin/libjpeg/libjpeg_heap_buffer_overflow/libjpeg-turbo/cmyk.h:42
  *m = (JSAMPLE)(255.0 - mtmp * 255.0 + 0.5);
    4e0f:	c6 41 fd ff          	movb   $0xff,-0x3(%rcx)
/home/tenebris/Disk/Documents/RootCauseAnalysis/evaluation/test_bin/libjpeg/libjpeg_heap_buffer_overflow/libjpeg-turbo/cmyk.h:43
  *y = (JSAMPLE)(255.0 - ytmp * 255.0 + 0.5);
    4e13:	c6 41 fe ff          	movb   $0xff,-0x2(%rcx)
/home/tenebris/Disk/Documents/RootCauseAnalysis/evaluation/test_bin/libjpeg/libjpeg_heap_buffer_overflow/libjpeg-turbo/cmyk.h:44
  *k = (JSAMPLE)(255.0 - ktmp * 255.0 + 0.5);
    4e17:	c6 41 ff 00          	movb   $0x0,-0x1(%rcx)
get_text_rgb_cmyk_row():
/home/tenebris/Disk/Documents/RootCauseAnalysis/evaluation/test_bin/libjpeg/libjpeg_heap_buffer_overflow/libjpeg-turbo/rdppm.c:295
    for (col = cinfo->image_width; col > 0; col--) {
    4e1b:	4c 39 f1             	cmp    %r14,%rcx
    4e1e:	0f 85 8c fe ff ff    	jne    4cb0 <get_text_rgb_cmyk_row+0x210>
    4e24:	e9 27 fe ff ff       	jmp    4c50 <get_text_rgb_cmyk_row+0x1b0>
    4e29:	0f 1f 80 00 00 00 00 	nopl   0x0(%rax)

0000000000004e30 <get_text_rgb_row>:
get_text_rgb_row():
/home/tenebris/Disk/Documents/RootCauseAnalysis/evaluation/test_bin/libjpeg/libjpeg_heap_buffer_overflow/libjpeg-turbo/rdppm.c:250
{
    4e30:	f3 0f 1e fa          	endbr64 
    4e34:	41 57                	push   %r15
/home/tenebris/Disk/Documents/RootCauseAnalysis/evaluation/test_bin/libjpeg/libjpeg_heap_buffer_overflow/libjpeg-turbo/rdppm.c:257
  register int rindex = rgb_red[cinfo->in_color_space];
    4e36:	48 8d 0d 63 53 00 00 	lea    0x5363(%rip),%rcx        # a1a0 <rgb_red>
/home/tenebris/Disk/Documents/RootCauseAnalysis/evaluation/test_bin/libjpeg/libjpeg_heap_buffer_overflow/libjpeg-turbo/rdppm.c:250
{
    4e3d:	48 89 f2             	mov    %rsi,%rdx
    4e40:	41 56                	push   %r14
    4e42:	41 55                	push   %r13
    4e44:	41 54                	push   %r12
    4e46:	55                   	push   %rbp
    4e47:	48 89 fd             	mov    %rdi,%rbp
    4e4a:	53                   	push   %rbx
    4e4b:	48 83 ec 38          	sub    $0x38,%rsp
/home/tenebris/Disk/Documents/RootCauseAnalysis/evaluation/test_bin/libjpeg/libjpeg_heap_buffer_overflow/libjpeg-turbo/rdppm.c:257
  register int rindex = rgb_red[cinfo->in_color_space];
    4e4f:	8b 47 3c             	mov    0x3c(%rdi),%eax
/home/tenebris/Disk/Documents/RootCauseAnalysis/evaluation/test_bin/libjpeg/libjpeg_heap_buffer_overflow/libjpeg-turbo/rdppm.c:256
  unsigned int maxval = source->maxval;
    4e52:	44 8b 76 50          	mov    0x50(%rsi),%r14d
/home/tenebris/Disk/Documents/RootCauseAnalysis/evaluation/test_bin/libjpeg/libjpeg_heap_buffer_overflow/libjpeg-turbo/rdppm.c:263
  ptr = source->pub.buffer[0];
    4e56:	48 8b 52 20          	mov    0x20(%rdx),%rdx
/home/tenebris/Disk/Documents/RootCauseAnalysis/evaluation/test_bin/libjpeg/libjpeg_heap_buffer_overflow/libjpeg-turbo/rdppm.c:252
  FILE *infile = source->pub.input_file;
    4e5a:	4c 8b 6e 18          	mov    0x18(%rsi),%r13
/home/tenebris/Disk/Documents/RootCauseAnalysis/evaluation/test_bin/libjpeg/libjpeg_heap_buffer_overflow/libjpeg-turbo/rdppm.c:257
  register int rindex = rgb_red[cinfo->in_color_space];
    4e5e:	44 8b 0c 81          	mov    (%rcx,%rax,4),%r9d
/home/tenebris/Disk/Documents/RootCauseAnalysis/evaluation/test_bin/libjpeg/libjpeg_heap_buffer_overflow/libjpeg-turbo/rdppm.c:258
  register int gindex = rgb_green[cinfo->in_color_space];
    4e62:	48 8d 0d d7 52 00 00 	lea    0x52d7(%rip),%rcx        # a140 <rgb_green>
/home/tenebris/Disk/Documents/RootCauseAnalysis/evaluation/test_bin/libjpeg/libjpeg_heap_buffer_overflow/libjpeg-turbo/rdppm.c:254
  register JSAMPLE *rescale = source->rescale;
    4e69:	4c 8b 7e 48          	mov    0x48(%rsi),%r15
/home/tenebris/Disk/Documents/RootCauseAnalysis/evaluation/test_bin/libjpeg/libjpeg_heap_buffer_overflow/libjpeg-turbo/rdppm.c:261
  register int ps = rgb_pixelsize[cinfo->in_color_space];
    4e6d:	48 8d 35 0c 52 00 00 	lea    0x520c(%rip),%rsi        # a080 <rgb_pixelsize>
/home/tenebris/Disk/Documents/RootCauseAnalysis/evaluation/test_bin/libjpeg/libjpeg_heap_buffer_overflow/libjpeg-turbo/rdppm.c:258
  register int gindex = rgb_green[cinfo->in_color_space];
    4e74:	44 8b 04 81          	mov    (%rcx,%rax,4),%r8d
/home/tenebris/Disk/Documents/RootCauseAnalysis/evaluation/test_bin/libjpeg/libjpeg_heap_buffer_overflow/libjpeg-turbo/rdppm.c:259
  register int bindex = rgb_blue[cinfo->in_color_space];
    4e78:	48 8d 0d 61 52 00 00 	lea    0x5261(%rip),%rcx        # a0e0 <rgb_blue>
/home/tenebris/Disk/Documents/RootCauseAnalysis/evaluation/test_bin/libjpeg/libjpeg_heap_buffer_overflow/libjpeg-turbo/rdppm.c:263
  ptr = source->pub.buffer[0];
    4e7f:	48 8b 1a             	mov    (%rdx),%rbx
/home/tenebris/Disk/Documents/RootCauseAnalysis/evaluation/test_bin/libjpeg/libjpeg_heap_buffer_overflow/libjpeg-turbo/rdppm.c:259
  register int bindex = rgb_blue[cinfo->in_color_space];
    4e82:	48 63 3c 81          	movslq (%rcx,%rax,4),%rdi
/home/tenebris/Disk/Documents/RootCauseAnalysis/evaluation/test_bin/libjpeg/libjpeg_heap_buffer_overflow/libjpeg-turbo/rdppm.c:260
  register int aindex = alpha_index[cinfo->in_color_space];
    4e86:	48 8d 0d 93 51 00 00 	lea    0x5193(%rip),%rcx        # a020 <alpha_index>
/home/tenebris/Disk/Documents/RootCauseAnalysis/evaluation/test_bin/libjpeg/libjpeg_heap_buffer_overflow/libjpeg-turbo/rdppm.c:266
      RGB_READ_LOOP(read_pbm_integer(cinfo, infile, maxval),
    4e8d:	44 8b 65 30          	mov    0x30(%rbp),%r12d
/home/tenebris/Disk/Documents/RootCauseAnalysis/evaluation/test_bin/libjpeg/libjpeg_heap_buffer_overflow/libjpeg-turbo/rdppm.c:260
  register int aindex = alpha_index[cinfo->in_color_space];
    4e91:	8b 0c 81             	mov    (%rcx,%rax,4),%ecx
/home/tenebris/Disk/Documents/RootCauseAnalysis/evaluation/test_bin/libjpeg/libjpeg_heap_buffer_overflow/libjpeg-turbo/rdppm.c:261
  register int ps = rgb_pixelsize[cinfo->in_color_space];
    4e94:	48 63 04 86          	movslq (%rsi,%rax,4),%rax
/home/tenebris/Disk/Documents/RootCauseAnalysis/evaluation/test_bin/libjpeg/libjpeg_heap_buffer_overflow/libjpeg-turbo/rdppm.c:264
  if (maxval == MAXJSAMPLE) {
    4e98:	41 81 fe ff 00 00 00 	cmp    $0xff,%r14d
    4e9f:	0f 84 6b 01 00 00    	je     5010 <get_text_rgb_row+0x1e0>
/home/tenebris/Disk/Documents/RootCauseAnalysis/evaluation/test_bin/libjpeg/libjpeg_heap_buffer_overflow/libjpeg-turbo/rdppm.c:271
    if (aindex >= 0)
    4ea5:	85 c9                	test   %ecx,%ecx
    4ea7:	0f 88 c3 00 00 00    	js     4f70 <get_text_rgb_row+0x140>
/home/tenebris/Disk/Documents/RootCauseAnalysis/evaluation/test_bin/libjpeg/libjpeg_heap_buffer_overflow/libjpeg-turbo/rdppm.c:272
      RGB_READ_LOOP(rescale[read_pbm_integer(cinfo, infile, maxval)],
    4ead:	45 85 e4             	test   %r12d,%r12d
    4eb0:	0f 84 9f 00 00 00    	je     4f55 <get_text_rgb_row+0x125>
/home/tenebris/Disk/Documents/RootCauseAnalysis/evaluation/test_bin/libjpeg/libjpeg_heap_buffer_overflow/libjpeg-turbo/rdppm.c:266
      RGB_READ_LOOP(read_pbm_integer(cinfo, infile, maxval),
    4eb6:	49 63 f1             	movslq %r9d,%rsi
    4eb9:	48 89 7c 24 08       	mov    %rdi,0x8(%rsp)
    4ebe:	49 63 d0             	movslq %r8d,%rdx
    4ec1:	48 63 f9             	movslq %ecx,%rdi
    4ec4:	48 89 74 24 18       	mov    %rsi,0x18(%rsp)
    4ec9:	48 01 f3             	add    %rsi,%rbx
    4ecc:	48 89 54 24 10       	mov    %rdx,0x10(%rsp)
    4ed1:	48 89 7c 24 20       	mov    %rdi,0x20(%rsp)
    4ed6:	48 89 44 24 28       	mov    %rax,0x28(%rsp)
    4edb:	0f 1f 44 00 00       	nopl   0x0(%rax,%rax,1)
/home/tenebris/Disk/Documents/RootCauseAnalysis/evaluation/test_bin/libjpeg/libjpeg_heap_buffer_overflow/libjpeg-turbo/rdppm.c:272 (discriminator 3)
      RGB_READ_LOOP(rescale[read_pbm_integer(cinfo, infile, maxval)],
    4ee0:	44 89 f2             	mov    %r14d,%edx
    4ee3:	4c 89 ee             	mov    %r13,%rsi
    4ee6:	48 89 ef             	mov    %rbp,%rdi
    4ee9:	e8 92 fa ff ff       	call   4980 <read_pbm_integer>
    4eee:	44 89 f2             	mov    %r14d,%edx
    4ef1:	4c 89 ee             	mov    %r13,%rsi
    4ef4:	48 89 ef             	mov    %rbp,%rdi
    4ef7:	89 c0                	mov    %eax,%eax
    4ef9:	41 0f b6 04 07       	movzbl (%r15,%rax,1),%eax
    4efe:	88 03                	mov    %al,(%rbx)
    4f00:	e8 7b fa ff ff       	call   4980 <read_pbm_integer>
    4f05:	48 8b 7c 24 10       	mov    0x10(%rsp),%rdi
    4f0a:	48 89 d9             	mov    %rbx,%rcx
    4f0d:	4c 89 ee             	mov    %r13,%rsi
    4f10:	89 c0                	mov    %eax,%eax
    4f12:	48 2b 4c 24 18       	sub    0x18(%rsp),%rcx
    4f17:	44 89 f2             	mov    %r14d,%edx
    4f1a:	41 0f b6 04 07       	movzbl (%r15,%rax,1),%eax
    4f1f:	48 89 0c 24          	mov    %rcx,(%rsp)
    4f23:	88 04 39             	mov    %al,(%rcx,%rdi,1)
    4f26:	48 89 ef             	mov    %rbp,%rdi
    4f29:	e8 52 fa ff ff       	call   4980 <read_pbm_integer>
    4f2e:	48 8b 0c 24          	mov    (%rsp),%rcx
    4f32:	48 8b 74 24 08       	mov    0x8(%rsp),%rsi
    4f37:	89 c0                	mov    %eax,%eax
    4f39:	48 03 5c 24 28       	add    0x28(%rsp),%rbx
    4f3e:	41 0f b6 04 07       	movzbl (%r15,%rax,1),%eax
    4f43:	88 04 31             	mov    %al,(%rcx,%rsi,1)
    4f46:	48 8b 44 24 20       	mov    0x20(%rsp),%rax
    4f4b:	c6 04 01 ff          	movb   $0xff,(%rcx,%rax,1)
    4f4f:	41 83 ec 01          	sub    $0x1,%r12d
    4f53:	75 8b                	jne    4ee0 <get_text_rgb_row+0xb0>
/home/tenebris/Disk/Documents/RootCauseAnalysis/evaluation/test_bin/libjpeg/libjpeg_heap_buffer_overflow/libjpeg-turbo/rdppm.c:278
}
    4f55:	48 83 c4 38          	add    $0x38,%rsp
    4f59:	b8 01 00 00 00       	mov    $0x1,%eax
    4f5e:	5b                   	pop    %rbx
    4f5f:	5d                   	pop    %rbp
    4f60:	41 5c                	pop    %r12
    4f62:	41 5d                	pop    %r13
    4f64:	41 5e                	pop    %r14
    4f66:	41 5f                	pop    %r15
    4f68:	c3                   	ret    
    4f69:	0f 1f 80 00 00 00 00 	nopl   0x0(%rax)
/home/tenebris/Disk/Documents/RootCauseAnalysis/evaluation/test_bin/libjpeg/libjpeg_heap_buffer_overflow/libjpeg-turbo/rdppm.c:275
      RGB_READ_LOOP(rescale[read_pbm_integer(cinfo, infile, maxval)],)
    4f70:	45 85 e4             	test   %r12d,%r12d
    4f73:	74 e0                	je     4f55 <get_text_rgb_row+0x125>
/home/tenebris/Disk/Documents/RootCauseAnalysis/evaluation/test_bin/libjpeg/libjpeg_heap_buffer_overflow/libjpeg-turbo/rdppm.c:266
      RGB_READ_LOOP(read_pbm_integer(cinfo, infile, maxval),
    4f75:	49 63 d1             	movslq %r9d,%rdx
    4f78:	49 63 f0             	movslq %r8d,%rsi
    4f7b:	48 89 7c 24 08       	mov    %rdi,0x8(%rsp)
    4f80:	48 89 54 24 18       	mov    %rdx,0x18(%rsp)
    4f85:	48 01 d3             	add    %rdx,%rbx
    4f88:	48 89 74 24 10       	mov    %rsi,0x10(%rsp)
    4f8d:	48 89 44 24 20       	mov    %rax,0x20(%rsp)
    4f92:	66 0f 1f 44 00 00    	nopw   0x0(%rax,%rax,1)
/home/tenebris/Disk/Documents/RootCauseAnalysis/evaluation/test_bin/libjpeg/libjpeg_heap_buffer_overflow/libjpeg-turbo/rdppm.c:275 (discriminator 3)
      RGB_READ_LOOP(rescale[read_pbm_integer(cinfo, infile, maxval)],)
    4f98:	44 89 f2             	mov    %r14d,%edx
    4f9b:	4c 89 ee             	mov    %r13,%rsi
    4f9e:	48 89 ef             	mov    %rbp,%rdi
    4fa1:	e8 da f9 ff ff       	call   4980 <read_pbm_integer>
    4fa6:	44 89 f2             	mov    %r14d,%edx
    4fa9:	4c 89 ee             	mov    %r13,%rsi
    4fac:	48 89 ef             	mov    %rbp,%rdi
    4faf:	89 c0                	mov    %eax,%eax
    4fb1:	41 0f b6 04 07       	movzbl (%r15,%rax,1),%eax
    4fb6:	88 03                	mov    %al,(%rbx)
    4fb8:	e8 c3 f9 ff ff       	call   4980 <read_pbm_integer>
    4fbd:	48 8b 54 24 10       	mov    0x10(%rsp),%rdx
    4fc2:	48 89 d9             	mov    %rbx,%rcx
    4fc5:	48 89 ef             	mov    %rbp,%rdi
    4fc8:	89 c0                	mov    %eax,%eax
    4fca:	48 2b 4c 24 18       	sub    0x18(%rsp),%rcx
    4fcf:	4c 89 ee             	mov    %r13,%rsi
    4fd2:	41 0f b6 04 07       	movzbl (%r15,%rax,1),%eax
    4fd7:	48 89 0c 24          	mov    %rcx,(%rsp)
    4fdb:	88 04 11             	mov    %al,(%rcx,%rdx,1)
    4fde:	44 89 f2             	mov    %r14d,%edx
    4fe1:	e8 9a f9 ff ff       	call   4980 <read_pbm_integer>
    4fe6:	48 8b 7c 24 08       	mov    0x8(%rsp),%rdi
    4feb:	48 8b 0c 24          	mov    (%rsp),%rcx
    4fef:	89 c0                	mov    %eax,%eax
    4ff1:	48 03 5c 24 20       	add    0x20(%rsp),%rbx
    4ff6:	41 0f b6 04 07       	movzbl (%r15,%rax,1),%eax
    4ffb:	88 04 39             	mov    %al,(%rcx,%rdi,1)
    4ffe:	41 83 ec 01          	sub    $0x1,%r12d
    5002:	75 94                	jne    4f98 <get_text_rgb_row+0x168>
    5004:	e9 4c ff ff ff       	jmp    4f55 <get_text_rgb_row+0x125>
    5009:	0f 1f 80 00 00 00 00 	nopl   0x0(%rax)
/home/tenebris/Disk/Documents/RootCauseAnalysis/evaluation/test_bin/libjpeg/libjpeg_heap_buffer_overflow/libjpeg-turbo/rdppm.c:265
    if (aindex >= 0)
    5010:	85 c9                	test   %ecx,%ecx
    5012:	0f 88 90 00 00 00    	js     50a8 <get_text_rgb_row+0x278>
/home/tenebris/Disk/Documents/RootCauseAnalysis/evaluation/test_bin/libjpeg/libjpeg_heap_buffer_overflow/libjpeg-turbo/rdppm.c:266
      RGB_READ_LOOP(read_pbm_integer(cinfo, infile, maxval),
    5018:	45 85 e4             	test   %r12d,%r12d
    501b:	0f 84 34 ff ff ff    	je     4f55 <get_text_rgb_row+0x125>
    5021:	48 89 7c 24 08       	mov    %rdi,0x8(%rsp)
    5026:	49 63 d0             	movslq %r8d,%rdx
    5029:	48 63 f9             	movslq %ecx,%rdi
    502c:	4d 63 f1             	movslq %r9d,%r14
    502f:	48 89 14 24          	mov    %rdx,(%rsp)
    5033:	4c 01 f3             	add    %r14,%rbx
    5036:	48 89 7c 24 18       	mov    %rdi,0x18(%rsp)
    503b:	48 89 44 24 10       	mov    %rax,0x10(%rsp)
/home/tenebris/Disk/Documents/RootCauseAnalysis/evaluation/test_bin/libjpeg/libjpeg_heap_buffer_overflow/libjpeg-turbo/rdppm.c:266 (discriminator 3)
    5040:	ba ff 00 00 00       	mov    $0xff,%edx
    5045:	4c 89 ee             	mov    %r13,%rsi
    5048:	48 89 ef             	mov    %rbp,%rdi
    504b:	49 89 df             	mov    %rbx,%r15
    504e:	e8 2d f9 ff ff       	call   4980 <read_pbm_integer>
    5053:	ba ff 00 00 00       	mov    $0xff,%edx
    5058:	4c 89 ee             	mov    %r13,%rsi
    505b:	48 89 ef             	mov    %rbp,%rdi
    505e:	88 03                	mov    %al,(%rbx)
    5060:	4d 29 f7             	sub    %r14,%r15
    5063:	e8 18 f9 ff ff       	call   4980 <read_pbm_integer>
    5068:	48 8b 34 24          	mov    (%rsp),%rsi
    506c:	ba ff 00 00 00       	mov    $0xff,%edx
    5071:	48 89 ef             	mov    %rbp,%rdi
    5074:	41 88 04 37          	mov    %al,(%r15,%rsi,1)
    5078:	4c 89 ee             	mov    %r13,%rsi
    507b:	e8 00 f9 ff ff       	call   4980 <read_pbm_integer>
    5080:	48 8b 54 24 08       	mov    0x8(%rsp),%rdx
    5085:	48 03 5c 24 10       	add    0x10(%rsp),%rbx
    508a:	41 88 04 17          	mov    %al,(%r15,%rdx,1)
    508e:	48 8b 44 24 18       	mov    0x18(%rsp),%rax
    5093:	41 c6 04 07 ff       	movb   $0xff,(%r15,%rax,1)
    5098:	41 83 ec 01          	sub    $0x1,%r12d
    509c:	75 a2                	jne    5040 <get_text_rgb_row+0x210>
    509e:	e9 b2 fe ff ff       	jmp    4f55 <get_text_rgb_row+0x125>
    50a3:	0f 1f 44 00 00       	nopl   0x0(%rax,%rax,1)
/home/tenebris/Disk/Documents/RootCauseAnalysis/evaluation/test_bin/libjpeg/libjpeg_heap_buffer_overflow/libjpeg-turbo/rdppm.c:269
      RGB_READ_LOOP(read_pbm_integer(cinfo, infile, maxval),)
    50a8:	45 85 e4             	test   %r12d,%r12d
    50ab:	0f 84 a4 fe ff ff    	je     4f55 <get_text_rgb_row+0x125>
/home/tenebris/Disk/Documents/RootCauseAnalysis/evaluation/test_bin/libjpeg/libjpeg_heap_buffer_overflow/libjpeg-turbo/rdppm.c:266
      RGB_READ_LOOP(read_pbm_integer(cinfo, infile, maxval),
    50b1:	49 63 f0             	movslq %r8d,%rsi
    50b4:	48 89 7c 24 08       	mov    %rdi,0x8(%rsp)
    50b9:	4d 63 f1             	movslq %r9d,%r14
    50bc:	48 89 34 24          	mov    %rsi,(%rsp)
    50c0:	4c 01 f3             	add    %r14,%rbx
    50c3:	48 89 44 24 10       	mov    %rax,0x10(%rsp)
    50c8:	0f 1f 84 00 00 00 00 	nopl   0x0(%rax,%rax,1)
    50cf:	00 
/home/tenebris/Disk/Documents/RootCauseAnalysis/evaluation/test_bin/libjpeg/libjpeg_heap_buffer_overflow/libjpeg-turbo/rdppm.c:269 (discriminator 3)
      RGB_READ_LOOP(read_pbm_integer(cinfo, infile, maxval),)
    50d0:	ba ff 00 00 00       	mov    $0xff,%edx
    50d5:	4c 89 ee             	mov    %r13,%rsi
    50d8:	48 89 ef             	mov    %rbp,%rdi
    50db:	49 89 df             	mov    %rbx,%r15
    50de:	e8 9d f8 ff ff       	call   4980 <read_pbm_integer>
    50e3:	ba ff 00 00 00       	mov    $0xff,%edx
    50e8:	4c 89 ee             	mov    %r13,%rsi
    50eb:	48 89 ef             	mov    %rbp,%rdi
    50ee:	88 03                	mov    %al,(%rbx)
    50f0:	4d 29 f7             	sub    %r14,%r15
    50f3:	e8 88 f8 ff ff       	call   4980 <read_pbm_integer>
    50f8:	48 8b 34 24          	mov    (%rsp),%rsi
    50fc:	ba ff 00 00 00       	mov    $0xff,%edx
    5101:	48 89 ef             	mov    %rbp,%rdi
    5104:	41 88 04 37          	mov    %al,(%r15,%rsi,1)
    5108:	4c 89 ee             	mov    %r13,%rsi
    510b:	e8 70 f8 ff ff       	call   4980 <read_pbm_integer>
    5110:	48 8b 54 24 08       	mov    0x8(%rsp),%rdx
    5115:	48 03 5c 24 10       	add    0x10(%rsp),%rbx
    511a:	41 88 04 17          	mov    %al,(%r15,%rdx,1)
    511e:	41 83 ec 01          	sub    $0x1,%r12d
    5122:	75 ac                	jne    50d0 <get_text_rgb_row+0x2a0>
    5124:	e9 2c fe ff ff       	jmp    4f55 <get_text_rgb_row+0x125>
    5129:	0f 1f 80 00 00 00 00 	nopl   0x0(%rax)

0000000000005130 <get_text_gray_cmyk_row>:
get_text_gray_cmyk_row():
/home/tenebris/Disk/Documents/RootCauseAnalysis/evaluation/test_bin/libjpeg/libjpeg_heap_buffer_overflow/libjpeg-turbo/rdppm.c:211
{
    5130:	f3 0f 1e fa          	endbr64 
    5134:	41 57                	push   %r15
    5136:	41 56                	push   %r14
    5138:	41 55                	push   %r13
    513a:	41 54                	push   %r12
    513c:	55                   	push   %rbp
    513d:	48 89 fd             	mov    %rdi,%rbp
    5140:	53                   	push   %rbx
    5141:	48 83 ec 18          	sub    $0x18,%rsp
/home/tenebris/Disk/Documents/RootCauseAnalysis/evaluation/test_bin/libjpeg/libjpeg_heap_buffer_overflow/libjpeg-turbo/rdppm.c:219
  ptr = source->pub.buffer[0];
    5145:	48 8b 46 20          	mov    0x20(%rsi),%rax
/home/tenebris/Disk/Documents/RootCauseAnalysis/evaluation/test_bin/libjpeg/libjpeg_heap_buffer_overflow/libjpeg-turbo/rdppm.c:217
  unsigned int maxval = source->maxval;
    5149:	44 8b 7e 50          	mov    0x50(%rsi),%r15d
/home/tenebris/Disk/Documents/RootCauseAnalysis/evaluation/test_bin/libjpeg/libjpeg_heap_buffer_overflow/libjpeg-turbo/rdppm.c:213
  FILE *infile = source->pub.input_file;
    514d:	4c 8b 66 18          	mov    0x18(%rsi),%r12
/home/tenebris/Disk/Documents/RootCauseAnalysis/evaluation/test_bin/libjpeg/libjpeg_heap_buffer_overflow/libjpeg-turbo/rdppm.c:215
  register JSAMPLE *rescale = source->rescale;
    5151:	4c 8b 6e 48          	mov    0x48(%rsi),%r13
/home/tenebris/Disk/Documents/RootCauseAnalysis/evaluation/test_bin/libjpeg/libjpeg_heap_buffer_overflow/libjpeg-turbo/rdppm.c:219
  ptr = source->pub.buffer[0];
    5155:	48 8b 18             	mov    (%rax),%rbx
/home/tenebris/Disk/Documents/RootCauseAnalysis/evaluation/test_bin/libjpeg/libjpeg_heap_buffer_overflow/libjpeg-turbo/rdppm.c:221
    for (col = cinfo->image_width; col > 0; col--) {
    5158:	8b 47 30             	mov    0x30(%rdi),%eax
/home/tenebris/Disk/Documents/RootCauseAnalysis/evaluation/test_bin/libjpeg/libjpeg_heap_buffer_overflow/libjpeg-turbo/rdppm.c:220
  if (maxval == MAXJSAMPLE) {
    515b:	41 81 ff ff 00 00 00 	cmp    $0xff,%r15d
    5162:	0f 84 08 01 00 00    	je     5270 <get_text_gray_cmyk_row+0x140>
/home/tenebris/Disk/Documents/RootCauseAnalysis/evaluation/test_bin/libjpeg/libjpeg_heap_buffer_overflow/libjpeg-turbo/rdppm.c:227
    for (col = cinfo->image_width; col > 0; col--) {
    5168:	85 c0                	test   %eax,%eax
    516a:	0f 84 bd 00 00 00    	je     522d <get_text_gray_cmyk_row+0xfd>
    5170:	f2 0f 10 0d 70 50 00 	movsd  0x5070(%rip),%xmm1        # a1e8 <rgb_red+0x48>
    5177:	00 
    5178:	f2 0f 10 1d 70 50 00 	movsd  0x5070(%rip),%xmm3        # a1f0 <rgb_red+0x50>
    517f:	00 
    5180:	4c 8d 34 83          	lea    (%rbx,%rax,4),%r14
    5184:	0f 1f 40 00          	nopl   0x0(%rax)
/home/tenebris/Disk/Documents/RootCauseAnalysis/evaluation/test_bin/libjpeg/libjpeg_heap_buffer_overflow/libjpeg-turbo/rdppm.c:228 (discriminator 3)
      JSAMPLE gray = rescale[read_pbm_integer(cinfo, infile, maxval)];
    5188:	44 89 fa             	mov    %r15d,%edx
    518b:	4c 89 e6             	mov    %r12,%rsi
    518e:	48 89 ef             	mov    %rbp,%rdi
    5191:	f2 0f 11 5c 24 08    	movsd  %xmm3,0x8(%rsp)
    5197:	f2 0f 11 0c 24       	movsd  %xmm1,(%rsp)
    519c:	e8 df f7 ff ff       	call   4980 <read_pbm_integer>
rgb_to_cmyk():
/home/tenebris/Disk/Documents/RootCauseAnalysis/evaluation/test_bin/libjpeg/libjpeg_heap_buffer_overflow/libjpeg-turbo/cmyk.h:30 (discriminator 3)
  double ctmp = 1.0 - ((double)r / 255.0);
    51a1:	66 0f ef d2          	pxor   %xmm2,%xmm2
    51a5:	f2 0f 10 0c 24       	movsd  (%rsp),%xmm1
    51aa:	f2 0f 10 5c 24 08    	movsd  0x8(%rsp),%xmm3
get_text_gray_cmyk_row():
/home/tenebris/Disk/Documents/RootCauseAnalysis/evaluation/test_bin/libjpeg/libjpeg_heap_buffer_overflow/libjpeg-turbo/rdppm.c:228 (discriminator 3)
    51b0:	89 c0                	mov    %eax,%eax
rgb_to_cmyk():
/home/tenebris/Disk/Documents/RootCauseAnalysis/evaluation/test_bin/libjpeg/libjpeg_heap_buffer_overflow/libjpeg-turbo/cmyk.h:30 (discriminator 3)
    51b2:	41 0f b6 44 05 00    	movzbl 0x0(%r13,%rax,1),%eax
    51b8:	66 0f 28 c3          	movapd %xmm3,%xmm0
    51bc:	f2 0f 2a d0          	cvtsi2sd %eax,%xmm2
    51c0:	f2 0f 5e d1          	divsd  %xmm1,%xmm2
    51c4:	f2 0f 5c c2          	subsd  %xmm2,%xmm0
/home/tenebris/Disk/Documents/RootCauseAnalysis/evaluation/test_bin/libjpeg/libjpeg_heap_buffer_overflow/libjpeg-turbo/cmyk.h:35 (discriminator 3)
  if (ktmp == 1.0) ctmp = mtmp = ytmp = 0.0;
    51c8:	66 0f 2e c3          	ucomisd %xmm3,%xmm0
    51cc:	7a 02                	jp     51d0 <get_text_gray_cmyk_row+0xa0>
    51ce:	74 78                	je     5248 <get_text_gray_cmyk_row+0x118>
/home/tenebris/Disk/Documents/RootCauseAnalysis/evaluation/test_bin/libjpeg/libjpeg_heap_buffer_overflow/libjpeg-turbo/cmyk.h:37
    ctmp = (ctmp - ktmp) / (1.0 - ktmp);
    51d0:	66 0f 28 d0          	movapd %xmm0,%xmm2
    51d4:	66 0f 28 e3          	movapd %xmm3,%xmm4
get_text_gray_cmyk_row():
/home/tenebris/Disk/Documents/RootCauseAnalysis/evaluation/test_bin/libjpeg/libjpeg_heap_buffer_overflow/libjpeg-turbo/rdppm.c:230
      ptr += 4;
    51d8:	48 83 c3 04          	add    $0x4,%rbx
rgb_to_cmyk():
/home/tenebris/Disk/Documents/RootCauseAnalysis/evaluation/test_bin/libjpeg/libjpeg_heap_buffer_overflow/libjpeg-turbo/cmyk.h:37
    51dc:	f2 0f 5c e0          	subsd  %xmm0,%xmm4
    51e0:	f2 0f 5c d0          	subsd  %xmm0,%xmm2
/home/tenebris/Disk/Documents/RootCauseAnalysis/evaluation/test_bin/libjpeg/libjpeg_heap_buffer_overflow/libjpeg-turbo/cmyk.h:44
  *k = (JSAMPLE)(255.0 - ktmp * 255.0 + 0.5);
    51e4:	f2 0f 59 c1          	mulsd  %xmm1,%xmm0
/home/tenebris/Disk/Documents/RootCauseAnalysis/evaluation/test_bin/libjpeg/libjpeg_heap_buffer_overflow/libjpeg-turbo/cmyk.h:37
    ctmp = (ctmp - ktmp) / (1.0 - ktmp);
    51e8:	f2 0f 5e d4          	divsd  %xmm4,%xmm2
/home/tenebris/Disk/Documents/RootCauseAnalysis/evaluation/test_bin/libjpeg/libjpeg_heap_buffer_overflow/libjpeg-turbo/cmyk.h:41
  *c = (JSAMPLE)(255.0 - ctmp * 255.0 + 0.5);
    51ec:	66 0f 28 e1          	movapd %xmm1,%xmm4
    51f0:	f2 0f 59 d1          	mulsd  %xmm1,%xmm2
    51f4:	f2 0f 5c e2          	subsd  %xmm2,%xmm4
    51f8:	f2 0f 58 25 f8 4f 00 	addsd  0x4ff8(%rip),%xmm4        # a1f8 <rgb_red+0x58>
    51ff:	00 
/home/tenebris/Disk/Documents/RootCauseAnalysis/evaluation/test_bin/libjpeg/libjpeg_heap_buffer_overflow/libjpeg-turbo/cmyk.h:44
  *k = (JSAMPLE)(255.0 - ktmp * 255.0 + 0.5);
    5200:	66 0f 28 d1          	movapd %xmm1,%xmm2
    5204:	f2 0f 5c d0          	subsd  %xmm0,%xmm2
    5208:	f2 0f 58 15 e8 4f 00 	addsd  0x4fe8(%rip),%xmm2        # a1f8 <rgb_red+0x58>
    520f:	00 
/home/tenebris/Disk/Documents/RootCauseAnalysis/evaluation/test_bin/libjpeg/libjpeg_heap_buffer_overflow/libjpeg-turbo/cmyk.h:41
  *c = (JSAMPLE)(255.0 - ctmp * 255.0 + 0.5);
    5210:	f2 0f 2c c4          	cvttsd2si %xmm4,%eax
    5214:	88 43 fc             	mov    %al,-0x4(%rbx)
/home/tenebris/Disk/Documents/RootCauseAnalysis/evaluation/test_bin/libjpeg/libjpeg_heap_buffer_overflow/libjpeg-turbo/cmyk.h:42
  *m = (JSAMPLE)(255.0 - mtmp * 255.0 + 0.5);
    5217:	88 43 fd             	mov    %al,-0x3(%rbx)
/home/tenebris/Disk/Documents/RootCauseAnalysis/evaluation/test_bin/libjpeg/libjpeg_heap_buffer_overflow/libjpeg-turbo/cmyk.h:43
  *y = (JSAMPLE)(255.0 - ytmp * 255.0 + 0.5);
    521a:	88 43 fe             	mov    %al,-0x2(%rbx)
/home/tenebris/Disk/Documents/RootCauseAnalysis/evaluation/test_bin/libjpeg/libjpeg_heap_buffer_overflow/libjpeg-turbo/cmyk.h:44
  *k = (JSAMPLE)(255.0 - ktmp * 255.0 + 0.5);
    521d:	f2 0f 2c c2          	cvttsd2si %xmm2,%eax
    5221:	88 43 ff             	mov    %al,-0x1(%rbx)
get_text_gray_cmyk_row():
/home/tenebris/Disk/Documents/RootCauseAnalysis/evaluation/test_bin/libjpeg/libjpeg_heap_buffer_overflow/libjpeg-turbo/rdppm.c:227
    for (col = cinfo->image_width; col > 0; col--) {
    5224:	49 39 de             	cmp    %rbx,%r14
    5227:	0f 85 5b ff ff ff    	jne    5188 <get_text_gray_cmyk_row+0x58>
/home/tenebris/Disk/Documents/RootCauseAnalysis/evaluation/test_bin/libjpeg/libjpeg_heap_buffer_overflow/libjpeg-turbo/rdppm.c:234
}
    522d:	48 83 c4 18          	add    $0x18,%rsp
    5231:	b8 01 00 00 00       	mov    $0x1,%eax
    5236:	5b                   	pop    %rbx
    5237:	5d                   	pop    %rbp
    5238:	41 5c                	pop    %r12
    523a:	41 5d                	pop    %r13
    523c:	41 5e                	pop    %r14
    523e:	41 5f                	pop    %r15
    5240:	c3                   	ret    
    5241:	0f 1f 80 00 00 00 00 	nopl   0x0(%rax)
rgb_to_cmyk():
/home/tenebris/Disk/Documents/RootCauseAnalysis/evaluation/test_bin/libjpeg/libjpeg_heap_buffer_overflow/libjpeg-turbo/cmyk.h:41
  *c = (JSAMPLE)(255.0 - ctmp * 255.0 + 0.5);
    5248:	c6 03 ff             	movb   $0xff,(%rbx)
get_text_gray_cmyk_row():
/home/tenebris/Disk/Documents/RootCauseAnalysis/evaluation/test_bin/libjpeg/libjpeg_heap_buffer_overflow/libjpeg-turbo/rdppm.c:230
      ptr += 4;
    524b:	48 83 c3 04          	add    $0x4,%rbx
rgb_to_cmyk():
/home/tenebris/Disk/Documents/RootCauseAnalysis/evaluation/test_bin/libjpeg/libjpeg_heap_buffer_overflow/libjpeg-turbo/cmyk.h:42
  *m = (JSAMPLE)(255.0 - mtmp * 255.0 + 0.5);
    524f:	c6 43 fd ff          	movb   $0xff,-0x3(%rbx)
/home/tenebris/Disk/Documents/RootCauseAnalysis/evaluation/test_bin/libjpeg/libjpeg_heap_buffer_overflow/libjpeg-turbo/cmyk.h:43
  *y = (JSAMPLE)(255.0 - ytmp * 255.0 + 0.5);
    5253:	c6 43 fe ff          	movb   $0xff,-0x2(%rbx)
/home/tenebris/Disk/Documents/RootCauseAnalysis/evaluation/test_bin/libjpeg/libjpeg_heap_buffer_overflow/libjpeg-turbo/cmyk.h:44
  *k = (JSAMPLE)(255.0 - ktmp * 255.0 + 0.5);
    5257:	c6 43 ff 00          	movb   $0x0,-0x1(%rbx)
get_text_gray_cmyk_row():
/home/tenebris/Disk/Documents/RootCauseAnalysis/evaluation/test_bin/libjpeg/libjpeg_heap_buffer_overflow/libjpeg-turbo/rdppm.c:227
    for (col = cinfo->image_width; col > 0; col--) {
    525b:	4c 39 f3             	cmp    %r14,%rbx
    525e:	0f 85 24 ff ff ff    	jne    5188 <get_text_gray_cmyk_row+0x58>
    5264:	eb c7                	jmp    522d <get_text_gray_cmyk_row+0xfd>
    5266:	66 2e 0f 1f 84 00 00 	cs nopw 0x0(%rax,%rax,1)
    526d:	00 00 00 
/home/tenebris/Disk/Documents/RootCauseAnalysis/evaluation/test_bin/libjpeg/libjpeg_heap_buffer_overflow/libjpeg-turbo/rdppm.c:221
    for (col = cinfo->image_width; col > 0; col--) {
    5270:	85 c0                	test   %eax,%eax
    5272:	74 b9                	je     522d <get_text_gray_cmyk_row+0xfd>
    5274:	f2 0f 10 0d 6c 4f 00 	movsd  0x4f6c(%rip),%xmm1        # a1e8 <rgb_red+0x48>
    527b:	00 
    527c:	f2 0f 10 1d 6c 4f 00 	movsd  0x4f6c(%rip),%xmm3        # a1f0 <rgb_red+0x50>
    5283:	00 
    5284:	4c 8d 2c 83          	lea    (%rbx,%rax,4),%r13
    5288:	0f 1f 84 00 00 00 00 	nopl   0x0(%rax,%rax,1)
    528f:	00 
/home/tenebris/Disk/Documents/RootCauseAnalysis/evaluation/test_bin/libjpeg/libjpeg_heap_buffer_overflow/libjpeg-turbo/rdppm.c:222 (discriminator 3)
      JSAMPLE gray = read_pbm_integer(cinfo, infile, maxval);
    5290:	ba ff 00 00 00       	mov    $0xff,%edx
    5295:	4c 89 e6             	mov    %r12,%rsi
    5298:	48 89 ef             	mov    %rbp,%rdi
    529b:	f2 0f 11 0c 24       	movsd  %xmm1,(%rsp)
    52a0:	f2 0f 11 5c 24 08    	movsd  %xmm3,0x8(%rsp)
    52a6:	e8 d5 f6 ff ff       	call   4980 <read_pbm_integer>
rgb_to_cmyk():
/home/tenebris/Disk/Documents/RootCauseAnalysis/evaluation/test_bin/libjpeg/libjpeg_heap_buffer_overflow/libjpeg-turbo/cmyk.h:30 (discriminator 3)
  double ctmp = 1.0 - ((double)r / 255.0);
    52ab:	66 0f ef d2          	pxor   %xmm2,%xmm2
    52af:	f2 0f 10 0c 24       	movsd  (%rsp),%xmm1
    52b4:	f2 0f 10 5c 24 08    	movsd  0x8(%rsp),%xmm3
    52ba:	0f b6 c0             	movzbl %al,%eax
    52bd:	f2 0f 2a d0          	cvtsi2sd %eax,%xmm2
    52c1:	66 0f 28 c3          	movapd %xmm3,%xmm0
    52c5:	f2 0f 5e d1          	divsd  %xmm1,%xmm2
    52c9:	f2 0f 5c c2          	subsd  %xmm2,%xmm0
/home/tenebris/Disk/Documents/RootCauseAnalysis/evaluation/test_bin/libjpeg/libjpeg_heap_buffer_overflow/libjpeg-turbo/cmyk.h:35 (discriminator 3)
  if (ktmp == 1.0) ctmp = mtmp = ytmp = 0.0;
    52cd:	66 0f 2e c3          	ucomisd %xmm3,%xmm0
    52d1:	7a 02                	jp     52d5 <get_text_gray_cmyk_row+0x1a5>
    52d3:	74 6b                	je     5340 <get_text_gray_cmyk_row+0x210>
/home/tenebris/Disk/Documents/RootCauseAnalysis/evaluation/test_bin/libjpeg/libjpeg_heap_buffer_overflow/libjpeg-turbo/cmyk.h:37
    ctmp = (ctmp - ktmp) / (1.0 - ktmp);
    52d5:	66 0f 28 d0          	movapd %xmm0,%xmm2
    52d9:	66 0f 28 e3          	movapd %xmm3,%xmm4
get_text_gray_cmyk_row():
/home/tenebris/Disk/Documents/RootCauseAnalysis/evaluation/test_bin/libjpeg/libjpeg_heap_buffer_overflow/libjpeg-turbo/rdppm.c:224
      ptr += 4;
    52dd:	48 83 c3 04          	add    $0x4,%rbx
rgb_to_cmyk():
/home/tenebris/Disk/Documents/RootCauseAnalysis/evaluation/test_bin/libjpeg/libjpeg_heap_buffer_overflow/libjpeg-turbo/cmyk.h:37
    52e1:	f2 0f 5c e0          	subsd  %xmm0,%xmm4
    52e5:	f2 0f 5c d0          	subsd  %xmm0,%xmm2
/home/tenebris/Disk/Documents/RootCauseAnalysis/evaluation/test_bin/libjpeg/libjpeg_heap_buffer_overflow/libjpeg-turbo/cmyk.h:44
  *k = (JSAMPLE)(255.0 - ktmp * 255.0 + 0.5);
    52e9:	f2 0f 59 c1          	mulsd  %xmm1,%xmm0
/home/tenebris/Disk/Documents/RootCauseAnalysis/evaluation/test_bin/libjpeg/libjpeg_heap_buffer_overflow/libjpeg-turbo/cmyk.h:37
    ctmp = (ctmp - ktmp) / (1.0 - ktmp);
    52ed:	f2 0f 5e d4          	divsd  %xmm4,%xmm2
/home/tenebris/Disk/Documents/RootCauseAnalysis/evaluation/test_bin/libjpeg/libjpeg_heap_buffer_overflow/libjpeg-turbo/cmyk.h:41
  *c = (JSAMPLE)(255.0 - ctmp * 255.0 + 0.5);
    52f1:	66 0f 28 e1          	movapd %xmm1,%xmm4
    52f5:	f2 0f 59 d1          	mulsd  %xmm1,%xmm2
    52f9:	f2 0f 5c e2          	subsd  %xmm2,%xmm4
    52fd:	f2 0f 58 25 f3 4e 00 	addsd  0x4ef3(%rip),%xmm4        # a1f8 <rgb_red+0x58>
    5304:	00 
/home/tenebris/Disk/Documents/RootCauseAnalysis/evaluation/test_bin/libjpeg/libjpeg_heap_buffer_overflow/libjpeg-turbo/cmyk.h:44
  *k = (JSAMPLE)(255.0 - ktmp * 255.0 + 0.5);
    5305:	66 0f 28 d1          	movapd %xmm1,%xmm2
    5309:	f2 0f 5c d0          	subsd  %xmm0,%xmm2
    530d:	f2 0f 58 15 e3 4e 00 	addsd  0x4ee3(%rip),%xmm2        # a1f8 <rgb_red+0x58>
    5314:	00 
/home/tenebris/Disk/Documents/RootCauseAnalysis/evaluation/test_bin/libjpeg/libjpeg_heap_buffer_overflow/libjpeg-turbo/cmyk.h:41
  *c = (JSAMPLE)(255.0 - ctmp * 255.0 + 0.5);
    5315:	f2 0f 2c c4          	cvttsd2si %xmm4,%eax
    5319:	88 43 fc             	mov    %al,-0x4(%rbx)
/home/tenebris/Disk/Documents/RootCauseAnalysis/evaluation/test_bin/libjpeg/libjpeg_heap_buffer_overflow/libjpeg-turbo/cmyk.h:42
  *m = (JSAMPLE)(255.0 - mtmp * 255.0 + 0.5);
    531c:	88 43 fd             	mov    %al,-0x3(%rbx)
/home/tenebris/Disk/Documents/RootCauseAnalysis/evaluation/test_bin/libjpeg/libjpeg_heap_buffer_overflow/libjpeg-turbo/cmyk.h:43
  *y = (JSAMPLE)(255.0 - ytmp * 255.0 + 0.5);
    531f:	88 43 fe             	mov    %al,-0x2(%rbx)
/home/tenebris/Disk/Documents/RootCauseAnalysis/evaluation/test_bin/libjpeg/libjpeg_heap_buffer_overflow/libjpeg-turbo/cmyk.h:44
  *k = (JSAMPLE)(255.0 - ktmp * 255.0 + 0.5);
    5322:	f2 0f 2c c2          	cvttsd2si %xmm2,%eax
    5326:	88 43 ff             	mov    %al,-0x1(%rbx)
get_text_gray_cmyk_row():
/home/tenebris/Disk/Documents/RootCauseAnalysis/evaluation/test_bin/libjpeg/libjpeg_heap_buffer_overflow/libjpeg-turbo/rdppm.c:221
    for (col = cinfo->image_width; col > 0; col--) {
    5329:	4c 39 eb             	cmp    %r13,%rbx
    532c:	0f 85 5e ff ff ff    	jne    5290 <get_text_gray_cmyk_row+0x160>
    5332:	e9 f6 fe ff ff       	jmp    522d <get_text_gray_cmyk_row+0xfd>
    5337:	66 0f 1f 84 00 00 00 	nopw   0x0(%rax,%rax,1)
    533e:	00 00 
rgb_to_cmyk():
/home/tenebris/Disk/Documents/RootCauseAnalysis/evaluation/test_bin/libjpeg/libjpeg_heap_buffer_overflow/libjpeg-turbo/cmyk.h:41
  *c = (JSAMPLE)(255.0 - ctmp * 255.0 + 0.5);
    5340:	c6 03 ff             	movb   $0xff,(%rbx)
get_text_gray_cmyk_row():
/home/tenebris/Disk/Documents/RootCauseAnalysis/evaluation/test_bin/libjpeg/libjpeg_heap_buffer_overflow/libjpeg-turbo/rdppm.c:224
      ptr += 4;
    5343:	48 83 c3 04          	add    $0x4,%rbx
rgb_to_cmyk():
/home/tenebris/Disk/Documents/RootCauseAnalysis/evaluation/test_bin/libjpeg/libjpeg_heap_buffer_overflow/libjpeg-turbo/cmyk.h:42
  *m = (JSAMPLE)(255.0 - mtmp * 255.0 + 0.5);
    5347:	c6 43 fd ff          	movb   $0xff,-0x3(%rbx)
/home/tenebris/Disk/Documents/RootCauseAnalysis/evaluation/test_bin/libjpeg/libjpeg_heap_buffer_overflow/libjpeg-turbo/cmyk.h:43
  *y = (JSAMPLE)(255.0 - ytmp * 255.0 + 0.5);
    534b:	c6 43 fe ff          	movb   $0xff,-0x2(%rbx)
/home/tenebris/Disk/Documents/RootCauseAnalysis/evaluation/test_bin/libjpeg/libjpeg_heap_buffer_overflow/libjpeg-turbo/cmyk.h:44
  *k = (JSAMPLE)(255.0 - ktmp * 255.0 + 0.5);
    534f:	c6 43 ff 00          	movb   $0x0,-0x1(%rbx)
get_text_gray_cmyk_row():
/home/tenebris/Disk/Documents/RootCauseAnalysis/evaluation/test_bin/libjpeg/libjpeg_heap_buffer_overflow/libjpeg-turbo/rdppm.c:221
    for (col = cinfo->image_width; col > 0; col--) {
    5353:	4c 39 eb             	cmp    %r13,%rbx
    5356:	0f 85 34 ff ff ff    	jne    5290 <get_text_gray_cmyk_row+0x160>
    535c:	e9 cc fe ff ff       	jmp    522d <get_text_gray_cmyk_row+0xfd>
    5361:	66 66 2e 0f 1f 84 00 	data16 cs nopw 0x0(%rax,%rax,1)
    5368:	00 00 00 00 
    536c:	0f 1f 40 00          	nopl   0x0(%rax)

0000000000005370 <get_text_gray_rgb_row>:
get_text_gray_rgb_row():
/home/tenebris/Disk/Documents/RootCauseAnalysis/evaluation/test_bin/libjpeg/libjpeg_heap_buffer_overflow/libjpeg-turbo/rdppm.c:176
{
    5370:	f3 0f 1e fa          	endbr64 
    5374:	41 57                	push   %r15
    5376:	48 89 f0             	mov    %rsi,%rax
/home/tenebris/Disk/Documents/RootCauseAnalysis/evaluation/test_bin/libjpeg/libjpeg_heap_buffer_overflow/libjpeg-turbo/rdppm.c:187
  register int ps = rgb_pixelsize[cinfo->in_color_space];
    5379:	4c 8d 05 00 4d 00 00 	lea    0x4d00(%rip),%r8        # a080 <rgb_pixelsize>
/home/tenebris/Disk/Documents/RootCauseAnalysis/evaluation/test_bin/libjpeg/libjpeg_heap_buffer_overflow/libjpeg-turbo/rdppm.c:176
{
    5380:	41 56                	push   %r14
    5382:	41 55                	push   %r13
    5384:	49 89 fd             	mov    %rdi,%r13
    5387:	41 54                	push   %r12
    5389:	55                   	push   %rbp
    538a:	53                   	push   %rbx
    538b:	48 83 ec 38          	sub    $0x38,%rsp
/home/tenebris/Disk/Documents/RootCauseAnalysis/evaluation/test_bin/libjpeg/libjpeg_heap_buffer_overflow/libjpeg-turbo/rdppm.c:183
  register int rindex = rgb_red[cinfo->in_color_space];
    538f:	8b 4f 3c             	mov    0x3c(%rdi),%ecx
/home/tenebris/Disk/Documents/RootCauseAnalysis/evaluation/test_bin/libjpeg/libjpeg_heap_buffer_overflow/libjpeg-turbo/rdppm.c:180
  register JSAMPLE *rescale = source->rescale;
    5392:	48 8b 5e 48          	mov    0x48(%rsi),%rbx
/home/tenebris/Disk/Documents/RootCauseAnalysis/evaluation/test_bin/libjpeg/libjpeg_heap_buffer_overflow/libjpeg-turbo/rdppm.c:178
  FILE *infile = source->pub.input_file;
    5396:	4c 8b 76 18          	mov    0x18(%rsi),%r14
/home/tenebris/Disk/Documents/RootCauseAnalysis/evaluation/test_bin/libjpeg/libjpeg_heap_buffer_overflow/libjpeg-turbo/rdppm.c:182
  unsigned int maxval = source->maxval;
    539a:	44 8b 7e 50          	mov    0x50(%rsi),%r15d
/home/tenebris/Disk/Documents/RootCauseAnalysis/evaluation/test_bin/libjpeg/libjpeg_heap_buffer_overflow/libjpeg-turbo/rdppm.c:183
  register int rindex = rgb_red[cinfo->in_color_space];
    539e:	48 8d 35 fb 4d 00 00 	lea    0x4dfb(%rip),%rsi        # a1a0 <rgb_red>
    53a5:	4c 63 24 8e          	movslq (%rsi,%rcx,4),%r12
/home/tenebris/Disk/Documents/RootCauseAnalysis/evaluation/test_bin/libjpeg/libjpeg_heap_buffer_overflow/libjpeg-turbo/rdppm.c:184
  register int gindex = rgb_green[cinfo->in_color_space];
    53a9:	48 8d 35 90 4d 00 00 	lea    0x4d90(%rip),%rsi        # a140 <rgb_green>
/home/tenebris/Disk/Documents/RootCauseAnalysis/evaluation/test_bin/libjpeg/libjpeg_heap_buffer_overflow/libjpeg-turbo/rdppm.c:189
  ptr = source->pub.buffer[0];
    53b0:	48 8b 40 20          	mov    0x20(%rax),%rax
/home/tenebris/Disk/Documents/RootCauseAnalysis/evaluation/test_bin/libjpeg/libjpeg_heap_buffer_overflow/libjpeg-turbo/rdppm.c:180
  register JSAMPLE *rescale = source->rescale;
    53b4:	48 89 5c 24 08       	mov    %rbx,0x8(%rsp)
/home/tenebris/Disk/Documents/RootCauseAnalysis/evaluation/test_bin/libjpeg/libjpeg_heap_buffer_overflow/libjpeg-turbo/rdppm.c:184
  register int gindex = rgb_green[cinfo->in_color_space];
    53b9:	8b 14 8e             	mov    (%rsi,%rcx,4),%edx
/home/tenebris/Disk/Documents/RootCauseAnalysis/evaluation/test_bin/libjpeg/libjpeg_heap_buffer_overflow/libjpeg-turbo/rdppm.c:185
  register int bindex = rgb_blue[cinfo->in_color_space];
    53bc:	48 8d 35 1d 4d 00 00 	lea    0x4d1d(%rip),%rsi        # a0e0 <rgb_blue>
/home/tenebris/Disk/Documents/RootCauseAnalysis/evaluation/test_bin/libjpeg/libjpeg_heap_buffer_overflow/libjpeg-turbo/rdppm.c:187
  register int ps = rgb_pixelsize[cinfo->in_color_space];
    53c3:	45 8b 04 88          	mov    (%r8,%rcx,4),%r8d
/home/tenebris/Disk/Documents/RootCauseAnalysis/evaluation/test_bin/libjpeg/libjpeg_heap_buffer_overflow/libjpeg-turbo/rdppm.c:185
  register int bindex = rgb_blue[cinfo->in_color_space];
    53c7:	48 63 2c 8e          	movslq (%rsi,%rcx,4),%rbp
/home/tenebris/Disk/Documents/RootCauseAnalysis/evaluation/test_bin/libjpeg/libjpeg_heap_buffer_overflow/libjpeg-turbo/rdppm.c:186
  register int aindex = alpha_index[cinfo->in_color_space];
    53cb:	48 8d 35 4e 4c 00 00 	lea    0x4c4e(%rip),%rsi        # a020 <alpha_index>
/home/tenebris/Disk/Documents/RootCauseAnalysis/evaluation/test_bin/libjpeg/libjpeg_heap_buffer_overflow/libjpeg-turbo/rdppm.c:192
      GRAY_RGB_READ_LOOP(read_pbm_integer(cinfo, infile, maxval),
    53d2:	8b 5f 30             	mov    0x30(%rdi),%ebx
/home/tenebris/Disk/Documents/RootCauseAnalysis/evaluation/test_bin/libjpeg/libjpeg_heap_buffer_overflow/libjpeg-turbo/rdppm.c:186
  register int aindex = alpha_index[cinfo->in_color_space];
    53d5:	8b 34 8e             	mov    (%rsi,%rcx,4),%esi
/home/tenebris/Disk/Documents/RootCauseAnalysis/evaluation/test_bin/libjpeg/libjpeg_heap_buffer_overflow/libjpeg-turbo/rdppm.c:189
  ptr = source->pub.buffer[0];
    53d8:	48 8b 08             	mov    (%rax),%rcx
/home/tenebris/Disk/Documents/RootCauseAnalysis/evaluation/test_bin/libjpeg/libjpeg_heap_buffer_overflow/libjpeg-turbo/rdppm.c:190
  if (maxval == MAXJSAMPLE) {
    53db:	41 81 ff ff 00 00 00 	cmp    $0xff,%r15d
    53e2:	0f 84 f8 00 00 00    	je     54e0 <get_text_gray_rgb_row+0x170>
/home/tenebris/Disk/Documents/RootCauseAnalysis/evaluation/test_bin/libjpeg/libjpeg_heap_buffer_overflow/libjpeg-turbo/rdppm.c:197
    if (aindex >= 0)
    53e8:	85 f6                	test   %esi,%esi
    53ea:	0f 88 90 00 00 00    	js     5480 <get_text_gray_rgb_row+0x110>
/home/tenebris/Disk/Documents/RootCauseAnalysis/evaluation/test_bin/libjpeg/libjpeg_heap_buffer_overflow/libjpeg-turbo/rdppm.c:198
      GRAY_RGB_READ_LOOP(rescale[read_pbm_integer(cinfo, infile, maxval)],
    53f0:	85 db                	test   %ebx,%ebx
    53f2:	74 74                	je     5468 <get_text_gray_rgb_row+0xf8>
/home/tenebris/Disk/Documents/RootCauseAnalysis/evaluation/test_bin/libjpeg/libjpeg_heap_buffer_overflow/libjpeg-turbo/rdppm.c:192
      GRAY_RGB_READ_LOOP(read_pbm_integer(cinfo, infile, maxval),
    53f4:	48 63 c2             	movslq %edx,%rax
    53f7:	48 89 44 24 18       	mov    %rax,0x18(%rsp)
    53fc:	49 63 c4             	movslq %r12d,%rax
    53ff:	4c 8d 24 29          	lea    (%rcx,%rbp,1),%r12
    5403:	48 89 44 24 10       	mov    %rax,0x10(%rsp)
    5408:	48 63 c6             	movslq %esi,%rax
    540b:	48 89 44 24 20       	mov    %rax,0x20(%rsp)
    5410:	49 63 c0             	movslq %r8d,%rax
    5413:	48 89 44 24 28       	mov    %rax,0x28(%rsp)
    5418:	0f 1f 84 00 00 00 00 	nopl   0x0(%rax,%rax,1)
    541f:	00 
/home/tenebris/Disk/Documents/RootCauseAnalysis/evaluation/test_bin/libjpeg/libjpeg_heap_buffer_overflow/libjpeg-turbo/rdppm.c:198 (discriminator 3)
      GRAY_RGB_READ_LOOP(rescale[read_pbm_integer(cinfo, infile, maxval)],
    5420:	4c 89 f6             	mov    %r14,%rsi
    5423:	4c 89 ef             	mov    %r13,%rdi
    5426:	44 89 fa             	mov    %r15d,%edx
    5429:	e8 52 f5 ff ff       	call   4980 <read_pbm_integer>
    542e:	48 8b 4c 24 08       	mov    0x8(%rsp),%rcx
    5433:	48 8b 7c 24 18       	mov    0x18(%rsp),%rdi
    5438:	89 c0                	mov    %eax,%eax
    543a:	0f b6 34 01          	movzbl (%rcx,%rax,1),%esi
    543e:	4c 89 e0             	mov    %r12,%rax
    5441:	48 8b 4c 24 10       	mov    0x10(%rsp),%rcx
    5446:	48 29 e8             	sub    %rbp,%rax
    5449:	41 88 34 24          	mov    %sil,(%r12)
    544d:	4c 03 64 24 28       	add    0x28(%rsp),%r12
    5452:	40 88 34 38          	mov    %sil,(%rax,%rdi,1)
    5456:	48 8b 7c 24 20       	mov    0x20(%rsp),%rdi
    545b:	40 88 34 08          	mov    %sil,(%rax,%rcx,1)
    545f:	c6 04 38 ff          	movb   $0xff,(%rax,%rdi,1)
    5463:	83 eb 01             	sub    $0x1,%ebx
    5466:	75 b8                	jne    5420 <get_text_gray_rgb_row+0xb0>
/home/tenebris/Disk/Documents/RootCauseAnalysis/evaluation/test_bin/libjpeg/libjpeg_heap_buffer_overflow/libjpeg-turbo/rdppm.c:204
}
    5468:	48 83 c4 38          	add    $0x38,%rsp
    546c:	b8 01 00 00 00       	mov    $0x1,%eax
    5471:	5b                   	pop    %rbx
    5472:	5d                   	pop    %rbp
    5473:	41 5c                	pop    %r12
    5475:	41 5d                	pop    %r13
    5477:	41 5e                	pop    %r14
    5479:	41 5f                	pop    %r15
    547b:	c3                   	ret    
    547c:	0f 1f 40 00          	nopl   0x0(%rax)
/home/tenebris/Disk/Documents/RootCauseAnalysis/evaluation/test_bin/libjpeg/libjpeg_heap_buffer_overflow/libjpeg-turbo/rdppm.c:201
      GRAY_RGB_READ_LOOP(rescale[read_pbm_integer(cinfo, infile, maxval)],)
    5480:	85 db                	test   %ebx,%ebx
    5482:	74 e4                	je     5468 <get_text_gray_rgb_row+0xf8>
/home/tenebris/Disk/Documents/RootCauseAnalysis/evaluation/test_bin/libjpeg/libjpeg_heap_buffer_overflow/libjpeg-turbo/rdppm.c:192
      GRAY_RGB_READ_LOOP(read_pbm_integer(cinfo, infile, maxval),
    5484:	48 63 c2             	movslq %edx,%rax
    5487:	48 89 44 24 18       	mov    %rax,0x18(%rsp)
    548c:	49 63 c4             	movslq %r12d,%rax
    548f:	4c 8d 24 29          	lea    (%rcx,%rbp,1),%r12
    5493:	48 89 44 24 10       	mov    %rax,0x10(%rsp)
    5498:	49 63 c0             	movslq %r8d,%rax
    549b:	48 89 44 24 20       	mov    %rax,0x20(%rsp)
/home/tenebris/Disk/Documents/RootCauseAnalysis/evaluation/test_bin/libjpeg/libjpeg_heap_buffer_overflow/libjpeg-turbo/rdppm.c:201 (discriminator 3)
      GRAY_RGB_READ_LOOP(rescale[read_pbm_integer(cinfo, infile, maxval)],)
    54a0:	44 89 fa             	mov    %r15d,%edx
    54a3:	4c 89 f6             	mov    %r14,%rsi
    54a6:	4c 89 ef             	mov    %r13,%rdi
    54a9:	e8 d2 f4 ff ff       	call   4980 <read_pbm_integer>
    54ae:	48 8b 4c 24 08       	mov    0x8(%rsp),%rcx
    54b3:	4c 89 e6             	mov    %r12,%rsi
    54b6:	48 8b 7c 24 18       	mov    0x18(%rsp),%rdi
    54bb:	89 c0                	mov    %eax,%eax
    54bd:	48 8b 54 24 10       	mov    0x10(%rsp),%rdx
    54c2:	48 29 ee             	sub    %rbp,%rsi
    54c5:	0f b6 04 01          	movzbl (%rcx,%rax,1),%eax
    54c9:	41 88 04 24          	mov    %al,(%r12)
    54cd:	4c 03 64 24 20       	add    0x20(%rsp),%r12
    54d2:	88 04 3e             	mov    %al,(%rsi,%rdi,1)
    54d5:	88 04 16             	mov    %al,(%rsi,%rdx,1)
    54d8:	83 eb 01             	sub    $0x1,%ebx
    54db:	75 c3                	jne    54a0 <get_text_gray_rgb_row+0x130>
    54dd:	eb 89                	jmp    5468 <get_text_gray_rgb_row+0xf8>
    54df:	90                   	nop
/home/tenebris/Disk/Documents/RootCauseAnalysis/evaluation/test_bin/libjpeg/libjpeg_heap_buffer_overflow/libjpeg-turbo/rdppm.c:191
    if (aindex >= 0)
    54e0:	85 f6                	test   %esi,%esi
    54e2:	78 6c                	js     5550 <get_text_gray_rgb_row+0x1e0>
/home/tenebris/Disk/Documents/RootCauseAnalysis/evaluation/test_bin/libjpeg/libjpeg_heap_buffer_overflow/libjpeg-turbo/rdppm.c:192
      GRAY_RGB_READ_LOOP(read_pbm_integer(cinfo, infile, maxval),
    54e4:	85 db                	test   %ebx,%ebx
    54e6:	0f 84 7c ff ff ff    	je     5468 <get_text_gray_rgb_row+0xf8>
    54ec:	48 63 c2             	movslq %edx,%rax
    54ef:	4c 8d 3c 29          	lea    (%rcx,%rbp,1),%r15
    54f3:	48 89 44 24 08       	mov    %rax,0x8(%rsp)
    54f8:	48 63 c6             	movslq %esi,%rax
    54fb:	48 89 44 24 18       	mov    %rax,0x18(%rsp)
    5500:	49 63 c0             	movslq %r8d,%rax
    5503:	48 89 44 24 10       	mov    %rax,0x10(%rsp)
    5508:	0f 1f 84 00 00 00 00 	nopl   0x0(%rax,%rax,1)
    550f:	00 
/home/tenebris/Disk/Documents/RootCauseAnalysis/evaluation/test_bin/libjpeg/libjpeg_heap_buffer_overflow/libjpeg-turbo/rdppm.c:192 (discriminator 3)
    5510:	ba ff 00 00 00       	mov    $0xff,%edx
    5515:	4c 89 f6             	mov    %r14,%rsi
    5518:	4c 89 ef             	mov    %r13,%rdi
    551b:	e8 60 f4 ff ff       	call   4980 <read_pbm_integer>
    5520:	4c 89 fa             	mov    %r15,%rdx
    5523:	48 8b 4c 24 08       	mov    0x8(%rsp),%rcx
    5528:	48 29 ea             	sub    %rbp,%rdx
    552b:	41 88 07             	mov    %al,(%r15)
    552e:	4c 03 7c 24 10       	add    0x10(%rsp),%r15
    5533:	88 04 0a             	mov    %al,(%rdx,%rcx,1)
    5536:	42 88 04 22          	mov    %al,(%rdx,%r12,1)
    553a:	48 8b 44 24 18       	mov    0x18(%rsp),%rax
    553f:	c6 04 02 ff          	movb   $0xff,(%rdx,%rax,1)
    5543:	83 eb 01             	sub    $0x1,%ebx
    5546:	75 c8                	jne    5510 <get_text_gray_rgb_row+0x1a0>
    5548:	e9 1b ff ff ff       	jmp    5468 <get_text_gray_rgb_row+0xf8>
    554d:	0f 1f 00             	nopl   (%rax)
/home/tenebris/Disk/Documents/RootCauseAnalysis/evaluation/test_bin/libjpeg/libjpeg_heap_buffer_overflow/libjpeg-turbo/rdppm.c:195
      GRAY_RGB_READ_LOOP(read_pbm_integer(cinfo, infile, maxval),)
    5550:	85 db                	test   %ebx,%ebx
    5552:	0f 84 10 ff ff ff    	je     5468 <get_text_gray_rgb_row+0xf8>
/home/tenebris/Disk/Documents/RootCauseAnalysis/evaluation/test_bin/libjpeg/libjpeg_heap_buffer_overflow/libjpeg-turbo/rdppm.c:192
      GRAY_RGB_READ_LOOP(read_pbm_integer(cinfo, infile, maxval),
    5558:	48 63 c2             	movslq %edx,%rax
    555b:	4c 8d 3c 29          	lea    (%rcx,%rbp,1),%r15
    555f:	48 89 44 24 08       	mov    %rax,0x8(%rsp)
    5564:	49 63 c0             	movslq %r8d,%rax
    5567:	48 89 44 24 10       	mov    %rax,0x10(%rsp)
    556c:	0f 1f 40 00          	nopl   0x0(%rax)
/home/tenebris/Disk/Documents/RootCauseAnalysis/evaluation/test_bin/libjpeg/libjpeg_heap_buffer_overflow/libjpeg-turbo/rdppm.c:195 (discriminator 3)
      GRAY_RGB_READ_LOOP(read_pbm_integer(cinfo, infile, maxval),)
    5570:	ba ff 00 00 00       	mov    $0xff,%edx
    5575:	4c 89 ef             	mov    %r13,%rdi
    5578:	4c 89 f6             	mov    %r14,%rsi
    557b:	e8 00 f4 ff ff       	call   4980 <read_pbm_integer>
    5580:	4c 89 fa             	mov    %r15,%rdx
    5583:	48 8b 7c 24 08       	mov    0x8(%rsp),%rdi
    5588:	48 29 ea             	sub    %rbp,%rdx
    558b:	41 88 07             	mov    %al,(%r15)
    558e:	4c 03 7c 24 10       	add    0x10(%rsp),%r15
    5593:	88 04 3a             	mov    %al,(%rdx,%rdi,1)
    5596:	42 88 04 22          	mov    %al,(%rdx,%r12,1)
    559a:	83 eb 01             	sub    $0x1,%ebx
    559d:	75 d1                	jne    5570 <get_text_gray_rgb_row+0x200>
    559f:	e9 c4 fe ff ff       	jmp    5468 <get_text_gray_rgb_row+0xf8>
    55a4:	66 66 2e 0f 1f 84 00 	data16 cs nopw 0x0(%rax,%rax,1)
    55ab:	00 00 00 00 
    55af:	90                   	nop

00000000000055b0 <get_text_gray_row>:
get_text_gray_row():
/home/tenebris/Disk/Documents/RootCauseAnalysis/evaluation/test_bin/libjpeg/libjpeg_heap_buffer_overflow/libjpeg-turbo/rdppm.c:148
{
    55b0:	f3 0f 1e fa          	endbr64 
    55b4:	41 57                	push   %r15
    55b6:	41 56                	push   %r14
    55b8:	41 55                	push   %r13
    55ba:	41 54                	push   %r12
    55bc:	55                   	push   %rbp
    55bd:	53                   	push   %rbx
    55be:	48 83 ec 08          	sub    $0x8,%rsp
/home/tenebris/Disk/Documents/RootCauseAnalysis/evaluation/test_bin/libjpeg/libjpeg_heap_buffer_overflow/libjpeg-turbo/rdppm.c:156
  ptr = source->pub.buffer[0];
    55c2:	48 8b 46 20          	mov    0x20(%rsi),%rax
/home/tenebris/Disk/Documents/RootCauseAnalysis/evaluation/test_bin/libjpeg/libjpeg_heap_buffer_overflow/libjpeg-turbo/rdppm.c:157
  for (col = cinfo->image_width; col > 0; col--) {
    55c6:	8b 6f 30             	mov    0x30(%rdi),%ebp
/home/tenebris/Disk/Documents/RootCauseAnalysis/evaluation/test_bin/libjpeg/libjpeg_heap_buffer_overflow/libjpeg-turbo/rdppm.c:150
  FILE *infile = source->pub.input_file;
    55c9:	4c 8b 6e 18          	mov    0x18(%rsi),%r13
/home/tenebris/Disk/Documents/RootCauseAnalysis/evaluation/test_bin/libjpeg/libjpeg_heap_buffer_overflow/libjpeg-turbo/rdppm.c:152
  register JSAMPLE *rescale = source->rescale;
    55cd:	4c 8b 7e 48          	mov    0x48(%rsi),%r15
/home/tenebris/Disk/Documents/RootCauseAnalysis/evaluation/test_bin/libjpeg/libjpeg_heap_buffer_overflow/libjpeg-turbo/rdppm.c:154
  unsigned int maxval = source->maxval;
    55d1:	44 8b 76 50          	mov    0x50(%rsi),%r14d
/home/tenebris/Disk/Documents/RootCauseAnalysis/evaluation/test_bin/libjpeg/libjpeg_heap_buffer_overflow/libjpeg-turbo/rdppm.c:156
  ptr = source->pub.buffer[0];
    55d5:	48 8b 18             	mov    (%rax),%rbx
/home/tenebris/Disk/Documents/RootCauseAnalysis/evaluation/test_bin/libjpeg/libjpeg_heap_buffer_overflow/libjpeg-turbo/rdppm.c:157
  for (col = cinfo->image_width; col > 0; col--) {
    55d8:	85 ed                	test   %ebp,%ebp
    55da:	74 2d                	je     5609 <get_text_gray_row+0x59>
    55dc:	49 89 fc             	mov    %rdi,%r12
    55df:	48 01 dd             	add    %rbx,%rbp
    55e2:	66 0f 1f 44 00 00    	nopw   0x0(%rax,%rax,1)
/home/tenebris/Disk/Documents/RootCauseAnalysis/evaluation/test_bin/libjpeg/libjpeg_heap_buffer_overflow/libjpeg-turbo/rdppm.c:158 (discriminator 3)
    *ptr++ = rescale[read_pbm_integer(cinfo, infile, maxval)];
    55e8:	44 89 f2             	mov    %r14d,%edx
    55eb:	4c 89 ee             	mov    %r13,%rsi
    55ee:	4c 89 e7             	mov    %r12,%rdi
    55f1:	48 83 c3 01          	add    $0x1,%rbx
    55f5:	e8 86 f3 ff ff       	call   4980 <read_pbm_integer>
    55fa:	89 c0                	mov    %eax,%eax
    55fc:	41 0f b6 04 07       	movzbl (%r15,%rax,1),%eax
    5601:	88 43 ff             	mov    %al,-0x1(%rbx)
/home/tenebris/Disk/Documents/RootCauseAnalysis/evaluation/test_bin/libjpeg/libjpeg_heap_buffer_overflow/libjpeg-turbo/rdppm.c:157 (discriminator 3)
  for (col = cinfo->image_width; col > 0; col--) {
    5604:	48 39 eb             	cmp    %rbp,%rbx
    5607:	75 df                	jne    55e8 <get_text_gray_row+0x38>
/home/tenebris/Disk/Documents/RootCauseAnalysis/evaluation/test_bin/libjpeg/libjpeg_heap_buffer_overflow/libjpeg-turbo/rdppm.c:161
}
    5609:	48 83 c4 08          	add    $0x8,%rsp
    560d:	b8 01 00 00 00       	mov    $0x1,%eax
    5612:	5b                   	pop    %rbx
    5613:	5d                   	pop    %rbp
    5614:	41 5c                	pop    %r12
    5616:	41 5d                	pop    %r13
    5618:	41 5e                	pop    %r14
    561a:	41 5f                	pop    %r15
    561c:	c3                   	ret    
    561d:	0f 1f 00             	nopl   (%rax)

0000000000005620 <start_input_ppm>:
start_input_ppm():
/home/tenebris/Disk/Documents/RootCauseAnalysis/evaluation/test_bin/libjpeg/libjpeg_heap_buffer_overflow/libjpeg-turbo/rdppm.c:562
{
    5620:	f3 0f 1e fa          	endbr64 
    5624:	41 57                	push   %r15
    5626:	41 56                	push   %r14
    5628:	41 55                	push   %r13
    562a:	41 54                	push   %r12
    562c:	55                   	push   %rbp
    562d:	48 89 fd             	mov    %rdi,%rbp
    5630:	53                   	push   %rbx
    5631:	48 89 f3             	mov    %rsi,%rbx
    5634:	48 83 ec 18          	sub    $0x18,%rsp
/home/tenebris/Disk/Documents/RootCauseAnalysis/evaluation/test_bin/libjpeg/libjpeg_heap_buffer_overflow/libjpeg-turbo/rdppm.c:568
  if (getc(source->pub.input_file) != 'P')
    5638:	48 8b 7e 18          	mov    0x18(%rsi),%rdi
    563c:	e8 0f ce ff ff       	call   2450 <getc@plt>
    5641:	83 f8 50             	cmp    $0x50,%eax
    5644:	74 10                	je     5656 <start_input_ppm+0x36>
/home/tenebris/Disk/Documents/RootCauseAnalysis/evaluation/test_bin/libjpeg/libjpeg_heap_buffer_overflow/libjpeg-turbo/rdppm.c:569
    ERREXIT(cinfo, JERR_PPM_NOT);
    5646:	48 8b 45 00          	mov    0x0(%rbp),%rax
    564a:	48 89 ef             	mov    %rbp,%rdi
    564d:	c7 40 28 05 04 00 00 	movl   $0x405,0x28(%rax)
    5654:	ff 10                	call   *(%rax)
/home/tenebris/Disk/Documents/RootCauseAnalysis/evaluation/test_bin/libjpeg/libjpeg_heap_buffer_overflow/libjpeg-turbo/rdppm.c:571
  c = getc(source->pub.input_file); /* subformat discriminator character */
    5656:	48 8b 7b 18          	mov    0x18(%rbx),%rdi
    565a:	e8 f1 cd ff ff       	call   2450 <getc@plt>
    565f:	41 89 c7             	mov    %eax,%r15d
/home/tenebris/Disk/Documents/RootCauseAnalysis/evaluation/test_bin/libjpeg/libjpeg_heap_buffer_overflow/libjpeg-turbo/rdppm.c:574
  switch (c) {
    5662:	83 f8 33             	cmp    $0x33,%eax
    5665:	0f 8f 25 02 00 00    	jg     5890 <start_input_ppm+0x270>
    566b:	83 f8 31             	cmp    $0x31,%eax
    566e:	7f 10                	jg     5680 <start_input_ppm+0x60>
/home/tenebris/Disk/Documents/RootCauseAnalysis/evaluation/test_bin/libjpeg/libjpeg_heap_buffer_overflow/libjpeg-turbo/rdppm.c:581
    ERREXIT(cinfo, JERR_PPM_NOT);
    5670:	48 8b 45 00          	mov    0x0(%rbp),%rax
    5674:	48 89 ef             	mov    %rbp,%rdi
    5677:	c7 40 28 05 04 00 00 	movl   $0x405,0x28(%rax)
    567e:	ff 10                	call   *(%rax)
/home/tenebris/Disk/Documents/RootCauseAnalysis/evaluation/test_bin/libjpeg/libjpeg_heap_buffer_overflow/libjpeg-turbo/rdppm.c:586
  w = read_pbm_integer(cinfo, source->pub.input_file, 65535);
    5680:	48 8b 73 18          	mov    0x18(%rbx),%rsi
    5684:	ba ff ff 00 00       	mov    $0xffff,%edx
    5689:	48 89 ef             	mov    %rbp,%rdi
    568c:	e8 ef f2 ff ff       	call   4980 <read_pbm_integer>
/home/tenebris/Disk/Documents/RootCauseAnalysis/evaluation/test_bin/libjpeg/libjpeg_heap_buffer_overflow/libjpeg-turbo/rdppm.c:587
  h = read_pbm_integer(cinfo, source->pub.input_file, 65535);
    5691:	48 8b 73 18          	mov    0x18(%rbx),%rsi
    5695:	ba ff ff 00 00       	mov    $0xffff,%edx
    569a:	48 89 ef             	mov    %rbp,%rdi
/home/tenebris/Disk/Documents/RootCauseAnalysis/evaluation/test_bin/libjpeg/libjpeg_heap_buffer_overflow/libjpeg-turbo/rdppm.c:586
  w = read_pbm_integer(cinfo, source->pub.input_file, 65535);
    569d:	41 89 c5             	mov    %eax,%r13d
/home/tenebris/Disk/Documents/RootCauseAnalysis/evaluation/test_bin/libjpeg/libjpeg_heap_buffer_overflow/libjpeg-turbo/rdppm.c:587
  h = read_pbm_integer(cinfo, source->pub.input_file, 65535);
    56a0:	e8 db f2 ff ff       	call   4980 <read_pbm_integer>
/home/tenebris/Disk/Documents/RootCauseAnalysis/evaluation/test_bin/libjpeg/libjpeg_heap_buffer_overflow/libjpeg-turbo/rdppm.c:588
  maxval = read_pbm_integer(cinfo, source->pub.input_file, 65535);
    56a5:	48 8b 73 18          	mov    0x18(%rbx),%rsi
    56a9:	66 41 0f 6e c5       	movd   %r13d,%xmm0
    56ae:	48 89 ef             	mov    %rbp,%rdi
    56b1:	66 0f 6e c8          	movd   %eax,%xmm1
    56b5:	ba ff ff 00 00       	mov    $0xffff,%edx
/home/tenebris/Disk/Documents/RootCauseAnalysis/evaluation/test_bin/libjpeg/libjpeg_heap_buffer_overflow/libjpeg-turbo/rdppm.c:587
  h = read_pbm_integer(cinfo, source->pub.input_file, 65535);
    56ba:	41 89 c6             	mov    %eax,%r14d
    56bd:	66 0f 62 c1          	punpckldq %xmm1,%xmm0
    56c1:	66 0f d6 44 24 08    	movq   %xmm0,0x8(%rsp)
/home/tenebris/Disk/Documents/RootCauseAnalysis/evaluation/test_bin/libjpeg/libjpeg_heap_buffer_overflow/libjpeg-turbo/rdppm.c:588
  maxval = read_pbm_integer(cinfo, source->pub.input_file, 65535);
    56c7:	e8 b4 f2 ff ff       	call   4980 <read_pbm_integer>
/home/tenebris/Disk/Documents/RootCauseAnalysis/evaluation/test_bin/libjpeg/libjpeg_heap_buffer_overflow/libjpeg-turbo/rdppm.c:590
  if (w <= 0 || h <= 0 || maxval <= 0) /* error check */
    56cc:	45 85 ed             	test   %r13d,%r13d
/home/tenebris/Disk/Documents/RootCauseAnalysis/evaluation/test_bin/libjpeg/libjpeg_heap_buffer_overflow/libjpeg-turbo/rdppm.c:588
  maxval = read_pbm_integer(cinfo, source->pub.input_file, 65535);
    56cf:	41 89 c4             	mov    %eax,%r12d
/home/tenebris/Disk/Documents/RootCauseAnalysis/evaluation/test_bin/libjpeg/libjpeg_heap_buffer_overflow/libjpeg-turbo/rdppm.c:590
  if (w <= 0 || h <= 0 || maxval <= 0) /* error check */
    56d2:	0f 94 c0             	sete   %al
    56d5:	45 85 f6             	test   %r14d,%r14d
    56d8:	0f 94 c2             	sete   %dl
    56db:	08 d0                	or     %dl,%al
    56dd:	75 05                	jne    56e4 <start_input_ppm+0xc4>
    56df:	45 85 e4             	test   %r12d,%r12d
    56e2:	75 10                	jne    56f4 <start_input_ppm+0xd4>
/home/tenebris/Disk/Documents/RootCauseAnalysis/evaluation/test_bin/libjpeg/libjpeg_heap_buffer_overflow/libjpeg-turbo/rdppm.c:591
    ERREXIT(cinfo, JERR_PPM_NOT);
    56e4:	48 8b 45 00          	mov    0x0(%rbp),%rax
    56e8:	48 89 ef             	mov    %rbp,%rdi
    56eb:	c7 40 28 05 04 00 00 	movl   $0x405,0x28(%rax)
    56f2:	ff 10                	call   *(%rax)
/home/tenebris/Disk/Documents/RootCauseAnalysis/evaluation/test_bin/libjpeg/libjpeg_heap_buffer_overflow/libjpeg-turbo/rdppm.c:594
  cinfo->image_width = (JDIMENSION)w;
    56f4:	48 8b 44 24 08       	mov    0x8(%rsp),%rax
/home/tenebris/Disk/Documents/RootCauseAnalysis/evaluation/test_bin/libjpeg/libjpeg_heap_buffer_overflow/libjpeg-turbo/rdppm.c:593
  cinfo->data_precision = BITS_IN_JSAMPLE; /* we always rescale data to this */
    56f9:	c7 45 48 08 00 00 00 	movl   $0x8,0x48(%rbp)
/home/tenebris/Disk/Documents/RootCauseAnalysis/evaluation/test_bin/libjpeg/libjpeg_heap_buffer_overflow/libjpeg-turbo/rdppm.c:594
  cinfo->image_width = (JDIMENSION)w;
    5700:	48 89 45 30          	mov    %rax,0x30(%rbp)
/home/tenebris/Disk/Documents/RootCauseAnalysis/evaluation/test_bin/libjpeg/libjpeg_heap_buffer_overflow/libjpeg-turbo/rdppm.c:605
    if (cinfo->in_color_space == JCS_UNKNOWN)
    5704:	8b 45 3c             	mov    0x3c(%rbp),%eax
/home/tenebris/Disk/Documents/RootCauseAnalysis/evaluation/test_bin/libjpeg/libjpeg_heap_buffer_overflow/libjpeg-turbo/rdppm.c:596
  source->maxval = maxval;
    5707:	44 89 63 50          	mov    %r12d,0x50(%rbx)
/home/tenebris/Disk/Documents/RootCauseAnalysis/evaluation/test_bin/libjpeg/libjpeg_heap_buffer_overflow/libjpeg-turbo/rdppm.c:603
  switch (c) {
    570b:	41 83 ff 35          	cmp    $0x35,%r15d
    570f:	0f 84 23 02 00 00    	je     5938 <start_input_ppm+0x318>
    5715:	0f 8f 8d 01 00 00    	jg     58a8 <start_input_ppm+0x288>
    571b:	41 83 ff 32          	cmp    $0x32,%r15d
    571f:	0f 84 1b 03 00 00    	je     5a40 <start_input_ppm+0x420>
    5725:	41 83 ff 33          	cmp    $0x33,%r15d
    5729:	0f 85 89 02 00 00    	jne    59b8 <start_input_ppm+0x398>
/home/tenebris/Disk/Documents/RootCauseAnalysis/evaluation/test_bin/libjpeg/libjpeg_heap_buffer_overflow/libjpeg-turbo/rdppm.c:620
    if (cinfo->in_color_space == JCS_UNKNOWN)
    572f:	85 c0                	test   %eax,%eax
    5731:	75 07                	jne    573a <start_input_ppm+0x11a>
/home/tenebris/Disk/Documents/RootCauseAnalysis/evaluation/test_bin/libjpeg/libjpeg_heap_buffer_overflow/libjpeg-turbo/rdppm.c:621
      cinfo->in_color_space = JCS_EXT_RGB;
    5733:	c7 45 3c 06 00 00 00 	movl   $0x6,0x3c(%rbp)
/home/tenebris/Disk/Documents/RootCauseAnalysis/evaluation/test_bin/libjpeg/libjpeg_heap_buffer_overflow/libjpeg-turbo/rdppm.c:622
    TRACEMS2(cinfo, 1, JTRC_PPM_TEXT, w, h);
    573a:	48 8b 45 00          	mov    0x0(%rbp),%rax
    573e:	be 01 00 00 00       	mov    $0x1,%esi
    5743:	48 89 ef             	mov    %rbp,%rdi
    5746:	c7 40 28 09 04 00 00 	movl   $0x409,0x28(%rax)
    574d:	44 89 68 2c          	mov    %r13d,0x2c(%rax)
    5751:	44 89 70 30          	mov    %r14d,0x30(%rax)
    5755:	ff 50 08             	call   *0x8(%rax)
/home/tenebris/Disk/Documents/RootCauseAnalysis/evaluation/test_bin/libjpeg/libjpeg_heap_buffer_overflow/libjpeg-turbo/rdppm.c:623
    if (IsExtRGB(cinfo->in_color_space))
    5758:	8b 45 3c             	mov    0x3c(%rbp),%eax
    575b:	8d 50 fa             	lea    -0x6(%rax),%edx
    575e:	83 fa 09             	cmp    $0x9,%edx
    5761:	0f 86 99 02 00 00    	jbe    5a00 <start_input_ppm+0x3e0>
    5767:	83 f8 02             	cmp    $0x2,%eax
    576a:	0f 84 90 02 00 00    	je     5a00 <start_input_ppm+0x3e0>
/home/tenebris/Disk/Documents/RootCauseAnalysis/evaluation/test_bin/libjpeg/libjpeg_heap_buffer_overflow/libjpeg-turbo/rdppm.c:625
    else if (cinfo->in_color_space == JCS_CMYK)
    5770:	83 f8 04             	cmp    $0x4,%eax
    5773:	0f 84 54 04 00 00    	je     5bcd <start_input_ppm+0x5ad>
/home/tenebris/Disk/Documents/RootCauseAnalysis/evaluation/test_bin/libjpeg/libjpeg_heap_buffer_overflow/libjpeg-turbo/rdppm.c:628
      ERREXIT(cinfo, JERR_BAD_IN_COLORSPACE);
    5779:	48 8b 45 00          	mov    0x0(%rbp),%rax
    577d:	48 89 ef             	mov    %rbp,%rdi
/home/tenebris/Disk/Documents/RootCauseAnalysis/evaluation/test_bin/libjpeg/libjpeg_heap_buffer_overflow/libjpeg-turbo/rdppm.c:629
    need_iobuffer = FALSE;
    5780:	45 31 f6             	xor    %r14d,%r14d
/home/tenebris/Disk/Documents/RootCauseAnalysis/evaluation/test_bin/libjpeg/libjpeg_heap_buffer_overflow/libjpeg-turbo/rdppm.c:628
      ERREXIT(cinfo, JERR_BAD_IN_COLORSPACE);
    5783:	c7 40 28 09 00 00 00 	movl   $0x9,0x28(%rax)
    578a:	ff 10                	call   *(%rax)
/home/tenebris/Disk/Documents/RootCauseAnalysis/evaluation/test_bin/libjpeg/libjpeg_heap_buffer_overflow/libjpeg-turbo/rdppm.c:681
  if (IsExtRGB(cinfo->in_color_space))
    578c:	8b 45 3c             	mov    0x3c(%rbp),%eax
    578f:	8d 50 fa             	lea    -0x6(%rax),%edx
    5792:	83 fa 09             	cmp    $0x9,%edx
    5795:	0f 87 2f 02 00 00    	ja     59ca <start_input_ppm+0x3aa>
    579b:	0f 1f 44 00 00       	nopl   0x0(%rax,%rax,1)
/home/tenebris/Disk/Documents/RootCauseAnalysis/evaluation/test_bin/libjpeg/libjpeg_heap_buffer_overflow/libjpeg-turbo/rdppm.c:682
    cinfo->input_components = rgb_pixelsize[cinfo->in_color_space];
    57a0:	48 8d 15 d9 48 00 00 	lea    0x48d9(%rip),%rdx        # a080 <rgb_pixelsize>
    57a7:	8b 04 82             	mov    (%rdx,%rax,4),%eax
    57aa:	89 45 38             	mov    %eax,0x38(%rbp)
/home/tenebris/Disk/Documents/RootCauseAnalysis/evaluation/test_bin/libjpeg/libjpeg_heap_buffer_overflow/libjpeg-turbo/rdppm.c:689
  if (need_iobuffer) {
    57ad:	31 c9                	xor    %ecx,%ecx
    57af:	45 85 f6             	test   %r14d,%r14d
    57b2:	0f 84 60 02 00 00    	je     5a18 <start_input_ppm+0x3f8>
/home/tenebris/Disk/Documents/RootCauseAnalysis/evaluation/test_bin/libjpeg/libjpeg_heap_buffer_overflow/libjpeg-turbo/rdppm.c:691
      source->buffer_width = (size_t)w * 3 *
    57b8:	44 89 ea             	mov    %r13d,%edx
    57bb:	41 81 fc ff 00 00 00 	cmp    $0xff,%r12d
    57c2:	48 8d 04 12          	lea    (%rdx,%rdx,1),%rax
    57c6:	48 0f 47 d0          	cmova  %rax,%rdx
/home/tenebris/Disk/Documents/RootCauseAnalysis/evaluation/test_bin/libjpeg/libjpeg_heap_buffer_overflow/libjpeg-turbo/rdppm.c:690
    if (c == '6')
    57ca:	41 83 ff 36          	cmp    $0x36,%r15d
    57ce:	0f 84 58 01 00 00    	je     592c <start_input_ppm+0x30c>
/home/tenebris/Disk/Documents/RootCauseAnalysis/evaluation/test_bin/libjpeg/libjpeg_heap_buffer_overflow/libjpeg-turbo/rdppm.c:697
      (*cinfo->mem->alloc_small) ((j_common_ptr)cinfo, JPOOL_IMAGE,
    57d4:	48 8b 45 08          	mov    0x8(%rbp),%rax
    57d8:	89 4c 24 08          	mov    %ecx,0x8(%rsp)
    57dc:	be 01 00 00 00       	mov    $0x1,%esi
    57e1:	48 89 ef             	mov    %rbp,%rdi
/home/tenebris/Disk/Documents/RootCauseAnalysis/evaluation/test_bin/libjpeg/libjpeg_heap_buffer_overflow/libjpeg-turbo/rdppm.c:691
      source->buffer_width = (size_t)w * 3 *
    57e4:	48 89 53 40          	mov    %rdx,0x40(%rbx)
/home/tenebris/Disk/Documents/RootCauseAnalysis/evaluation/test_bin/libjpeg/libjpeg_heap_buffer_overflow/libjpeg-turbo/rdppm.c:697
      (*cinfo->mem->alloc_small) ((j_common_ptr)cinfo, JPOOL_IMAGE,
    57e8:	ff 10                	call   *(%rax)
    57ea:	8b 4c 24 08          	mov    0x8(%rsp),%ecx
/home/tenebris/Disk/Documents/RootCauseAnalysis/evaluation/test_bin/libjpeg/libjpeg_heap_buffer_overflow/libjpeg-turbo/rdppm.c:696
    source->iobuffer = (U_CHAR *)
    57ee:	48 89 43 30          	mov    %rax,0x30(%rbx)
/home/tenebris/Disk/Documents/RootCauseAnalysis/evaluation/test_bin/libjpeg/libjpeg_heap_buffer_overflow/libjpeg-turbo/rdppm.c:702
  if (use_raw_buffer) {
    57f2:	85 c9                	test   %ecx,%ecx
    57f4:	0f 84 24 02 00 00    	je     5a1e <start_input_ppm+0x3fe>
/home/tenebris/Disk/Documents/RootCauseAnalysis/evaluation/test_bin/libjpeg/libjpeg_heap_buffer_overflow/libjpeg-turbo/rdppm.c:705
    source->pixrow = (JSAMPROW)source->iobuffer;
    57fa:	48 8b 43 30          	mov    0x30(%rbx),%rax
    57fe:	48 89 43 38          	mov    %rax,0x38(%rbx)
/home/tenebris/Disk/Documents/RootCauseAnalysis/evaluation/test_bin/libjpeg/libjpeg_heap_buffer_overflow/libjpeg-turbo/rdppm.c:706
    source->pub.buffer = &source->pixrow;
    5802:	48 8d 43 38          	lea    0x38(%rbx),%rax
    5806:	48 89 43 20          	mov    %rax,0x20(%rbx)
/home/tenebris/Disk/Documents/RootCauseAnalysis/evaluation/test_bin/libjpeg/libjpeg_heap_buffer_overflow/libjpeg-turbo/rdppm.c:707
    source->pub.buffer_height = 1;
    580a:	c7 43 28 01 00 00 00 	movl   $0x1,0x28(%rbx)
/home/tenebris/Disk/Documents/RootCauseAnalysis/evaluation/test_bin/libjpeg/libjpeg_heap_buffer_overflow/libjpeg-turbo/rdppm.c:717
  if (need_rescale) {
    5811:	45 85 f6             	test   %r14d,%r14d
    5814:	74 61                	je     5877 <start_input_ppm+0x257>
/home/tenebris/Disk/Documents/RootCauseAnalysis/evaluation/test_bin/libjpeg/libjpeg_heap_buffer_overflow/libjpeg-turbo/rdppm.c:723
                                  (size_t)(((long)maxval + 1L) *
    5816:	45 89 e5             	mov    %r12d,%r13d
/home/tenebris/Disk/Documents/RootCauseAnalysis/evaluation/test_bin/libjpeg/libjpeg_heap_buffer_overflow/libjpeg-turbo/rdppm.c:722
      (*cinfo->mem->alloc_small) ((j_common_ptr)cinfo, JPOOL_IMAGE,
    5819:	48 8b 45 08          	mov    0x8(%rbp),%rax
    581d:	be 01 00 00 00       	mov    $0x1,%esi
    5822:	48 89 ef             	mov    %rbp,%rdi
/home/tenebris/Disk/Documents/RootCauseAnalysis/evaluation/test_bin/libjpeg/libjpeg_heap_buffer_overflow/libjpeg-turbo/rdppm.c:723
                                  (size_t)(((long)maxval + 1L) *
    5825:	4d 8d 75 01          	lea    0x1(%r13),%r14
/home/tenebris/Disk/Documents/RootCauseAnalysis/evaluation/test_bin/libjpeg/libjpeg_heap_buffer_overflow/libjpeg-turbo/rdppm.c:725
    half_maxval = maxval / 2;
    5829:	41 d1 ec             	shr    %r12d
/home/tenebris/Disk/Documents/RootCauseAnalysis/evaluation/test_bin/libjpeg/libjpeg_heap_buffer_overflow/libjpeg-turbo/rdppm.c:722
      (*cinfo->mem->alloc_small) ((j_common_ptr)cinfo, JPOOL_IMAGE,
    582c:	4c 89 f2             	mov    %r14,%rdx
    582f:	ff 10                	call   *(%rax)
/home/tenebris/Disk/Documents/RootCauseAnalysis/evaluation/test_bin/libjpeg/libjpeg_heap_buffer_overflow/libjpeg-turbo/rdppm.c:721
    source->rescale = (JSAMPLE *)
    5831:	48 89 43 48          	mov    %rax,0x48(%rbx)
/home/tenebris/Disk/Documents/RootCauseAnalysis/evaluation/test_bin/libjpeg/libjpeg_heap_buffer_overflow/libjpeg-turbo/rdppm.c:722
      (*cinfo->mem->alloc_small) ((j_common_ptr)cinfo, JPOOL_IMAGE,
    5835:	48 89 c6             	mov    %rax,%rsi
/home/tenebris/Disk/Documents/RootCauseAnalysis/evaluation/test_bin/libjpeg/libjpeg_heap_buffer_overflow/libjpeg-turbo/rdppm.c:728
      source->rescale[val] = (JSAMPLE)((val * MAXJSAMPLE + half_maxval) /
    5838:	4c 89 e0             	mov    %r12,%rax
    583b:	48 99                	cqto   
    583d:	49 f7 fd             	idiv   %r13
    5840:	88 06                	mov    %al,(%rsi)
/home/tenebris/Disk/Documents/RootCauseAnalysis/evaluation/test_bin/libjpeg/libjpeg_heap_buffer_overflow/libjpeg-turbo/rdppm.c:726
    for (val = 0; val <= (long)maxval; val++) {
    5842:	4d 85 ed             	test   %r13,%r13
    5845:	74 30                	je     5877 <start_input_ppm+0x257>
    5847:	49 8d 8c 24 ff 00 00 	lea    0xff(%r12),%rcx
    584e:	00 
    584f:	be 01 00 00 00       	mov    $0x1,%esi
    5854:	0f 1f 40 00          	nopl   0x0(%rax)
/home/tenebris/Disk/Documents/RootCauseAnalysis/evaluation/test_bin/libjpeg/libjpeg_heap_buffer_overflow/libjpeg-turbo/rdppm.c:728
      source->rescale[val] = (JSAMPLE)((val * MAXJSAMPLE + half_maxval) /
    5858:	48 89 c8             	mov    %rcx,%rax
    585b:	48 8b 7b 48          	mov    0x48(%rbx),%rdi
/home/tenebris/Disk/Documents/RootCauseAnalysis/evaluation/test_bin/libjpeg/libjpeg_heap_buffer_overflow/libjpeg-turbo/rdppm.c:726
    for (val = 0; val <= (long)maxval; val++) {
    585f:	48 81 c1 ff 00 00 00 	add    $0xff,%rcx
/home/tenebris/Disk/Documents/RootCauseAnalysis/evaluation/test_bin/libjpeg/libjpeg_heap_buffer_overflow/libjpeg-turbo/rdppm.c:728
      source->rescale[val] = (JSAMPLE)((val * MAXJSAMPLE + half_maxval) /
    5866:	48 99                	cqto   
    5868:	49 f7 fd             	idiv   %r13
    586b:	88 04 37             	mov    %al,(%rdi,%rsi,1)
/home/tenebris/Disk/Documents/RootCauseAnalysis/evaluation/test_bin/libjpeg/libjpeg_heap_buffer_overflow/libjpeg-turbo/rdppm.c:726
    for (val = 0; val <= (long)maxval; val++) {
    586e:	48 83 c6 01          	add    $0x1,%rsi
    5872:	49 39 f6             	cmp    %rsi,%r14
    5875:	75 e1                	jne    5858 <start_input_ppm+0x238>
/home/tenebris/Disk/Documents/RootCauseAnalysis/evaluation/test_bin/libjpeg/libjpeg_heap_buffer_overflow/libjpeg-turbo/rdppm.c:732
}
    5877:	48 83 c4 18          	add    $0x18,%rsp
    587b:	5b                   	pop    %rbx
    587c:	5d                   	pop    %rbp
    587d:	41 5c                	pop    %r12
    587f:	41 5d                	pop    %r13
    5881:	41 5e                	pop    %r14
    5883:	41 5f                	pop    %r15
    5885:	c3                   	ret    
    5886:	66 2e 0f 1f 84 00 00 	cs nopw 0x0(%rax,%rax,1)
    588d:	00 00 00 
/home/tenebris/Disk/Documents/RootCauseAnalysis/evaluation/test_bin/libjpeg/libjpeg_heap_buffer_overflow/libjpeg-turbo/rdppm.c:574
  switch (c) {
    5890:	8d 40 cb             	lea    -0x35(%rax),%eax
    5893:	83 f8 01             	cmp    $0x1,%eax
    5896:	0f 86 e4 fd ff ff    	jbe    5680 <start_input_ppm+0x60>
    589c:	e9 cf fd ff ff       	jmp    5670 <start_input_ppm+0x50>
    58a1:	0f 1f 80 00 00 00 00 	nopl   0x0(%rax)
/home/tenebris/Disk/Documents/RootCauseAnalysis/evaluation/test_bin/libjpeg/libjpeg_heap_buffer_overflow/libjpeg-turbo/rdppm.c:603
  switch (c) {
    58a8:	41 83 ff 36          	cmp    $0x36,%r15d
    58ac:	0f 85 06 01 00 00    	jne    59b8 <start_input_ppm+0x398>
/home/tenebris/Disk/Documents/RootCauseAnalysis/evaluation/test_bin/libjpeg/libjpeg_heap_buffer_overflow/libjpeg-turbo/rdppm.c:656
    if (cinfo->in_color_space == JCS_UNKNOWN)
    58b2:	85 c0                	test   %eax,%eax
    58b4:	75 07                	jne    58bd <start_input_ppm+0x29d>
/home/tenebris/Disk/Documents/RootCauseAnalysis/evaluation/test_bin/libjpeg/libjpeg_heap_buffer_overflow/libjpeg-turbo/rdppm.c:657
      cinfo->in_color_space = JCS_EXT_RGB;
    58b6:	c7 45 3c 06 00 00 00 	movl   $0x6,0x3c(%rbp)
/home/tenebris/Disk/Documents/RootCauseAnalysis/evaluation/test_bin/libjpeg/libjpeg_heap_buffer_overflow/libjpeg-turbo/rdppm.c:658
    TRACEMS2(cinfo, 1, JTRC_PPM, w, h);
    58bd:	48 8b 45 00          	mov    0x0(%rbp),%rax
    58c1:	be 01 00 00 00       	mov    $0x1,%esi
    58c6:	48 89 ef             	mov    %rbp,%rdi
    58c9:	c7 40 28 08 04 00 00 	movl   $0x408,0x28(%rax)
    58d0:	44 89 68 2c          	mov    %r13d,0x2c(%rax)
    58d4:	44 89 70 30          	mov    %r14d,0x30(%rax)
    58d8:	ff 50 08             	call   *0x8(%rax)
/home/tenebris/Disk/Documents/RootCauseAnalysis/evaluation/test_bin/libjpeg/libjpeg_heap_buffer_overflow/libjpeg-turbo/rdppm.c:659
    if (maxval > 255) {
    58db:	41 81 fc ff 00 00 00 	cmp    $0xff,%r12d
    58e2:	0f 87 c0 01 00 00    	ja     5aa8 <start_input_ppm+0x488>
/home/tenebris/Disk/Documents/RootCauseAnalysis/evaluation/test_bin/libjpeg/libjpeg_heap_buffer_overflow/libjpeg-turbo/rdppm.c:662
               (cinfo->in_color_space == JCS_EXT_RGB
    58e8:	8b 45 3c             	mov    0x3c(%rbp),%eax
/home/tenebris/Disk/Documents/RootCauseAnalysis/evaluation/test_bin/libjpeg/libjpeg_heap_buffer_overflow/libjpeg-turbo/rdppm.c:661
    } else if (maxval == MAXJSAMPLE && sizeof(JSAMPLE) == sizeof(U_CHAR) &&
    58eb:	0f 84 9c 02 00 00    	je     5b8d <start_input_ppm+0x56d>
/home/tenebris/Disk/Documents/RootCauseAnalysis/evaluation/test_bin/libjpeg/libjpeg_heap_buffer_overflow/libjpeg-turbo/rdppm.c:671
      if (IsExtRGB(cinfo->in_color_space))
    58f1:	8d 50 fa             	lea    -0x6(%rax),%edx
    58f4:	83 fa 09             	cmp    $0x9,%edx
    58f7:	0f 86 51 02 00 00    	jbe    5b4e <start_input_ppm+0x52e>
    58fd:	83 f8 02             	cmp    $0x2,%eax
    5900:	0f 84 48 02 00 00    	je     5b4e <start_input_ppm+0x52e>
/home/tenebris/Disk/Documents/RootCauseAnalysis/evaluation/test_bin/libjpeg/libjpeg_heap_buffer_overflow/libjpeg-turbo/rdppm.c:673
      else if (cinfo->in_color_space == JCS_CMYK)
    5906:	83 f8 04             	cmp    $0x4,%eax
    5909:	0f 85 8f 00 00 00    	jne    599e <start_input_ppm+0x37e>
/home/tenebris/Disk/Documents/RootCauseAnalysis/evaluation/test_bin/libjpeg/libjpeg_heap_buffer_overflow/libjpeg-turbo/rdppm.c:613
      source->pub.get_pixel_rows = get_text_gray_cmyk_row;
    590f:	48 8d 05 1a eb ff ff 	lea    -0x14e6(%rip),%rax        # 4430 <get_rgb_cmyk_row>
    5916:	48 89 43 08          	mov    %rax,0x8(%rbx)
/home/tenebris/Disk/Documents/RootCauseAnalysis/evaluation/test_bin/libjpeg/libjpeg_heap_buffer_overflow/libjpeg-turbo/rdppm.c:686
    cinfo->input_components = 4;
    591a:	c7 45 38 04 00 00 00 	movl   $0x4,0x38(%rbp)
/home/tenebris/Disk/Documents/RootCauseAnalysis/evaluation/test_bin/libjpeg/libjpeg_heap_buffer_overflow/libjpeg-turbo/rdppm.c:691
      source->buffer_width = (size_t)w * 3 *
    5921:	44 89 ea             	mov    %r13d,%edx
    5924:	31 c9                	xor    %ecx,%ecx
    5926:	41 be 01 00 00 00    	mov    $0x1,%r14d
    592c:	48 8d 14 52          	lea    (%rdx,%rdx,2),%rdx
    5930:	e9 9f fe ff ff       	jmp    57d4 <start_input_ppm+0x1b4>
    5935:	0f 1f 00             	nopl   (%rax)
/home/tenebris/Disk/Documents/RootCauseAnalysis/evaluation/test_bin/libjpeg/libjpeg_heap_buffer_overflow/libjpeg-turbo/rdppm.c:633
    if (cinfo->in_color_space == JCS_UNKNOWN)
    5938:	85 c0                	test   %eax,%eax
    593a:	75 07                	jne    5943 <start_input_ppm+0x323>
/home/tenebris/Disk/Documents/RootCauseAnalysis/evaluation/test_bin/libjpeg/libjpeg_heap_buffer_overflow/libjpeg-turbo/rdppm.c:634
      cinfo->in_color_space = JCS_GRAYSCALE;
    593c:	c7 45 3c 01 00 00 00 	movl   $0x1,0x3c(%rbp)
/home/tenebris/Disk/Documents/RootCauseAnalysis/evaluation/test_bin/libjpeg/libjpeg_heap_buffer_overflow/libjpeg-turbo/rdppm.c:635
    TRACEMS2(cinfo, 1, JTRC_PGM, w, h);
    5943:	48 8b 45 00          	mov    0x0(%rbp),%rax
    5947:	be 01 00 00 00       	mov    $0x1,%esi
    594c:	48 89 ef             	mov    %rbp,%rdi
    594f:	c7 40 28 06 04 00 00 	movl   $0x406,0x28(%rax)
    5956:	44 89 68 2c          	mov    %r13d,0x2c(%rax)
    595a:	44 89 70 30          	mov    %r14d,0x30(%rax)
    595e:	ff 50 08             	call   *0x8(%rax)
/home/tenebris/Disk/Documents/RootCauseAnalysis/evaluation/test_bin/libjpeg/libjpeg_heap_buffer_overflow/libjpeg-turbo/rdppm.c:636
    if (maxval > 255) {
    5961:	41 81 fc ff 00 00 00 	cmp    $0xff,%r12d
    5968:	0f 87 5a 01 00 00    	ja     5ac8 <start_input_ppm+0x4a8>
/home/tenebris/Disk/Documents/RootCauseAnalysis/evaluation/test_bin/libjpeg/libjpeg_heap_buffer_overflow/libjpeg-turbo/rdppm.c:639
               cinfo->in_color_space == JCS_GRAYSCALE) {
    596e:	8b 45 3c             	mov    0x3c(%rbp),%eax
/home/tenebris/Disk/Documents/RootCauseAnalysis/evaluation/test_bin/libjpeg/libjpeg_heap_buffer_overflow/libjpeg-turbo/rdppm.c:638
    } else if (maxval == MAXJSAMPLE && sizeof(JSAMPLE) == sizeof(U_CHAR) &&
    5971:	0f 84 6d 02 00 00    	je     5be4 <start_input_ppm+0x5c4>
/home/tenebris/Disk/Documents/RootCauseAnalysis/evaluation/test_bin/libjpeg/libjpeg_heap_buffer_overflow/libjpeg-turbo/rdppm.c:644
      if (cinfo->in_color_space == JCS_GRAYSCALE)
    5977:	83 f8 01             	cmp    $0x1,%eax
    597a:	0f 84 ac 01 00 00    	je     5b2c <start_input_ppm+0x50c>
/home/tenebris/Disk/Documents/RootCauseAnalysis/evaluation/test_bin/libjpeg/libjpeg_heap_buffer_overflow/libjpeg-turbo/rdppm.c:646
      else if (IsExtRGB(cinfo->in_color_space))
    5980:	8d 50 fa             	lea    -0x6(%rax),%edx
    5983:	83 fa 09             	cmp    $0x9,%edx
    5986:	0f 86 df 01 00 00    	jbe    5b6b <start_input_ppm+0x54b>
    598c:	83 f8 02             	cmp    $0x2,%eax
    598f:	0f 84 d6 01 00 00    	je     5b6b <start_input_ppm+0x54b>
/home/tenebris/Disk/Documents/RootCauseAnalysis/evaluation/test_bin/libjpeg/libjpeg_heap_buffer_overflow/libjpeg-turbo/rdppm.c:648
      else if (cinfo->in_color_space == JCS_CMYK)
    5995:	83 f8 04             	cmp    $0x4,%eax
    5998:	0f 84 87 02 00 00    	je     5c25 <start_input_ppm+0x605>
/home/tenebris/Disk/Documents/RootCauseAnalysis/evaluation/test_bin/libjpeg/libjpeg_heap_buffer_overflow/libjpeg-turbo/rdppm.c:676
        ERREXIT(cinfo, JERR_BAD_IN_COLORSPACE);
    599e:	48 8b 45 00          	mov    0x0(%rbp),%rax
    59a2:	48 89 ef             	mov    %rbp,%rdi
    59a5:	c7 40 28 09 00 00 00 	movl   $0x9,0x28(%rax)
    59ac:	ff 10                	call   *(%rax)
/home/tenebris/Disk/Documents/RootCauseAnalysis/evaluation/test_bin/libjpeg/libjpeg_heap_buffer_overflow/libjpeg-turbo/rdppm.c:681
  if (IsExtRGB(cinfo->in_color_space))
    59ae:	8b 45 3c             	mov    0x3c(%rbp),%eax
    59b1:	0f 1f 80 00 00 00 00 	nopl   0x0(%rax)
/home/tenebris/Disk/Documents/RootCauseAnalysis/evaluation/test_bin/libjpeg/libjpeg_heap_buffer_overflow/libjpeg-turbo/rdppm.c:599
  need_iobuffer = TRUE;         /* do we need an I/O buffer? */
    59b8:	41 be 01 00 00 00    	mov    $0x1,%r14d
/home/tenebris/Disk/Documents/RootCauseAnalysis/evaluation/test_bin/libjpeg/libjpeg_heap_buffer_overflow/libjpeg-turbo/rdppm.c:681
  if (IsExtRGB(cinfo->in_color_space))
    59be:	8d 50 fa             	lea    -0x6(%rax),%edx
    59c1:	83 fa 09             	cmp    $0x9,%edx
    59c4:	0f 86 d6 fd ff ff    	jbe    57a0 <start_input_ppm+0x180>
    59ca:	83 f8 02             	cmp    $0x2,%eax
    59cd:	0f 84 cd fd ff ff    	je     57a0 <start_input_ppm+0x180>
/home/tenebris/Disk/Documents/RootCauseAnalysis/evaluation/test_bin/libjpeg/libjpeg_heap_buffer_overflow/libjpeg-turbo/rdppm.c:683
  else if (cinfo->in_color_space == JCS_GRAYSCALE)
    59d3:	83 f8 01             	cmp    $0x1,%eax
    59d6:	0f 84 44 01 00 00    	je     5b20 <start_input_ppm+0x500>
/home/tenebris/Disk/Documents/RootCauseAnalysis/evaluation/test_bin/libjpeg/libjpeg_heap_buffer_overflow/libjpeg-turbo/rdppm.c:685
  else if (cinfo->in_color_space == JCS_CMYK)
    59dc:	ba 01 00 00 00       	mov    $0x1,%edx
    59e1:	31 c9                	xor    %ecx,%ecx
    59e3:	83 f8 04             	cmp    $0x4,%eax
    59e6:	0f 84 2d 02 00 00    	je     5c19 <start_input_ppm+0x5f9>
/home/tenebris/Disk/Documents/RootCauseAnalysis/evaluation/test_bin/libjpeg/libjpeg_heap_buffer_overflow/libjpeg-turbo/rdppm.c:689
  if (need_iobuffer) {
    59ec:	45 85 f6             	test   %r14d,%r14d
    59ef:	41 89 d6             	mov    %edx,%r14d
    59f2:	0f 85 c0 fd ff ff    	jne    57b8 <start_input_ppm+0x198>
    59f8:	e9 f5 fd ff ff       	jmp    57f2 <start_input_ppm+0x1d2>
    59fd:	0f 1f 00             	nopl   (%rax)
/home/tenebris/Disk/Documents/RootCauseAnalysis/evaluation/test_bin/libjpeg/libjpeg_heap_buffer_overflow/libjpeg-turbo/rdppm.c:682
    cinfo->input_components = rgb_pixelsize[cinfo->in_color_space];
    5a00:	48 8d 15 79 46 00 00 	lea    0x4679(%rip),%rdx        # a080 <rgb_pixelsize>
/home/tenebris/Disk/Documents/RootCauseAnalysis/evaluation/test_bin/libjpeg/libjpeg_heap_buffer_overflow/libjpeg-turbo/rdppm.c:624
      source->pub.get_pixel_rows = get_text_rgb_row;
    5a07:	48 8d 0d 22 f4 ff ff 	lea    -0xbde(%rip),%rcx        # 4e30 <get_text_rgb_row>
/home/tenebris/Disk/Documents/RootCauseAnalysis/evaluation/test_bin/libjpeg/libjpeg_heap_buffer_overflow/libjpeg-turbo/rdppm.c:682
    cinfo->input_components = rgb_pixelsize[cinfo->in_color_space];
    5a0e:	8b 04 82             	mov    (%rdx,%rax,4),%eax
/home/tenebris/Disk/Documents/RootCauseAnalysis/evaluation/test_bin/libjpeg/libjpeg_heap_buffer_overflow/libjpeg-turbo/rdppm.c:624
      source->pub.get_pixel_rows = get_text_rgb_row;
    5a11:	48 89 4b 08          	mov    %rcx,0x8(%rbx)
/home/tenebris/Disk/Documents/RootCauseAnalysis/evaluation/test_bin/libjpeg/libjpeg_heap_buffer_overflow/libjpeg-turbo/rdppm.c:682
    cinfo->input_components = rgb_pixelsize[cinfo->in_color_space];
    5a15:	89 45 38             	mov    %eax,0x38(%rbp)
/home/tenebris/Disk/Documents/RootCauseAnalysis/evaluation/test_bin/libjpeg/libjpeg_heap_buffer_overflow/libjpeg-turbo/rdppm.c:689
  if (need_iobuffer) {
    5a18:	41 be 01 00 00 00    	mov    $0x1,%r14d
/home/tenebris/Disk/Documents/RootCauseAnalysis/evaluation/test_bin/libjpeg/libjpeg_heap_buffer_overflow/libjpeg-turbo/rdppm.c:710
    source->pub.buffer = (*cinfo->mem->alloc_sarray)
    5a1e:	8b 55 38             	mov    0x38(%rbp),%edx
    5a21:	48 8b 45 08          	mov    0x8(%rbp),%rax
    5a25:	b9 01 00 00 00       	mov    $0x1,%ecx
    5a2a:	48 89 ef             	mov    %rbp,%rdi
    5a2d:	be 01 00 00 00       	mov    $0x1,%esi
    5a32:	41 0f af d5          	imul   %r13d,%edx
    5a36:	ff 50 10             	call   *0x10(%rax)
/home/tenebris/Disk/Documents/RootCauseAnalysis/evaluation/test_bin/libjpeg/libjpeg_heap_buffer_overflow/libjpeg-turbo/rdppm.c:713
    source->pub.buffer_height = 1;
    5a39:	e9 c8 fd ff ff       	jmp    5806 <start_input_ppm+0x1e6>
    5a3e:	66 90                	xchg   %ax,%ax
/home/tenebris/Disk/Documents/RootCauseAnalysis/evaluation/test_bin/libjpeg/libjpeg_heap_buffer_overflow/libjpeg-turbo/rdppm.c:605
    if (cinfo->in_color_space == JCS_UNKNOWN)
    5a40:	85 c0                	test   %eax,%eax
    5a42:	75 07                	jne    5a4b <start_input_ppm+0x42b>
/home/tenebris/Disk/Documents/RootCauseAnalysis/evaluation/test_bin/libjpeg/libjpeg_heap_buffer_overflow/libjpeg-turbo/rdppm.c:606
      cinfo->in_color_space = JCS_GRAYSCALE;
    5a44:	c7 45 3c 01 00 00 00 	movl   $0x1,0x3c(%rbp)
/home/tenebris/Disk/Documents/RootCauseAnalysis/evaluation/test_bin/libjpeg/libjpeg_heap_buffer_overflow/libjpeg-turbo/rdppm.c:607
    TRACEMS2(cinfo, 1, JTRC_PGM_TEXT, w, h);
    5a4b:	48 8b 45 00          	mov    0x0(%rbp),%rax
    5a4f:	be 01 00 00 00       	mov    $0x1,%esi
    5a54:	48 89 ef             	mov    %rbp,%rdi
    5a57:	c7 40 28 07 04 00 00 	movl   $0x407,0x28(%rax)
    5a5e:	44 89 68 2c          	mov    %r13d,0x2c(%rax)
    5a62:	44 89 70 30          	mov    %r14d,0x30(%rax)
    5a66:	ff 50 08             	call   *0x8(%rax)
/home/tenebris/Disk/Documents/RootCauseAnalysis/evaluation/test_bin/libjpeg/libjpeg_heap_buffer_overflow/libjpeg-turbo/rdppm.c:608
    if (cinfo->in_color_space == JCS_GRAYSCALE)
    5a69:	8b 45 3c             	mov    0x3c(%rbp),%eax
    5a6c:	83 f8 01             	cmp    $0x1,%eax
    5a6f:	74 77                	je     5ae8 <start_input_ppm+0x4c8>
/home/tenebris/Disk/Documents/RootCauseAnalysis/evaluation/test_bin/libjpeg/libjpeg_heap_buffer_overflow/libjpeg-turbo/rdppm.c:610
    else if (IsExtRGB(cinfo->in_color_space))
    5a71:	8d 50 fa             	lea    -0x6(%rax),%edx
    5a74:	83 fa 09             	cmp    $0x9,%edx
    5a77:	0f 86 83 00 00 00    	jbe    5b00 <start_input_ppm+0x4e0>
    5a7d:	83 f8 02             	cmp    $0x2,%eax
    5a80:	74 7e                	je     5b00 <start_input_ppm+0x4e0>
/home/tenebris/Disk/Documents/RootCauseAnalysis/evaluation/test_bin/libjpeg/libjpeg_heap_buffer_overflow/libjpeg-turbo/rdppm.c:612
    else if (cinfo->in_color_space == JCS_CMYK)
    5a82:	83 f8 04             	cmp    $0x4,%eax
    5a85:	0f 85 ee fc ff ff    	jne    5779 <start_input_ppm+0x159>
/home/tenebris/Disk/Documents/RootCauseAnalysis/evaluation/test_bin/libjpeg/libjpeg_heap_buffer_overflow/libjpeg-turbo/rdppm.c:613
      source->pub.get_pixel_rows = get_text_gray_cmyk_row;
    5a8b:	48 8d 05 9e f6 ff ff 	lea    -0x962(%rip),%rax        # 5130 <get_text_gray_cmyk_row>
    5a92:	48 89 43 08          	mov    %rax,0x8(%rbx)
/home/tenebris/Disk/Documents/RootCauseAnalysis/evaluation/test_bin/libjpeg/libjpeg_heap_buffer_overflow/libjpeg-turbo/rdppm.c:686
    cinfo->input_components = 4;
    5a96:	c7 45 38 04 00 00 00 	movl   $0x4,0x38(%rbp)
/home/tenebris/Disk/Documents/RootCauseAnalysis/evaluation/test_bin/libjpeg/libjpeg_heap_buffer_overflow/libjpeg-turbo/rdppm.c:689
  if (need_iobuffer) {
    5a9d:	e9 76 ff ff ff       	jmp    5a18 <start_input_ppm+0x3f8>
    5aa2:	66 0f 1f 44 00 00    	nopw   0x0(%rax,%rax,1)
/home/tenebris/Disk/Documents/RootCauseAnalysis/evaluation/test_bin/libjpeg/libjpeg_heap_buffer_overflow/libjpeg-turbo/rdppm.c:660
      source->pub.get_pixel_rows = get_word_rgb_row;
    5aa8:	48 8d 05 61 ed ff ff 	lea    -0x129f(%rip),%rax        # 4810 <get_word_rgb_row>
/home/tenebris/Disk/Documents/RootCauseAnalysis/evaluation/test_bin/libjpeg/libjpeg_heap_buffer_overflow/libjpeg-turbo/rdppm.c:599
  need_iobuffer = TRUE;         /* do we need an I/O buffer? */
    5aaf:	41 be 01 00 00 00    	mov    $0x1,%r14d
/home/tenebris/Disk/Documents/RootCauseAnalysis/evaluation/test_bin/libjpeg/libjpeg_heap_buffer_overflow/libjpeg-turbo/rdppm.c:660
      source->pub.get_pixel_rows = get_word_rgb_row;
    5ab5:	48 89 43 08          	mov    %rax,0x8(%rbx)
/home/tenebris/Disk/Documents/RootCauseAnalysis/evaluation/test_bin/libjpeg/libjpeg_heap_buffer_overflow/libjpeg-turbo/rdppm.c:662
               (cinfo->in_color_space == JCS_EXT_RGB
    5ab9:	8b 45 3c             	mov    0x3c(%rbp),%eax
    5abc:	e9 fd fe ff ff       	jmp    59be <start_input_ppm+0x39e>
    5ac1:	0f 1f 80 00 00 00 00 	nopl   0x0(%rax)
/home/tenebris/Disk/Documents/RootCauseAnalysis/evaluation/test_bin/libjpeg/libjpeg_heap_buffer_overflow/libjpeg-turbo/rdppm.c:637
      source->pub.get_pixel_rows = get_word_gray_row;
    5ac8:	48 8d 05 81 ec ff ff 	lea    -0x137f(%rip),%rax        # 4750 <get_word_gray_row>
/home/tenebris/Disk/Documents/RootCauseAnalysis/evaluation/test_bin/libjpeg/libjpeg_heap_buffer_overflow/libjpeg-turbo/rdppm.c:599
  need_iobuffer = TRUE;         /* do we need an I/O buffer? */
    5acf:	41 be 01 00 00 00    	mov    $0x1,%r14d
/home/tenebris/Disk/Documents/RootCauseAnalysis/evaluation/test_bin/libjpeg/libjpeg_heap_buffer_overflow/libjpeg-turbo/rdppm.c:637
      source->pub.get_pixel_rows = get_word_gray_row;
    5ad5:	48 89 43 08          	mov    %rax,0x8(%rbx)
/home/tenebris/Disk/Documents/RootCauseAnalysis/evaluation/test_bin/libjpeg/libjpeg_heap_buffer_overflow/libjpeg-turbo/rdppm.c:639
               cinfo->in_color_space == JCS_GRAYSCALE) {
    5ad9:	8b 45 3c             	mov    0x3c(%rbp),%eax
    5adc:	e9 dd fe ff ff       	jmp    59be <start_input_ppm+0x39e>
    5ae1:	0f 1f 80 00 00 00 00 	nopl   0x0(%rax)
/home/tenebris/Disk/Documents/RootCauseAnalysis/evaluation/test_bin/libjpeg/libjpeg_heap_buffer_overflow/libjpeg-turbo/rdppm.c:609
      source->pub.get_pixel_rows = get_text_gray_row;
    5ae8:	48 8d 05 c1 fa ff ff 	lea    -0x53f(%rip),%rax        # 55b0 <get_text_gray_row>
    5aef:	48 89 43 08          	mov    %rax,0x8(%rbx)
/home/tenebris/Disk/Documents/RootCauseAnalysis/evaluation/test_bin/libjpeg/libjpeg_heap_buffer_overflow/libjpeg-turbo/rdppm.c:684
    cinfo->input_components = 1;
    5af3:	c7 45 38 01 00 00 00 	movl   $0x1,0x38(%rbp)
/home/tenebris/Disk/Documents/RootCauseAnalysis/evaluation/test_bin/libjpeg/libjpeg_heap_buffer_overflow/libjpeg-turbo/rdppm.c:702
  if (use_raw_buffer) {
    5afa:	e9 19 ff ff ff       	jmp    5a18 <start_input_ppm+0x3f8>
    5aff:	90                   	nop
/home/tenebris/Disk/Documents/RootCauseAnalysis/evaluation/test_bin/libjpeg/libjpeg_heap_buffer_overflow/libjpeg-turbo/rdppm.c:682
    cinfo->input_components = rgb_pixelsize[cinfo->in_color_space];
    5b00:	48 8d 15 79 45 00 00 	lea    0x4579(%rip),%rdx        # a080 <rgb_pixelsize>
/home/tenebris/Disk/Documents/RootCauseAnalysis/evaluation/test_bin/libjpeg/libjpeg_heap_buffer_overflow/libjpeg-turbo/rdppm.c:624
      source->pub.get_pixel_rows = get_text_rgb_row;
    5b07:	48 8d 0d 62 f8 ff ff 	lea    -0x79e(%rip),%rcx        # 5370 <get_text_gray_rgb_row>
/home/tenebris/Disk/Documents/RootCauseAnalysis/evaluation/test_bin/libjpeg/libjpeg_heap_buffer_overflow/libjpeg-turbo/rdppm.c:682
    cinfo->input_components = rgb_pixelsize[cinfo->in_color_space];
    5b0e:	8b 04 82             	mov    (%rdx,%rax,4),%eax
/home/tenebris/Disk/Documents/RootCauseAnalysis/evaluation/test_bin/libjpeg/libjpeg_heap_buffer_overflow/libjpeg-turbo/rdppm.c:624
      source->pub.get_pixel_rows = get_text_rgb_row;
    5b11:	48 89 4b 08          	mov    %rcx,0x8(%rbx)
/home/tenebris/Disk/Documents/RootCauseAnalysis/evaluation/test_bin/libjpeg/libjpeg_heap_buffer_overflow/libjpeg-turbo/rdppm.c:682
    cinfo->input_components = rgb_pixelsize[cinfo->in_color_space];
    5b15:	89 45 38             	mov    %eax,0x38(%rbp)
/home/tenebris/Disk/Documents/RootCauseAnalysis/evaluation/test_bin/libjpeg/libjpeg_heap_buffer_overflow/libjpeg-turbo/rdppm.c:689
  if (need_iobuffer) {
    5b18:	e9 fb fe ff ff       	jmp    5a18 <start_input_ppm+0x3f8>
    5b1d:	0f 1f 00             	nopl   (%rax)
/home/tenebris/Disk/Documents/RootCauseAnalysis/evaluation/test_bin/libjpeg/libjpeg_heap_buffer_overflow/libjpeg-turbo/rdppm.c:684
    cinfo->input_components = 1;
    5b20:	c7 45 38 01 00 00 00 	movl   $0x1,0x38(%rbp)
    5b27:	e9 81 fc ff ff       	jmp    57ad <start_input_ppm+0x18d>
/home/tenebris/Disk/Documents/RootCauseAnalysis/evaluation/test_bin/libjpeg/libjpeg_heap_buffer_overflow/libjpeg-turbo/rdppm.c:609
      source->pub.get_pixel_rows = get_text_gray_row;
    5b2c:	48 8d 05 dd df ff ff 	lea    -0x2023(%rip),%rax        # 3b10 <get_scaled_gray_row>
/home/tenebris/Disk/Documents/RootCauseAnalysis/evaluation/test_bin/libjpeg/libjpeg_heap_buffer_overflow/libjpeg-turbo/rdppm.c:600
  use_raw_buffer = FALSE;       /* do we map input buffer onto I/O buffer? */
    5b33:	31 c9                	xor    %ecx,%ecx
/home/tenebris/Disk/Documents/RootCauseAnalysis/evaluation/test_bin/libjpeg/libjpeg_heap_buffer_overflow/libjpeg-turbo/rdppm.c:601
  need_rescale = TRUE;          /* do we need a rescale array? */
    5b35:	41 be 01 00 00 00    	mov    $0x1,%r14d
/home/tenebris/Disk/Documents/RootCauseAnalysis/evaluation/test_bin/libjpeg/libjpeg_heap_buffer_overflow/libjpeg-turbo/rdppm.c:609
      source->pub.get_pixel_rows = get_text_gray_row;
    5b3b:	48 89 43 08          	mov    %rax,0x8(%rbx)
/home/tenebris/Disk/Documents/RootCauseAnalysis/evaluation/test_bin/libjpeg/libjpeg_heap_buffer_overflow/libjpeg-turbo/rdppm.c:684
    cinfo->input_components = 1;
    5b3f:	c7 45 38 01 00 00 00 	movl   $0x1,0x38(%rbp)
/home/tenebris/Disk/Documents/RootCauseAnalysis/evaluation/test_bin/libjpeg/libjpeg_heap_buffer_overflow/libjpeg-turbo/rdppm.c:691
      source->buffer_width = (size_t)w * 3 *
    5b46:	44 89 ea             	mov    %r13d,%edx
/home/tenebris/Disk/Documents/RootCauseAnalysis/evaluation/test_bin/libjpeg/libjpeg_heap_buffer_overflow/libjpeg-turbo/rdppm.c:694
      source->buffer_width = (size_t)w *
    5b49:	e9 86 fc ff ff       	jmp    57d4 <start_input_ppm+0x1b4>
/home/tenebris/Disk/Documents/RootCauseAnalysis/evaluation/test_bin/libjpeg/libjpeg_heap_buffer_overflow/libjpeg-turbo/rdppm.c:682
    cinfo->input_components = rgb_pixelsize[cinfo->in_color_space];
    5b4e:	48 8d 15 2b 45 00 00 	lea    0x452b(%rip),%rdx        # a080 <rgb_pixelsize>
/home/tenebris/Disk/Documents/RootCauseAnalysis/evaluation/test_bin/libjpeg/libjpeg_heap_buffer_overflow/libjpeg-turbo/rdppm.c:624
      source->pub.get_pixel_rows = get_text_rgb_row;
    5b55:	48 8d 0d 44 e5 ff ff 	lea    -0x1abc(%rip),%rcx        # 40a0 <get_rgb_row>
/home/tenebris/Disk/Documents/RootCauseAnalysis/evaluation/test_bin/libjpeg/libjpeg_heap_buffer_overflow/libjpeg-turbo/rdppm.c:682
    cinfo->input_components = rgb_pixelsize[cinfo->in_color_space];
    5b5c:	8b 04 82             	mov    (%rdx,%rax,4),%eax
/home/tenebris/Disk/Documents/RootCauseAnalysis/evaluation/test_bin/libjpeg/libjpeg_heap_buffer_overflow/libjpeg-turbo/rdppm.c:624
      source->pub.get_pixel_rows = get_text_rgb_row;
    5b5f:	48 89 4b 08          	mov    %rcx,0x8(%rbx)
/home/tenebris/Disk/Documents/RootCauseAnalysis/evaluation/test_bin/libjpeg/libjpeg_heap_buffer_overflow/libjpeg-turbo/rdppm.c:682
    cinfo->input_components = rgb_pixelsize[cinfo->in_color_space];
    5b63:	89 45 38             	mov    %eax,0x38(%rbp)
/home/tenebris/Disk/Documents/RootCauseAnalysis/evaluation/test_bin/libjpeg/libjpeg_heap_buffer_overflow/libjpeg-turbo/rdppm.c:689
  if (need_iobuffer) {
    5b66:	e9 b6 fd ff ff       	jmp    5921 <start_input_ppm+0x301>
/home/tenebris/Disk/Documents/RootCauseAnalysis/evaluation/test_bin/libjpeg/libjpeg_heap_buffer_overflow/libjpeg-turbo/rdppm.c:682
    cinfo->input_components = rgb_pixelsize[cinfo->in_color_space];
    5b6b:	48 8d 15 0e 45 00 00 	lea    0x450e(%rip),%rdx        # a080 <rgb_pixelsize>
/home/tenebris/Disk/Documents/RootCauseAnalysis/evaluation/test_bin/libjpeg/libjpeg_heap_buffer_overflow/libjpeg-turbo/rdppm.c:624
      source->pub.get_pixel_rows = get_text_rgb_row;
    5b72:	48 8d 0d 17 e0 ff ff 	lea    -0x1fe9(%rip),%rcx        # 3b90 <get_gray_rgb_row>
/home/tenebris/Disk/Documents/RootCauseAnalysis/evaluation/test_bin/libjpeg/libjpeg_heap_buffer_overflow/libjpeg-turbo/rdppm.c:682
    cinfo->input_components = rgb_pixelsize[cinfo->in_color_space];
    5b79:	41 be 01 00 00 00    	mov    $0x1,%r14d
    5b7f:	8b 04 82             	mov    (%rdx,%rax,4),%eax
/home/tenebris/Disk/Documents/RootCauseAnalysis/evaluation/test_bin/libjpeg/libjpeg_heap_buffer_overflow/libjpeg-turbo/rdppm.c:624
      source->pub.get_pixel_rows = get_text_rgb_row;
    5b82:	48 89 4b 08          	mov    %rcx,0x8(%rbx)
/home/tenebris/Disk/Documents/RootCauseAnalysis/evaluation/test_bin/libjpeg/libjpeg_heap_buffer_overflow/libjpeg-turbo/rdppm.c:682
    cinfo->input_components = rgb_pixelsize[cinfo->in_color_space];
    5b86:	31 c9                	xor    %ecx,%ecx
    5b88:	89 45 38             	mov    %eax,0x38(%rbp)
/home/tenebris/Disk/Documents/RootCauseAnalysis/evaluation/test_bin/libjpeg/libjpeg_heap_buffer_overflow/libjpeg-turbo/rdppm.c:689
  if (need_iobuffer) {
    5b8b:	eb b9                	jmp    5b46 <start_input_ppm+0x526>
/home/tenebris/Disk/Documents/RootCauseAnalysis/evaluation/test_bin/libjpeg/libjpeg_heap_buffer_overflow/libjpeg-turbo/rdppm.c:664 (discriminator 1)
                || cinfo->in_color_space == JCS_RGB
    5b8d:	89 c2                	mov    %eax,%edx
    5b8f:	83 e2 fb             	and    $0xfffffffb,%edx
/home/tenebris/Disk/Documents/RootCauseAnalysis/evaluation/test_bin/libjpeg/libjpeg_heap_buffer_overflow/libjpeg-turbo/rdppm.c:661 (discriminator 1)
    } else if (maxval == MAXJSAMPLE && sizeof(JSAMPLE) == sizeof(U_CHAR) &&
    5b92:	83 fa 02             	cmp    $0x2,%edx
    5b95:	0f 85 56 fd ff ff    	jne    58f1 <start_input_ppm+0x2d1>
/home/tenebris/Disk/Documents/RootCauseAnalysis/evaluation/test_bin/libjpeg/libjpeg_heap_buffer_overflow/libjpeg-turbo/rdppm.c:667
      source->pub.get_pixel_rows = get_raw_row;
    5b9b:	48 8d 0d 8e ed ff ff 	lea    -0x1272(%rip),%rcx        # 4930 <get_raw_row>
/home/tenebris/Disk/Documents/RootCauseAnalysis/evaluation/test_bin/libjpeg/libjpeg_heap_buffer_overflow/libjpeg-turbo/rdppm.c:681
  if (IsExtRGB(cinfo->in_color_space))
    5ba2:	8d 50 fa             	lea    -0x6(%rax),%edx
/home/tenebris/Disk/Documents/RootCauseAnalysis/evaluation/test_bin/libjpeg/libjpeg_heap_buffer_overflow/libjpeg-turbo/rdppm.c:667
      source->pub.get_pixel_rows = get_raw_row;
    5ba5:	48 89 4b 08          	mov    %rcx,0x8(%rbx)
/home/tenebris/Disk/Documents/RootCauseAnalysis/evaluation/test_bin/libjpeg/libjpeg_heap_buffer_overflow/libjpeg-turbo/rdppm.c:681
  if (IsExtRGB(cinfo->in_color_space))
    5ba9:	83 fa 09             	cmp    $0x9,%edx
    5bac:	0f 86 92 00 00 00    	jbe    5c44 <start_input_ppm+0x624>
    5bb2:	83 f8 02             	cmp    $0x2,%eax
    5bb5:	0f 84 89 00 00 00    	je     5c44 <start_input_ppm+0x624>
/home/tenebris/Disk/Documents/RootCauseAnalysis/evaluation/test_bin/libjpeg/libjpeg_heap_buffer_overflow/libjpeg-turbo/rdppm.c:685
  else if (cinfo->in_color_space == JCS_CMYK)
    5bbb:	83 f8 04             	cmp    $0x4,%eax
    5bbe:	74 4c                	je     5c0c <start_input_ppm+0x5ec>
/home/tenebris/Disk/Documents/RootCauseAnalysis/evaluation/test_bin/libjpeg/libjpeg_heap_buffer_overflow/libjpeg-turbo/rdppm.c:668
      use_raw_buffer = TRUE;
    5bc0:	b9 01 00 00 00       	mov    $0x1,%ecx
/home/tenebris/Disk/Documents/RootCauseAnalysis/evaluation/test_bin/libjpeg/libjpeg_heap_buffer_overflow/libjpeg-turbo/rdppm.c:669
      need_rescale = FALSE;
    5bc5:	45 31 f6             	xor    %r14d,%r14d
    5bc8:	e9 eb fb ff ff       	jmp    57b8 <start_input_ppm+0x198>
/home/tenebris/Disk/Documents/RootCauseAnalysis/evaluation/test_bin/libjpeg/libjpeg_heap_buffer_overflow/libjpeg-turbo/rdppm.c:613
      source->pub.get_pixel_rows = get_text_gray_cmyk_row;
    5bcd:	48 8d 05 cc ee ff ff 	lea    -0x1134(%rip),%rax        # 4aa0 <get_text_rgb_cmyk_row>
    5bd4:	48 89 43 08          	mov    %rax,0x8(%rbx)
/home/tenebris/Disk/Documents/RootCauseAnalysis/evaluation/test_bin/libjpeg/libjpeg_heap_buffer_overflow/libjpeg-turbo/rdppm.c:686
    cinfo->input_components = 4;
    5bd8:	c7 45 38 04 00 00 00 	movl   $0x4,0x38(%rbp)
/home/tenebris/Disk/Documents/RootCauseAnalysis/evaluation/test_bin/libjpeg/libjpeg_heap_buffer_overflow/libjpeg-turbo/rdppm.c:689
  if (need_iobuffer) {
    5bdf:	e9 34 fe ff ff       	jmp    5a18 <start_input_ppm+0x3f8>
/home/tenebris/Disk/Documents/RootCauseAnalysis/evaluation/test_bin/libjpeg/libjpeg_heap_buffer_overflow/libjpeg-turbo/rdppm.c:638 (discriminator 1)
    } else if (maxval == MAXJSAMPLE && sizeof(JSAMPLE) == sizeof(U_CHAR) &&
    5be4:	83 f8 01             	cmp    $0x1,%eax
    5be7:	0f 85 93 fd ff ff    	jne    5980 <start_input_ppm+0x360>
/home/tenebris/Disk/Documents/RootCauseAnalysis/evaluation/test_bin/libjpeg/libjpeg_heap_buffer_overflow/libjpeg-turbo/rdppm.c:609
      source->pub.get_pixel_rows = get_text_gray_row;
    5bed:	48 8d 05 3c ed ff ff 	lea    -0x12c4(%rip),%rax        # 4930 <get_raw_row>
/home/tenebris/Disk/Documents/RootCauseAnalysis/evaluation/test_bin/libjpeg/libjpeg_heap_buffer_overflow/libjpeg-turbo/rdppm.c:641
      use_raw_buffer = TRUE;
    5bf4:	b9 01 00 00 00       	mov    $0x1,%ecx
/home/tenebris/Disk/Documents/RootCauseAnalysis/evaluation/test_bin/libjpeg/libjpeg_heap_buffer_overflow/libjpeg-turbo/rdppm.c:642
      need_rescale = FALSE;
    5bf9:	45 31 f6             	xor    %r14d,%r14d
/home/tenebris/Disk/Documents/RootCauseAnalysis/evaluation/test_bin/libjpeg/libjpeg_heap_buffer_overflow/libjpeg-turbo/rdppm.c:609
      source->pub.get_pixel_rows = get_text_gray_row;
    5bfc:	48 89 43 08          	mov    %rax,0x8(%rbx)
/home/tenebris/Disk/Documents/RootCauseAnalysis/evaluation/test_bin/libjpeg/libjpeg_heap_buffer_overflow/libjpeg-turbo/rdppm.c:684
    cinfo->input_components = 1;
    5c00:	c7 45 38 01 00 00 00 	movl   $0x1,0x38(%rbp)
/home/tenebris/Disk/Documents/RootCauseAnalysis/evaluation/test_bin/libjpeg/libjpeg_heap_buffer_overflow/libjpeg-turbo/rdppm.c:689
  if (need_iobuffer) {
    5c07:	e9 3a ff ff ff       	jmp    5b46 <start_input_ppm+0x526>
/home/tenebris/Disk/Documents/RootCauseAnalysis/evaluation/test_bin/libjpeg/libjpeg_heap_buffer_overflow/libjpeg-turbo/rdppm.c:669
      need_rescale = FALSE;
    5c0c:	31 d2                	xor    %edx,%edx
/home/tenebris/Disk/Documents/RootCauseAnalysis/evaluation/test_bin/libjpeg/libjpeg_heap_buffer_overflow/libjpeg-turbo/rdppm.c:599
  need_iobuffer = TRUE;         /* do we need an I/O buffer? */
    5c0e:	41 be 01 00 00 00    	mov    $0x1,%r14d
/home/tenebris/Disk/Documents/RootCauseAnalysis/evaluation/test_bin/libjpeg/libjpeg_heap_buffer_overflow/libjpeg-turbo/rdppm.c:668
      use_raw_buffer = TRUE;
    5c14:	b9 01 00 00 00       	mov    $0x1,%ecx
/home/tenebris/Disk/Documents/RootCauseAnalysis/evaluation/test_bin/libjpeg/libjpeg_heap_buffer_overflow/libjpeg-turbo/rdppm.c:686
    cinfo->input_components = 4;
    5c19:	c7 45 38 04 00 00 00 	movl   $0x4,0x38(%rbp)
    5c20:	e9 c7 fd ff ff       	jmp    59ec <start_input_ppm+0x3cc>
/home/tenebris/Disk/Documents/RootCauseAnalysis/evaluation/test_bin/libjpeg/libjpeg_heap_buffer_overflow/libjpeg-turbo/rdppm.c:613
      source->pub.get_pixel_rows = get_text_gray_cmyk_row;
    5c25:	48 8d 05 44 e2 ff ff 	lea    -0x1dbc(%rip),%rax        # 3e70 <get_gray_cmyk_row>
/home/tenebris/Disk/Documents/RootCauseAnalysis/evaluation/test_bin/libjpeg/libjpeg_heap_buffer_overflow/libjpeg-turbo/rdppm.c:686
    cinfo->input_components = 4;
    5c2c:	31 c9                	xor    %ecx,%ecx
    5c2e:	41 be 01 00 00 00    	mov    $0x1,%r14d
/home/tenebris/Disk/Documents/RootCauseAnalysis/evaluation/test_bin/libjpeg/libjpeg_heap_buffer_overflow/libjpeg-turbo/rdppm.c:613
      source->pub.get_pixel_rows = get_text_gray_cmyk_row;
    5c34:	48 89 43 08          	mov    %rax,0x8(%rbx)
/home/tenebris/Disk/Documents/RootCauseAnalysis/evaluation/test_bin/libjpeg/libjpeg_heap_buffer_overflow/libjpeg-turbo/rdppm.c:686
    cinfo->input_components = 4;
    5c38:	c7 45 38 04 00 00 00 	movl   $0x4,0x38(%rbp)
/home/tenebris/Disk/Documents/RootCauseAnalysis/evaluation/test_bin/libjpeg/libjpeg_heap_buffer_overflow/libjpeg-turbo/rdppm.c:689
  if (need_iobuffer) {
    5c3f:	e9 02 ff ff ff       	jmp    5b46 <start_input_ppm+0x526>
/home/tenebris/Disk/Documents/RootCauseAnalysis/evaluation/test_bin/libjpeg/libjpeg_heap_buffer_overflow/libjpeg-turbo/rdppm.c:682
    cinfo->input_components = rgb_pixelsize[cinfo->in_color_space];
    5c44:	48 8d 15 35 44 00 00 	lea    0x4435(%rip),%rdx        # a080 <rgb_pixelsize>
/home/tenebris/Disk/Documents/RootCauseAnalysis/evaluation/test_bin/libjpeg/libjpeg_heap_buffer_overflow/libjpeg-turbo/rdppm.c:668
      use_raw_buffer = TRUE;
    5c4b:	b9 01 00 00 00       	mov    $0x1,%ecx
/home/tenebris/Disk/Documents/RootCauseAnalysis/evaluation/test_bin/libjpeg/libjpeg_heap_buffer_overflow/libjpeg-turbo/rdppm.c:669
      need_rescale = FALSE;
    5c50:	45 31 f6             	xor    %r14d,%r14d
/home/tenebris/Disk/Documents/RootCauseAnalysis/evaluation/test_bin/libjpeg/libjpeg_heap_buffer_overflow/libjpeg-turbo/rdppm.c:682
    cinfo->input_components = rgb_pixelsize[cinfo->in_color_space];
    5c53:	8b 04 82             	mov    (%rdx,%rax,4),%eax
/home/tenebris/Disk/Documents/RootCauseAnalysis/evaluation/test_bin/libjpeg/libjpeg_heap_buffer_overflow/libjpeg-turbo/rdppm.c:691
      source->buffer_width = (size_t)w * 3 *
    5c56:	44 89 ea             	mov    %r13d,%edx
/home/tenebris/Disk/Documents/RootCauseAnalysis/evaluation/test_bin/libjpeg/libjpeg_heap_buffer_overflow/libjpeg-turbo/rdppm.c:682
    cinfo->input_components = rgb_pixelsize[cinfo->in_color_space];
    5c59:	89 45 38             	mov    %eax,0x38(%rbp)
/home/tenebris/Disk/Documents/RootCauseAnalysis/evaluation/test_bin/libjpeg/libjpeg_heap_buffer_overflow/libjpeg-turbo/rdppm.c:690
    if (c == '6')
    5c5c:	e9 cb fc ff ff       	jmp    592c <start_input_ppm+0x30c>
    5c61:	66 66 2e 0f 1f 84 00 	data16 cs nopw 0x0(%rax,%rax,1)
    5c68:	00 00 00 00 
    5c6c:	0f 1f 40 00          	nopl   0x0(%rax)

0000000000005c70 <jinit_read_ppm>:
jinit_read_ppm():
/home/tenebris/Disk/Documents/RootCauseAnalysis/evaluation/test_bin/libjpeg/libjpeg_heap_buffer_overflow/libjpeg-turbo/rdppm.c:752
 * The module selection routine for PPM format input.
 */

GLOBAL(cjpeg_source_ptr)
jinit_read_ppm(j_compress_ptr cinfo)
{
    5c70:	f3 0f 1e fa          	endbr64 
    5c74:	48 83 ec 08          	sub    $0x8,%rsp
/home/tenebris/Disk/Documents/RootCauseAnalysis/evaluation/test_bin/libjpeg/libjpeg_heap_buffer_overflow/libjpeg-turbo/rdppm.c:757
  ppm_source_ptr source;

  /* Create module interface object */
  source = (ppm_source_ptr)
    (*cinfo->mem->alloc_small) ((j_common_ptr)cinfo, JPOOL_IMAGE,
    5c78:	48 8b 47 08          	mov    0x8(%rdi),%rax
    5c7c:	ba 58 00 00 00       	mov    $0x58,%edx
    5c81:	be 01 00 00 00       	mov    $0x1,%esi
    5c86:	ff 10                	call   *(%rax)
/home/tenebris/Disk/Documents/RootCauseAnalysis/evaluation/test_bin/libjpeg/libjpeg_heap_buffer_overflow/libjpeg-turbo/rdppm.c:760
                                sizeof(ppm_source_struct));
  /* Fill in method ptrs, except get_pixel_rows which start_input sets */
  source->pub.start_input = start_input_ppm;
    5c88:	48 8d 0d 91 f9 ff ff 	lea    -0x66f(%rip),%rcx        # 5620 <start_input_ppm>
/home/tenebris/Disk/Documents/RootCauseAnalysis/evaluation/test_bin/libjpeg/libjpeg_heap_buffer_overflow/libjpeg-turbo/rdppm.c:761
  source->pub.finish_input = finish_input_ppm;
    5c8f:	48 8d 15 6a de ff ff 	lea    -0x2196(%rip),%rdx        # 3b00 <finish_input_ppm>
/home/tenebris/Disk/Documents/RootCauseAnalysis/evaluation/test_bin/libjpeg/libjpeg_heap_buffer_overflow/libjpeg-turbo/rdppm.c:760
  source->pub.start_input = start_input_ppm;
    5c96:	48 89 08             	mov    %rcx,(%rax)
/home/tenebris/Disk/Documents/RootCauseAnalysis/evaluation/test_bin/libjpeg/libjpeg_heap_buffer_overflow/libjpeg-turbo/rdppm.c:761
  source->pub.finish_input = finish_input_ppm;
    5c99:	48 89 50 10          	mov    %rdx,0x10(%rax)
/home/tenebris/Disk/Documents/RootCauseAnalysis/evaluation/test_bin/libjpeg/libjpeg_heap_buffer_overflow/libjpeg-turbo/rdppm.c:764

  return (cjpeg_source_ptr)source;
}
    5c9d:	48 83 c4 08          	add    $0x8,%rsp
    5ca1:	c3                   	ret    
    5ca2:	66 2e 0f 1f 84 00 00 	cs nopw 0x0(%rax,%rax,1)
    5ca9:	00 00 00 
    5cac:	0f 1f 40 00          	nopl   0x0(%rax)

0000000000005cb0 <read_text_integer>:
read_text_integer():
/home/tenebris/Disk/Documents/RootCauseAnalysis/evaluation/test_bin/libjpeg/libjpeg_heap_buffer_overflow/libjpeg-turbo/rdswitch.c:45

LOCAL(boolean)
read_text_integer(FILE *file, long *result, int *termchar)
/* Read an unsigned decimal integer from a file, store it in result */
/* Reads one trailing character after the integer; returns it in termchar */
{
    5cb0:	41 57                	push   %r15
    5cb2:	41 56                	push   %r14
    5cb4:	41 55                	push   %r13
    5cb6:	49 89 f5             	mov    %rsi,%r13
    5cb9:	41 54                	push   %r12
    5cbb:	49 89 d4             	mov    %rdx,%r12
    5cbe:	55                   	push   %rbp
    5cbf:	48 89 fd             	mov    %rdi,%rbp
    5cc2:	53                   	push   %rbx
    5cc3:	48 83 ec 08          	sub    $0x8,%rsp
    5cc7:	eb 23                	jmp    5cec <read_text_integer+0x3c>
    5cc9:	0f 1f 80 00 00 00 00 	nopl   0x0(%rax)
/home/tenebris/Disk/Documents/RootCauseAnalysis/evaluation/test_bin/libjpeg/libjpeg_heap_buffer_overflow/libjpeg-turbo/rdswitch.c:52
  register long val;

  /* Skip any leading whitespace, detect EOF */
  do {
    ch = text_getc(file);
    if (ch == EOF) {
    5cd0:	83 fb ff             	cmp    $0xffffffff,%ebx
    5cd3:	74 3f                	je     5d14 <read_text_integer+0x64>
/home/tenebris/Disk/Documents/RootCauseAnalysis/evaluation/test_bin/libjpeg/libjpeg_heap_buffer_overflow/libjpeg-turbo/rdswitch.c:56
      *termchar = ch;
      return FALSE;
    }
  } while (isspace(ch));
    5cd5:	e8 96 c7 ff ff       	call   2470 <__ctype_b_loc@plt>
    5cda:	49 89 c7             	mov    %rax,%r15
    5cdd:	48 63 c3             	movslq %ebx,%rax
    5ce0:	49 8b 17             	mov    (%r15),%rdx
    5ce3:	0f b7 04 42          	movzwl (%rdx,%rax,2),%eax
    5ce7:	f6 c4 20             	test   $0x20,%ah
    5cea:	74 44                	je     5d30 <read_text_integer+0x80>
text_getc():
/home/tenebris/Disk/Documents/RootCauseAnalysis/evaluation/test_bin/libjpeg/libjpeg_heap_buffer_overflow/libjpeg-turbo/rdswitch.c:31
  ch = getc(file);
    5cec:	48 89 ef             	mov    %rbp,%rdi
    5cef:	e8 5c c7 ff ff       	call   2450 <getc@plt>
    5cf4:	89 c3                	mov    %eax,%ebx
/home/tenebris/Disk/Documents/RootCauseAnalysis/evaluation/test_bin/libjpeg/libjpeg_heap_buffer_overflow/libjpeg-turbo/rdswitch.c:32
  if (ch == '#') {
    5cf6:	83 f8 23             	cmp    $0x23,%eax
    5cf9:	75 d5                	jne    5cd0 <read_text_integer+0x20>
    5cfb:	0f 1f 44 00 00       	nopl   0x0(%rax,%rax,1)
/home/tenebris/Disk/Documents/RootCauseAnalysis/evaluation/test_bin/libjpeg/libjpeg_heap_buffer_overflow/libjpeg-turbo/rdswitch.c:34
      ch = getc(file);
    5d00:	48 89 ef             	mov    %rbp,%rdi
    5d03:	e8 48 c7 ff ff       	call   2450 <getc@plt>
    5d08:	89 c3                	mov    %eax,%ebx
/home/tenebris/Disk/Documents/RootCauseAnalysis/evaluation/test_bin/libjpeg/libjpeg_heap_buffer_overflow/libjpeg-turbo/rdswitch.c:35
    } while (ch != '\n' && ch != EOF);
    5d0a:	83 f8 0a             	cmp    $0xa,%eax
    5d0d:	74 c1                	je     5cd0 <read_text_integer+0x20>
    5d0f:	83 f8 ff             	cmp    $0xffffffff,%eax
    5d12:	75 ec                	jne    5d00 <read_text_integer+0x50>
read_text_integer():
/home/tenebris/Disk/Documents/RootCauseAnalysis/evaluation/test_bin/libjpeg/libjpeg_heap_buffer_overflow/libjpeg-turbo/rdswitch.c:54
      return FALSE;
    5d14:	45 31 c0             	xor    %r8d,%r8d
/home/tenebris/Disk/Documents/RootCauseAnalysis/evaluation/test_bin/libjpeg/libjpeg_heap_buffer_overflow/libjpeg-turbo/rdswitch.c:53
      *termchar = ch;
    5d17:	41 89 1c 24          	mov    %ebx,(%r12)
/home/tenebris/Disk/Documents/RootCauseAnalysis/evaluation/test_bin/libjpeg/libjpeg_heap_buffer_overflow/libjpeg-turbo/rdswitch.c:73
    val += ch - '0';
  }
  *result = val;
  *termchar = ch;
  return TRUE;
}
    5d1b:	48 83 c4 08          	add    $0x8,%rsp
    5d1f:	44 89 c0             	mov    %r8d,%eax
    5d22:	5b                   	pop    %rbx
    5d23:	5d                   	pop    %rbp
    5d24:	41 5c                	pop    %r12
    5d26:	41 5d                	pop    %r13
    5d28:	41 5e                	pop    %r14
    5d2a:	41 5f                	pop    %r15
    5d2c:	c3                   	ret    
    5d2d:	0f 1f 00             	nopl   (%rax)
/home/tenebris/Disk/Documents/RootCauseAnalysis/evaluation/test_bin/libjpeg/libjpeg_heap_buffer_overflow/libjpeg-turbo/rdswitch.c:60
    return FALSE;
    5d30:	45 31 c0             	xor    %r8d,%r8d
/home/tenebris/Disk/Documents/RootCauseAnalysis/evaluation/test_bin/libjpeg/libjpeg_heap_buffer_overflow/libjpeg-turbo/rdswitch.c:58
  if (!isdigit(ch)) {
    5d33:	f6 c4 08             	test   $0x8,%ah
    5d36:	74 df                	je     5d17 <read_text_integer+0x67>
/home/tenebris/Disk/Documents/RootCauseAnalysis/evaluation/test_bin/libjpeg/libjpeg_heap_buffer_overflow/libjpeg-turbo/rdswitch.c:63
  val = ch - '0';
    5d38:	83 eb 30             	sub    $0x30,%ebx
    5d3b:	4c 63 f3             	movslq %ebx,%r14
/home/tenebris/Disk/Documents/RootCauseAnalysis/evaluation/test_bin/libjpeg/libjpeg_heap_buffer_overflow/libjpeg-turbo/rdswitch.c:64
  while ((ch = text_getc(file)) != EOF) {
    5d3e:	eb 20                	jmp    5d60 <read_text_integer+0xb0>
    5d40:	83 fb ff             	cmp    $0xffffffff,%ebx
    5d43:	74 3f                	je     5d84 <read_text_integer+0xd4>
/home/tenebris/Disk/Documents/RootCauseAnalysis/evaluation/test_bin/libjpeg/libjpeg_heap_buffer_overflow/libjpeg-turbo/rdswitch.c:65
    if (!isdigit(ch))
    5d45:	49 8b 17             	mov    (%r15),%rdx
    5d48:	48 63 c3             	movslq %ebx,%rax
    5d4b:	f6 44 42 01 08       	testb  $0x8,0x1(%rdx,%rax,2)
    5d50:	74 32                	je     5d84 <read_text_integer+0xd4>
/home/tenebris/Disk/Documents/RootCauseAnalysis/evaluation/test_bin/libjpeg/libjpeg_heap_buffer_overflow/libjpeg-turbo/rdswitch.c:68
    val += ch - '0';
    5d52:	83 eb 30             	sub    $0x30,%ebx
/home/tenebris/Disk/Documents/RootCauseAnalysis/evaluation/test_bin/libjpeg/libjpeg_heap_buffer_overflow/libjpeg-turbo/rdswitch.c:67
    val *= 10;
    5d55:	4b 8d 04 b6          	lea    (%r14,%r14,4),%rax
/home/tenebris/Disk/Documents/RootCauseAnalysis/evaluation/test_bin/libjpeg/libjpeg_heap_buffer_overflow/libjpeg-turbo/rdswitch.c:68
    val += ch - '0';
    5d59:	48 63 db             	movslq %ebx,%rbx
    5d5c:	4c 8d 34 43          	lea    (%rbx,%rax,2),%r14
text_getc():
/home/tenebris/Disk/Documents/RootCauseAnalysis/evaluation/test_bin/libjpeg/libjpeg_heap_buffer_overflow/libjpeg-turbo/rdswitch.c:31
  ch = getc(file);
    5d60:	48 89 ef             	mov    %rbp,%rdi
    5d63:	e8 e8 c6 ff ff       	call   2450 <getc@plt>
    5d68:	89 c3                	mov    %eax,%ebx
/home/tenebris/Disk/Documents/RootCauseAnalysis/evaluation/test_bin/libjpeg/libjpeg_heap_buffer_overflow/libjpeg-turbo/rdswitch.c:32
  if (ch == '#') {
    5d6a:	83 f8 23             	cmp    $0x23,%eax
    5d6d:	75 d1                	jne    5d40 <read_text_integer+0x90>
    5d6f:	90                   	nop
/home/tenebris/Disk/Documents/RootCauseAnalysis/evaluation/test_bin/libjpeg/libjpeg_heap_buffer_overflow/libjpeg-turbo/rdswitch.c:34
      ch = getc(file);
    5d70:	48 89 ef             	mov    %rbp,%rdi
    5d73:	e8 d8 c6 ff ff       	call   2450 <getc@plt>
    5d78:	89 c3                	mov    %eax,%ebx
/home/tenebris/Disk/Documents/RootCauseAnalysis/evaluation/test_bin/libjpeg/libjpeg_heap_buffer_overflow/libjpeg-turbo/rdswitch.c:35
    } while (ch != '\n' && ch != EOF);
    5d7a:	83 f8 0a             	cmp    $0xa,%eax
    5d7d:	74 c1                	je     5d40 <read_text_integer+0x90>
    5d7f:	83 f8 ff             	cmp    $0xffffffff,%eax
    5d82:	75 ec                	jne    5d70 <read_text_integer+0xc0>
read_text_integer():
/home/tenebris/Disk/Documents/RootCauseAnalysis/evaluation/test_bin/libjpeg/libjpeg_heap_buffer_overflow/libjpeg-turbo/rdswitch.c:70
  *result = val;
    5d84:	4d 89 75 00          	mov    %r14,0x0(%r13)
/home/tenebris/Disk/Documents/RootCauseAnalysis/evaluation/test_bin/libjpeg/libjpeg_heap_buffer_overflow/libjpeg-turbo/rdswitch.c:72
  return TRUE;
    5d88:	41 b8 01 00 00 00    	mov    $0x1,%r8d
    5d8e:	eb 87                	jmp    5d17 <read_text_integer+0x67>

0000000000005d90 <read_scan_integer.part.0>:
read_scan_integer():
/home/tenebris/Disk/Documents/RootCauseAnalysis/evaluation/test_bin/libjpeg/libjpeg_heap_buffer_overflow/libjpeg-turbo/rdswitch.c:142


#ifdef C_MULTISCAN_FILES_SUPPORTED

LOCAL(boolean)
read_scan_integer(FILE *file, long *result, int *termchar)
    5d90:	41 55                	push   %r13
    5d92:	49 89 f5             	mov    %rsi,%r13
    5d95:	41 54                	push   %r12
    5d97:	49 89 fc             	mov    %rdi,%r12
    5d9a:	55                   	push   %rbp
    5d9b:	53                   	push   %rbx
    5d9c:	48 83 ec 08          	sub    $0x8,%rsp
/home/tenebris/Disk/Documents/RootCauseAnalysis/evaluation/test_bin/libjpeg/libjpeg_heap_buffer_overflow/libjpeg-turbo/rdswitch.c:151
{
  register int ch;

  if (!read_text_integer(file, result, termchar))
    return FALSE;
  ch = *termchar;
    5da0:	8b 2e                	mov    (%rsi),%ebp
/home/tenebris/Disk/Documents/RootCauseAnalysis/evaluation/test_bin/libjpeg/libjpeg_heap_buffer_overflow/libjpeg-turbo/rdswitch.c:152
  while (ch != EOF && isspace(ch))
    5da2:	e8 c9 c6 ff ff       	call   2470 <__ctype_b_loc@plt>
    5da7:	48 89 c3             	mov    %rax,%rbx
    5daa:	66 0f 1f 44 00 00    	nopw   0x0(%rax,%rax,1)
    5db0:	48 8b 03             	mov    (%rbx),%rax
    5db3:	83 fd ff             	cmp    $0xffffffff,%ebp
    5db6:	74 40                	je     5df8 <read_scan_integer.part.0+0x68>
    5db8:	48 63 d5             	movslq %ebp,%rdx
    5dbb:	0f b7 04 50          	movzwl (%rax,%rdx,2),%eax
    5dbf:	f6 c4 20             	test   $0x20,%ah
    5dc2:	74 74                	je     5e38 <read_scan_integer.part.0+0xa8>
text_getc():
/home/tenebris/Disk/Documents/RootCauseAnalysis/evaluation/test_bin/libjpeg/libjpeg_heap_buffer_overflow/libjpeg-turbo/rdswitch.c:31
  ch = getc(file);
    5dc4:	4c 89 e7             	mov    %r12,%rdi
    5dc7:	e8 84 c6 ff ff       	call   2450 <getc@plt>
    5dcc:	89 c5                	mov    %eax,%ebp
/home/tenebris/Disk/Documents/RootCauseAnalysis/evaluation/test_bin/libjpeg/libjpeg_heap_buffer_overflow/libjpeg-turbo/rdswitch.c:32
  if (ch == '#') {
    5dce:	83 f8 23             	cmp    $0x23,%eax
    5dd1:	75 dd                	jne    5db0 <read_scan_integer.part.0+0x20>
    5dd3:	0f 1f 44 00 00       	nopl   0x0(%rax,%rax,1)
/home/tenebris/Disk/Documents/RootCauseAnalysis/evaluation/test_bin/libjpeg/libjpeg_heap_buffer_overflow/libjpeg-turbo/rdswitch.c:34
      ch = getc(file);
    5dd8:	4c 89 e7             	mov    %r12,%rdi
    5ddb:	e8 70 c6 ff ff       	call   2450 <getc@plt>
    5de0:	89 c5                	mov    %eax,%ebp
/home/tenebris/Disk/Documents/RootCauseAnalysis/evaluation/test_bin/libjpeg/libjpeg_heap_buffer_overflow/libjpeg-turbo/rdswitch.c:35
    } while (ch != '\n' && ch != EOF);
    5de2:	83 f8 0a             	cmp    $0xa,%eax
    5de5:	74 c9                	je     5db0 <read_scan_integer.part.0+0x20>
    5de7:	83 f8 ff             	cmp    $0xffffffff,%eax
    5dea:	75 ec                	jne    5dd8 <read_scan_integer.part.0+0x48>
read_scan_integer():
/home/tenebris/Disk/Documents/RootCauseAnalysis/evaluation/test_bin/libjpeg/libjpeg_heap_buffer_overflow/libjpeg-turbo/rdswitch.c:152
  while (ch != EOF && isspace(ch))
    5dec:	48 8b 03             	mov    (%rbx),%rax
    5def:	83 fd ff             	cmp    $0xffffffff,%ebp
    5df2:	75 c4                	jne    5db8 <read_scan_integer.part.0+0x28>
    5df4:	0f 1f 40 00          	nopl   0x0(%rax)
/home/tenebris/Disk/Documents/RootCauseAnalysis/evaluation/test_bin/libjpeg/libjpeg_heap_buffer_overflow/libjpeg-turbo/rdswitch.c:154
    ch = text_getc(file);
  if (isdigit(ch)) {            /* oops, put it back */
    5df8:	f6 40 ff 08          	testb  $0x8,-0x1(%rax)
    5dfc:	75 1a                	jne    5e18 <read_scan_integer.part.0+0x88>
/home/tenebris/Disk/Documents/RootCauseAnalysis/evaluation/test_bin/libjpeg/libjpeg_heap_buffer_overflow/libjpeg-turbo/rdswitch.c:165
     * this allows user to insert commas, etc, if desired.
     */
    if (ch != EOF && ch != ';' && ch != ':')
      ch = ' ';
  }
  *termchar = ch;
    5dfe:	41 89 6d 00          	mov    %ebp,0x0(%r13)
/home/tenebris/Disk/Documents/RootCauseAnalysis/evaluation/test_bin/libjpeg/libjpeg_heap_buffer_overflow/libjpeg-turbo/rdswitch.c:166
  return TRUE;
    5e02:	b8 01 00 00 00       	mov    $0x1,%eax
/home/tenebris/Disk/Documents/RootCauseAnalysis/evaluation/test_bin/libjpeg/libjpeg_heap_buffer_overflow/libjpeg-turbo/rdswitch.c:167
}
    5e07:	48 83 c4 08          	add    $0x8,%rsp
    5e0b:	5b                   	pop    %rbx
    5e0c:	5d                   	pop    %rbp
    5e0d:	41 5c                	pop    %r12
    5e0f:	41 5d                	pop    %r13
    5e11:	c3                   	ret    
    5e12:	66 0f 1f 44 00 00    	nopw   0x0(%rax,%rax,1)
/home/tenebris/Disk/Documents/RootCauseAnalysis/evaluation/test_bin/libjpeg/libjpeg_heap_buffer_overflow/libjpeg-turbo/rdswitch.c:155
    if (ungetc(ch, file) == EOF)
    5e18:	4c 89 e6             	mov    %r12,%rsi
    5e1b:	89 ef                	mov    %ebp,%edi
    5e1d:	e8 4e c5 ff ff       	call   2370 <ungetc@plt>
    5e22:	41 89 c0             	mov    %eax,%r8d
/home/tenebris/Disk/Documents/RootCauseAnalysis/evaluation/test_bin/libjpeg/libjpeg_heap_buffer_overflow/libjpeg-turbo/rdswitch.c:156
      return FALSE;
    5e25:	31 c0                	xor    %eax,%eax
/home/tenebris/Disk/Documents/RootCauseAnalysis/evaluation/test_bin/libjpeg/libjpeg_heap_buffer_overflow/libjpeg-turbo/rdswitch.c:155
    if (ungetc(ch, file) == EOF)
    5e27:	41 83 f8 ff          	cmp    $0xffffffff,%r8d
    5e2b:	74 da                	je     5e07 <read_scan_integer.part.0+0x77>
/home/tenebris/Disk/Documents/RootCauseAnalysis/evaluation/test_bin/libjpeg/libjpeg_heap_buffer_overflow/libjpeg-turbo/rdswitch.c:163
      ch = ' ';
    5e2d:	bd 20 00 00 00       	mov    $0x20,%ebp
    5e32:	eb ca                	jmp    5dfe <read_scan_integer.part.0+0x6e>
    5e34:	0f 1f 40 00          	nopl   0x0(%rax)
/home/tenebris/Disk/Documents/RootCauseAnalysis/evaluation/test_bin/libjpeg/libjpeg_heap_buffer_overflow/libjpeg-turbo/rdswitch.c:154
  if (isdigit(ch)) {            /* oops, put it back */
    5e38:	f6 c4 08             	test   $0x8,%ah
    5e3b:	75 db                	jne    5e18 <read_scan_integer.part.0+0x88>
/home/tenebris/Disk/Documents/RootCauseAnalysis/evaluation/test_bin/libjpeg/libjpeg_heap_buffer_overflow/libjpeg-turbo/rdswitch.c:162
    if (ch != EOF && ch != ';' && ch != ':')
    5e3d:	83 fd 3b             	cmp    $0x3b,%ebp
    5e40:	74 bc                	je     5dfe <read_scan_integer.part.0+0x6e>
    5e42:	83 fd 3a             	cmp    $0x3a,%ebp
    5e45:	75 e6                	jne    5e2d <read_scan_integer.part.0+0x9d>
    5e47:	eb b5                	jmp    5dfe <read_scan_integer.part.0+0x6e>
read_scan_integer.part.0():
/home/tenebris/Disk/Documents/RootCauseAnalysis/evaluation/test_bin/libjpeg/libjpeg_heap_buffer_overflow/libjpeg-turbo/rdswitch.c:162
    5e49:	0f 1f 80 00 00 00 00 	nopl   0x0(%rax)

0000000000005e50 <read_quant_tables>:
read_quant_tables():
/home/tenebris/Disk/Documents/RootCauseAnalysis/evaluation/test_bin/libjpeg/libjpeg_heap_buffer_overflow/libjpeg-turbo/rdswitch.c:91
{
    5e50:	f3 0f 1e fa          	endbr64 
    5e54:	41 57                	push   %r15
    5e56:	41 56                	push   %r14
    5e58:	41 55                	push   %r13
    5e5a:	49 89 f5             	mov    %rsi,%r13
/home/tenebris/Disk/Documents/RootCauseAnalysis/evaluation/test_bin/libjpeg/libjpeg_heap_buffer_overflow/libjpeg-turbo/rdswitch.c:97
  if ((fp = fopen(filename, "r")) == NULL) {
    5e5d:	48 8d 35 9c 43 00 00 	lea    0x439c(%rip),%rsi        # a200 <rgb_red+0x60>
/home/tenebris/Disk/Documents/RootCauseAnalysis/evaluation/test_bin/libjpeg/libjpeg_heap_buffer_overflow/libjpeg-turbo/rdswitch.c:91
{
    5e64:	41 54                	push   %r12
    5e66:	55                   	push   %rbp
    5e67:	53                   	push   %rbx
    5e68:	48 81 ec 48 01 00 00 	sub    $0x148,%rsp
    5e6f:	48 89 7c 24 10       	mov    %rdi,0x10(%rsp)
/home/tenebris/Disk/Documents/RootCauseAnalysis/evaluation/test_bin/libjpeg/libjpeg_heap_buffer_overflow/libjpeg-turbo/rdswitch.c:97
  if ((fp = fopen(filename, "r")) == NULL) {
    5e74:	4c 89 ef             	mov    %r13,%rdi
/home/tenebris/Disk/Documents/RootCauseAnalysis/evaluation/test_bin/libjpeg/libjpeg_heap_buffer_overflow/libjpeg-turbo/rdswitch.c:91
{
    5e77:	89 54 24 1c          	mov    %edx,0x1c(%rsp)
    5e7b:	64 48 8b 04 25 28 00 	mov    %fs:0x28,%rax
    5e82:	00 00 
    5e84:	48 89 84 24 38 01 00 	mov    %rax,0x138(%rsp)
    5e8b:	00 
    5e8c:	31 c0                	xor    %eax,%eax
/home/tenebris/Disk/Documents/RootCauseAnalysis/evaluation/test_bin/libjpeg/libjpeg_heap_buffer_overflow/libjpeg-turbo/rdswitch.c:97
  if ((fp = fopen(filename, "r")) == NULL) {
    5e8e:	e8 4d c5 ff ff       	call   23e0 <fopen@plt>
    5e93:	48 85 c0             	test   %rax,%rax
    5e96:	0f 84 7c 01 00 00    	je     6018 <read_quant_tables+0x1c8>
    5e9c:	49 89 c7             	mov    %rax,%r15
    5e9f:	48 8d 6c 24 24       	lea    0x24(%rsp),%rbp
    5ea4:	48 8d 5c 24 28       	lea    0x28(%rsp),%rbx
    5ea9:	48 c7 44 24 08 00 00 	movq   $0x0,0x8(%rsp)
    5eb0:	00 00 
    5eb2:	8b 44 24 08          	mov    0x8(%rsp),%eax
/home/tenebris/Disk/Documents/RootCauseAnalysis/evaluation/test_bin/libjpeg/libjpeg_heap_buffer_overflow/libjpeg-turbo/rdswitch.c:103
  while (read_text_integer(fp, &val, &termchar)) { /* read 1st element of table */
    5eb6:	48 89 ea             	mov    %rbp,%rdx
    5eb9:	48 89 de             	mov    %rbx,%rsi
    5ebc:	4c 89 ff             	mov    %r15,%rdi
    5ebf:	89 44 24 18          	mov    %eax,0x18(%rsp)
    5ec3:	e8 e8 fd ff ff       	call   5cb0 <read_text_integer>
    5ec8:	85 c0                	test   %eax,%eax
    5eca:	0f 84 16 01 00 00    	je     5fe6 <read_quant_tables+0x196>
/home/tenebris/Disk/Documents/RootCauseAnalysis/evaluation/test_bin/libjpeg/libjpeg_heap_buffer_overflow/libjpeg-turbo/rdswitch.c:104
    if (tblno >= NUM_QUANT_TBLS) {
    5ed0:	48 83 7c 24 08 04    	cmpq   $0x4,0x8(%rsp)
    5ed6:	0f 84 a4 00 00 00    	je     5f80 <read_quant_tables+0x130>
/home/tenebris/Disk/Documents/RootCauseAnalysis/evaluation/test_bin/libjpeg/libjpeg_heap_buffer_overflow/libjpeg-turbo/rdswitch.c:109
    table[0] = (unsigned int)val;
    5edc:	48 8b 44 24 28       	mov    0x28(%rsp),%rax
    5ee1:	4c 8d 74 24 34       	lea    0x34(%rsp),%r14
    5ee6:	4c 8d a4 24 30 01 00 	lea    0x130(%rsp),%r12
    5eed:	00 
    5eee:	89 44 24 30          	mov    %eax,0x30(%rsp)
/home/tenebris/Disk/Documents/RootCauseAnalysis/evaluation/test_bin/libjpeg/libjpeg_heap_buffer_overflow/libjpeg-turbo/rdswitch.c:110
    for (i = 1; i < DCTSIZE2; i++) {
    5ef2:	eb 1a                	jmp    5f0e <read_quant_tables+0xbe>
    5ef4:	0f 1f 40 00          	nopl   0x0(%rax)
/home/tenebris/Disk/Documents/RootCauseAnalysis/evaluation/test_bin/libjpeg/libjpeg_heap_buffer_overflow/libjpeg-turbo/rdswitch.c:116 (discriminator 2)
      table[i] = (unsigned int)val;
    5ef8:	48 8b 44 24 28       	mov    0x28(%rsp),%rax
/home/tenebris/Disk/Documents/RootCauseAnalysis/evaluation/test_bin/libjpeg/libjpeg_heap_buffer_overflow/libjpeg-turbo/rdswitch.c:110 (discriminator 2)
    for (i = 1; i < DCTSIZE2; i++) {
    5efd:	49 83 c6 04          	add    $0x4,%r14
/home/tenebris/Disk/Documents/RootCauseAnalysis/evaluation/test_bin/libjpeg/libjpeg_heap_buffer_overflow/libjpeg-turbo/rdswitch.c:116 (discriminator 2)
      table[i] = (unsigned int)val;
    5f01:	41 89 46 fc          	mov    %eax,-0x4(%r14)
/home/tenebris/Disk/Documents/RootCauseAnalysis/evaluation/test_bin/libjpeg/libjpeg_heap_buffer_overflow/libjpeg-turbo/rdswitch.c:110 (discriminator 2)
    for (i = 1; i < DCTSIZE2; i++) {
    5f05:	4d 39 e6             	cmp    %r12,%r14
    5f08:	0f 84 a2 00 00 00    	je     5fb0 <read_quant_tables+0x160>
/home/tenebris/Disk/Documents/RootCauseAnalysis/evaluation/test_bin/libjpeg/libjpeg_heap_buffer_overflow/libjpeg-turbo/rdswitch.c:111
      if (!read_text_integer(fp, &val, &termchar)) {
    5f0e:	48 89 ea             	mov    %rbp,%rdx
    5f11:	48 89 de             	mov    %rbx,%rsi
    5f14:	4c 89 ff             	mov    %r15,%rdi
    5f17:	e8 94 fd ff ff       	call   5cb0 <read_text_integer>
    5f1c:	85 c0                	test   %eax,%eax
    5f1e:	75 d8                	jne    5ef8 <read_quant_tables+0xa8>
    5f20:	89 44 24 08          	mov    %eax,0x8(%rsp)
fprintf():
/usr/include/x86_64-linux-gnu/bits/stdio2.h:105
  return __fprintf_chk (__stream, __USE_FORTIFY_LEVEL - 1, __fmt,
    5f24:	4c 89 e9             	mov    %r13,%rcx
    5f27:	48 8d 15 32 43 00 00 	lea    0x4332(%rip),%rdx        # a260 <rgb_red+0xc0>
    5f2e:	48 8b 3d 0b 71 00 00 	mov    0x710b(%rip),%rdi        # d040 <stderr@GLIBC_2.2.5>
    5f35:	be 01 00 00 00       	mov    $0x1,%esi
    5f3a:	31 c0                	xor    %eax,%eax
    5f3c:	e8 ef c4 ff ff       	call   2430 <__fprintf_chk@plt>
read_quant_tables():
/home/tenebris/Disk/Documents/RootCauseAnalysis/evaluation/test_bin/libjpeg/libjpeg_heap_buffer_overflow/libjpeg-turbo/rdswitch.c:130
    fclose(fp);
    5f41:	4c 89 ff             	mov    %r15,%rdi
    5f44:	e8 57 c3 ff ff       	call   22a0 <fclose@plt>
/home/tenebris/Disk/Documents/RootCauseAnalysis/evaluation/test_bin/libjpeg/libjpeg_heap_buffer_overflow/libjpeg-turbo/rdswitch.c:131
    return FALSE;
    5f49:	44 8b 44 24 08       	mov    0x8(%rsp),%r8d
/home/tenebris/Disk/Documents/RootCauseAnalysis/evaluation/test_bin/libjpeg/libjpeg_heap_buffer_overflow/libjpeg-turbo/rdswitch.c:136
}
    5f4e:	48 8b 84 24 38 01 00 	mov    0x138(%rsp),%rax
    5f55:	00 
    5f56:	64 48 2b 04 25 28 00 	sub    %fs:0x28,%rax
    5f5d:	00 00 
    5f5f:	0f 85 ae 00 00 00    	jne    6013 <read_quant_tables+0x1c3>
    5f65:	48 81 c4 48 01 00 00 	add    $0x148,%rsp
    5f6c:	44 89 c0             	mov    %r8d,%eax
    5f6f:	5b                   	pop    %rbx
    5f70:	5d                   	pop    %rbp
    5f71:	41 5c                	pop    %r12
    5f73:	41 5d                	pop    %r13
    5f75:	41 5e                	pop    %r14
    5f77:	41 5f                	pop    %r15
    5f79:	c3                   	ret    
    5f7a:	66 0f 1f 44 00 00    	nopw   0x0(%rax,%rax,1)
fprintf():
/usr/include/x86_64-linux-gnu/bits/stdio2.h:105
    5f80:	48 8b 3d b9 70 00 00 	mov    0x70b9(%rip),%rdi        # d040 <stderr@GLIBC_2.2.5>
    5f87:	4c 89 e9             	mov    %r13,%rcx
    5f8a:	be 01 00 00 00       	mov    $0x1,%esi
    5f8f:	31 c0                	xor    %eax,%eax
    5f91:	48 8d 15 84 42 00 00 	lea    0x4284(%rip),%rdx        # a21c <rgb_red+0x7c>
    5f98:	e8 93 c4 ff ff       	call   2430 <__fprintf_chk@plt>
read_quant_tables():
/home/tenebris/Disk/Documents/RootCauseAnalysis/evaluation/test_bin/libjpeg/libjpeg_heap_buffer_overflow/libjpeg-turbo/rdswitch.c:106
      fclose(fp);
    5f9d:	4c 89 ff             	mov    %r15,%rdi
    5fa0:	e8 fb c2 ff ff       	call   22a0 <fclose@plt>
/home/tenebris/Disk/Documents/RootCauseAnalysis/evaluation/test_bin/libjpeg/libjpeg_heap_buffer_overflow/libjpeg-turbo/rdswitch.c:107
      return FALSE;
    5fa5:	45 31 c0             	xor    %r8d,%r8d
    5fa8:	eb a4                	jmp    5f4e <read_quant_tables+0xfe>
    5faa:	66 0f 1f 44 00 00    	nopw   0x0(%rax,%rax,1)
/home/tenebris/Disk/Documents/RootCauseAnalysis/evaluation/test_bin/libjpeg/libjpeg_heap_buffer_overflow/libjpeg-turbo/rdswitch.c:122
    jpeg_add_quant_table(cinfo, tblno, table, q_scale_factor[tblno],
    5fb0:	4c 8b 74 24 08       	mov    0x8(%rsp),%r14
    5fb5:	48 8d 05 54 70 00 00 	lea    0x7054(%rip),%rax        # d010 <q_scale_factor>
    5fbc:	44 8b 44 24 1c       	mov    0x1c(%rsp),%r8d
    5fc1:	48 8d 54 24 30       	lea    0x30(%rsp),%rdx
    5fc6:	8b 74 24 18          	mov    0x18(%rsp),%esi
    5fca:	48 8b 7c 24 10       	mov    0x10(%rsp),%rdi
    5fcf:	42 8b 0c b0          	mov    (%rax,%r14,4),%ecx
    5fd3:	49 83 c6 01          	add    $0x1,%r14
    5fd7:	e8 b4 c2 ff ff       	call   2290 <jpeg_add_quant_table@plt>
/home/tenebris/Disk/Documents/RootCauseAnalysis/evaluation/test_bin/libjpeg/libjpeg_heap_buffer_overflow/libjpeg-turbo/rdswitch.c:125
    tblno++;
    5fdc:	4c 89 74 24 08       	mov    %r14,0x8(%rsp)
    5fe1:	e9 cc fe ff ff       	jmp    5eb2 <read_quant_tables+0x62>
/home/tenebris/Disk/Documents/RootCauseAnalysis/evaluation/test_bin/libjpeg/libjpeg_heap_buffer_overflow/libjpeg-turbo/rdswitch.c:128
  if (termchar != EOF) {
    5fe6:	83 7c 24 24 ff       	cmpl   $0xffffffff,0x24(%rsp)
    5feb:	89 44 24 08          	mov    %eax,0x8(%rsp)
    5fef:	74 0f                	je     6000 <read_quant_tables+0x1b0>
fprintf():
/usr/include/x86_64-linux-gnu/bits/stdio2.h:105
    5ff1:	4c 89 e9             	mov    %r13,%rcx
    5ff4:	48 8d 15 3d 42 00 00 	lea    0x423d(%rip),%rdx        # a238 <rgb_red+0x98>
    5ffb:	e9 2e ff ff ff       	jmp    5f2e <read_quant_tables+0xde>
read_quant_tables():
/home/tenebris/Disk/Documents/RootCauseAnalysis/evaluation/test_bin/libjpeg/libjpeg_heap_buffer_overflow/libjpeg-turbo/rdswitch.c:134
  fclose(fp);
    6000:	4c 89 ff             	mov    %r15,%rdi
    6003:	e8 98 c2 ff ff       	call   22a0 <fclose@plt>
/home/tenebris/Disk/Documents/RootCauseAnalysis/evaluation/test_bin/libjpeg/libjpeg_heap_buffer_overflow/libjpeg-turbo/rdswitch.c:135
  return TRUE;
    6008:	41 b8 01 00 00 00    	mov    $0x1,%r8d
    600e:	e9 3b ff ff ff       	jmp    5f4e <read_quant_tables+0xfe>
/home/tenebris/Disk/Documents/RootCauseAnalysis/evaluation/test_bin/libjpeg/libjpeg_heap_buffer_overflow/libjpeg-turbo/rdswitch.c:136
}
    6013:	e8 98 c2 ff ff       	call   22b0 <__stack_chk_fail@plt>
fprintf():
/usr/include/x86_64-linux-gnu/bits/stdio2.h:105
    6018:	48 8b 3d 21 70 00 00 	mov    0x7021(%rip),%rdi        # d040 <stderr@GLIBC_2.2.5>
    601f:	4c 89 e9             	mov    %r13,%rcx
    6022:	be 01 00 00 00       	mov    $0x1,%esi
    6027:	31 c0                	xor    %eax,%eax
    6029:	48 8d 15 d2 41 00 00 	lea    0x41d2(%rip),%rdx        # a202 <rgb_red+0x62>
    6030:	e8 fb c3 ff ff       	call   2430 <__fprintf_chk@plt>
read_quant_tables():
/home/tenebris/Disk/Documents/RootCauseAnalysis/evaluation/test_bin/libjpeg/libjpeg_heap_buffer_overflow/libjpeg-turbo/rdswitch.c:99
    return FALSE;
    6035:	45 31 c0             	xor    %r8d,%r8d
    6038:	e9 11 ff ff ff       	jmp    5f4e <read_quant_tables+0xfe>
    603d:	0f 1f 00             	nopl   (%rax)

0000000000006040 <read_scan_script>:
read_scan_script():
/home/tenebris/Disk/Documents/RootCauseAnalysis/evaluation/test_bin/libjpeg/libjpeg_heap_buffer_overflow/libjpeg-turbo/rdswitch.c:187
 * as commas or dashes) can be placed between numbers if desired.
 * Comments preceded by '#' may be included in the file.
 * Note: we do very little validity checking here;
 * jcmaster.c will validate the script parameters.
 */
{
    6040:	f3 0f 1e fa          	endbr64 
    6044:	41 57                	push   %r15
    6046:	41 56                	push   %r14
    6048:	41 55                	push   %r13
    604a:	41 54                	push   %r12
    604c:	49 89 f4             	mov    %rsi,%r12
/home/tenebris/Disk/Documents/RootCauseAnalysis/evaluation/test_bin/libjpeg/libjpeg_heap_buffer_overflow/libjpeg-turbo/rdswitch.c:195
  long val;
  jpeg_scan_info *scanptr;
#define MAX_SCANS  100          /* quite arbitrary limit */
  jpeg_scan_info scans[MAX_SCANS];

  if ((fp = fopen(filename, "r")) == NULL) {
    604f:	48 8d 35 aa 41 00 00 	lea    0x41aa(%rip),%rsi        # a200 <rgb_red+0x60>
/home/tenebris/Disk/Documents/RootCauseAnalysis/evaluation/test_bin/libjpeg/libjpeg_heap_buffer_overflow/libjpeg-turbo/rdswitch.c:187
{
    6056:	55                   	push   %rbp
    6057:	53                   	push   %rbx
    6058:	48 81 ec 58 0e 00 00 	sub    $0xe58,%rsp
    605f:	48 89 7c 24 10       	mov    %rdi,0x10(%rsp)
/home/tenebris/Disk/Documents/RootCauseAnalysis/evaluation/test_bin/libjpeg/libjpeg_heap_buffer_overflow/libjpeg-turbo/rdswitch.c:195
  if ((fp = fopen(filename, "r")) == NULL) {
    6064:	4c 89 e7             	mov    %r12,%rdi
/home/tenebris/Disk/Documents/RootCauseAnalysis/evaluation/test_bin/libjpeg/libjpeg_heap_buffer_overflow/libjpeg-turbo/rdswitch.c:187
{
    6067:	64 48 8b 04 25 28 00 	mov    %fs:0x28,%rax
    606e:	00 00 
    6070:	48 89 84 24 48 0e 00 	mov    %rax,0xe48(%rsp)
    6077:	00 
    6078:	31 c0                	xor    %eax,%eax
/home/tenebris/Disk/Documents/RootCauseAnalysis/evaluation/test_bin/libjpeg/libjpeg_heap_buffer_overflow/libjpeg-turbo/rdswitch.c:195
  if ((fp = fopen(filename, "r")) == NULL) {
    607a:	e8 61 c3 ff ff       	call   23e0 <fopen@plt>
    607f:	48 85 c0             	test   %rax,%rax
    6082:	0f 84 ff 02 00 00    	je     6387 <read_scan_script+0x347>
    6088:	49 89 c7             	mov    %rax,%r15
/home/tenebris/Disk/Documents/RootCauseAnalysis/evaluation/test_bin/libjpeg/libjpeg_heap_buffer_overflow/libjpeg-turbo/rdswitch.c:199
    fprintf(stderr, "Can't open scan definition file %s\n", filename);
    return FALSE;
  }
  scanptr = scans;
    608b:	48 8d 44 24 30       	lea    0x30(%rsp),%rax
    6090:	48 8d 5c 24 24       	lea    0x24(%rsp),%rbx
/home/tenebris/Disk/Documents/RootCauseAnalysis/evaluation/test_bin/libjpeg/libjpeg_heap_buffer_overflow/libjpeg-turbo/rdswitch.c:200
  scanno = 0;
    6095:	c7 44 24 0c 00 00 00 	movl   $0x0,0xc(%rsp)
    609c:	00 
/home/tenebris/Disk/Documents/RootCauseAnalysis/evaluation/test_bin/libjpeg/libjpeg_heap_buffer_overflow/libjpeg-turbo/rdswitch.c:199
  scanptr = scans;
    609d:	48 89 44 24 18       	mov    %rax,0x18(%rsp)
    60a2:	48 89 c5             	mov    %rax,%rbp
    60a5:	4c 8d 6c 24 28       	lea    0x28(%rsp),%r13
read_scan_integer():
/home/tenebris/Disk/Documents/RootCauseAnalysis/evaluation/test_bin/libjpeg/libjpeg_heap_buffer_overflow/libjpeg-turbo/rdswitch.c:149
  if (!read_text_integer(file, result, termchar))
    60aa:	48 89 da             	mov    %rbx,%rdx
    60ad:	4c 89 ee             	mov    %r13,%rsi
    60b0:	4c 89 ff             	mov    %r15,%rdi
    60b3:	e8 f8 fb ff ff       	call   5cb0 <read_text_integer>
    60b8:	85 c0                	test   %eax,%eax
    60ba:	0f 84 f0 00 00 00    	je     61b0 <read_scan_script+0x170>
    60c0:	48 89 de             	mov    %rbx,%rsi
    60c3:	4c 89 ff             	mov    %r15,%rdi
    60c6:	e8 c5 fc ff ff       	call   5d90 <read_scan_integer.part.0>
read_scan_script():
/home/tenebris/Disk/Documents/RootCauseAnalysis/evaluation/test_bin/libjpeg/libjpeg_heap_buffer_overflow/libjpeg-turbo/rdswitch.c:202

  while (read_scan_integer(fp, &val, &termchar)) {
    60cb:	85 c0                	test   %eax,%eax
    60cd:	0f 84 dd 00 00 00    	je     61b0 <read_scan_script+0x170>
/home/tenebris/Disk/Documents/RootCauseAnalysis/evaluation/test_bin/libjpeg/libjpeg_heap_buffer_overflow/libjpeg-turbo/rdswitch.c:203
    if (scanno >= MAX_SCANS) {
    60d3:	83 7c 24 0c 64       	cmpl   $0x64,0xc(%rsp)
    60d8:	0f 84 87 02 00 00    	je     6365 <read_scan_script+0x325>
/home/tenebris/Disk/Documents/RootCauseAnalysis/evaluation/test_bin/libjpeg/libjpeg_heap_buffer_overflow/libjpeg-turbo/rdswitch.c:208
      fprintf(stderr, "Too many scans defined in file %s\n", filename);
      fclose(fp);
      return FALSE;
    }
    scanptr->component_index[0] = (int)val;
    60de:	48 8b 44 24 28       	mov    0x28(%rsp),%rax
/home/tenebris/Disk/Documents/RootCauseAnalysis/evaluation/test_bin/libjpeg/libjpeg_heap_buffer_overflow/libjpeg-turbo/rdswitch.c:210
    ncomps = 1;
    while (termchar == ' ') {
    60e3:	41 be 02 00 00 00    	mov    $0x2,%r14d
/home/tenebris/Disk/Documents/RootCauseAnalysis/evaluation/test_bin/libjpeg/libjpeg_heap_buffer_overflow/libjpeg-turbo/rdswitch.c:209
    ncomps = 1;
    60e9:	ba 01 00 00 00       	mov    $0x1,%edx
/home/tenebris/Disk/Documents/RootCauseAnalysis/evaluation/test_bin/libjpeg/libjpeg_heap_buffer_overflow/libjpeg-turbo/rdswitch.c:208
    scanptr->component_index[0] = (int)val;
    60ee:	89 45 04             	mov    %eax,0x4(%rbp)
/home/tenebris/Disk/Documents/RootCauseAnalysis/evaluation/test_bin/libjpeg/libjpeg_heap_buffer_overflow/libjpeg-turbo/rdswitch.c:210
    while (termchar == ' ') {
    60f1:	8b 44 24 24          	mov    0x24(%rsp),%eax
    60f5:	83 f8 20             	cmp    $0x20,%eax
    60f8:	0f 85 42 01 00 00    	jne    6240 <read_scan_script+0x200>
read_scan_integer():
/home/tenebris/Disk/Documents/RootCauseAnalysis/evaluation/test_bin/libjpeg/libjpeg_heap_buffer_overflow/libjpeg-turbo/rdswitch.c:149
  if (!read_text_integer(file, result, termchar))
    60fe:	48 89 da             	mov    %rbx,%rdx
    6101:	4c 89 ee             	mov    %r13,%rsi
    6104:	4c 89 ff             	mov    %r15,%rdi
    6107:	e8 a4 fb ff ff       	call   5cb0 <read_text_integer>
    610c:	85 c0                	test   %eax,%eax
    610e:	0f 84 8c 00 00 00    	je     61a0 <read_scan_script+0x160>
    6114:	48 89 de             	mov    %rbx,%rsi
    6117:	4c 89 ff             	mov    %r15,%rdi
    611a:	e8 71 fc ff ff       	call   5d90 <read_scan_integer.part.0>
read_scan_script():
/home/tenebris/Disk/Documents/RootCauseAnalysis/evaluation/test_bin/libjpeg/libjpeg_heap_buffer_overflow/libjpeg-turbo/rdswitch.c:217
        fprintf(stderr, "Too many components in one scan in file %s\n",
                filename);
        fclose(fp);
        return FALSE;
      }
      if (!read_scan_integer(fp, &val, &termchar))
    611f:	85 c0                	test   %eax,%eax
    6121:	74 7d                	je     61a0 <read_scan_script+0x160>
/home/tenebris/Disk/Documents/RootCauseAnalysis/evaluation/test_bin/libjpeg/libjpeg_heap_buffer_overflow/libjpeg-turbo/rdswitch.c:219
        goto bogus;
      scanptr->component_index[ncomps] = (int)val;
    6123:	48 8b 44 24 28       	mov    0x28(%rsp),%rax
/home/tenebris/Disk/Documents/RootCauseAnalysis/evaluation/test_bin/libjpeg/libjpeg_heap_buffer_overflow/libjpeg-turbo/rdswitch.c:220
      ncomps++;
    6128:	44 89 f2             	mov    %r14d,%edx
/home/tenebris/Disk/Documents/RootCauseAnalysis/evaluation/test_bin/libjpeg/libjpeg_heap_buffer_overflow/libjpeg-turbo/rdswitch.c:219
      scanptr->component_index[ncomps] = (int)val;
    612b:	42 89 44 b5 00       	mov    %eax,0x0(%rbp,%r14,4)
/home/tenebris/Disk/Documents/RootCauseAnalysis/evaluation/test_bin/libjpeg/libjpeg_heap_buffer_overflow/libjpeg-turbo/rdswitch.c:210
    while (termchar == ' ') {
    6130:	8b 44 24 24          	mov    0x24(%rsp),%eax
    6134:	83 f8 20             	cmp    $0x20,%eax
    6137:	0f 85 03 01 00 00    	jne    6240 <read_scan_script+0x200>
/home/tenebris/Disk/Documents/RootCauseAnalysis/evaluation/test_bin/libjpeg/libjpeg_heap_buffer_overflow/libjpeg-turbo/rdswitch.c:211
      if (ncomps >= MAX_COMPS_IN_SCAN) {
    613d:	49 83 c6 01          	add    $0x1,%r14
    6141:	49 83 fe 05          	cmp    $0x5,%r14
    6145:	75 b7                	jne    60fe <read_scan_script+0xbe>
fprintf():
/usr/include/x86_64-linux-gnu/bits/stdio2.h:105
    6147:	4c 89 e1             	mov    %r12,%rcx
    614a:	48 8d 15 7f 41 00 00 	lea    0x417f(%rip),%rdx        # a2d0 <rgb_red+0x130>
    6151:	48 8b 3d e8 6e 00 00 	mov    0x6ee8(%rip),%rdi        # d040 <stderr@GLIBC_2.2.5>
    6158:	be 01 00 00 00       	mov    $0x1,%esi
    615d:	31 c0                	xor    %eax,%eax
    615f:	e8 cc c2 ff ff       	call   2430 <__fprintf_chk@plt>
read_scan_script():
/home/tenebris/Disk/Documents/RootCauseAnalysis/evaluation/test_bin/libjpeg/libjpeg_heap_buffer_overflow/libjpeg-turbo/rdswitch.c:254
    scanptr++, scanno++;
  }

  if (termchar != EOF) {
    fprintf(stderr, "Non-numeric data in file %s\n", filename);
    fclose(fp);
    6164:	4c 89 ff             	mov    %r15,%rdi
    6167:	e8 34 c1 ff ff       	call   22a0 <fclose@plt>
/home/tenebris/Disk/Documents/RootCauseAnalysis/evaluation/test_bin/libjpeg/libjpeg_heap_buffer_overflow/libjpeg-turbo/rdswitch.c:255
    return FALSE;
    616c:	31 c0                	xor    %eax,%eax
/home/tenebris/Disk/Documents/RootCauseAnalysis/evaluation/test_bin/libjpeg/libjpeg_heap_buffer_overflow/libjpeg-turbo/rdswitch.c:273
    cinfo->num_scans = scanno;
  }

  fclose(fp);
  return TRUE;
}
    616e:	48 8b 94 24 48 0e 00 	mov    0xe48(%rsp),%rdx
    6175:	00 
    6176:	64 48 2b 14 25 28 00 	sub    %fs:0x28,%rdx
    617d:	00 00 
    617f:	0f 85 26 02 00 00    	jne    63ab <read_scan_script+0x36b>
    6185:	48 81 c4 58 0e 00 00 	add    $0xe58,%rsp
    618c:	5b                   	pop    %rbx
    618d:	5d                   	pop    %rbp
    618e:	41 5c                	pop    %r12
    6190:	41 5d                	pop    %r13
    6192:	41 5e                	pop    %r14
    6194:	41 5f                	pop    %r15
    6196:	c3                   	ret    
    6197:	66 0f 1f 84 00 00 00 	nopw   0x0(%rax,%rax,1)
    619e:	00 00 
fprintf():
/usr/include/x86_64-linux-gnu/bits/stdio2.h:105
    61a0:	4c 89 e1             	mov    %r12,%rcx
    61a3:	48 8d 15 56 41 00 00 	lea    0x4156(%rip),%rdx        # a300 <rgb_red+0x160>
    61aa:	eb a5                	jmp    6151 <read_scan_script+0x111>
    61ac:	0f 1f 40 00          	nopl   0x0(%rax)
read_scan_script():
/home/tenebris/Disk/Documents/RootCauseAnalysis/evaluation/test_bin/libjpeg/libjpeg_heap_buffer_overflow/libjpeg-turbo/rdswitch.c:252
  if (termchar != EOF) {
    61b0:	83 7c 24 24 ff       	cmpl   $0xffffffff,0x24(%rsp)
    61b5:	0f 85 bd 01 00 00    	jne    6378 <read_scan_script+0x338>
/home/tenebris/Disk/Documents/RootCauseAnalysis/evaluation/test_bin/libjpeg/libjpeg_heap_buffer_overflow/libjpeg-turbo/rdswitch.c:258
  if (scanno > 0) {
    61bb:	44 8b 74 24 0c       	mov    0xc(%rsp),%r14d
    61c0:	45 85 f6             	test   %r14d,%r14d
    61c3:	74 62                	je     6227 <read_scan_script+0x1e7>
/home/tenebris/Disk/Documents/RootCauseAnalysis/evaluation/test_bin/libjpeg/libjpeg_heap_buffer_overflow/libjpeg-turbo/rdswitch.c:264
      (*cinfo->mem->alloc_small) ((j_common_ptr)cinfo, JPOOL_IMAGE,
    61c5:	48 8b 6c 24 10       	mov    0x10(%rsp),%rbp
    61ca:	49 63 c6             	movslq %r14d,%rax
    61cd:	be 01 00 00 00       	mov    $0x1,%esi
    61d2:	48 8d 1c c0          	lea    (%rax,%rax,8),%rbx
    61d6:	48 8b 45 08          	mov    0x8(%rbp),%rax
    61da:	48 c1 e3 02          	shl    $0x2,%rbx
    61de:	48 89 ef             	mov    %rbp,%rdi
    61e1:	48 89 da             	mov    %rbx,%rdx
    61e4:	ff 10                	call   *(%rax)
memcpy():
/usr/include/x86_64-linux-gnu/bits/string_fortified.h:29

__fortify_function void *
__NTH (memcpy (void *__restrict __dest, const void *__restrict __src,
	       size_t __len))
{
  return __builtin___memcpy_chk (__dest, __src, __len,
    61e6:	48 8b 54 24 30       	mov    0x30(%rsp),%rdx
    61eb:	48 8d 78 08          	lea    0x8(%rax),%rdi
    61ef:	48 89 10             	mov    %rdx,(%rax)
    61f2:	48 8b 74 24 18       	mov    0x18(%rsp),%rsi
    61f7:	89 da                	mov    %ebx,%edx
    61f9:	48 83 e7 f8          	and    $0xfffffffffffffff8,%rdi
    61fd:	48 8b 4c 16 f8       	mov    -0x8(%rsi,%rdx,1),%rcx
    6202:	48 89 4c 10 f8       	mov    %rcx,-0x8(%rax,%rdx,1)
    6207:	48 89 c2             	mov    %rax,%rdx
    620a:	48 29 fa             	sub    %rdi,%rdx
    620d:	8d 0c 13             	lea    (%rbx,%rdx,1),%ecx
    6210:	48 29 d6             	sub    %rdx,%rsi
    6213:	c1 e9 03             	shr    $0x3,%ecx
    6216:	f3 48 a5             	rep movsq %ds:(%rsi),%es:(%rdi)
read_scan_script():
/home/tenebris/Disk/Documents/RootCauseAnalysis/evaluation/test_bin/libjpeg/libjpeg_heap_buffer_overflow/libjpeg-turbo/rdswitch.c:267
    cinfo->scan_info = scanptr;
    6219:	48 89 85 f8 00 00 00 	mov    %rax,0xf8(%rbp)
/home/tenebris/Disk/Documents/RootCauseAnalysis/evaluation/test_bin/libjpeg/libjpeg_heap_buffer_overflow/libjpeg-turbo/rdswitch.c:268
    cinfo->num_scans = scanno;
    6220:	44 89 b5 f0 00 00 00 	mov    %r14d,0xf0(%rbp)
/home/tenebris/Disk/Documents/RootCauseAnalysis/evaluation/test_bin/libjpeg/libjpeg_heap_buffer_overflow/libjpeg-turbo/rdswitch.c:271
  fclose(fp);
    6227:	4c 89 ff             	mov    %r15,%rdi
    622a:	e8 71 c0 ff ff       	call   22a0 <fclose@plt>
/home/tenebris/Disk/Documents/RootCauseAnalysis/evaluation/test_bin/libjpeg/libjpeg_heap_buffer_overflow/libjpeg-turbo/rdswitch.c:272
  return TRUE;
    622f:	b8 01 00 00 00       	mov    $0x1,%eax
    6234:	e9 35 ff ff ff       	jmp    616e <read_scan_script+0x12e>
    6239:	0f 1f 80 00 00 00 00 	nopl   0x0(%rax)
/home/tenebris/Disk/Documents/RootCauseAnalysis/evaluation/test_bin/libjpeg/libjpeg_heap_buffer_overflow/libjpeg-turbo/rdswitch.c:222
    scanptr->comps_in_scan = ncomps;
    6240:	89 55 00             	mov    %edx,0x0(%rbp)
/home/tenebris/Disk/Documents/RootCauseAnalysis/evaluation/test_bin/libjpeg/libjpeg_heap_buffer_overflow/libjpeg-turbo/rdswitch.c:223
    if (termchar == ':') {
    6243:	83 f8 3a             	cmp    $0x3a,%eax
    6246:	74 33                	je     627b <read_scan_script+0x23b>
/home/tenebris/Disk/Documents/RootCauseAnalysis/evaluation/test_bin/libjpeg/libjpeg_heap_buffer_overflow/libjpeg-turbo/rdswitch.c:238
      scanptr->Ss = 0;
    6248:	48 8b 0d 31 43 00 00 	mov    0x4331(%rip),%rcx        # a580 <std_luminance_quant_tbl+0x100>
/home/tenebris/Disk/Documents/RootCauseAnalysis/evaluation/test_bin/libjpeg/libjpeg_heap_buffer_overflow/libjpeg-turbo/rdswitch.c:240
      scanptr->Ah = 0;
    624f:	c7 45 1c 00 00 00 00 	movl   $0x0,0x1c(%rbp)
    6256:	31 d2                	xor    %edx,%edx
/home/tenebris/Disk/Documents/RootCauseAnalysis/evaluation/test_bin/libjpeg/libjpeg_heap_buffer_overflow/libjpeg-turbo/rdswitch.c:238
      scanptr->Ss = 0;
    6258:	48 89 4d 14          	mov    %rcx,0x14(%rbp)
/home/tenebris/Disk/Documents/RootCauseAnalysis/evaluation/test_bin/libjpeg/libjpeg_heap_buffer_overflow/libjpeg-turbo/rdswitch.c:235
      scanptr->Al = (int)val;
    625c:	89 55 20             	mov    %edx,0x20(%rbp)
/home/tenebris/Disk/Documents/RootCauseAnalysis/evaluation/test_bin/libjpeg/libjpeg_heap_buffer_overflow/libjpeg-turbo/rdswitch.c:243
    if (termchar != ';' && termchar != EOF) {
    625f:	83 f8 3b             	cmp    $0x3b,%eax
    6262:	74 09                	je     626d <read_scan_script+0x22d>
    6264:	83 f8 ff             	cmp    $0xffffffff,%eax
    6267:	0f 85 33 ff ff ff    	jne    61a0 <read_scan_script+0x160>
/home/tenebris/Disk/Documents/RootCauseAnalysis/evaluation/test_bin/libjpeg/libjpeg_heap_buffer_overflow/libjpeg-turbo/rdswitch.c:249
    scanptr++, scanno++;
    626d:	83 44 24 0c 01       	addl   $0x1,0xc(%rsp)
    6272:	48 83 c5 24          	add    $0x24,%rbp
    6276:	e9 2f fe ff ff       	jmp    60aa <read_scan_script+0x6a>
read_scan_integer():
/home/tenebris/Disk/Documents/RootCauseAnalysis/evaluation/test_bin/libjpeg/libjpeg_heap_buffer_overflow/libjpeg-turbo/rdswitch.c:149
  if (!read_text_integer(file, result, termchar))
    627b:	48 89 da             	mov    %rbx,%rdx
    627e:	4c 89 ee             	mov    %r13,%rsi
    6281:	4c 89 ff             	mov    %r15,%rdi
    6284:	e8 27 fa ff ff       	call   5cb0 <read_text_integer>
    6289:	85 c0                	test   %eax,%eax
    628b:	0f 84 0f ff ff ff    	je     61a0 <read_scan_script+0x160>
    6291:	48 89 de             	mov    %rbx,%rsi
    6294:	4c 89 ff             	mov    %r15,%rdi
    6297:	e8 f4 fa ff ff       	call   5d90 <read_scan_integer.part.0>
read_scan_script():
/home/tenebris/Disk/Documents/RootCauseAnalysis/evaluation/test_bin/libjpeg/libjpeg_heap_buffer_overflow/libjpeg-turbo/rdswitch.c:224
      if (!read_scan_integer(fp, &val, &termchar) || termchar != ' ')
    629c:	85 c0                	test   %eax,%eax
    629e:	0f 84 fc fe ff ff    	je     61a0 <read_scan_script+0x160>
/home/tenebris/Disk/Documents/RootCauseAnalysis/evaluation/test_bin/libjpeg/libjpeg_heap_buffer_overflow/libjpeg-turbo/rdswitch.c:224 (discriminator 1)
    62a4:	83 7c 24 24 20       	cmpl   $0x20,0x24(%rsp)
    62a9:	0f 85 f1 fe ff ff    	jne    61a0 <read_scan_script+0x160>
/home/tenebris/Disk/Documents/RootCauseAnalysis/evaluation/test_bin/libjpeg/libjpeg_heap_buffer_overflow/libjpeg-turbo/rdswitch.c:226
      scanptr->Ss = (int)val;
    62af:	48 8b 44 24 28       	mov    0x28(%rsp),%rax
read_scan_integer():
/home/tenebris/Disk/Documents/RootCauseAnalysis/evaluation/test_bin/libjpeg/libjpeg_heap_buffer_overflow/libjpeg-turbo/rdswitch.c:149
  if (!read_text_integer(file, result, termchar))
    62b4:	48 89 da             	mov    %rbx,%rdx
    62b7:	4c 89 ee             	mov    %r13,%rsi
    62ba:	4c 89 ff             	mov    %r15,%rdi
read_scan_script():
/home/tenebris/Disk/Documents/RootCauseAnalysis/evaluation/test_bin/libjpeg/libjpeg_heap_buffer_overflow/libjpeg-turbo/rdswitch.c:226
      scanptr->Ss = (int)val;
    62bd:	89 45 14             	mov    %eax,0x14(%rbp)
read_scan_integer():
/home/tenebris/Disk/Documents/RootCauseAnalysis/evaluation/test_bin/libjpeg/libjpeg_heap_buffer_overflow/libjpeg-turbo/rdswitch.c:149
  if (!read_text_integer(file, result, termchar))
    62c0:	e8 eb f9 ff ff       	call   5cb0 <read_text_integer>
    62c5:	85 c0                	test   %eax,%eax
    62c7:	0f 84 d3 fe ff ff    	je     61a0 <read_scan_script+0x160>
    62cd:	48 89 de             	mov    %rbx,%rsi
    62d0:	4c 89 ff             	mov    %r15,%rdi
    62d3:	e8 b8 fa ff ff       	call   5d90 <read_scan_integer.part.0>
read_scan_script():
/home/tenebris/Disk/Documents/RootCauseAnalysis/evaluation/test_bin/libjpeg/libjpeg_heap_buffer_overflow/libjpeg-turbo/rdswitch.c:227
      if (!read_scan_integer(fp, &val, &termchar) || termchar != ' ')
    62d8:	85 c0                	test   %eax,%eax
    62da:	0f 84 c0 fe ff ff    	je     61a0 <read_scan_script+0x160>
/home/tenebris/Disk/Documents/RootCauseAnalysis/evaluation/test_bin/libjpeg/libjpeg_heap_buffer_overflow/libjpeg-turbo/rdswitch.c:227 (discriminator 1)
    62e0:	83 7c 24 24 20       	cmpl   $0x20,0x24(%rsp)
    62e5:	0f 85 b5 fe ff ff    	jne    61a0 <read_scan_script+0x160>
/home/tenebris/Disk/Documents/RootCauseAnalysis/evaluation/test_bin/libjpeg/libjpeg_heap_buffer_overflow/libjpeg-turbo/rdswitch.c:229
      scanptr->Se = (int)val;
    62eb:	48 8b 44 24 28       	mov    0x28(%rsp),%rax
read_scan_integer():
/home/tenebris/Disk/Documents/RootCauseAnalysis/evaluation/test_bin/libjpeg/libjpeg_heap_buffer_overflow/libjpeg-turbo/rdswitch.c:149
  if (!read_text_integer(file, result, termchar))
    62f0:	48 89 da             	mov    %rbx,%rdx
    62f3:	4c 89 ee             	mov    %r13,%rsi
    62f6:	4c 89 ff             	mov    %r15,%rdi
read_scan_script():
/home/tenebris/Disk/Documents/RootCauseAnalysis/evaluation/test_bin/libjpeg/libjpeg_heap_buffer_overflow/libjpeg-turbo/rdswitch.c:229
      scanptr->Se = (int)val;
    62f9:	89 45 18             	mov    %eax,0x18(%rbp)
read_scan_integer():
/home/tenebris/Disk/Documents/RootCauseAnalysis/evaluation/test_bin/libjpeg/libjpeg_heap_buffer_overflow/libjpeg-turbo/rdswitch.c:149
  if (!read_text_integer(file, result, termchar))
    62fc:	e8 af f9 ff ff       	call   5cb0 <read_text_integer>
    6301:	85 c0                	test   %eax,%eax
    6303:	0f 84 97 fe ff ff    	je     61a0 <read_scan_script+0x160>
    6309:	48 89 de             	mov    %rbx,%rsi
    630c:	4c 89 ff             	mov    %r15,%rdi
    630f:	e8 7c fa ff ff       	call   5d90 <read_scan_integer.part.0>
read_scan_script():
/home/tenebris/Disk/Documents/RootCauseAnalysis/evaluation/test_bin/libjpeg/libjpeg_heap_buffer_overflow/libjpeg-turbo/rdswitch.c:230
      if (!read_scan_integer(fp, &val, &termchar) || termchar != ' ')
    6314:	85 c0                	test   %eax,%eax
    6316:	0f 84 84 fe ff ff    	je     61a0 <read_scan_script+0x160>
/home/tenebris/Disk/Documents/RootCauseAnalysis/evaluation/test_bin/libjpeg/libjpeg_heap_buffer_overflow/libjpeg-turbo/rdswitch.c:230 (discriminator 1)
    631c:	83 7c 24 24 20       	cmpl   $0x20,0x24(%rsp)
    6321:	0f 85 79 fe ff ff    	jne    61a0 <read_scan_script+0x160>
/home/tenebris/Disk/Documents/RootCauseAnalysis/evaluation/test_bin/libjpeg/libjpeg_heap_buffer_overflow/libjpeg-turbo/rdswitch.c:232
      scanptr->Ah = (int)val;
    6327:	48 8b 44 24 28       	mov    0x28(%rsp),%rax
read_scan_integer():
/home/tenebris/Disk/Documents/RootCauseAnalysis/evaluation/test_bin/libjpeg/libjpeg_heap_buffer_overflow/libjpeg-turbo/rdswitch.c:149
  if (!read_text_integer(file, result, termchar))
    632c:	48 89 da             	mov    %rbx,%rdx
    632f:	4c 89 ee             	mov    %r13,%rsi
    6332:	4c 89 ff             	mov    %r15,%rdi
read_scan_script():
/home/tenebris/Disk/Documents/RootCauseAnalysis/evaluation/test_bin/libjpeg/libjpeg_heap_buffer_overflow/libjpeg-turbo/rdswitch.c:232
      scanptr->Ah = (int)val;
    6335:	89 45 1c             	mov    %eax,0x1c(%rbp)
read_scan_integer():
/home/tenebris/Disk/Documents/RootCauseAnalysis/evaluation/test_bin/libjpeg/libjpeg_heap_buffer_overflow/libjpeg-turbo/rdswitch.c:149
  if (!read_text_integer(file, result, termchar))
    6338:	e8 73 f9 ff ff       	call   5cb0 <read_text_integer>
    633d:	85 c0                	test   %eax,%eax
    633f:	0f 84 5b fe ff ff    	je     61a0 <read_scan_script+0x160>
    6345:	48 89 de             	mov    %rbx,%rsi
    6348:	4c 89 ff             	mov    %r15,%rdi
    634b:	e8 40 fa ff ff       	call   5d90 <read_scan_integer.part.0>
read_scan_script():
/home/tenebris/Disk/Documents/RootCauseAnalysis/evaluation/test_bin/libjpeg/libjpeg_heap_buffer_overflow/libjpeg-turbo/rdswitch.c:233
      if (!read_scan_integer(fp, &val, &termchar))
    6350:	85 c0                	test   %eax,%eax
    6352:	0f 84 48 fe ff ff    	je     61a0 <read_scan_script+0x160>
/home/tenebris/Disk/Documents/RootCauseAnalysis/evaluation/test_bin/libjpeg/libjpeg_heap_buffer_overflow/libjpeg-turbo/rdswitch.c:235
      scanptr->Al = (int)val;
    6358:	8b 54 24 28          	mov    0x28(%rsp),%edx
    635c:	8b 44 24 24          	mov    0x24(%rsp),%eax
    6360:	e9 f7 fe ff ff       	jmp    625c <read_scan_script+0x21c>
fprintf():
/usr/include/x86_64-linux-gnu/bits/stdio2.h:105
    6365:	4c 89 e1             	mov    %r12,%rcx
    6368:	48 8d 15 39 3f 00 00 	lea    0x3f39(%rip),%rdx        # a2a8 <rgb_red+0x108>
    636f:	e9 dd fd ff ff       	jmp    6151 <read_scan_script+0x111>
    6374:	0f 1f 40 00          	nopl   0x0(%rax)
    6378:	4c 89 e1             	mov    %r12,%rcx
    637b:	48 8d 15 b6 3e 00 00 	lea    0x3eb6(%rip),%rdx        # a238 <rgb_red+0x98>
    6382:	e9 ca fd ff ff       	jmp    6151 <read_scan_script+0x111>
    6387:	48 8b 3d b2 6c 00 00 	mov    0x6cb2(%rip),%rdi        # d040 <stderr@GLIBC_2.2.5>
    638e:	4c 89 e1             	mov    %r12,%rcx
    6391:	be 01 00 00 00       	mov    $0x1,%esi
    6396:	31 c0                	xor    %eax,%eax
    6398:	48 8d 15 e1 3e 00 00 	lea    0x3ee1(%rip),%rdx        # a280 <rgb_red+0xe0>
    639f:	e8 8c c0 ff ff       	call   2430 <__fprintf_chk@plt>
read_scan_script():
/home/tenebris/Disk/Documents/RootCauseAnalysis/evaluation/test_bin/libjpeg/libjpeg_heap_buffer_overflow/libjpeg-turbo/rdswitch.c:197
    return FALSE;
    63a4:	31 c0                	xor    %eax,%eax
    63a6:	e9 c3 fd ff ff       	jmp    616e <read_scan_script+0x12e>
/home/tenebris/Disk/Documents/RootCauseAnalysis/evaluation/test_bin/libjpeg/libjpeg_heap_buffer_overflow/libjpeg-turbo/rdswitch.c:273
}
    63ab:	e8 00 bf ff ff       	call   22b0 <__stack_chk_fail@plt>

00000000000063b0 <set_quality_ratings>:
set_quality_ratings():
/home/tenebris/Disk/Documents/RootCauseAnalysis/evaluation/test_bin/libjpeg/libjpeg_heap_buffer_overflow/libjpeg-turbo/rdswitch.c:322
set_quality_ratings(j_compress_ptr cinfo, char *arg, boolean force_baseline)
/* Process a quality-ratings parameter string, of the form
 *     N[,N,...]
 * If there are more q-table slots than parameters, the last value is replicated.
 */
{
    63b0:	f3 0f 1e fa          	endbr64 
    63b4:	41 57                	push   %r15
    63b6:	4c 8d 3d 53 6c 00 00 	lea    0x6c53(%rip),%r15        # d010 <q_scale_factor>
    63bd:	41 56                	push   %r14
/home/tenebris/Disk/Documents/RootCauseAnalysis/evaluation/test_bin/libjpeg/libjpeg_heap_buffer_overflow/libjpeg-turbo/rdswitch.c:330
  char ch;

  for (tblno = 0; tblno < NUM_QUANT_TBLS; tblno++) {
    if (*arg) {
      ch = ',';                 /* if not set by sscanf, will be ',' */
      if (sscanf(arg, "%d%c", &val, &ch) < 1)
    63bf:	4c 8d 35 93 3e 00 00 	lea    0x3e93(%rip),%r14        # a259 <rgb_red+0xb9>
/home/tenebris/Disk/Documents/RootCauseAnalysis/evaluation/test_bin/libjpeg/libjpeg_heap_buffer_overflow/libjpeg-turbo/rdswitch.c:322
{
    63c6:	41 55                	push   %r13
    63c8:	4d 8d 6f 10          	lea    0x10(%r15),%r13
    63cc:	41 54                	push   %r12
    63ce:	41 89 d4             	mov    %edx,%r12d
    63d1:	55                   	push   %rbp
    63d2:	48 89 fd             	mov    %rdi,%rbp
    63d5:	53                   	push   %rbx
    63d6:	48 89 f3             	mov    %rsi,%rbx
    63d9:	48 83 ec 18          	sub    $0x18,%rsp
    63dd:	64 48 8b 04 25 28 00 	mov    %fs:0x28,%rax
    63e4:	00 00 
    63e6:	48 89 44 24 08       	mov    %rax,0x8(%rsp)
    63eb:	31 c0                	xor    %eax,%eax
/home/tenebris/Disk/Documents/RootCauseAnalysis/evaluation/test_bin/libjpeg/libjpeg_heap_buffer_overflow/libjpeg-turbo/rdswitch.c:323
  int val = 75;                 /* default value */
    63ed:	c7 44 24 04 4b 00 00 	movl   $0x4b,0x4(%rsp)
    63f4:	00 
/home/tenebris/Disk/Documents/RootCauseAnalysis/evaluation/test_bin/libjpeg/libjpeg_heap_buffer_overflow/libjpeg-turbo/rdswitch.c:328
    if (*arg) {
    63f5:	80 3b 00             	cmpb   $0x0,(%rbx)
    63f8:	75 76                	jne    6470 <set_quality_ratings+0xc0>
/home/tenebris/Disk/Documents/RootCauseAnalysis/evaluation/test_bin/libjpeg/libjpeg_heap_buffer_overflow/libjpeg-turbo/rdswitch.c:347
    } else {
      /* reached end of parameter, set remaining factors to last value */
#if JPEG_LIB_VERSION >= 70
      cinfo->q_scale_factor[tblno] = jpeg_quality_scaling(val);
#else
      q_scale_factor[tblno] = jpeg_quality_scaling(val);
    63fa:	8b 7c 24 04          	mov    0x4(%rsp),%edi
    63fe:	e8 2d bf ff ff       	call   2330 <jpeg_quality_scaling@plt>
    6403:	41 89 07             	mov    %eax,(%r15)
/home/tenebris/Disk/Documents/RootCauseAnalysis/evaluation/test_bin/libjpeg/libjpeg_heap_buffer_overflow/libjpeg-turbo/rdswitch.c:327 (discriminator 2)
  for (tblno = 0; tblno < NUM_QUANT_TBLS; tblno++) {
    6406:	49 83 c7 04          	add    $0x4,%r15
    640a:	4d 39 fd             	cmp    %r15,%r13
    640d:	75 e6                	jne    63f5 <set_quality_ratings+0x45>
jpeg_default_qtables():
/home/tenebris/Disk/Documents/RootCauseAnalysis/evaluation/test_bin/libjpeg/libjpeg_heap_buffer_overflow/libjpeg-turbo/rdswitch.c:308
  jpeg_add_quant_table(cinfo, 0, std_luminance_quant_tbl, q_scale_factor[0],
    640f:	8b 0d fb 6b 00 00    	mov    0x6bfb(%rip),%ecx        # d010 <q_scale_factor>
    6415:	45 89 e0             	mov    %r12d,%r8d
    6418:	31 f6                	xor    %esi,%esi
    641a:	48 89 ef             	mov    %rbp,%rdi
    641d:	48 8d 15 5c 40 00 00 	lea    0x405c(%rip),%rdx        # a480 <std_luminance_quant_tbl>
    6424:	e8 67 be ff ff       	call   2290 <jpeg_add_quant_table@plt>
/home/tenebris/Disk/Documents/RootCauseAnalysis/evaluation/test_bin/libjpeg/libjpeg_heap_buffer_overflow/libjpeg-turbo/rdswitch.c:310
  jpeg_add_quant_table(cinfo, 1, std_chrominance_quant_tbl, q_scale_factor[1],
    6429:	45 89 e0             	mov    %r12d,%r8d
    642c:	be 01 00 00 00       	mov    $0x1,%esi
    6431:	48 89 ef             	mov    %rbp,%rdi
    6434:	8b 0d da 6b 00 00    	mov    0x6bda(%rip),%ecx        # d014 <q_scale_factor+0x4>
    643a:	48 8d 15 3f 3f 00 00 	lea    0x3f3f(%rip),%rdx        # a380 <std_chrominance_quant_tbl>
    6441:	e8 4a be ff ff       	call   2290 <jpeg_add_quant_table@plt>
set_quality_ratings():
/home/tenebris/Disk/Documents/RootCauseAnalysis/evaluation/test_bin/libjpeg/libjpeg_heap_buffer_overflow/libjpeg-turbo/rdswitch.c:352
#endif
    }
  }
  jpeg_default_qtables(cinfo, force_baseline);
  return TRUE;
    6446:	b8 01 00 00 00       	mov    $0x1,%eax
/home/tenebris/Disk/Documents/RootCauseAnalysis/evaluation/test_bin/libjpeg/libjpeg_heap_buffer_overflow/libjpeg-turbo/rdswitch.c:353
}
    644b:	48 8b 54 24 08       	mov    0x8(%rsp),%rdx
    6450:	64 48 2b 14 25 28 00 	sub    %fs:0x28,%rdx
    6457:	00 00 
    6459:	75 69                	jne    64c4 <set_quality_ratings+0x114>
    645b:	48 83 c4 18          	add    $0x18,%rsp
    645f:	5b                   	pop    %rbx
    6460:	5d                   	pop    %rbp
    6461:	41 5c                	pop    %r12
    6463:	41 5d                	pop    %r13
    6465:	41 5e                	pop    %r14
    6467:	41 5f                	pop    %r15
    6469:	c3                   	ret    
    646a:	66 0f 1f 44 00 00    	nopw   0x0(%rax,%rax,1)
/home/tenebris/Disk/Documents/RootCauseAnalysis/evaluation/test_bin/libjpeg/libjpeg_heap_buffer_overflow/libjpeg-turbo/rdswitch.c:330
      if (sscanf(arg, "%d%c", &val, &ch) < 1)
    6470:	31 c0                	xor    %eax,%eax
    6472:	48 8d 4c 24 03       	lea    0x3(%rsp),%rcx
    6477:	48 8d 54 24 04       	lea    0x4(%rsp),%rdx
    647c:	4c 89 f6             	mov    %r14,%rsi
    647f:	48 89 df             	mov    %rbx,%rdi
/home/tenebris/Disk/Documents/RootCauseAnalysis/evaluation/test_bin/libjpeg/libjpeg_heap_buffer_overflow/libjpeg-turbo/rdswitch.c:329
      ch = ',';                 /* if not set by sscanf, will be ',' */
    6482:	c6 44 24 03 2c       	movb   $0x2c,0x3(%rsp)
/home/tenebris/Disk/Documents/RootCauseAnalysis/evaluation/test_bin/libjpeg/libjpeg_heap_buffer_overflow/libjpeg-turbo/rdswitch.c:330
      if (sscanf(arg, "%d%c", &val, &ch) < 1)
    6487:	e8 c4 be ff ff       	call   2350 <__isoc99_sscanf@plt>
    648c:	85 c0                	test   %eax,%eax
    648e:	7e 30                	jle    64c0 <set_quality_ratings+0x110>
/home/tenebris/Disk/Documents/RootCauseAnalysis/evaluation/test_bin/libjpeg/libjpeg_heap_buffer_overflow/libjpeg-turbo/rdswitch.c:332
      if (ch != ',')            /* syntax check */
    6490:	80 7c 24 03 2c       	cmpb   $0x2c,0x3(%rsp)
    6495:	75 29                	jne    64c0 <set_quality_ratings+0x110>
/home/tenebris/Disk/Documents/RootCauseAnalysis/evaluation/test_bin/libjpeg/libjpeg_heap_buffer_overflow/libjpeg-turbo/rdswitch.c:338
      q_scale_factor[tblno] = jpeg_quality_scaling(val);
    6497:	8b 7c 24 04          	mov    0x4(%rsp),%edi
    649b:	e8 90 be ff ff       	call   2330 <jpeg_quality_scaling@plt>
    64a0:	41 89 07             	mov    %eax,(%r15)
/home/tenebris/Disk/Documents/RootCauseAnalysis/evaluation/test_bin/libjpeg/libjpeg_heap_buffer_overflow/libjpeg-turbo/rdswitch.c:340
      while (*arg && *arg++ != ',') /* advance to next segment of arg string */
    64a3:	eb 0f                	jmp    64b4 <set_quality_ratings+0x104>
    64a5:	0f 1f 00             	nopl   (%rax)
/home/tenebris/Disk/Documents/RootCauseAnalysis/evaluation/test_bin/libjpeg/libjpeg_heap_buffer_overflow/libjpeg-turbo/rdswitch.c:340 (discriminator 1)
    64a8:	48 83 c3 01          	add    $0x1,%rbx
    64ac:	3c 2c                	cmp    $0x2c,%al
    64ae:	0f 84 52 ff ff ff    	je     6406 <set_quality_ratings+0x56>
/home/tenebris/Disk/Documents/RootCauseAnalysis/evaluation/test_bin/libjpeg/libjpeg_heap_buffer_overflow/libjpeg-turbo/rdswitch.c:340 (discriminator 2)
    64b4:	0f b6 03             	movzbl (%rbx),%eax
    64b7:	84 c0                	test   %al,%al
    64b9:	75 ed                	jne    64a8 <set_quality_ratings+0xf8>
    64bb:	e9 46 ff ff ff       	jmp    6406 <set_quality_ratings+0x56>
/home/tenebris/Disk/Documents/RootCauseAnalysis/evaluation/test_bin/libjpeg/libjpeg_heap_buffer_overflow/libjpeg-turbo/rdswitch.c:331
        return FALSE;
    64c0:	31 c0                	xor    %eax,%eax
    64c2:	eb 87                	jmp    644b <set_quality_ratings+0x9b>
/home/tenebris/Disk/Documents/RootCauseAnalysis/evaluation/test_bin/libjpeg/libjpeg_heap_buffer_overflow/libjpeg-turbo/rdswitch.c:353
}
    64c4:	e8 e7 bd ff ff       	call   22b0 <__stack_chk_fail@plt>
    64c9:	0f 1f 80 00 00 00 00 	nopl   0x0(%rax)

00000000000064d0 <set_quant_slots>:
set_quant_slots():
/home/tenebris/Disk/Documents/RootCauseAnalysis/evaluation/test_bin/libjpeg/libjpeg_heap_buffer_overflow/libjpeg-turbo/rdswitch.c:362
set_quant_slots(j_compress_ptr cinfo, char *arg)
/* Process a quantization-table-selectors parameter string, of the form
 *     N[,N,...]
 * If there are more components than parameters, the last value is replicated.
 */
{
    64d0:	f3 0f 1e fa          	endbr64 
    64d4:	41 55                	push   %r13
/home/tenebris/Disk/Documents/RootCauseAnalysis/evaluation/test_bin/libjpeg/libjpeg_heap_buffer_overflow/libjpeg-turbo/rdswitch.c:370
  char ch;

  for (ci = 0; ci < MAX_COMPONENTS; ci++) {
    if (*arg) {
      ch = ',';                 /* if not set by sscanf, will be ',' */
      if (sscanf(arg, "%d%c", &val, &ch) < 1)
    64d6:	4c 8d 2d 7c 3d 00 00 	lea    0x3d7c(%rip),%r13        # a259 <rgb_red+0xb9>
/home/tenebris/Disk/Documents/RootCauseAnalysis/evaluation/test_bin/libjpeg/libjpeg_heap_buffer_overflow/libjpeg-turbo/rdswitch.c:362
{
    64dd:	41 54                	push   %r12
    64df:	49 89 fc             	mov    %rdi,%r12
    64e2:	55                   	push   %rbp
/home/tenebris/Disk/Documents/RootCauseAnalysis/evaluation/test_bin/libjpeg/libjpeg_heap_buffer_overflow/libjpeg-turbo/rdswitch.c:363
  int val = 0;                  /* default table # */
    64e3:	31 ed                	xor    %ebp,%ebp
/home/tenebris/Disk/Documents/RootCauseAnalysis/evaluation/test_bin/libjpeg/libjpeg_heap_buffer_overflow/libjpeg-turbo/rdswitch.c:362
{
    64e5:	53                   	push   %rbx
    64e6:	48 89 f3             	mov    %rsi,%rbx
    64e9:	48 83 ec 18          	sub    $0x18,%rsp
    64ed:	64 48 8b 04 25 28 00 	mov    %fs:0x28,%rax
    64f4:	00 00 
    64f6:	48 89 44 24 08       	mov    %rax,0x8(%rsp)
    64fb:	31 c0                	xor    %eax,%eax
/home/tenebris/Disk/Documents/RootCauseAnalysis/evaluation/test_bin/libjpeg/libjpeg_heap_buffer_overflow/libjpeg-turbo/rdswitch.c:363
  int val = 0;                  /* default table # */
    64fd:	c7 44 24 04 00 00 00 	movl   $0x0,0x4(%rsp)
    6504:	00 
/home/tenebris/Disk/Documents/RootCauseAnalysis/evaluation/test_bin/libjpeg/libjpeg_heap_buffer_overflow/libjpeg-turbo/rdswitch.c:367
  for (ci = 0; ci < MAX_COMPONENTS; ci++) {
    6505:	eb 23                	jmp    652a <set_quant_slots+0x5a>
    6507:	66 0f 1f 84 00 00 00 	nopw   0x0(%rax,%rax,1)
    650e:	00 00 
/home/tenebris/Disk/Documents/RootCauseAnalysis/evaluation/test_bin/libjpeg/libjpeg_heap_buffer_overflow/libjpeg-turbo/rdswitch.c:384
      cinfo->comp_info[ci].quant_tbl_no = val;
      while (*arg && *arg++ != ',') /* advance to next segment of arg string */
        ;
    } else {
      /* reached end of parameter, set remaining components to last table */
      cinfo->comp_info[ci].quant_tbl_no = val;
    6510:	49 8b 44 24 58       	mov    0x58(%r12),%rax
    6515:	8b 54 24 04          	mov    0x4(%rsp),%edx
    6519:	89 54 28 10          	mov    %edx,0x10(%rax,%rbp,1)
/home/tenebris/Disk/Documents/RootCauseAnalysis/evaluation/test_bin/libjpeg/libjpeg_heap_buffer_overflow/libjpeg-turbo/rdswitch.c:367 (discriminator 2)
  for (ci = 0; ci < MAX_COMPONENTS; ci++) {
    651d:	48 83 c5 60          	add    $0x60,%rbp
    6521:	48 81 fd c0 03 00 00 	cmp    $0x3c0,%rbp
    6528:	74 66                	je     6590 <set_quant_slots+0xc0>
/home/tenebris/Disk/Documents/RootCauseAnalysis/evaluation/test_bin/libjpeg/libjpeg_heap_buffer_overflow/libjpeg-turbo/rdswitch.c:368
    if (*arg) {
    652a:	80 3b 00             	cmpb   $0x0,(%rbx)
    652d:	74 e1                	je     6510 <set_quant_slots+0x40>
/home/tenebris/Disk/Documents/RootCauseAnalysis/evaluation/test_bin/libjpeg/libjpeg_heap_buffer_overflow/libjpeg-turbo/rdswitch.c:370
      if (sscanf(arg, "%d%c", &val, &ch) < 1)
    652f:	31 c0                	xor    %eax,%eax
    6531:	48 8d 4c 24 03       	lea    0x3(%rsp),%rcx
    6536:	48 8d 54 24 04       	lea    0x4(%rsp),%rdx
    653b:	4c 89 ee             	mov    %r13,%rsi
    653e:	48 89 df             	mov    %rbx,%rdi
/home/tenebris/Disk/Documents/RootCauseAnalysis/evaluation/test_bin/libjpeg/libjpeg_heap_buffer_overflow/libjpeg-turbo/rdswitch.c:369
      ch = ',';                 /* if not set by sscanf, will be ',' */
    6541:	c6 44 24 03 2c       	movb   $0x2c,0x3(%rsp)
/home/tenebris/Disk/Documents/RootCauseAnalysis/evaluation/test_bin/libjpeg/libjpeg_heap_buffer_overflow/libjpeg-turbo/rdswitch.c:370
      if (sscanf(arg, "%d%c", &val, &ch) < 1)
    6546:	e8 05 be ff ff       	call   2350 <__isoc99_sscanf@plt>
    654b:	85 c0                	test   %eax,%eax
    654d:	7e 61                	jle    65b0 <set_quant_slots+0xe0>
/home/tenebris/Disk/Documents/RootCauseAnalysis/evaluation/test_bin/libjpeg/libjpeg_heap_buffer_overflow/libjpeg-turbo/rdswitch.c:372
      if (ch != ',')            /* syntax check */
    654f:	80 7c 24 03 2c       	cmpb   $0x2c,0x3(%rsp)
    6554:	75 5a                	jne    65b0 <set_quant_slots+0xe0>
/home/tenebris/Disk/Documents/RootCauseAnalysis/evaluation/test_bin/libjpeg/libjpeg_heap_buffer_overflow/libjpeg-turbo/rdswitch.c:374
      if (val < 0 || val >= NUM_QUANT_TBLS) {
    6556:	8b 44 24 04          	mov    0x4(%rsp),%eax
    655a:	83 f8 03             	cmp    $0x3,%eax
    655d:	77 55                	ja     65b4 <set_quant_slots+0xe4>
/home/tenebris/Disk/Documents/RootCauseAnalysis/evaluation/test_bin/libjpeg/libjpeg_heap_buffer_overflow/libjpeg-turbo/rdswitch.c:379
      cinfo->comp_info[ci].quant_tbl_no = val;
    655f:	49 8b 54 24 58       	mov    0x58(%r12),%rdx
    6564:	89 44 2a 10          	mov    %eax,0x10(%rdx,%rbp,1)
/home/tenebris/Disk/Documents/RootCauseAnalysis/evaluation/test_bin/libjpeg/libjpeg_heap_buffer_overflow/libjpeg-turbo/rdswitch.c:380
      while (*arg && *arg++ != ',') /* advance to next segment of arg string */
    6568:	eb 0e                	jmp    6578 <set_quant_slots+0xa8>
    656a:	66 0f 1f 44 00 00    	nopw   0x0(%rax,%rax,1)
/home/tenebris/Disk/Documents/RootCauseAnalysis/evaluation/test_bin/libjpeg/libjpeg_heap_buffer_overflow/libjpeg-turbo/rdswitch.c:380 (discriminator 1)
    6570:	48 83 c3 01          	add    $0x1,%rbx
    6574:	3c 2c                	cmp    $0x2c,%al
    6576:	74 a5                	je     651d <set_quant_slots+0x4d>
/home/tenebris/Disk/Documents/RootCauseAnalysis/evaluation/test_bin/libjpeg/libjpeg_heap_buffer_overflow/libjpeg-turbo/rdswitch.c:380 (discriminator 2)
    6578:	0f b6 03             	movzbl (%rbx),%eax
    657b:	84 c0                	test   %al,%al
    657d:	75 f1                	jne    6570 <set_quant_slots+0xa0>
/home/tenebris/Disk/Documents/RootCauseAnalysis/evaluation/test_bin/libjpeg/libjpeg_heap_buffer_overflow/libjpeg-turbo/rdswitch.c:367
  for (ci = 0; ci < MAX_COMPONENTS; ci++) {
    657f:	48 83 c5 60          	add    $0x60,%rbp
    6583:	48 81 fd c0 03 00 00 	cmp    $0x3c0,%rbp
    658a:	75 9e                	jne    652a <set_quant_slots+0x5a>
    658c:	0f 1f 40 00          	nopl   0x0(%rax)
/home/tenebris/Disk/Documents/RootCauseAnalysis/evaluation/test_bin/libjpeg/libjpeg_heap_buffer_overflow/libjpeg-turbo/rdswitch.c:387
    }
  }
  return TRUE;
    6590:	b8 01 00 00 00       	mov    $0x1,%eax
/home/tenebris/Disk/Documents/RootCauseAnalysis/evaluation/test_bin/libjpeg/libjpeg_heap_buffer_overflow/libjpeg-turbo/rdswitch.c:388
}
    6595:	48 8b 54 24 08       	mov    0x8(%rsp),%rdx
    659a:	64 48 2b 14 25 28 00 	sub    %fs:0x28,%rdx
    65a1:	00 00 
    65a3:	75 32                	jne    65d7 <set_quant_slots+0x107>
    65a5:	48 83 c4 18          	add    $0x18,%rsp
    65a9:	5b                   	pop    %rbx
    65aa:	5d                   	pop    %rbp
    65ab:	41 5c                	pop    %r12
    65ad:	41 5d                	pop    %r13
    65af:	c3                   	ret    
/home/tenebris/Disk/Documents/RootCauseAnalysis/evaluation/test_bin/libjpeg/libjpeg_heap_buffer_overflow/libjpeg-turbo/rdswitch.c:371
        return FALSE;
    65b0:	31 c0                	xor    %eax,%eax
    65b2:	eb e1                	jmp    6595 <set_quant_slots+0xc5>
fprintf():
/usr/include/x86_64-linux-gnu/bits/stdio2.h:105
    65b4:	48 8b 3d 85 6a 00 00 	mov    0x6a85(%rip),%rdi        # d040 <stderr@GLIBC_2.2.5>
    65bb:	b9 03 00 00 00       	mov    $0x3,%ecx
    65c0:	48 8d 15 61 3d 00 00 	lea    0x3d61(%rip),%rdx        # a328 <rgb_red+0x188>
    65c7:	31 c0                	xor    %eax,%eax
    65c9:	be 01 00 00 00       	mov    $0x1,%esi
    65ce:	e8 5d be ff ff       	call   2430 <__fprintf_chk@plt>
set_quant_slots():
/home/tenebris/Disk/Documents/RootCauseAnalysis/evaluation/test_bin/libjpeg/libjpeg_heap_buffer_overflow/libjpeg-turbo/rdswitch.c:377
        return FALSE;
    65d3:	31 c0                	xor    %eax,%eax
    65d5:	eb be                	jmp    6595 <set_quant_slots+0xc5>
/home/tenebris/Disk/Documents/RootCauseAnalysis/evaluation/test_bin/libjpeg/libjpeg_heap_buffer_overflow/libjpeg-turbo/rdswitch.c:388
}
    65d7:	e8 d4 bc ff ff       	call   22b0 <__stack_chk_fail@plt>
    65dc:	0f 1f 40 00          	nopl   0x0(%rax)

00000000000065e0 <set_sample_factors>:
set_sample_factors():
/home/tenebris/Disk/Documents/RootCauseAnalysis/evaluation/test_bin/libjpeg/libjpeg_heap_buffer_overflow/libjpeg-turbo/rdswitch.c:397
set_sample_factors(j_compress_ptr cinfo, char *arg)
/* Process a sample-factors parameter string, of the form
 *     HxV[,HxV,...]
 * If there are more components than parameters, "1x1" is assumed for the rest.
 */
{
    65e0:	f3 0f 1e fa          	endbr64 
    65e4:	41 57                	push   %r15
    65e6:	41 56                	push   %r14
/home/tenebris/Disk/Documents/RootCauseAnalysis/evaluation/test_bin/libjpeg/libjpeg_heap_buffer_overflow/libjpeg-turbo/rdswitch.c:404
  char ch1, ch2;

  for (ci = 0; ci < MAX_COMPONENTS; ci++) {
    if (*arg) {
      ch2 = ',';                /* if not set by sscanf, will be ',' */
      if (sscanf(arg, "%d%c%d%c", &val1, &ch1, &val2, &ch2) < 3)
    65e8:	4c 8d 35 66 3c 00 00 	lea    0x3c66(%rip),%r14        # a255 <rgb_red+0xb5>
/home/tenebris/Disk/Documents/RootCauseAnalysis/evaluation/test_bin/libjpeg/libjpeg_heap_buffer_overflow/libjpeg-turbo/rdswitch.c:397
{
    65ef:	41 55                	push   %r13
    65f1:	41 54                	push   %r12
    65f3:	49 89 fc             	mov    %rdi,%r12
    65f6:	55                   	push   %rbp
    65f7:	31 ed                	xor    %ebp,%ebp
    65f9:	53                   	push   %rbx
    65fa:	48 89 f3             	mov    %rsi,%rbx
    65fd:	48 83 ec 38          	sub    $0x38,%rsp
/home/tenebris/Disk/Documents/RootCauseAnalysis/evaluation/test_bin/libjpeg/libjpeg_heap_buffer_overflow/libjpeg-turbo/rdswitch.c:418
      cinfo->comp_info[ci].v_samp_factor = val2;
      while (*arg && *arg++ != ',') /* advance to next segment of arg string */
        ;
    } else {
      /* reached end of parameter, set remaining components to 1x1 sampling */
      cinfo->comp_info[ci].h_samp_factor = 1;
    6601:	4c 8b 2d 80 3f 00 00 	mov    0x3f80(%rip),%r13        # a588 <std_luminance_quant_tbl+0x108>
/home/tenebris/Disk/Documents/RootCauseAnalysis/evaluation/test_bin/libjpeg/libjpeg_heap_buffer_overflow/libjpeg-turbo/rdswitch.c:397
{
    6608:	64 48 8b 04 25 28 00 	mov    %fs:0x28,%rax
    660f:	00 00 
    6611:	48 89 44 24 28       	mov    %rax,0x28(%rsp)
    6616:	31 c0                	xor    %eax,%eax
/home/tenebris/Disk/Documents/RootCauseAnalysis/evaluation/test_bin/libjpeg/libjpeg_heap_buffer_overflow/libjpeg-turbo/rdswitch.c:404
      if (sscanf(arg, "%d%c%d%c", &val1, &ch1, &val2, &ch2) < 3)
    6618:	4c 8d 4c 24 1f       	lea    0x1f(%rsp),%r9
    661d:	4c 8d 7c 24 24       	lea    0x24(%rsp),%r15
    6622:	eb 1f                	jmp    6643 <set_sample_factors+0x63>
    6624:	0f 1f 40 00          	nopl   0x0(%rax)
/home/tenebris/Disk/Documents/RootCauseAnalysis/evaluation/test_bin/libjpeg/libjpeg_heap_buffer_overflow/libjpeg-turbo/rdswitch.c:418
      cinfo->comp_info[ci].h_samp_factor = 1;
    6628:	49 8b 44 24 58       	mov    0x58(%r12),%rax
    662d:	4c 89 6c 28 08       	mov    %r13,0x8(%rax,%rbp,1)
/home/tenebris/Disk/Documents/RootCauseAnalysis/evaluation/test_bin/libjpeg/libjpeg_heap_buffer_overflow/libjpeg-turbo/rdswitch.c:401 (discriminator 2)
  for (ci = 0; ci < MAX_COMPONENTS; ci++) {
    6632:	48 83 c5 60          	add    $0x60,%rbp
    6636:	48 81 fd c0 03 00 00 	cmp    $0x3c0,%rbp
    663d:	0f 84 b5 00 00 00    	je     66f8 <set_sample_factors+0x118>
/home/tenebris/Disk/Documents/RootCauseAnalysis/evaluation/test_bin/libjpeg/libjpeg_heap_buffer_overflow/libjpeg-turbo/rdswitch.c:402
    if (*arg) {
    6643:	80 3b 00             	cmpb   $0x0,(%rbx)
    6646:	74 e0                	je     6628 <set_sample_factors+0x48>
/home/tenebris/Disk/Documents/RootCauseAnalysis/evaluation/test_bin/libjpeg/libjpeg_heap_buffer_overflow/libjpeg-turbo/rdswitch.c:404
      if (sscanf(arg, "%d%c%d%c", &val1, &ch1, &val2, &ch2) < 3)
    6648:	31 c0                	xor    %eax,%eax
    664a:	48 8d 4c 24 1e       	lea    0x1e(%rsp),%rcx
    664f:	48 8d 54 24 20       	lea    0x20(%rsp),%rdx
    6654:	4d 89 f8             	mov    %r15,%r8
    6657:	4c 89 f6             	mov    %r14,%rsi
    665a:	48 89 df             	mov    %rbx,%rdi
/home/tenebris/Disk/Documents/RootCauseAnalysis/evaluation/test_bin/libjpeg/libjpeg_heap_buffer_overflow/libjpeg-turbo/rdswitch.c:403
      ch2 = ',';                /* if not set by sscanf, will be ',' */
    665d:	c6 44 24 1f 2c       	movb   $0x2c,0x1f(%rsp)
/home/tenebris/Disk/Documents/RootCauseAnalysis/evaluation/test_bin/libjpeg/libjpeg_heap_buffer_overflow/libjpeg-turbo/rdswitch.c:404
      if (sscanf(arg, "%d%c%d%c", &val1, &ch1, &val2, &ch2) < 3)
    6662:	4c 89 4c 24 08       	mov    %r9,0x8(%rsp)
    6667:	e8 e4 bc ff ff       	call   2350 <__isoc99_sscanf@plt>
    666c:	83 f8 02             	cmp    $0x2,%eax
    666f:	0f 8e a7 00 00 00    	jle    671c <set_sample_factors+0x13c>
/home/tenebris/Disk/Documents/RootCauseAnalysis/evaluation/test_bin/libjpeg/libjpeg_heap_buffer_overflow/libjpeg-turbo/rdswitch.c:406
      if ((ch1 != 'x' && ch1 != 'X') || ch2 != ',') /* syntax check */
    6675:	0f b6 44 24 1e       	movzbl 0x1e(%rsp),%eax
    667a:	83 e0 df             	and    $0xffffffdf,%eax
    667d:	3c 58                	cmp    $0x58,%al
    667f:	0f 85 97 00 00 00    	jne    671c <set_sample_factors+0x13c>
/home/tenebris/Disk/Documents/RootCauseAnalysis/evaluation/test_bin/libjpeg/libjpeg_heap_buffer_overflow/libjpeg-turbo/rdswitch.c:406 (discriminator 1)
    6685:	80 7c 24 1f 2c       	cmpb   $0x2c,0x1f(%rsp)
    668a:	0f 85 8c 00 00 00    	jne    671c <set_sample_factors+0x13c>
/home/tenebris/Disk/Documents/RootCauseAnalysis/evaluation/test_bin/libjpeg/libjpeg_heap_buffer_overflow/libjpeg-turbo/rdswitch.c:408
      if (val1 <= 0 || val1 > 4 || val2 <= 0 || val2 > 4) {
    6690:	8b 44 24 20          	mov    0x20(%rsp),%eax
    6694:	8d 50 ff             	lea    -0x1(%rax),%edx
    6697:	83 fa 03             	cmp    $0x3,%edx
    669a:	0f 87 80 00 00 00    	ja     6720 <set_sample_factors+0x140>
    66a0:	66 0f 6e 4c 24 24    	movd   0x24(%rsp),%xmm1
    66a6:	66 0f 6e c0          	movd   %eax,%xmm0
/home/tenebris/Disk/Documents/RootCauseAnalysis/evaluation/test_bin/libjpeg/libjpeg_heap_buffer_overflow/libjpeg-turbo/rdswitch.c:408 (discriminator 1)
    66aa:	4c 8b 4c 24 08       	mov    0x8(%rsp),%r9
    66af:	66 0f 7e c8          	movd   %xmm1,%eax
    66b3:	66 0f 62 c1          	punpckldq %xmm1,%xmm0
    66b7:	8d 50 ff             	lea    -0x1(%rax),%edx
    66ba:	83 fa 03             	cmp    $0x3,%edx
    66bd:	77 61                	ja     6720 <set_sample_factors+0x140>
/home/tenebris/Disk/Documents/RootCauseAnalysis/evaluation/test_bin/libjpeg/libjpeg_heap_buffer_overflow/libjpeg-turbo/rdswitch.c:412
      cinfo->comp_info[ci].h_samp_factor = val1;
    66bf:	49 8b 54 24 58       	mov    0x58(%r12),%rdx
    66c4:	66 0f d6 44 2a 08    	movq   %xmm0,0x8(%rdx,%rbp,1)
/home/tenebris/Disk/Documents/RootCauseAnalysis/evaluation/test_bin/libjpeg/libjpeg_heap_buffer_overflow/libjpeg-turbo/rdswitch.c:414
      while (*arg && *arg++ != ',') /* advance to next segment of arg string */
    66ca:	eb 10                	jmp    66dc <set_sample_factors+0xfc>
    66cc:	0f 1f 40 00          	nopl   0x0(%rax)
/home/tenebris/Disk/Documents/RootCauseAnalysis/evaluation/test_bin/libjpeg/libjpeg_heap_buffer_overflow/libjpeg-turbo/rdswitch.c:414 (discriminator 1)
    66d0:	48 83 c3 01          	add    $0x1,%rbx
    66d4:	3c 2c                	cmp    $0x2c,%al
    66d6:	0f 84 56 ff ff ff    	je     6632 <set_sample_factors+0x52>
/home/tenebris/Disk/Documents/RootCauseAnalysis/evaluation/test_bin/libjpeg/libjpeg_heap_buffer_overflow/libjpeg-turbo/rdswitch.c:414 (discriminator 2)
    66dc:	0f b6 03             	movzbl (%rbx),%eax
    66df:	84 c0                	test   %al,%al
    66e1:	75 ed                	jne    66d0 <set_sample_factors+0xf0>
/home/tenebris/Disk/Documents/RootCauseAnalysis/evaluation/test_bin/libjpeg/libjpeg_heap_buffer_overflow/libjpeg-turbo/rdswitch.c:401
  for (ci = 0; ci < MAX_COMPONENTS; ci++) {
    66e3:	48 83 c5 60          	add    $0x60,%rbp
    66e7:	48 81 fd c0 03 00 00 	cmp    $0x3c0,%rbp
    66ee:	0f 85 4f ff ff ff    	jne    6643 <set_sample_factors+0x63>
    66f4:	0f 1f 40 00          	nopl   0x0(%rax)
/home/tenebris/Disk/Documents/RootCauseAnalysis/evaluation/test_bin/libjpeg/libjpeg_heap_buffer_overflow/libjpeg-turbo/rdswitch.c:422
      cinfo->comp_info[ci].v_samp_factor = 1;
    }
  }
  return TRUE;
    66f8:	b8 01 00 00 00       	mov    $0x1,%eax
/home/tenebris/Disk/Documents/RootCauseAnalysis/evaluation/test_bin/libjpeg/libjpeg_heap_buffer_overflow/libjpeg-turbo/rdswitch.c:423
}
    66fd:	48 8b 54 24 28       	mov    0x28(%rsp),%rdx
    6702:	64 48 2b 14 25 28 00 	sub    %fs:0x28,%rdx
    6709:	00 00 
    670b:	75 34                	jne    6741 <set_sample_factors+0x161>
    670d:	48 83 c4 38          	add    $0x38,%rsp
    6711:	5b                   	pop    %rbx
    6712:	5d                   	pop    %rbp
    6713:	41 5c                	pop    %r12
    6715:	41 5d                	pop    %r13
    6717:	41 5e                	pop    %r14
    6719:	41 5f                	pop    %r15
    671b:	c3                   	ret    
/home/tenebris/Disk/Documents/RootCauseAnalysis/evaluation/test_bin/libjpeg/libjpeg_heap_buffer_overflow/libjpeg-turbo/rdswitch.c:405
        return FALSE;
    671c:	31 c0                	xor    %eax,%eax
    671e:	eb dd                	jmp    66fd <set_sample_factors+0x11d>
fprintf():
/usr/include/x86_64-linux-gnu/bits/stdio2.h:105
    6720:	48 8b 0d 19 69 00 00 	mov    0x6919(%rip),%rcx        # d040 <stderr@GLIBC_2.2.5>
    6727:	ba 23 00 00 00       	mov    $0x23,%edx
    672c:	be 01 00 00 00       	mov    $0x1,%esi
    6731:	48 8d 3d 20 3c 00 00 	lea    0x3c20(%rip),%rdi        # a358 <rgb_red+0x1b8>
    6738:	e8 e3 bc ff ff       	call   2420 <fwrite@plt>
set_sample_factors():
/home/tenebris/Disk/Documents/RootCauseAnalysis/evaluation/test_bin/libjpeg/libjpeg_heap_buffer_overflow/libjpeg-turbo/rdswitch.c:410
        return FALSE;
    673d:	31 c0                	xor    %eax,%eax
    673f:	eb bc                	jmp    66fd <set_sample_factors+0x11d>
/home/tenebris/Disk/Documents/RootCauseAnalysis/evaluation/test_bin/libjpeg/libjpeg_heap_buffer_overflow/libjpeg-turbo/rdswitch.c:423
}
    6741:	e8 6a bb ff ff       	call   22b0 <__stack_chk_fail@plt>
    6746:	66 2e 0f 1f 84 00 00 	cs nopw 0x0(%rax,%rax,1)
    674d:	00 00 00 

0000000000006750 <finish_input_bmp>:
finish_input_bmp():
/home/tenebris/Disk/Documents/RootCauseAnalysis/evaluation/test_bin/libjpeg/libjpeg_heap_buffer_overflow/libjpeg-turbo/rdbmp.c:650
 * Finish up at the end of the file.
 */

METHODDEF(void)
finish_input_bmp(j_compress_ptr cinfo, cjpeg_source_ptr sinfo)
{
    6750:	f3 0f 1e fa          	endbr64 
/home/tenebris/Disk/Documents/RootCauseAnalysis/evaluation/test_bin/libjpeg/libjpeg_heap_buffer_overflow/libjpeg-turbo/rdbmp.c:652
  /* no work */
}
    6754:	c3                   	ret    
    6755:	66 66 2e 0f 1f 84 00 	data16 cs nopw 0x0(%rax,%rax,1)
    675c:	00 00 00 00 

0000000000006760 <get_8bit_row>:
get_8bit_row():
/home/tenebris/Disk/Documents/RootCauseAnalysis/evaluation/test_bin/libjpeg/libjpeg_heap_buffer_overflow/libjpeg-turbo/rdbmp.c:155
{
    6760:	f3 0f 1e fa          	endbr64 
    6764:	41 54                	push   %r12
    6766:	49 89 fc             	mov    %rdi,%r12
    6769:	55                   	push   %rbp
    676a:	48 89 f5             	mov    %rsi,%rbp
    676d:	53                   	push   %rbx
/home/tenebris/Disk/Documents/RootCauseAnalysis/evaluation/test_bin/libjpeg/libjpeg_heap_buffer_overflow/libjpeg-turbo/rdbmp.c:163
  if (source->use_inversion_array) {
    676e:	8b 46 54             	mov    0x54(%rsi),%eax
/home/tenebris/Disk/Documents/RootCauseAnalysis/evaluation/test_bin/libjpeg/libjpeg_heap_buffer_overflow/libjpeg-turbo/rdbmp.c:157
  register JSAMPARRAY colormap = source->colormap;
    6771:	48 8b 5e 38          	mov    0x38(%rsi),%rbx
/home/tenebris/Disk/Documents/RootCauseAnalysis/evaluation/test_bin/libjpeg/libjpeg_heap_buffer_overflow/libjpeg-turbo/rdbmp.c:163
  if (source->use_inversion_array) {
    6775:	85 c0                	test   %eax,%eax
    6777:	0f 84 e3 00 00 00    	je     6860 <get_8bit_row+0x100>
/home/tenebris/Disk/Documents/RootCauseAnalysis/evaluation/test_bin/libjpeg/libjpeg_heap_buffer_overflow/libjpeg-turbo/rdbmp.c:165
    source->source_row--;
    677d:	8b 46 48             	mov    0x48(%rsi),%eax
/home/tenebris/Disk/Documents/RootCauseAnalysis/evaluation/test_bin/libjpeg/libjpeg_heap_buffer_overflow/libjpeg-turbo/rdbmp.c:166
    image_ptr = (*cinfo->mem->access_virt_sarray)
    6780:	b9 01 00 00 00       	mov    $0x1,%ecx
    6785:	45 31 c0             	xor    %r8d,%r8d
/home/tenebris/Disk/Documents/RootCauseAnalysis/evaluation/test_bin/libjpeg/libjpeg_heap_buffer_overflow/libjpeg-turbo/rdbmp.c:165
    source->source_row--;
    6788:	8d 50 ff             	lea    -0x1(%rax),%edx
/home/tenebris/Disk/Documents/RootCauseAnalysis/evaluation/test_bin/libjpeg/libjpeg_heap_buffer_overflow/libjpeg-turbo/rdbmp.c:166
    image_ptr = (*cinfo->mem->access_virt_sarray)
    678b:	48 8b 47 08          	mov    0x8(%rdi),%rax
/home/tenebris/Disk/Documents/RootCauseAnalysis/evaluation/test_bin/libjpeg/libjpeg_heap_buffer_overflow/libjpeg-turbo/rdbmp.c:165
    source->source_row--;
    678f:	89 56 48             	mov    %edx,0x48(%rsi)
/home/tenebris/Disk/Documents/RootCauseAnalysis/evaluation/test_bin/libjpeg/libjpeg_heap_buffer_overflow/libjpeg-turbo/rdbmp.c:166
    image_ptr = (*cinfo->mem->access_virt_sarray)
    6792:	48 8b 76 40          	mov    0x40(%rsi),%rsi
    6796:	ff 50 38             	call   *0x38(%rax)
/home/tenebris/Disk/Documents/RootCauseAnalysis/evaluation/test_bin/libjpeg/libjpeg_heap_buffer_overflow/libjpeg-turbo/rdbmp.c:169
    inptr = image_ptr[0];
    6799:	48 8b 08             	mov    (%rax),%rcx
/home/tenebris/Disk/Documents/RootCauseAnalysis/evaluation/test_bin/libjpeg/libjpeg_heap_buffer_overflow/libjpeg-turbo/rdbmp.c:177
  outptr = source->pub.buffer[0];
    679c:	48 8b 45 20          	mov    0x20(%rbp),%rax
/home/tenebris/Disk/Documents/RootCauseAnalysis/evaluation/test_bin/libjpeg/libjpeg_heap_buffer_overflow/libjpeg-turbo/rdbmp.c:178
  if (cinfo->in_color_space == JCS_GRAYSCALE) {
    67a0:	41 8b 54 24 3c       	mov    0x3c(%r12),%edx
/home/tenebris/Disk/Documents/RootCauseAnalysis/evaluation/test_bin/libjpeg/libjpeg_heap_buffer_overflow/libjpeg-turbo/rdbmp.c:179
    for (col = cinfo->image_width; col > 0; col--) {
    67a5:	41 8b 74 24 30       	mov    0x30(%r12),%esi
/home/tenebris/Disk/Documents/RootCauseAnalysis/evaluation/test_bin/libjpeg/libjpeg_heap_buffer_overflow/libjpeg-turbo/rdbmp.c:177
  outptr = source->pub.buffer[0];
    67aa:	48 8b 00             	mov    (%rax),%rax
/home/tenebris/Disk/Documents/RootCauseAnalysis/evaluation/test_bin/libjpeg/libjpeg_heap_buffer_overflow/libjpeg-turbo/rdbmp.c:178
  if (cinfo->in_color_space == JCS_GRAYSCALE) {
    67ad:	83 fa 01             	cmp    $0x1,%edx
    67b0:	0f 84 62 02 00 00    	je     6a18 <get_8bit_row+0x2b8>
/home/tenebris/Disk/Documents/RootCauseAnalysis/evaluation/test_bin/libjpeg/libjpeg_heap_buffer_overflow/libjpeg-turbo/rdbmp.c:183
  } else if (cinfo->in_color_space == JCS_CMYK) {
    67b6:	83 fa 04             	cmp    $0x4,%edx
    67b9:	0f 84 29 01 00 00    	je     68e8 <get_8bit_row+0x188>
/home/tenebris/Disk/Documents/RootCauseAnalysis/evaluation/test_bin/libjpeg/libjpeg_heap_buffer_overflow/libjpeg-turbo/rdbmp.c:191
    register int rindex = rgb_red[cinfo->in_color_space];
    67bf:	48 8d 3d 5a 3f 00 00 	lea    0x3f5a(%rip),%rdi        # a720 <rgb_red>
    67c6:	4c 63 04 97          	movslq (%rdi,%rdx,4),%r8
/home/tenebris/Disk/Documents/RootCauseAnalysis/evaluation/test_bin/libjpeg/libjpeg_heap_buffer_overflow/libjpeg-turbo/rdbmp.c:192
    register int gindex = rgb_green[cinfo->in_color_space];
    67ca:	48 8d 3d ef 3e 00 00 	lea    0x3eef(%rip),%rdi        # a6c0 <rgb_green>
    67d1:	4c 63 0c 97          	movslq (%rdi,%rdx,4),%r9
/home/tenebris/Disk/Documents/RootCauseAnalysis/evaluation/test_bin/libjpeg/libjpeg_heap_buffer_overflow/libjpeg-turbo/rdbmp.c:193
    register int bindex = rgb_blue[cinfo->in_color_space];
    67d5:	48 8d 3d 84 3e 00 00 	lea    0x3e84(%rip),%rdi        # a660 <rgb_blue>
    67dc:	4c 63 14 97          	movslq (%rdi,%rdx,4),%r10
/home/tenebris/Disk/Documents/RootCauseAnalysis/evaluation/test_bin/libjpeg/libjpeg_heap_buffer_overflow/libjpeg-turbo/rdbmp.c:194
    register int aindex = alpha_index[cinfo->in_color_space];
    67e0:	48 8d 3d b9 3d 00 00 	lea    0x3db9(%rip),%rdi        # a5a0 <alpha_index>
    67e7:	4c 63 1c 97          	movslq (%rdi,%rdx,4),%r11
/home/tenebris/Disk/Documents/RootCauseAnalysis/evaluation/test_bin/libjpeg/libjpeg_heap_buffer_overflow/libjpeg-turbo/rdbmp.c:195
    register int ps = rgb_pixelsize[cinfo->in_color_space];
    67eb:	48 8d 3d 0e 3e 00 00 	lea    0x3e0e(%rip),%rdi        # a600 <rgb_pixelsize>
    67f2:	8b 2c 97             	mov    (%rdi,%rdx,4),%ebp
/home/tenebris/Disk/Documents/RootCauseAnalysis/evaluation/test_bin/libjpeg/libjpeg_heap_buffer_overflow/libjpeg-turbo/rdbmp.c:197
    if (aindex >= 0) {
    67f5:	45 85 db             	test   %r11d,%r11d
    67f8:	0f 88 7a 02 00 00    	js     6a78 <get_8bit_row+0x318>
/home/tenebris/Disk/Documents/RootCauseAnalysis/evaluation/test_bin/libjpeg/libjpeg_heap_buffer_overflow/libjpeg-turbo/rdbmp.c:198
      for (col = cinfo->image_width; col > 0; col--) {
    67fe:	85 f6                	test   %esi,%esi
    6800:	74 53                	je     6855 <get_8bit_row+0xf5>
/home/tenebris/Disk/Documents/RootCauseAnalysis/evaluation/test_bin/libjpeg/libjpeg_heap_buffer_overflow/libjpeg-turbo/rdbmp.c:204
        outptr += ps;
    6802:	4c 63 e5             	movslq %ebp,%r12
    6805:	4c 01 c0             	add    %r8,%rax
    6808:	48 8d 3c 31          	lea    (%rcx,%rsi,1),%rdi
    680c:	83 fd 01             	cmp    $0x1,%ebp
    680f:	0f 85 8b 00 00 00    	jne    68a0 <get_8bit_row+0x140>
    6815:	0f 1f 00             	nopl   (%rax)
/home/tenebris/Disk/Documents/RootCauseAnalysis/evaluation/test_bin/libjpeg/libjpeg_heap_buffer_overflow/libjpeg-turbo/rdbmp.c:200
        outptr[rindex] = colormap[0][t];
    6818:	0f b6 31             	movzbl (%rcx),%esi
    681b:	48 8b 13             	mov    (%rbx),%rdx
/home/tenebris/Disk/Documents/RootCauseAnalysis/evaluation/test_bin/libjpeg/libjpeg_heap_buffer_overflow/libjpeg-turbo/rdbmp.c:199
        t = GETJSAMPLE(*inptr++);
    681e:	48 83 c1 01          	add    $0x1,%rcx
/home/tenebris/Disk/Documents/RootCauseAnalysis/evaluation/test_bin/libjpeg/libjpeg_heap_buffer_overflow/libjpeg-turbo/rdbmp.c:200
        outptr[rindex] = colormap[0][t];
    6822:	0f b6 14 32          	movzbl (%rdx,%rsi,1),%edx
    6826:	88 10                	mov    %dl,(%rax)
/home/tenebris/Disk/Documents/RootCauseAnalysis/evaluation/test_bin/libjpeg/libjpeg_heap_buffer_overflow/libjpeg-turbo/rdbmp.c:201
        outptr[gindex] = colormap[1][t];
    6828:	48 8b 53 08          	mov    0x8(%rbx),%rdx
    682c:	0f b6 2c 32          	movzbl (%rdx,%rsi,1),%ebp
    6830:	48 89 c2             	mov    %rax,%rdx
/home/tenebris/Disk/Documents/RootCauseAnalysis/evaluation/test_bin/libjpeg/libjpeg_heap_buffer_overflow/libjpeg-turbo/rdbmp.c:198
      for (col = cinfo->image_width; col > 0; col--) {
    6833:	48 83 c0 01          	add    $0x1,%rax
    6837:	4c 29 c2             	sub    %r8,%rdx
/home/tenebris/Disk/Documents/RootCauseAnalysis/evaluation/test_bin/libjpeg/libjpeg_heap_buffer_overflow/libjpeg-turbo/rdbmp.c:201
        outptr[gindex] = colormap[1][t];
    683a:	42 88 2c 0a          	mov    %bpl,(%rdx,%r9,1)
/home/tenebris/Disk/Documents/RootCauseAnalysis/evaluation/test_bin/libjpeg/libjpeg_heap_buffer_overflow/libjpeg-turbo/rdbmp.c:202
        outptr[bindex] = colormap[2][t];
    683e:	48 8b 6b 10          	mov    0x10(%rbx),%rbp
    6842:	0f b6 74 35 00       	movzbl 0x0(%rbp,%rsi,1),%esi
    6847:	42 88 34 12          	mov    %sil,(%rdx,%r10,1)
/home/tenebris/Disk/Documents/RootCauseAnalysis/evaluation/test_bin/libjpeg/libjpeg_heap_buffer_overflow/libjpeg-turbo/rdbmp.c:203
        outptr[aindex] = 0xFF;
    684b:	42 c6 04 1a ff       	movb   $0xff,(%rdx,%r11,1)
/home/tenebris/Disk/Documents/RootCauseAnalysis/evaluation/test_bin/libjpeg/libjpeg_heap_buffer_overflow/libjpeg-turbo/rdbmp.c:198
      for (col = cinfo->image_width; col > 0; col--) {
    6850:	48 39 cf             	cmp    %rcx,%rdi
    6853:	75 c3                	jne    6818 <get_8bit_row+0xb8>
/home/tenebris/Disk/Documents/RootCauseAnalysis/evaluation/test_bin/libjpeg/libjpeg_heap_buffer_overflow/libjpeg-turbo/rdbmp.c:218
}
    6855:	5b                   	pop    %rbx
    6856:	b8 01 00 00 00       	mov    $0x1,%eax
    685b:	5d                   	pop    %rbp
    685c:	41 5c                	pop    %r12
    685e:	c3                   	ret    
    685f:	90                   	nop
/home/tenebris/Disk/Documents/RootCauseAnalysis/evaluation/test_bin/libjpeg/libjpeg_heap_buffer_overflow/libjpeg-turbo/rdbmp.c:171
    if (!ReadOK(source->pub.input_file, source->iobuffer, source->row_width))
    6860:	8b 56 4c             	mov    0x4c(%rsi),%edx
fread():
/usr/include/x86_64-linux-gnu/bits/stdio2.h:293
    return __fread_alias (__ptr, __size, __n, __stream);
    6863:	48 8b 4e 18          	mov    0x18(%rsi),%rcx
    6867:	48 8b 7e 58          	mov    0x58(%rsi),%rdi
    686b:	be 01 00 00 00       	mov    $0x1,%esi
    6870:	e8 0b ba ff ff       	call   2280 <fread@plt>
get_8bit_row():
/home/tenebris/Disk/Documents/RootCauseAnalysis/evaluation/test_bin/libjpeg/libjpeg_heap_buffer_overflow/libjpeg-turbo/rdbmp.c:171
    6875:	8b 55 4c             	mov    0x4c(%rbp),%edx
    6878:	48 39 c2             	cmp    %rax,%rdx
    687b:	74 10                	je     688d <get_8bit_row+0x12d>
/home/tenebris/Disk/Documents/RootCauseAnalysis/evaluation/test_bin/libjpeg/libjpeg_heap_buffer_overflow/libjpeg-turbo/rdbmp.c:172
      ERREXIT(cinfo, JERR_INPUT_EOF);
    687d:	49 8b 04 24          	mov    (%r12),%rax
    6881:	4c 89 e7             	mov    %r12,%rdi
    6884:	c7 40 28 2b 00 00 00 	movl   $0x2b,0x28(%rax)
    688b:	ff 10                	call   *(%rax)
/home/tenebris/Disk/Documents/RootCauseAnalysis/evaluation/test_bin/libjpeg/libjpeg_heap_buffer_overflow/libjpeg-turbo/rdbmp.c:173
    inptr = source->iobuffer;
    688d:	48 8b 4d 58          	mov    0x58(%rbp),%rcx
    6891:	e9 06 ff ff ff       	jmp    679c <get_8bit_row+0x3c>
    6896:	66 2e 0f 1f 84 00 00 	cs nopw 0x0(%rax,%rax,1)
    689d:	00 00 00 
/home/tenebris/Disk/Documents/RootCauseAnalysis/evaluation/test_bin/libjpeg/libjpeg_heap_buffer_overflow/libjpeg-turbo/rdbmp.c:200 (discriminator 3)
        outptr[rindex] = colormap[0][t];
    68a0:	0f b6 31             	movzbl (%rcx),%esi
    68a3:	48 8b 13             	mov    (%rbx),%rdx
/home/tenebris/Disk/Documents/RootCauseAnalysis/evaluation/test_bin/libjpeg/libjpeg_heap_buffer_overflow/libjpeg-turbo/rdbmp.c:199 (discriminator 3)
        t = GETJSAMPLE(*inptr++);
    68a6:	48 83 c1 01          	add    $0x1,%rcx
/home/tenebris/Disk/Documents/RootCauseAnalysis/evaluation/test_bin/libjpeg/libjpeg_heap_buffer_overflow/libjpeg-turbo/rdbmp.c:200 (discriminator 3)
        outptr[rindex] = colormap[0][t];
    68aa:	0f b6 14 32          	movzbl (%rdx,%rsi,1),%edx
    68ae:	88 10                	mov    %dl,(%rax)
/home/tenebris/Disk/Documents/RootCauseAnalysis/evaluation/test_bin/libjpeg/libjpeg_heap_buffer_overflow/libjpeg-turbo/rdbmp.c:201 (discriminator 3)
        outptr[gindex] = colormap[1][t];
    68b0:	48 8b 53 08          	mov    0x8(%rbx),%rdx
    68b4:	0f b6 2c 32          	movzbl (%rdx,%rsi,1),%ebp
    68b8:	48 89 c2             	mov    %rax,%rdx
/home/tenebris/Disk/Documents/RootCauseAnalysis/evaluation/test_bin/libjpeg/libjpeg_heap_buffer_overflow/libjpeg-turbo/rdbmp.c:198 (discriminator 3)
      for (col = cinfo->image_width; col > 0; col--) {
    68bb:	4c 01 e0             	add    %r12,%rax
    68be:	4c 29 c2             	sub    %r8,%rdx
/home/tenebris/Disk/Documents/RootCauseAnalysis/evaluation/test_bin/libjpeg/libjpeg_heap_buffer_overflow/libjpeg-turbo/rdbmp.c:201 (discriminator 3)
        outptr[gindex] = colormap[1][t];
    68c1:	42 88 2c 0a          	mov    %bpl,(%rdx,%r9,1)
/home/tenebris/Disk/Documents/RootCauseAnalysis/evaluation/test_bin/libjpeg/libjpeg_heap_buffer_overflow/libjpeg-turbo/rdbmp.c:202 (discriminator 3)
        outptr[bindex] = colormap[2][t];
    68c5:	48 8b 6b 10          	mov    0x10(%rbx),%rbp
    68c9:	0f b6 74 35 00       	movzbl 0x0(%rbp,%rsi,1),%esi
    68ce:	42 88 34 12          	mov    %sil,(%rdx,%r10,1)
/home/tenebris/Disk/Documents/RootCauseAnalysis/evaluation/test_bin/libjpeg/libjpeg_heap_buffer_overflow/libjpeg-turbo/rdbmp.c:203 (discriminator 3)
        outptr[aindex] = 0xFF;
    68d2:	42 c6 04 1a ff       	movb   $0xff,(%rdx,%r11,1)
/home/tenebris/Disk/Documents/RootCauseAnalysis/evaluation/test_bin/libjpeg/libjpeg_heap_buffer_overflow/libjpeg-turbo/rdbmp.c:198 (discriminator 3)
      for (col = cinfo->image_width; col > 0; col--) {
    68d7:	48 39 f9             	cmp    %rdi,%rcx
    68da:	75 c4                	jne    68a0 <get_8bit_row+0x140>
    68dc:	e9 74 ff ff ff       	jmp    6855 <get_8bit_row+0xf5>
    68e1:	0f 1f 80 00 00 00 00 	nopl   0x0(%rax)
/home/tenebris/Disk/Documents/RootCauseAnalysis/evaluation/test_bin/libjpeg/libjpeg_heap_buffer_overflow/libjpeg-turbo/rdbmp.c:184
    for (col = cinfo->image_width; col > 0; col--) {
    68e8:	85 f6                	test   %esi,%esi
    68ea:	0f 84 65 ff ff ff    	je     6855 <get_8bit_row+0xf5>
    68f0:	f2 0f 10 0d f0 38 00 	movsd  0x38f0(%rip),%xmm1        # a1e8 <rgb_red+0x48>
    68f7:	00 
    68f8:	f2 0f 10 2d f0 38 00 	movsd  0x38f0(%rip),%xmm5        # a1f0 <rgb_red+0x50>
    68ff:	00 
    6900:	48 01 ce             	add    %rcx,%rsi
rgb_to_cmyk():
/home/tenebris/Disk/Documents/RootCauseAnalysis/evaluation/test_bin/libjpeg/libjpeg_heap_buffer_overflow/libjpeg-turbo/cmyk.h:41
  *c = (JSAMPLE)(255.0 - ctmp * 255.0 + 0.5);
    6903:	f2 0f 10 35 ed 38 00 	movsd  0x38ed(%rip),%xmm6        # a1f8 <rgb_red+0x58>
    690a:	00 
    690b:	0f 1f 44 00 00       	nopl   0x0(%rax,%rax,1)
get_8bit_row():
/home/tenebris/Disk/Documents/RootCauseAnalysis/evaluation/test_bin/libjpeg/libjpeg_heap_buffer_overflow/libjpeg-turbo/rdbmp.c:186 (discriminator 3)
      rgb_to_cmyk(colormap[0][t], colormap[1][t], colormap[2][t], outptr,
    6910:	0f b6 11             	movzbl (%rcx),%edx
    6913:	48 8b 3b             	mov    (%rbx),%rdi
rgb_to_cmyk():
/home/tenebris/Disk/Documents/RootCauseAnalysis/evaluation/test_bin/libjpeg/libjpeg_heap_buffer_overflow/libjpeg-turbo/cmyk.h:30 (discriminator 3)
  double ctmp = 1.0 - ((double)r / 255.0);
    6916:	66 0f ef c0          	pxor   %xmm0,%xmm0
    691a:	66 0f 28 e5          	movapd %xmm5,%xmm4
/home/tenebris/Disk/Documents/RootCauseAnalysis/evaluation/test_bin/libjpeg/libjpeg_heap_buffer_overflow/libjpeg-turbo/cmyk.h:31 (discriminator 3)
  double mtmp = 1.0 - ((double)g / 255.0);
    691e:	66 0f 28 dd          	movapd %xmm5,%xmm3
/home/tenebris/Disk/Documents/RootCauseAnalysis/evaluation/test_bin/libjpeg/libjpeg_heap_buffer_overflow/libjpeg-turbo/cmyk.h:32 (discriminator 3)
  double ytmp = 1.0 - ((double)b / 255.0);
    6922:	66 0f 28 d5          	movapd %xmm5,%xmm2
get_8bit_row():
/home/tenebris/Disk/Documents/RootCauseAnalysis/evaluation/test_bin/libjpeg/libjpeg_heap_buffer_overflow/libjpeg-turbo/rdbmp.c:185 (discriminator 3)
      t = GETJSAMPLE(*inptr++);
    6926:	48 83 c1 01          	add    $0x1,%rcx
rgb_to_cmyk():
/home/tenebris/Disk/Documents/RootCauseAnalysis/evaluation/test_bin/libjpeg/libjpeg_heap_buffer_overflow/libjpeg-turbo/cmyk.h:30 (discriminator 3)
  double ctmp = 1.0 - ((double)r / 255.0);
    692a:	0f b6 3c 17          	movzbl (%rdi,%rdx,1),%edi
    692e:	f2 0f 2a c7          	cvtsi2sd %edi,%xmm0
get_8bit_row():
/home/tenebris/Disk/Documents/RootCauseAnalysis/evaluation/test_bin/libjpeg/libjpeg_heap_buffer_overflow/libjpeg-turbo/rdbmp.c:186 (discriminator 3)
      rgb_to_cmyk(colormap[0][t], colormap[1][t], colormap[2][t], outptr,
    6932:	48 8b 7b 08          	mov    0x8(%rbx),%rdi
rgb_to_cmyk():
/home/tenebris/Disk/Documents/RootCauseAnalysis/evaluation/test_bin/libjpeg/libjpeg_heap_buffer_overflow/libjpeg-turbo/cmyk.h:31 (discriminator 3)
  double mtmp = 1.0 - ((double)g / 255.0);
    6936:	0f b6 3c 17          	movzbl (%rdi,%rdx,1),%edi
/home/tenebris/Disk/Documents/RootCauseAnalysis/evaluation/test_bin/libjpeg/libjpeg_heap_buffer_overflow/libjpeg-turbo/cmyk.h:30 (discriminator 3)
  double ctmp = 1.0 - ((double)r / 255.0);
    693a:	f2 0f 5e c1          	divsd  %xmm1,%xmm0
    693e:	f2 0f 5c e0          	subsd  %xmm0,%xmm4
/home/tenebris/Disk/Documents/RootCauseAnalysis/evaluation/test_bin/libjpeg/libjpeg_heap_buffer_overflow/libjpeg-turbo/cmyk.h:31 (discriminator 3)
  double mtmp = 1.0 - ((double)g / 255.0);
    6942:	66 0f ef c0          	pxor   %xmm0,%xmm0
    6946:	f2 0f 2a c7          	cvtsi2sd %edi,%xmm0
get_8bit_row():
/home/tenebris/Disk/Documents/RootCauseAnalysis/evaluation/test_bin/libjpeg/libjpeg_heap_buffer_overflow/libjpeg-turbo/rdbmp.c:186 (discriminator 3)
    694a:	48 8b 7b 10          	mov    0x10(%rbx),%rdi
rgb_to_cmyk():
/home/tenebris/Disk/Documents/RootCauseAnalysis/evaluation/test_bin/libjpeg/libjpeg_heap_buffer_overflow/libjpeg-turbo/cmyk.h:32 (discriminator 3)
  double ytmp = 1.0 - ((double)b / 255.0);
    694e:	0f b6 14 17          	movzbl (%rdi,%rdx,1),%edx
/home/tenebris/Disk/Documents/RootCauseAnalysis/evaluation/test_bin/libjpeg/libjpeg_heap_buffer_overflow/libjpeg-turbo/cmyk.h:31 (discriminator 3)
  double mtmp = 1.0 - ((double)g / 255.0);
    6952:	f2 0f 5e c1          	divsd  %xmm1,%xmm0
    6956:	f2 0f 5c d8          	subsd  %xmm0,%xmm3
/home/tenebris/Disk/Documents/RootCauseAnalysis/evaluation/test_bin/libjpeg/libjpeg_heap_buffer_overflow/libjpeg-turbo/cmyk.h:32 (discriminator 3)
  double ytmp = 1.0 - ((double)b / 255.0);
    695a:	66 0f ef c0          	pxor   %xmm0,%xmm0
    695e:	f2 0f 2a c2          	cvtsi2sd %edx,%xmm0
    6962:	f2 0f 5e c1          	divsd  %xmm1,%xmm0
    6966:	f2 0f 5c d0          	subsd  %xmm0,%xmm2
/home/tenebris/Disk/Documents/RootCauseAnalysis/evaluation/test_bin/libjpeg/libjpeg_heap_buffer_overflow/libjpeg-turbo/cmyk.h:33 (discriminator 3)
  double ktmp = MIN(MIN(ctmp, mtmp), ytmp);
    696a:	66 0f 28 c4          	movapd %xmm4,%xmm0
    696e:	f2 0f 5d c3          	minsd  %xmm3,%xmm0
    6972:	f2 0f 5d c2          	minsd  %xmm2,%xmm0
/home/tenebris/Disk/Documents/RootCauseAnalysis/evaluation/test_bin/libjpeg/libjpeg_heap_buffer_overflow/libjpeg-turbo/cmyk.h:35 (discriminator 3)
  if (ktmp == 1.0) ctmp = mtmp = ytmp = 0.0;
    6976:	66 0f 2e c5          	ucomisd %xmm5,%xmm0
    697a:	7a 06                	jp     6982 <get_8bit_row+0x222>
/home/tenebris/Disk/Documents/RootCauseAnalysis/evaluation/test_bin/libjpeg/libjpeg_heap_buffer_overflow/libjpeg-turbo/cmyk.h:35
    697c:	0f 84 ce 00 00 00    	je     6a50 <get_8bit_row+0x2f0>
/home/tenebris/Disk/Documents/RootCauseAnalysis/evaluation/test_bin/libjpeg/libjpeg_heap_buffer_overflow/libjpeg-turbo/cmyk.h:37
    ctmp = (ctmp - ktmp) / (1.0 - ktmp);
    6982:	66 0f 28 fd          	movapd %xmm5,%xmm7
    6986:	f2 0f 5c e0          	subsd  %xmm0,%xmm4
/home/tenebris/Disk/Documents/RootCauseAnalysis/evaluation/test_bin/libjpeg/libjpeg_heap_buffer_overflow/libjpeg-turbo/cmyk.h:38
    mtmp = (mtmp - ktmp) / (1.0 - ktmp);
    698a:	f2 0f 5c d8          	subsd  %xmm0,%xmm3
get_8bit_row():
/home/tenebris/Disk/Documents/RootCauseAnalysis/evaluation/test_bin/libjpeg/libjpeg_heap_buffer_overflow/libjpeg-turbo/rdbmp.c:188
      outptr += 4;
    698e:	48 83 c0 04          	add    $0x4,%rax
rgb_to_cmyk():
/home/tenebris/Disk/Documents/RootCauseAnalysis/evaluation/test_bin/libjpeg/libjpeg_heap_buffer_overflow/libjpeg-turbo/cmyk.h:37
    ctmp = (ctmp - ktmp) / (1.0 - ktmp);
    6992:	f2 0f 5c f8          	subsd  %xmm0,%xmm7
/home/tenebris/Disk/Documents/RootCauseAnalysis/evaluation/test_bin/libjpeg/libjpeg_heap_buffer_overflow/libjpeg-turbo/cmyk.h:39
    ytmp = (ytmp - ktmp) / (1.0 - ktmp);
    6996:	f2 0f 5c d0          	subsd  %xmm0,%xmm2
/home/tenebris/Disk/Documents/RootCauseAnalysis/evaluation/test_bin/libjpeg/libjpeg_heap_buffer_overflow/libjpeg-turbo/cmyk.h:41
  *c = (JSAMPLE)(255.0 - ctmp * 255.0 + 0.5);
    699a:	66 44 0f 28 c1       	movapd %xmm1,%xmm8
/home/tenebris/Disk/Documents/RootCauseAnalysis/evaluation/test_bin/libjpeg/libjpeg_heap_buffer_overflow/libjpeg-turbo/cmyk.h:44
  *k = (JSAMPLE)(255.0 - ktmp * 255.0 + 0.5);
    699f:	f2 0f 59 c1          	mulsd  %xmm1,%xmm0
/home/tenebris/Disk/Documents/RootCauseAnalysis/evaluation/test_bin/libjpeg/libjpeg_heap_buffer_overflow/libjpeg-turbo/cmyk.h:37
    ctmp = (ctmp - ktmp) / (1.0 - ktmp);
    69a3:	f2 0f 5e e7          	divsd  %xmm7,%xmm4
/home/tenebris/Disk/Documents/RootCauseAnalysis/evaluation/test_bin/libjpeg/libjpeg_heap_buffer_overflow/libjpeg-turbo/cmyk.h:38
    mtmp = (mtmp - ktmp) / (1.0 - ktmp);
    69a7:	f2 0f 5e df          	divsd  %xmm7,%xmm3
/home/tenebris/Disk/Documents/RootCauseAnalysis/evaluation/test_bin/libjpeg/libjpeg_heap_buffer_overflow/libjpeg-turbo/cmyk.h:41
  *c = (JSAMPLE)(255.0 - ctmp * 255.0 + 0.5);
    69ab:	f2 0f 59 e1          	mulsd  %xmm1,%xmm4
    69af:	f2 44 0f 5c c4       	subsd  %xmm4,%xmm8
/home/tenebris/Disk/Documents/RootCauseAnalysis/evaluation/test_bin/libjpeg/libjpeg_heap_buffer_overflow/libjpeg-turbo/cmyk.h:42
  *m = (JSAMPLE)(255.0 - mtmp * 255.0 + 0.5);
    69b4:	66 0f 28 e1          	movapd %xmm1,%xmm4
/home/tenebris/Disk/Documents/RootCauseAnalysis/evaluation/test_bin/libjpeg/libjpeg_heap_buffer_overflow/libjpeg-turbo/cmyk.h:41
  *c = (JSAMPLE)(255.0 - ctmp * 255.0 + 0.5);
    69b8:	f2 44 0f 58 c6       	addsd  %xmm6,%xmm8
    69bd:	f2 41 0f 2c d0       	cvttsd2si %xmm8,%edx
/home/tenebris/Disk/Documents/RootCauseAnalysis/evaluation/test_bin/libjpeg/libjpeg_heap_buffer_overflow/libjpeg-turbo/cmyk.h:39
    ytmp = (ytmp - ktmp) / (1.0 - ktmp);
    69c2:	f2 0f 5e d7          	divsd  %xmm7,%xmm2
/home/tenebris/Disk/Documents/RootCauseAnalysis/evaluation/test_bin/libjpeg/libjpeg_heap_buffer_overflow/libjpeg-turbo/cmyk.h:41
  *c = (JSAMPLE)(255.0 - ctmp * 255.0 + 0.5);
    69c6:	88 50 fc             	mov    %dl,-0x4(%rax)
/home/tenebris/Disk/Documents/RootCauseAnalysis/evaluation/test_bin/libjpeg/libjpeg_heap_buffer_overflow/libjpeg-turbo/cmyk.h:42
  *m = (JSAMPLE)(255.0 - mtmp * 255.0 + 0.5);
    69c9:	f2 0f 59 d9          	mulsd  %xmm1,%xmm3
    69cd:	f2 0f 5c e3          	subsd  %xmm3,%xmm4
/home/tenebris/Disk/Documents/RootCauseAnalysis/evaluation/test_bin/libjpeg/libjpeg_heap_buffer_overflow/libjpeg-turbo/cmyk.h:43
  *y = (JSAMPLE)(255.0 - ytmp * 255.0 + 0.5);
    69d1:	66 0f 28 d9          	movapd %xmm1,%xmm3
/home/tenebris/Disk/Documents/RootCauseAnalysis/evaluation/test_bin/libjpeg/libjpeg_heap_buffer_overflow/libjpeg-turbo/cmyk.h:42
  *m = (JSAMPLE)(255.0 - mtmp * 255.0 + 0.5);
    69d5:	f2 0f 58 e6          	addsd  %xmm6,%xmm4
    69d9:	f2 0f 2c d4          	cvttsd2si %xmm4,%edx
    69dd:	88 50 fd             	mov    %dl,-0x3(%rax)
/home/tenebris/Disk/Documents/RootCauseAnalysis/evaluation/test_bin/libjpeg/libjpeg_heap_buffer_overflow/libjpeg-turbo/cmyk.h:43
  *y = (JSAMPLE)(255.0 - ytmp * 255.0 + 0.5);
    69e0:	f2 0f 59 d1          	mulsd  %xmm1,%xmm2
    69e4:	f2 0f 5c da          	subsd  %xmm2,%xmm3
/home/tenebris/Disk/Documents/RootCauseAnalysis/evaluation/test_bin/libjpeg/libjpeg_heap_buffer_overflow/libjpeg-turbo/cmyk.h:44
  *k = (JSAMPLE)(255.0 - ktmp * 255.0 + 0.5);
    69e8:	66 0f 28 d1          	movapd %xmm1,%xmm2
    69ec:	f2 0f 5c d0          	subsd  %xmm0,%xmm2
/home/tenebris/Disk/Documents/RootCauseAnalysis/evaluation/test_bin/libjpeg/libjpeg_heap_buffer_overflow/libjpeg-turbo/cmyk.h:43
  *y = (JSAMPLE)(255.0 - ytmp * 255.0 + 0.5);
    69f0:	f2 0f 58 de          	addsd  %xmm6,%xmm3
/home/tenebris/Disk/Documents/RootCauseAnalysis/evaluation/test_bin/libjpeg/libjpeg_heap_buffer_overflow/libjpeg-turbo/cmyk.h:44
  *k = (JSAMPLE)(255.0 - ktmp * 255.0 + 0.5);
    69f4:	f2 0f 58 d6          	addsd  %xmm6,%xmm2
/home/tenebris/Disk/Documents/RootCauseAnalysis/evaluation/test_bin/libjpeg/libjpeg_heap_buffer_overflow/libjpeg-turbo/cmyk.h:43
  *y = (JSAMPLE)(255.0 - ytmp * 255.0 + 0.5);
    69f8:	f2 0f 2c d3          	cvttsd2si %xmm3,%edx
    69fc:	88 50 fe             	mov    %dl,-0x2(%rax)
/home/tenebris/Disk/Documents/RootCauseAnalysis/evaluation/test_bin/libjpeg/libjpeg_heap_buffer_overflow/libjpeg-turbo/cmyk.h:44
  *k = (JSAMPLE)(255.0 - ktmp * 255.0 + 0.5);
    69ff:	f2 0f 2c d2          	cvttsd2si %xmm2,%edx
    6a03:	88 50 ff             	mov    %dl,-0x1(%rax)
get_8bit_row():
/home/tenebris/Disk/Documents/RootCauseAnalysis/evaluation/test_bin/libjpeg/libjpeg_heap_buffer_overflow/libjpeg-turbo/rdbmp.c:184
    for (col = cinfo->image_width; col > 0; col--) {
    6a06:	48 39 f1             	cmp    %rsi,%rcx
    6a09:	0f 85 01 ff ff ff    	jne    6910 <get_8bit_row+0x1b0>
    6a0f:	e9 41 fe ff ff       	jmp    6855 <get_8bit_row+0xf5>
    6a14:	0f 1f 40 00          	nopl   0x0(%rax)
/home/tenebris/Disk/Documents/RootCauseAnalysis/evaluation/test_bin/libjpeg/libjpeg_heap_buffer_overflow/libjpeg-turbo/rdbmp.c:179
    for (col = cinfo->image_width; col > 0; col--) {
    6a18:	41 89 f0             	mov    %esi,%r8d
    6a1b:	31 d2                	xor    %edx,%edx
    6a1d:	85 f6                	test   %esi,%esi
    6a1f:	0f 84 30 fe ff ff    	je     6855 <get_8bit_row+0xf5>
    6a25:	0f 1f 00             	nopl   (%rax)
/home/tenebris/Disk/Documents/RootCauseAnalysis/evaluation/test_bin/libjpeg/libjpeg_heap_buffer_overflow/libjpeg-turbo/rdbmp.c:181 (discriminator 3)
      *outptr++ = colormap[0][t];
    6a28:	0f b6 34 11          	movzbl (%rcx,%rdx,1),%esi
    6a2c:	48 8b 3b             	mov    (%rbx),%rdi
    6a2f:	0f b6 34 37          	movzbl (%rdi,%rsi,1),%esi
    6a33:	40 88 34 10          	mov    %sil,(%rax,%rdx,1)
/home/tenebris/Disk/Documents/RootCauseAnalysis/evaluation/test_bin/libjpeg/libjpeg_heap_buffer_overflow/libjpeg-turbo/rdbmp.c:179 (discriminator 3)
    for (col = cinfo->image_width; col > 0; col--) {
    6a37:	48 83 c2 01          	add    $0x1,%rdx
    6a3b:	4c 39 c2             	cmp    %r8,%rdx
    6a3e:	75 e8                	jne    6a28 <get_8bit_row+0x2c8>
/home/tenebris/Disk/Documents/RootCauseAnalysis/evaluation/test_bin/libjpeg/libjpeg_heap_buffer_overflow/libjpeg-turbo/rdbmp.c:218
}
    6a40:	5b                   	pop    %rbx
    6a41:	b8 01 00 00 00       	mov    $0x1,%eax
    6a46:	5d                   	pop    %rbp
    6a47:	41 5c                	pop    %r12
    6a49:	c3                   	ret    
    6a4a:	66 0f 1f 44 00 00    	nopw   0x0(%rax,%rax,1)
rgb_to_cmyk():
/home/tenebris/Disk/Documents/RootCauseAnalysis/evaluation/test_bin/libjpeg/libjpeg_heap_buffer_overflow/libjpeg-turbo/cmyk.h:41
  *c = (JSAMPLE)(255.0 - ctmp * 255.0 + 0.5);
    6a50:	c6 00 ff             	movb   $0xff,(%rax)
get_8bit_row():
/home/tenebris/Disk/Documents/RootCauseAnalysis/evaluation/test_bin/libjpeg/libjpeg_heap_buffer_overflow/libjpeg-turbo/rdbmp.c:188
      outptr += 4;
    6a53:	48 83 c0 04          	add    $0x4,%rax
rgb_to_cmyk():
/home/tenebris/Disk/Documents/RootCauseAnalysis/evaluation/test_bin/libjpeg/libjpeg_heap_buffer_overflow/libjpeg-turbo/cmyk.h:42
  *m = (JSAMPLE)(255.0 - mtmp * 255.0 + 0.5);
    6a57:	c6 40 fd ff          	movb   $0xff,-0x3(%rax)
/home/tenebris/Disk/Documents/RootCauseAnalysis/evaluation/test_bin/libjpeg/libjpeg_heap_buffer_overflow/libjpeg-turbo/cmyk.h:43
  *y = (JSAMPLE)(255.0 - ytmp * 255.0 + 0.5);
    6a5b:	c6 40 fe ff          	movb   $0xff,-0x2(%rax)
/home/tenebris/Disk/Documents/RootCauseAnalysis/evaluation/test_bin/libjpeg/libjpeg_heap_buffer_overflow/libjpeg-turbo/cmyk.h:44
  *k = (JSAMPLE)(255.0 - ktmp * 255.0 + 0.5);
    6a5f:	c6 40 ff 00          	movb   $0x0,-0x1(%rax)
get_8bit_row():
/home/tenebris/Disk/Documents/RootCauseAnalysis/evaluation/test_bin/libjpeg/libjpeg_heap_buffer_overflow/libjpeg-turbo/rdbmp.c:184
    for (col = cinfo->image_width; col > 0; col--) {
    6a63:	48 39 f1             	cmp    %rsi,%rcx
    6a66:	0f 85 a4 fe ff ff    	jne    6910 <get_8bit_row+0x1b0>
    6a6c:	e9 e4 fd ff ff       	jmp    6855 <get_8bit_row+0xf5>
    6a71:	0f 1f 80 00 00 00 00 	nopl   0x0(%rax)
/home/tenebris/Disk/Documents/RootCauseAnalysis/evaluation/test_bin/libjpeg/libjpeg_heap_buffer_overflow/libjpeg-turbo/rdbmp.c:207
      for (col = cinfo->image_width; col > 0; col--) {
    6a78:	85 f6                	test   %esi,%esi
    6a7a:	0f 84 d5 fd ff ff    	je     6855 <get_8bit_row+0xf5>
/home/tenebris/Disk/Documents/RootCauseAnalysis/evaluation/test_bin/libjpeg/libjpeg_heap_buffer_overflow/libjpeg-turbo/rdbmp.c:200
        outptr[rindex] = colormap[0][t];
    6a80:	49 63 d0             	movslq %r8d,%rdx
/home/tenebris/Disk/Documents/RootCauseAnalysis/evaluation/test_bin/libjpeg/libjpeg_heap_buffer_overflow/libjpeg-turbo/rdbmp.c:204
        outptr += ps;
    6a83:	4c 63 dd             	movslq %ebp,%r11
    6a86:	48 01 ce             	add    %rcx,%rsi
    6a89:	48 01 d0             	add    %rdx,%rax
    6a8c:	83 fd 01             	cmp    $0x1,%ebp
    6a8f:	75 4f                	jne    6ae0 <get_8bit_row+0x380>
    6a91:	0f 1f 80 00 00 00 00 	nopl   0x0(%rax)
/home/tenebris/Disk/Documents/RootCauseAnalysis/evaluation/test_bin/libjpeg/libjpeg_heap_buffer_overflow/libjpeg-turbo/rdbmp.c:209
        outptr[rindex] = colormap[0][t];
    6a98:	0f b6 39             	movzbl (%rcx),%edi
    6a9b:	4c 8b 03             	mov    (%rbx),%r8
/home/tenebris/Disk/Documents/RootCauseAnalysis/evaluation/test_bin/libjpeg/libjpeg_heap_buffer_overflow/libjpeg-turbo/rdbmp.c:208
        t = GETJSAMPLE(*inptr++);
    6a9e:	48 83 c1 01          	add    $0x1,%rcx
/home/tenebris/Disk/Documents/RootCauseAnalysis/evaluation/test_bin/libjpeg/libjpeg_heap_buffer_overflow/libjpeg-turbo/rdbmp.c:209
        outptr[rindex] = colormap[0][t];
    6aa2:	45 0f b6 04 38       	movzbl (%r8,%rdi,1),%r8d
    6aa7:	44 88 00             	mov    %r8b,(%rax)
/home/tenebris/Disk/Documents/RootCauseAnalysis/evaluation/test_bin/libjpeg/libjpeg_heap_buffer_overflow/libjpeg-turbo/rdbmp.c:210
        outptr[gindex] = colormap[1][t];
    6aaa:	4c 8b 43 08          	mov    0x8(%rbx),%r8
    6aae:	45 0f b6 1c 38       	movzbl (%r8,%rdi,1),%r11d
    6ab3:	49 89 c0             	mov    %rax,%r8
/home/tenebris/Disk/Documents/RootCauseAnalysis/evaluation/test_bin/libjpeg/libjpeg_heap_buffer_overflow/libjpeg-turbo/rdbmp.c:207
      for (col = cinfo->image_width; col > 0; col--) {
    6ab6:	48 83 c0 01          	add    $0x1,%rax
    6aba:	49 29 d0             	sub    %rdx,%r8
/home/tenebris/Disk/Documents/RootCauseAnalysis/evaluation/test_bin/libjpeg/libjpeg_heap_buffer_overflow/libjpeg-turbo/rdbmp.c:210
        outptr[gindex] = colormap[1][t];
    6abd:	47 88 1c 08          	mov    %r11b,(%r8,%r9,1)
/home/tenebris/Disk/Documents/RootCauseAnalysis/evaluation/test_bin/libjpeg/libjpeg_heap_buffer_overflow/libjpeg-turbo/rdbmp.c:211
        outptr[bindex] = colormap[2][t];
    6ac1:	4c 8b 5b 10          	mov    0x10(%rbx),%r11
    6ac5:	41 0f b6 3c 3b       	movzbl (%r11,%rdi,1),%edi
    6aca:	43 88 3c 10          	mov    %dil,(%r8,%r10,1)
/home/tenebris/Disk/Documents/RootCauseAnalysis/evaluation/test_bin/libjpeg/libjpeg_heap_buffer_overflow/libjpeg-turbo/rdbmp.c:207
      for (col = cinfo->image_width; col > 0; col--) {
    6ace:	48 39 ce             	cmp    %rcx,%rsi
    6ad1:	75 c5                	jne    6a98 <get_8bit_row+0x338>
/home/tenebris/Disk/Documents/RootCauseAnalysis/evaluation/test_bin/libjpeg/libjpeg_heap_buffer_overflow/libjpeg-turbo/rdbmp.c:218
}
    6ad3:	5b                   	pop    %rbx
    6ad4:	b8 01 00 00 00       	mov    $0x1,%eax
    6ad9:	5d                   	pop    %rbp
    6ada:	41 5c                	pop    %r12
    6adc:	c3                   	ret    
    6add:	0f 1f 00             	nopl   (%rax)
/home/tenebris/Disk/Documents/RootCauseAnalysis/evaluation/test_bin/libjpeg/libjpeg_heap_buffer_overflow/libjpeg-turbo/rdbmp.c:209 (discriminator 3)
        outptr[rindex] = colormap[0][t];
    6ae0:	0f b6 39             	movzbl (%rcx),%edi
    6ae3:	4c 8b 03             	mov    (%rbx),%r8
/home/tenebris/Disk/Documents/RootCauseAnalysis/evaluation/test_bin/libjpeg/libjpeg_heap_buffer_overflow/libjpeg-turbo/rdbmp.c:208 (discriminator 3)
        t = GETJSAMPLE(*inptr++);
    6ae6:	48 83 c1 01          	add    $0x1,%rcx
/home/tenebris/Disk/Documents/RootCauseAnalysis/evaluation/test_bin/libjpeg/libjpeg_heap_buffer_overflow/libjpeg-turbo/rdbmp.c:209 (discriminator 3)
        outptr[rindex] = colormap[0][t];
    6aea:	45 0f b6 04 38       	movzbl (%r8,%rdi,1),%r8d
    6aef:	44 88 00             	mov    %r8b,(%rax)
/home/tenebris/Disk/Documents/RootCauseAnalysis/evaluation/test_bin/libjpeg/libjpeg_heap_buffer_overflow/libjpeg-turbo/rdbmp.c:210 (discriminator 3)
        outptr[gindex] = colormap[1][t];
    6af2:	4c 8b 43 08          	mov    0x8(%rbx),%r8
    6af6:	41 0f b6 2c 38       	movzbl (%r8,%rdi,1),%ebp
    6afb:	49 89 c0             	mov    %rax,%r8
/home/tenebris/Disk/Documents/RootCauseAnalysis/evaluation/test_bin/libjpeg/libjpeg_heap_buffer_overflow/libjpeg-turbo/rdbmp.c:207 (discriminator 3)
      for (col = cinfo->image_width; col > 0; col--) {
    6afe:	4c 01 d8             	add    %r11,%rax
    6b01:	49 29 d0             	sub    %rdx,%r8
/home/tenebris/Disk/Documents/RootCauseAnalysis/evaluation/test_bin/libjpeg/libjpeg_heap_buffer_overflow/libjpeg-turbo/rdbmp.c:210 (discriminator 3)
        outptr[gindex] = colormap[1][t];
    6b04:	43 88 2c 08          	mov    %bpl,(%r8,%r9,1)
/home/tenebris/Disk/Documents/RootCauseAnalysis/evaluation/test_bin/libjpeg/libjpeg_heap_buffer_overflow/libjpeg-turbo/rdbmp.c:211 (discriminator 3)
        outptr[bindex] = colormap[2][t];
    6b08:	48 8b 6b 10          	mov    0x10(%rbx),%rbp
    6b0c:	0f b6 7c 3d 00       	movzbl 0x0(%rbp,%rdi,1),%edi
    6b11:	43 88 3c 10          	mov    %dil,(%r8,%r10,1)
/home/tenebris/Disk/Documents/RootCauseAnalysis/evaluation/test_bin/libjpeg/libjpeg_heap_buffer_overflow/libjpeg-turbo/rdbmp.c:207 (discriminator 3)
      for (col = cinfo->image_width; col > 0; col--) {
    6b15:	48 39 f1             	cmp    %rsi,%rcx
    6b18:	75 c6                	jne    6ae0 <get_8bit_row+0x380>
    6b1a:	e9 36 fd ff ff       	jmp    6855 <get_8bit_row+0xf5>
    6b1f:	90                   	nop

0000000000006b20 <get_24bit_row>:
get_24bit_row():
/home/tenebris/Disk/Documents/RootCauseAnalysis/evaluation/test_bin/libjpeg/libjpeg_heap_buffer_overflow/libjpeg-turbo/rdbmp.c:224
{
    6b20:	f3 0f 1e fa          	endbr64 
    6b24:	55                   	push   %rbp
    6b25:	48 89 fd             	mov    %rdi,%rbp
    6b28:	53                   	push   %rbx
    6b29:	48 89 f3             	mov    %rsi,%rbx
    6b2c:	48 83 ec 08          	sub    $0x8,%rsp
/home/tenebris/Disk/Documents/RootCauseAnalysis/evaluation/test_bin/libjpeg/libjpeg_heap_buffer_overflow/libjpeg-turbo/rdbmp.c:230
  if (source->use_inversion_array) {
    6b30:	8b 46 54             	mov    0x54(%rsi),%eax
    6b33:	85 c0                	test   %eax,%eax
    6b35:	0f 84 e5 00 00 00    	je     6c20 <get_24bit_row+0x100>
/home/tenebris/Disk/Documents/RootCauseAnalysis/evaluation/test_bin/libjpeg/libjpeg_heap_buffer_overflow/libjpeg-turbo/rdbmp.c:232
    source->source_row--;
    6b3b:	8b 46 48             	mov    0x48(%rsi),%eax
/home/tenebris/Disk/Documents/RootCauseAnalysis/evaluation/test_bin/libjpeg/libjpeg_heap_buffer_overflow/libjpeg-turbo/rdbmp.c:233
    image_ptr = (*cinfo->mem->access_virt_sarray)
    6b3e:	45 31 c0             	xor    %r8d,%r8d
    6b41:	b9 01 00 00 00       	mov    $0x1,%ecx
/home/tenebris/Disk/Documents/RootCauseAnalysis/evaluation/test_bin/libjpeg/libjpeg_heap_buffer_overflow/libjpeg-turbo/rdbmp.c:232
    source->source_row--;
    6b46:	8d 50 ff             	lea    -0x1(%rax),%edx
/home/tenebris/Disk/Documents/RootCauseAnalysis/evaluation/test_bin/libjpeg/libjpeg_heap_buffer_overflow/libjpeg-turbo/rdbmp.c:233
    image_ptr = (*cinfo->mem->access_virt_sarray)
    6b49:	48 8b 47 08          	mov    0x8(%rdi),%rax
/home/tenebris/Disk/Documents/RootCauseAnalysis/evaluation/test_bin/libjpeg/libjpeg_heap_buffer_overflow/libjpeg-turbo/rdbmp.c:232
    source->source_row--;
    6b4d:	89 56 48             	mov    %edx,0x48(%rsi)
/home/tenebris/Disk/Documents/RootCauseAnalysis/evaluation/test_bin/libjpeg/libjpeg_heap_buffer_overflow/libjpeg-turbo/rdbmp.c:233
    image_ptr = (*cinfo->mem->access_virt_sarray)
    6b50:	48 8b 76 40          	mov    0x40(%rsi),%rsi
    6b54:	ff 50 38             	call   *0x38(%rax)
/home/tenebris/Disk/Documents/RootCauseAnalysis/evaluation/test_bin/libjpeg/libjpeg_heap_buffer_overflow/libjpeg-turbo/rdbmp.c:236
    inptr = image_ptr[0];
    6b57:	48 8b 30             	mov    (%rax),%rsi
/home/tenebris/Disk/Documents/RootCauseAnalysis/evaluation/test_bin/libjpeg/libjpeg_heap_buffer_overflow/libjpeg-turbo/rdbmp.c:246
  outptr = source->pub.buffer[0];
    6b5a:	48 8b 43 20          	mov    0x20(%rbx),%rax
    6b5e:	48 8b 38             	mov    (%rax),%rdi
/home/tenebris/Disk/Documents/RootCauseAnalysis/evaluation/test_bin/libjpeg/libjpeg_heap_buffer_overflow/libjpeg-turbo/rdbmp.c:247
  if (cinfo->in_color_space == JCS_EXT_BGR) {
    6b61:	8b 45 3c             	mov    0x3c(%rbp),%eax
    6b64:	83 f8 08             	cmp    $0x8,%eax
    6b67:	0f 84 f7 00 00 00    	je     6c64 <get_24bit_row+0x144>
/home/tenebris/Disk/Documents/RootCauseAnalysis/evaluation/test_bin/libjpeg/libjpeg_heap_buffer_overflow/libjpeg-turbo/rdbmp.c:250
    for (col = cinfo->image_width; col > 0; col--) {
    6b6d:	44 8b 45 30          	mov    0x30(%rbp),%r8d
/home/tenebris/Disk/Documents/RootCauseAnalysis/evaluation/test_bin/libjpeg/libjpeg_heap_buffer_overflow/libjpeg-turbo/rdbmp.c:249
  } else if (cinfo->in_color_space == JCS_CMYK) {
    6b71:	83 f8 04             	cmp    $0x4,%eax
    6b74:	0f 84 66 01 00 00    	je     6ce0 <get_24bit_row+0x1c0>
/home/tenebris/Disk/Documents/RootCauseAnalysis/evaluation/test_bin/libjpeg/libjpeg_heap_buffer_overflow/libjpeg-turbo/rdbmp.c:257
    register int rindex = rgb_red[cinfo->in_color_space];
    6b7a:	48 8d 15 9f 3b 00 00 	lea    0x3b9f(%rip),%rdx        # a720 <rgb_red>
/home/tenebris/Disk/Documents/RootCauseAnalysis/evaluation/test_bin/libjpeg/libjpeg_heap_buffer_overflow/libjpeg-turbo/rdbmp.c:260
    register int aindex = alpha_index[cinfo->in_color_space];
    6b81:	4c 8d 0d 18 3a 00 00 	lea    0x3a18(%rip),%r9        # a5a0 <alpha_index>
/home/tenebris/Disk/Documents/RootCauseAnalysis/evaluation/test_bin/libjpeg/libjpeg_heap_buffer_overflow/libjpeg-turbo/rdbmp.c:257
    register int rindex = rgb_red[cinfo->in_color_space];
    6b88:	4c 63 14 82          	movslq (%rdx,%rax,4),%r10
/home/tenebris/Disk/Documents/RootCauseAnalysis/evaluation/test_bin/libjpeg/libjpeg_heap_buffer_overflow/libjpeg-turbo/rdbmp.c:260
    register int aindex = alpha_index[cinfo->in_color_space];
    6b8c:	4d 63 1c 81          	movslq (%r9,%rax,4),%r11
/home/tenebris/Disk/Documents/RootCauseAnalysis/evaluation/test_bin/libjpeg/libjpeg_heap_buffer_overflow/libjpeg-turbo/rdbmp.c:258
    register int gindex = rgb_green[cinfo->in_color_space];
    6b90:	48 8d 15 29 3b 00 00 	lea    0x3b29(%rip),%rdx        # a6c0 <rgb_green>
/home/tenebris/Disk/Documents/RootCauseAnalysis/evaluation/test_bin/libjpeg/libjpeg_heap_buffer_overflow/libjpeg-turbo/rdbmp.c:261
    register int ps = rgb_pixelsize[cinfo->in_color_space];
    6b97:	4c 8d 0d 62 3a 00 00 	lea    0x3a62(%rip),%r9        # a600 <rgb_pixelsize>
/home/tenebris/Disk/Documents/RootCauseAnalysis/evaluation/test_bin/libjpeg/libjpeg_heap_buffer_overflow/libjpeg-turbo/rdbmp.c:258
    register int gindex = rgb_green[cinfo->in_color_space];
    6b9e:	48 63 0c 82          	movslq (%rdx,%rax,4),%rcx
/home/tenebris/Disk/Documents/RootCauseAnalysis/evaluation/test_bin/libjpeg/libjpeg_heap_buffer_overflow/libjpeg-turbo/rdbmp.c:259
    register int bindex = rgb_blue[cinfo->in_color_space];
    6ba2:	48 8d 15 b7 3a 00 00 	lea    0x3ab7(%rip),%rdx        # a660 <rgb_blue>
    6ba9:	48 63 14 82          	movslq (%rdx,%rax,4),%rdx
/home/tenebris/Disk/Documents/RootCauseAnalysis/evaluation/test_bin/libjpeg/libjpeg_heap_buffer_overflow/libjpeg-turbo/rdbmp.c:261
    register int ps = rgb_pixelsize[cinfo->in_color_space];
    6bad:	41 8b 04 81          	mov    (%r9,%rax,4),%eax
/home/tenebris/Disk/Documents/RootCauseAnalysis/evaluation/test_bin/libjpeg/libjpeg_heap_buffer_overflow/libjpeg-turbo/rdbmp.c:263
    if (aindex >= 0) {
    6bb1:	45 85 db             	test   %r11d,%r11d
    6bb4:	0f 88 c6 00 00 00    	js     6c80 <get_24bit_row+0x160>
/home/tenebris/Disk/Documents/RootCauseAnalysis/evaluation/test_bin/libjpeg/libjpeg_heap_buffer_overflow/libjpeg-turbo/rdbmp.c:264
      for (col = cinfo->image_width; col > 0; col--) {
    6bba:	45 85 c0             	test   %r8d,%r8d
    6bbd:	74 4e                	je     6c0d <get_24bit_row+0xed>
/home/tenebris/Disk/Documents/RootCauseAnalysis/evaluation/test_bin/libjpeg/libjpeg_heap_buffer_overflow/libjpeg-turbo/rdbmp.c:269
        outptr += ps;
    6bbf:	48 63 d8             	movslq %eax,%rbx
    6bc2:	48 01 d7             	add    %rdx,%rdi
    6bc5:	83 f8 01             	cmp    $0x1,%eax
    6bc8:	44 89 c0             	mov    %r8d,%eax
/home/tenebris/Disk/Documents/RootCauseAnalysis/evaluation/test_bin/libjpeg/libjpeg_heap_buffer_overflow/libjpeg-turbo/rdbmp.c:266
        outptr[gindex] = *inptr++;
    6bcb:	4c 63 c9             	movslq %ecx,%r9
    6bce:	4c 8d 04 40          	lea    (%rax,%rax,2),%r8
    6bd2:	0f 85 68 02 00 00    	jne    6e40 <get_24bit_row+0x320>
    6bd8:	49 01 f0             	add    %rsi,%r8
    6bdb:	0f 1f 44 00 00       	nopl   0x0(%rax,%rax,1)
/home/tenebris/Disk/Documents/RootCauseAnalysis/evaluation/test_bin/libjpeg/libjpeg_heap_buffer_overflow/libjpeg-turbo/rdbmp.c:265
        outptr[bindex] = *inptr++;      /* can omit GETJSAMPLE() safely */
    6be0:	0f b6 06             	movzbl (%rsi),%eax
    6be3:	48 83 c6 03          	add    $0x3,%rsi
    6be7:	88 07                	mov    %al,(%rdi)
/home/tenebris/Disk/Documents/RootCauseAnalysis/evaluation/test_bin/libjpeg/libjpeg_heap_buffer_overflow/libjpeg-turbo/rdbmp.c:266
        outptr[gindex] = *inptr++;
    6be9:	48 89 f8             	mov    %rdi,%rax
    6bec:	0f b6 4e fe          	movzbl -0x2(%rsi),%ecx
/home/tenebris/Disk/Documents/RootCauseAnalysis/evaluation/test_bin/libjpeg/libjpeg_heap_buffer_overflow/libjpeg-turbo/rdbmp.c:264
      for (col = cinfo->image_width; col > 0; col--) {
    6bf0:	48 83 c7 01          	add    $0x1,%rdi
    6bf4:	48 29 d0             	sub    %rdx,%rax
/home/tenebris/Disk/Documents/RootCauseAnalysis/evaluation/test_bin/libjpeg/libjpeg_heap_buffer_overflow/libjpeg-turbo/rdbmp.c:266
        outptr[gindex] = *inptr++;
    6bf7:	42 88 0c 08          	mov    %cl,(%rax,%r9,1)
/home/tenebris/Disk/Documents/RootCauseAnalysis/evaluation/test_bin/libjpeg/libjpeg_heap_buffer_overflow/libjpeg-turbo/rdbmp.c:267
        outptr[rindex] = *inptr++;
    6bfb:	0f b6 4e ff          	movzbl -0x1(%rsi),%ecx
    6bff:	42 88 0c 10          	mov    %cl,(%rax,%r10,1)
/home/tenebris/Disk/Documents/RootCauseAnalysis/evaluation/test_bin/libjpeg/libjpeg_heap_buffer_overflow/libjpeg-turbo/rdbmp.c:268
        outptr[aindex] = 0xFF;
    6c03:	42 c6 04 18 ff       	movb   $0xff,(%rax,%r11,1)
/home/tenebris/Disk/Documents/RootCauseAnalysis/evaluation/test_bin/libjpeg/libjpeg_heap_buffer_overflow/libjpeg-turbo/rdbmp.c:264
      for (col = cinfo->image_width; col > 0; col--) {
    6c08:	4c 39 c6             	cmp    %r8,%rsi
    6c0b:	75 d3                	jne    6be0 <get_24bit_row+0xc0>
/home/tenebris/Disk/Documents/RootCauseAnalysis/evaluation/test_bin/libjpeg/libjpeg_heap_buffer_overflow/libjpeg-turbo/rdbmp.c:282
}
    6c0d:	48 83 c4 08          	add    $0x8,%rsp
    6c11:	b8 01 00 00 00       	mov    $0x1,%eax
    6c16:	5b                   	pop    %rbx
    6c17:	5d                   	pop    %rbp
    6c18:	c3                   	ret    
    6c19:	0f 1f 80 00 00 00 00 	nopl   0x0(%rax)
/home/tenebris/Disk/Documents/RootCauseAnalysis/evaluation/test_bin/libjpeg/libjpeg_heap_buffer_overflow/libjpeg-turbo/rdbmp.c:238
    if (!ReadOK(source->pub.input_file, source->iobuffer, source->row_width))
    6c20:	8b 56 4c             	mov    0x4c(%rsi),%edx
fread():
/usr/include/x86_64-linux-gnu/bits/stdio2.h:293
    6c23:	48 8b 4e 18          	mov    0x18(%rsi),%rcx
    6c27:	48 8b 7e 58          	mov    0x58(%rsi),%rdi
    6c2b:	be 01 00 00 00       	mov    $0x1,%esi
    6c30:	e8 4b b6 ff ff       	call   2280 <fread@plt>
get_24bit_row():
/home/tenebris/Disk/Documents/RootCauseAnalysis/evaluation/test_bin/libjpeg/libjpeg_heap_buffer_overflow/libjpeg-turbo/rdbmp.c:238
    6c35:	8b 53 4c             	mov    0x4c(%rbx),%edx
    6c38:	48 39 c2             	cmp    %rax,%rdx
    6c3b:	74 10                	je     6c4d <get_24bit_row+0x12d>
/home/tenebris/Disk/Documents/RootCauseAnalysis/evaluation/test_bin/libjpeg/libjpeg_heap_buffer_overflow/libjpeg-turbo/rdbmp.c:239
      ERREXIT(cinfo, JERR_INPUT_EOF);
    6c3d:	48 8b 45 00          	mov    0x0(%rbp),%rax
    6c41:	48 89 ef             	mov    %rbp,%rdi
    6c44:	c7 40 28 2b 00 00 00 	movl   $0x2b,0x28(%rax)
    6c4b:	ff 10                	call   *(%rax)
/home/tenebris/Disk/Documents/RootCauseAnalysis/evaluation/test_bin/libjpeg/libjpeg_heap_buffer_overflow/libjpeg-turbo/rdbmp.c:246
  outptr = source->pub.buffer[0];
    6c4d:	48 8b 43 20          	mov    0x20(%rbx),%rax
/home/tenebris/Disk/Documents/RootCauseAnalysis/evaluation/test_bin/libjpeg/libjpeg_heap_buffer_overflow/libjpeg-turbo/rdbmp.c:240
    inptr = source->iobuffer;
    6c51:	48 8b 73 58          	mov    0x58(%rbx),%rsi
/home/tenebris/Disk/Documents/RootCauseAnalysis/evaluation/test_bin/libjpeg/libjpeg_heap_buffer_overflow/libjpeg-turbo/rdbmp.c:246
  outptr = source->pub.buffer[0];
    6c55:	48 8b 38             	mov    (%rax),%rdi
/home/tenebris/Disk/Documents/RootCauseAnalysis/evaluation/test_bin/libjpeg/libjpeg_heap_buffer_overflow/libjpeg-turbo/rdbmp.c:247
  if (cinfo->in_color_space == JCS_EXT_BGR) {
    6c58:	8b 45 3c             	mov    0x3c(%rbp),%eax
    6c5b:	83 f8 08             	cmp    $0x8,%eax
    6c5e:	0f 85 09 ff ff ff    	jne    6b6d <get_24bit_row+0x4d>
/home/tenebris/Disk/Documents/RootCauseAnalysis/evaluation/test_bin/libjpeg/libjpeg_heap_buffer_overflow/libjpeg-turbo/rdbmp.c:248
    MEMCOPY(outptr, inptr, source->row_width);
    6c64:	8b 53 4c             	mov    0x4c(%rbx),%edx
memcpy():
/usr/include/x86_64-linux-gnu/bits/string_fortified.h:29
    6c67:	e8 a4 b6 ff ff       	call   2310 <memcpy@plt>
get_24bit_row():
/home/tenebris/Disk/Documents/RootCauseAnalysis/evaluation/test_bin/libjpeg/libjpeg_heap_buffer_overflow/libjpeg-turbo/rdbmp.c:282
}
    6c6c:	48 83 c4 08          	add    $0x8,%rsp
    6c70:	b8 01 00 00 00       	mov    $0x1,%eax
    6c75:	5b                   	pop    %rbx
    6c76:	5d                   	pop    %rbp
    6c77:	c3                   	ret    
    6c78:	0f 1f 84 00 00 00 00 	nopl   0x0(%rax,%rax,1)
    6c7f:	00 
/home/tenebris/Disk/Documents/RootCauseAnalysis/evaluation/test_bin/libjpeg/libjpeg_heap_buffer_overflow/libjpeg-turbo/rdbmp.c:272
      for (col = cinfo->image_width; col > 0; col--) {
    6c80:	45 85 c0             	test   %r8d,%r8d
    6c83:	74 88                	je     6c0d <get_24bit_row+0xed>
    6c85:	48 01 d7             	add    %rdx,%rdi
    6c88:	83 f8 01             	cmp    $0x1,%eax
/home/tenebris/Disk/Documents/RootCauseAnalysis/evaluation/test_bin/libjpeg/libjpeg_heap_buffer_overflow/libjpeg-turbo/rdbmp.c:269
        outptr += ps;
    6c8b:	4c 63 c8             	movslq %eax,%r9
    6c8e:	44 89 c0             	mov    %r8d,%eax
    6c91:	0f 85 e9 01 00 00    	jne    6e80 <get_24bit_row+0x360>
    6c97:	4c 8d 0c 40          	lea    (%rax,%rax,2),%r9
    6c9b:	49 01 f1             	add    %rsi,%r9
    6c9e:	66 90                	xchg   %ax,%ax
/home/tenebris/Disk/Documents/RootCauseAnalysis/evaluation/test_bin/libjpeg/libjpeg_heap_buffer_overflow/libjpeg-turbo/rdbmp.c:273
        outptr[bindex] = *inptr++;      /* can omit GETJSAMPLE() safely */
    6ca0:	0f b6 06             	movzbl (%rsi),%eax
    6ca3:	48 83 c6 03          	add    $0x3,%rsi
    6ca7:	88 07                	mov    %al,(%rdi)
/home/tenebris/Disk/Documents/RootCauseAnalysis/evaluation/test_bin/libjpeg/libjpeg_heap_buffer_overflow/libjpeg-turbo/rdbmp.c:274
        outptr[gindex] = *inptr++;
    6ca9:	48 89 f8             	mov    %rdi,%rax
    6cac:	44 0f b6 46 fe       	movzbl -0x2(%rsi),%r8d
/home/tenebris/Disk/Documents/RootCauseAnalysis/evaluation/test_bin/libjpeg/libjpeg_heap_buffer_overflow/libjpeg-turbo/rdbmp.c:272
      for (col = cinfo->image_width; col > 0; col--) {
    6cb1:	48 83 c7 01          	add    $0x1,%rdi
    6cb5:	48 29 d0             	sub    %rdx,%rax
/home/tenebris/Disk/Documents/RootCauseAnalysis/evaluation/test_bin/libjpeg/libjpeg_heap_buffer_overflow/libjpeg-turbo/rdbmp.c:274
        outptr[gindex] = *inptr++;
    6cb8:	44 88 04 08          	mov    %r8b,(%rax,%rcx,1)
/home/tenebris/Disk/Documents/RootCauseAnalysis/evaluation/test_bin/libjpeg/libjpeg_heap_buffer_overflow/libjpeg-turbo/rdbmp.c:275
        outptr[rindex] = *inptr++;
    6cbc:	44 0f b6 46 ff       	movzbl -0x1(%rsi),%r8d
    6cc1:	46 88 04 10          	mov    %r8b,(%rax,%r10,1)
/home/tenebris/Disk/Documents/RootCauseAnalysis/evaluation/test_bin/libjpeg/libjpeg_heap_buffer_overflow/libjpeg-turbo/rdbmp.c:272
      for (col = cinfo->image_width; col > 0; col--) {
    6cc5:	4c 39 ce             	cmp    %r9,%rsi
    6cc8:	75 d6                	jne    6ca0 <get_24bit_row+0x180>
/home/tenebris/Disk/Documents/RootCauseAnalysis/evaluation/test_bin/libjpeg/libjpeg_heap_buffer_overflow/libjpeg-turbo/rdbmp.c:282
}
    6cca:	48 83 c4 08          	add    $0x8,%rsp
    6cce:	b8 01 00 00 00       	mov    $0x1,%eax
    6cd3:	5b                   	pop    %rbx
    6cd4:	5d                   	pop    %rbp
    6cd5:	c3                   	ret    
    6cd6:	66 2e 0f 1f 84 00 00 	cs nopw 0x0(%rax,%rax,1)
    6cdd:	00 00 00 
/home/tenebris/Disk/Documents/RootCauseAnalysis/evaluation/test_bin/libjpeg/libjpeg_heap_buffer_overflow/libjpeg-turbo/rdbmp.c:250
    for (col = cinfo->image_width; col > 0; col--) {
    6ce0:	45 85 c0             	test   %r8d,%r8d
    6ce3:	0f 84 24 ff ff ff    	je     6c0d <get_24bit_row+0xed>
    6ce9:	44 89 c0             	mov    %r8d,%eax
    6cec:	f2 0f 10 0d f4 34 00 	movsd  0x34f4(%rip),%xmm1        # a1e8 <rgb_red+0x48>
    6cf3:	00 
    6cf4:	f2 0f 10 2d f4 34 00 	movsd  0x34f4(%rip),%xmm5        # a1f0 <rgb_red+0x50>
    6cfb:	00 
rgb_to_cmyk():
/home/tenebris/Disk/Documents/RootCauseAnalysis/evaluation/test_bin/libjpeg/libjpeg_heap_buffer_overflow/libjpeg-turbo/cmyk.h:41
  *c = (JSAMPLE)(255.0 - ctmp * 255.0 + 0.5);
    6cfc:	f2 0f 10 35 f4 34 00 	movsd  0x34f4(%rip),%xmm6        # a1f8 <rgb_red+0x58>
    6d03:	00 
    6d04:	48 8d 0c 87          	lea    (%rdi,%rax,4),%rcx
    6d08:	0f 1f 84 00 00 00 00 	nopl   0x0(%rax,%rax,1)
    6d0f:	00 
get_24bit_row():
/home/tenebris/Disk/Documents/RootCauseAnalysis/evaluation/test_bin/libjpeg/libjpeg_heap_buffer_overflow/libjpeg-turbo/rdbmp.c:252 (discriminator 3)
      JSAMPLE b = *inptr++, g = *inptr++, r = *inptr++;
    6d10:	0f b6 06             	movzbl (%rsi),%eax
    6d13:	0f b6 56 01          	movzbl 0x1(%rsi),%edx
rgb_to_cmyk():
/home/tenebris/Disk/Documents/RootCauseAnalysis/evaluation/test_bin/libjpeg/libjpeg_heap_buffer_overflow/libjpeg-turbo/cmyk.h:30 (discriminator 3)
  double ctmp = 1.0 - ((double)r / 255.0);
    6d17:	66 0f ef c0          	pxor   %xmm0,%xmm0
    6d1b:	66 0f 28 e5          	movapd %xmm5,%xmm4
    6d1f:	44 0f b6 46 02       	movzbl 0x2(%rsi),%r8d
/home/tenebris/Disk/Documents/RootCauseAnalysis/evaluation/test_bin/libjpeg/libjpeg_heap_buffer_overflow/libjpeg-turbo/cmyk.h:31 (discriminator 3)
  double mtmp = 1.0 - ((double)g / 255.0);
    6d24:	66 0f 28 dd          	movapd %xmm5,%xmm3
/home/tenebris/Disk/Documents/RootCauseAnalysis/evaluation/test_bin/libjpeg/libjpeg_heap_buffer_overflow/libjpeg-turbo/cmyk.h:32 (discriminator 3)
  double ytmp = 1.0 - ((double)b / 255.0);
    6d28:	66 0f 28 d5          	movapd %xmm5,%xmm2
    6d2c:	48 83 c6 03          	add    $0x3,%rsi
/home/tenebris/Disk/Documents/RootCauseAnalysis/evaluation/test_bin/libjpeg/libjpeg_heap_buffer_overflow/libjpeg-turbo/cmyk.h:30 (discriminator 3)
  double ctmp = 1.0 - ((double)r / 255.0);
    6d30:	f2 41 0f 2a c0       	cvtsi2sd %r8d,%xmm0
    6d35:	f2 0f 5e c1          	divsd  %xmm1,%xmm0
    6d39:	f2 0f 5c e0          	subsd  %xmm0,%xmm4
/home/tenebris/Disk/Documents/RootCauseAnalysis/evaluation/test_bin/libjpeg/libjpeg_heap_buffer_overflow/libjpeg-turbo/cmyk.h:31 (discriminator 3)
  double mtmp = 1.0 - ((double)g / 255.0);
    6d3d:	66 0f ef c0          	pxor   %xmm0,%xmm0
    6d41:	f2 0f 2a c2          	cvtsi2sd %edx,%xmm0
    6d45:	f2 0f 5e c1          	divsd  %xmm1,%xmm0
    6d49:	f2 0f 5c d8          	subsd  %xmm0,%xmm3
/home/tenebris/Disk/Documents/RootCauseAnalysis/evaluation/test_bin/libjpeg/libjpeg_heap_buffer_overflow/libjpeg-turbo/cmyk.h:32 (discriminator 3)
  double ytmp = 1.0 - ((double)b / 255.0);
    6d4d:	66 0f ef c0          	pxor   %xmm0,%xmm0
    6d51:	f2 0f 2a c0          	cvtsi2sd %eax,%xmm0
    6d55:	f2 0f 5e c1          	divsd  %xmm1,%xmm0
    6d59:	f2 0f 5c d0          	subsd  %xmm0,%xmm2
/home/tenebris/Disk/Documents/RootCauseAnalysis/evaluation/test_bin/libjpeg/libjpeg_heap_buffer_overflow/libjpeg-turbo/cmyk.h:33 (discriminator 3)
  double ktmp = MIN(MIN(ctmp, mtmp), ytmp);
    6d5d:	66 0f 28 c4          	movapd %xmm4,%xmm0
    6d61:	f2 0f 5d c3          	minsd  %xmm3,%xmm0
    6d65:	f2 0f 5d c2          	minsd  %xmm2,%xmm0
/home/tenebris/Disk/Documents/RootCauseAnalysis/evaluation/test_bin/libjpeg/libjpeg_heap_buffer_overflow/libjpeg-turbo/cmyk.h:35 (discriminator 3)
  if (ktmp == 1.0) ctmp = mtmp = ytmp = 0.0;
    6d69:	66 0f 2e c5          	ucomisd %xmm5,%xmm0
    6d6d:	7a 06                	jp     6d75 <get_24bit_row+0x255>
/home/tenebris/Disk/Documents/RootCauseAnalysis/evaluation/test_bin/libjpeg/libjpeg_heap_buffer_overflow/libjpeg-turbo/cmyk.h:35
    6d6f:	0f 84 9b 00 00 00    	je     6e10 <get_24bit_row+0x2f0>
/home/tenebris/Disk/Documents/RootCauseAnalysis/evaluation/test_bin/libjpeg/libjpeg_heap_buffer_overflow/libjpeg-turbo/cmyk.h:37
    ctmp = (ctmp - ktmp) / (1.0 - ktmp);
    6d75:	66 0f 28 fd          	movapd %xmm5,%xmm7
    6d79:	f2 0f 5c e0          	subsd  %xmm0,%xmm4
/home/tenebris/Disk/Documents/RootCauseAnalysis/evaluation/test_bin/libjpeg/libjpeg_heap_buffer_overflow/libjpeg-turbo/cmyk.h:38
    mtmp = (mtmp - ktmp) / (1.0 - ktmp);
    6d7d:	f2 0f 5c d8          	subsd  %xmm0,%xmm3
get_24bit_row():
/home/tenebris/Disk/Documents/RootCauseAnalysis/evaluation/test_bin/libjpeg/libjpeg_heap_buffer_overflow/libjpeg-turbo/rdbmp.c:254
      outptr += 4;
    6d81:	48 83 c7 04          	add    $0x4,%rdi
rgb_to_cmyk():
/home/tenebris/Disk/Documents/RootCauseAnalysis/evaluation/test_bin/libjpeg/libjpeg_heap_buffer_overflow/libjpeg-turbo/cmyk.h:37
    ctmp = (ctmp - ktmp) / (1.0 - ktmp);
    6d85:	f2 0f 5c f8          	subsd  %xmm0,%xmm7
/home/tenebris/Disk/Documents/RootCauseAnalysis/evaluation/test_bin/libjpeg/libjpeg_heap_buffer_overflow/libjpeg-turbo/cmyk.h:39
    ytmp = (ytmp - ktmp) / (1.0 - ktmp);
    6d89:	f2 0f 5c d0          	subsd  %xmm0,%xmm2
/home/tenebris/Disk/Documents/RootCauseAnalysis/evaluation/test_bin/libjpeg/libjpeg_heap_buffer_overflow/libjpeg-turbo/cmyk.h:41
  *c = (JSAMPLE)(255.0 - ctmp * 255.0 + 0.5);
    6d8d:	66 44 0f 28 c1       	movapd %xmm1,%xmm8
/home/tenebris/Disk/Documents/RootCauseAnalysis/evaluation/test_bin/libjpeg/libjpeg_heap_buffer_overflow/libjpeg-turbo/cmyk.h:44
  *k = (JSAMPLE)(255.0 - ktmp * 255.0 + 0.5);
    6d92:	f2 0f 59 c1          	mulsd  %xmm1,%xmm0
/home/tenebris/Disk/Documents/RootCauseAnalysis/evaluation/test_bin/libjpeg/libjpeg_heap_buffer_overflow/libjpeg-turbo/cmyk.h:37
    ctmp = (ctmp - ktmp) / (1.0 - ktmp);
    6d96:	f2 0f 5e e7          	divsd  %xmm7,%xmm4
/home/tenebris/Disk/Documents/RootCauseAnalysis/evaluation/test_bin/libjpeg/libjpeg_heap_buffer_overflow/libjpeg-turbo/cmyk.h:38
    mtmp = (mtmp - ktmp) / (1.0 - ktmp);
    6d9a:	f2 0f 5e df          	divsd  %xmm7,%xmm3
/home/tenebris/Disk/Documents/RootCauseAnalysis/evaluation/test_bin/libjpeg/libjpeg_heap_buffer_overflow/libjpeg-turbo/cmyk.h:41
  *c = (JSAMPLE)(255.0 - ctmp * 255.0 + 0.5);
    6d9e:	f2 0f 59 e1          	mulsd  %xmm1,%xmm4
    6da2:	f2 44 0f 5c c4       	subsd  %xmm4,%xmm8
/home/tenebris/Disk/Documents/RootCauseAnalysis/evaluation/test_bin/libjpeg/libjpeg_heap_buffer_overflow/libjpeg-turbo/cmyk.h:42
  *m = (JSAMPLE)(255.0 - mtmp * 255.0 + 0.5);
    6da7:	66 0f 28 e1          	movapd %xmm1,%xmm4
/home/tenebris/Disk/Documents/RootCauseAnalysis/evaluation/test_bin/libjpeg/libjpeg_heap_buffer_overflow/libjpeg-turbo/cmyk.h:41
  *c = (JSAMPLE)(255.0 - ctmp * 255.0 + 0.5);
    6dab:	f2 44 0f 58 c6       	addsd  %xmm6,%xmm8
    6db0:	f2 41 0f 2c c0       	cvttsd2si %xmm8,%eax
/home/tenebris/Disk/Documents/RootCauseAnalysis/evaluation/test_bin/libjpeg/libjpeg_heap_buffer_overflow/libjpeg-turbo/cmyk.h:39
    ytmp = (ytmp - ktmp) / (1.0 - ktmp);
    6db5:	f2 0f 5e d7          	divsd  %xmm7,%xmm2
/home/tenebris/Disk/Documents/RootCauseAnalysis/evaluation/test_bin/libjpeg/libjpeg_heap_buffer_overflow/libjpeg-turbo/cmyk.h:41
  *c = (JSAMPLE)(255.0 - ctmp * 255.0 + 0.5);
    6db9:	88 47 fc             	mov    %al,-0x4(%rdi)
/home/tenebris/Disk/Documents/RootCauseAnalysis/evaluation/test_bin/libjpeg/libjpeg_heap_buffer_overflow/libjpeg-turbo/cmyk.h:42
  *m = (JSAMPLE)(255.0 - mtmp * 255.0 + 0.5);
    6dbc:	f2 0f 59 d9          	mulsd  %xmm1,%xmm3
    6dc0:	f2 0f 5c e3          	subsd  %xmm3,%xmm4
/home/tenebris/Disk/Documents/RootCauseAnalysis/evaluation/test_bin/libjpeg/libjpeg_heap_buffer_overflow/libjpeg-turbo/cmyk.h:43
  *y = (JSAMPLE)(255.0 - ytmp * 255.0 + 0.5);
    6dc4:	66 0f 28 d9          	movapd %xmm1,%xmm3
/home/tenebris/Disk/Documents/RootCauseAnalysis/evaluation/test_bin/libjpeg/libjpeg_heap_buffer_overflow/libjpeg-turbo/cmyk.h:42
  *m = (JSAMPLE)(255.0 - mtmp * 255.0 + 0.5);
    6dc8:	f2 0f 58 e6          	addsd  %xmm6,%xmm4
    6dcc:	f2 0f 2c c4          	cvttsd2si %xmm4,%eax
    6dd0:	88 47 fd             	mov    %al,-0x3(%rdi)
/home/tenebris/Disk/Documents/RootCauseAnalysis/evaluation/test_bin/libjpeg/libjpeg_heap_buffer_overflow/libjpeg-turbo/cmyk.h:43
  *y = (JSAMPLE)(255.0 - ytmp * 255.0 + 0.5);
    6dd3:	f2 0f 59 d1          	mulsd  %xmm1,%xmm2
    6dd7:	f2 0f 5c da          	subsd  %xmm2,%xmm3
/home/tenebris/Disk/Documents/RootCauseAnalysis/evaluation/test_bin/libjpeg/libjpeg_heap_buffer_overflow/libjpeg-turbo/cmyk.h:44
  *k = (JSAMPLE)(255.0 - ktmp * 255.0 + 0.5);
    6ddb:	66 0f 28 d1          	movapd %xmm1,%xmm2
    6ddf:	f2 0f 5c d0          	subsd  %xmm0,%xmm2
/home/tenebris/Disk/Documents/RootCauseAnalysis/evaluation/test_bin/libjpeg/libjpeg_heap_buffer_overflow/libjpeg-turbo/cmyk.h:43
  *y = (JSAMPLE)(255.0 - ytmp * 255.0 + 0.5);
    6de3:	f2 0f 58 de          	addsd  %xmm6,%xmm3
/home/tenebris/Disk/Documents/RootCauseAnalysis/evaluation/test_bin/libjpeg/libjpeg_heap_buffer_overflow/libjpeg-turbo/cmyk.h:44
  *k = (JSAMPLE)(255.0 - ktmp * 255.0 + 0.5);
    6de7:	f2 0f 58 d6          	addsd  %xmm6,%xmm2
/home/tenebris/Disk/Documents/RootCauseAnalysis/evaluation/test_bin/libjpeg/libjpeg_heap_buffer_overflow/libjpeg-turbo/cmyk.h:43
  *y = (JSAMPLE)(255.0 - ytmp * 255.0 + 0.5);
    6deb:	f2 0f 2c c3          	cvttsd2si %xmm3,%eax
    6def:	88 47 fe             	mov    %al,-0x2(%rdi)
/home/tenebris/Disk/Documents/RootCauseAnalysis/evaluation/test_bin/libjpeg/libjpeg_heap_buffer_overflow/libjpeg-turbo/cmyk.h:44
  *k = (JSAMPLE)(255.0 - ktmp * 255.0 + 0.5);
    6df2:	f2 0f 2c c2          	cvttsd2si %xmm2,%eax
    6df6:	88 47 ff             	mov    %al,-0x1(%rdi)
get_24bit_row():
/home/tenebris/Disk/Documents/RootCauseAnalysis/evaluation/test_bin/libjpeg/libjpeg_heap_buffer_overflow/libjpeg-turbo/rdbmp.c:250
    for (col = cinfo->image_width; col > 0; col--) {
    6df9:	48 39 cf             	cmp    %rcx,%rdi
    6dfc:	0f 85 0e ff ff ff    	jne    6d10 <get_24bit_row+0x1f0>
/home/tenebris/Disk/Documents/RootCauseAnalysis/evaluation/test_bin/libjpeg/libjpeg_heap_buffer_overflow/libjpeg-turbo/rdbmp.c:282
}
    6e02:	48 83 c4 08          	add    $0x8,%rsp
    6e06:	b8 01 00 00 00       	mov    $0x1,%eax
    6e0b:	5b                   	pop    %rbx
    6e0c:	5d                   	pop    %rbp
    6e0d:	c3                   	ret    
    6e0e:	66 90                	xchg   %ax,%ax
rgb_to_cmyk():
/home/tenebris/Disk/Documents/RootCauseAnalysis/evaluation/test_bin/libjpeg/libjpeg_heap_buffer_overflow/libjpeg-turbo/cmyk.h:41
  *c = (JSAMPLE)(255.0 - ctmp * 255.0 + 0.5);
    6e10:	c6 07 ff             	movb   $0xff,(%rdi)
get_24bit_row():
/home/tenebris/Disk/Documents/RootCauseAnalysis/evaluation/test_bin/libjpeg/libjpeg_heap_buffer_overflow/libjpeg-turbo/rdbmp.c:254
      outptr += 4;
    6e13:	48 83 c7 04          	add    $0x4,%rdi
rgb_to_cmyk():
/home/tenebris/Disk/Documents/RootCauseAnalysis/evaluation/test_bin/libjpeg/libjpeg_heap_buffer_overflow/libjpeg-turbo/cmyk.h:42
  *m = (JSAMPLE)(255.0 - mtmp * 255.0 + 0.5);
    6e17:	c6 47 fd ff          	movb   $0xff,-0x3(%rdi)
/home/tenebris/Disk/Documents/RootCauseAnalysis/evaluation/test_bin/libjpeg/libjpeg_heap_buffer_overflow/libjpeg-turbo/cmyk.h:43
  *y = (JSAMPLE)(255.0 - ytmp * 255.0 + 0.5);
    6e1b:	c6 47 fe ff          	movb   $0xff,-0x2(%rdi)
/home/tenebris/Disk/Documents/RootCauseAnalysis/evaluation/test_bin/libjpeg/libjpeg_heap_buffer_overflow/libjpeg-turbo/cmyk.h:44
  *k = (JSAMPLE)(255.0 - ktmp * 255.0 + 0.5);
    6e1f:	c6 47 ff 00          	movb   $0x0,-0x1(%rdi)
get_24bit_row():
/home/tenebris/Disk/Documents/RootCauseAnalysis/evaluation/test_bin/libjpeg/libjpeg_heap_buffer_overflow/libjpeg-turbo/rdbmp.c:250
    for (col = cinfo->image_width; col > 0; col--) {
    6e23:	48 39 cf             	cmp    %rcx,%rdi
    6e26:	0f 85 e4 fe ff ff    	jne    6d10 <get_24bit_row+0x1f0>
/home/tenebris/Disk/Documents/RootCauseAnalysis/evaluation/test_bin/libjpeg/libjpeg_heap_buffer_overflow/libjpeg-turbo/rdbmp.c:282
}
    6e2c:	48 83 c4 08          	add    $0x8,%rsp
    6e30:	b8 01 00 00 00       	mov    $0x1,%eax
    6e35:	5b                   	pop    %rbx
    6e36:	5d                   	pop    %rbp
    6e37:	c3                   	ret    
    6e38:	0f 1f 84 00 00 00 00 	nopl   0x0(%rax,%rax,1)
    6e3f:	00 
    6e40:	49 01 f0             	add    %rsi,%r8
    6e43:	0f 1f 44 00 00       	nopl   0x0(%rax,%rax,1)
/home/tenebris/Disk/Documents/RootCauseAnalysis/evaluation/test_bin/libjpeg/libjpeg_heap_buffer_overflow/libjpeg-turbo/rdbmp.c:265 (discriminator 3)
        outptr[bindex] = *inptr++;      /* can omit GETJSAMPLE() safely */
    6e48:	0f b6 06             	movzbl (%rsi),%eax
    6e4b:	48 83 c6 03          	add    $0x3,%rsi
    6e4f:	88 07                	mov    %al,(%rdi)
/home/tenebris/Disk/Documents/RootCauseAnalysis/evaluation/test_bin/libjpeg/libjpeg_heap_buffer_overflow/libjpeg-turbo/rdbmp.c:266 (discriminator 3)
        outptr[gindex] = *inptr++;
    6e51:	48 89 f8             	mov    %rdi,%rax
    6e54:	0f b6 4e fe          	movzbl -0x2(%rsi),%ecx
/home/tenebris/Disk/Documents/RootCauseAnalysis/evaluation/test_bin/libjpeg/libjpeg_heap_buffer_overflow/libjpeg-turbo/rdbmp.c:264 (discriminator 3)
      for (col = cinfo->image_width; col > 0; col--) {
    6e58:	48 01 df             	add    %rbx,%rdi
    6e5b:	48 29 d0             	sub    %rdx,%rax
/home/tenebris/Disk/Documents/RootCauseAnalysis/evaluation/test_bin/libjpeg/libjpeg_heap_buffer_overflow/libjpeg-turbo/rdbmp.c:266 (discriminator 3)
        outptr[gindex] = *inptr++;
    6e5e:	42 88 0c 08          	mov    %cl,(%rax,%r9,1)
/home/tenebris/Disk/Documents/RootCauseAnalysis/evaluation/test_bin/libjpeg/libjpeg_heap_buffer_overflow/libjpeg-turbo/rdbmp.c:267 (discriminator 3)
        outptr[rindex] = *inptr++;
    6e62:	0f b6 4e ff          	movzbl -0x1(%rsi),%ecx
    6e66:	42 88 0c 10          	mov    %cl,(%rax,%r10,1)
/home/tenebris/Disk/Documents/RootCauseAnalysis/evaluation/test_bin/libjpeg/libjpeg_heap_buffer_overflow/libjpeg-turbo/rdbmp.c:268 (discriminator 3)
        outptr[aindex] = 0xFF;
    6e6a:	42 c6 04 18 ff       	movb   $0xff,(%rax,%r11,1)
/home/tenebris/Disk/Documents/RootCauseAnalysis/evaluation/test_bin/libjpeg/libjpeg_heap_buffer_overflow/libjpeg-turbo/rdbmp.c:264 (discriminator 3)
      for (col = cinfo->image_width; col > 0; col--) {
    6e6f:	4c 39 c6             	cmp    %r8,%rsi
    6e72:	75 d4                	jne    6e48 <get_24bit_row+0x328>
    6e74:	e9 94 fd ff ff       	jmp    6c0d <get_24bit_row+0xed>
    6e79:	0f 1f 80 00 00 00 00 	nopl   0x0(%rax)
    6e80:	4c 8d 1c 40          	lea    (%rax,%rax,2),%r11
    6e84:	49 01 f3             	add    %rsi,%r11
    6e87:	66 0f 1f 84 00 00 00 	nopw   0x0(%rax,%rax,1)
    6e8e:	00 00 
/home/tenebris/Disk/Documents/RootCauseAnalysis/evaluation/test_bin/libjpeg/libjpeg_heap_buffer_overflow/libjpeg-turbo/rdbmp.c:273 (discriminator 3)
        outptr[bindex] = *inptr++;      /* can omit GETJSAMPLE() safely */
    6e90:	0f b6 06             	movzbl (%rsi),%eax
    6e93:	48 83 c6 03          	add    $0x3,%rsi
    6e97:	88 07                	mov    %al,(%rdi)
/home/tenebris/Disk/Documents/RootCauseAnalysis/evaluation/test_bin/libjpeg/libjpeg_heap_buffer_overflow/libjpeg-turbo/rdbmp.c:274 (discriminator 3)
        outptr[gindex] = *inptr++;
    6e99:	48 89 f8             	mov    %rdi,%rax
    6e9c:	44 0f b6 46 fe       	movzbl -0x2(%rsi),%r8d
/home/tenebris/Disk/Documents/RootCauseAnalysis/evaluation/test_bin/libjpeg/libjpeg_heap_buffer_overflow/libjpeg-turbo/rdbmp.c:272 (discriminator 3)
      for (col = cinfo->image_width; col > 0; col--) {
    6ea1:	4c 01 cf             	add    %r9,%rdi
    6ea4:	48 29 d0             	sub    %rdx,%rax
/home/tenebris/Disk/Documents/RootCauseAnalysis/evaluation/test_bin/libjpeg/libjpeg_heap_buffer_overflow/libjpeg-turbo/rdbmp.c:274 (discriminator 3)
        outptr[gindex] = *inptr++;
    6ea7:	44 88 04 08          	mov    %r8b,(%rax,%rcx,1)
/home/tenebris/Disk/Documents/RootCauseAnalysis/evaluation/test_bin/libjpeg/libjpeg_heap_buffer_overflow/libjpeg-turbo/rdbmp.c:275 (discriminator 3)
        outptr[rindex] = *inptr++;
    6eab:	44 0f b6 46 ff       	movzbl -0x1(%rsi),%r8d
    6eb0:	46 88 04 10          	mov    %r8b,(%rax,%r10,1)
/home/tenebris/Disk/Documents/RootCauseAnalysis/evaluation/test_bin/libjpeg/libjpeg_heap_buffer_overflow/libjpeg-turbo/rdbmp.c:272 (discriminator 3)
      for (col = cinfo->image_width; col > 0; col--) {
    6eb4:	49 39 f3             	cmp    %rsi,%r11
    6eb7:	75 d7                	jne    6e90 <get_24bit_row+0x370>
    6eb9:	e9 4f fd ff ff       	jmp    6c0d <get_24bit_row+0xed>
    6ebe:	66 90                	xchg   %ax,%ax

0000000000006ec0 <get_32bit_row>:
get_32bit_row():
/home/tenebris/Disk/Documents/RootCauseAnalysis/evaluation/test_bin/libjpeg/libjpeg_heap_buffer_overflow/libjpeg-turbo/rdbmp.c:288
{
    6ec0:	f3 0f 1e fa          	endbr64 
    6ec4:	55                   	push   %rbp
    6ec5:	48 89 fd             	mov    %rdi,%rbp
    6ec8:	53                   	push   %rbx
    6ec9:	48 89 f3             	mov    %rsi,%rbx
    6ecc:	48 83 ec 08          	sub    $0x8,%rsp
/home/tenebris/Disk/Documents/RootCauseAnalysis/evaluation/test_bin/libjpeg/libjpeg_heap_buffer_overflow/libjpeg-turbo/rdbmp.c:294
  if (source->use_inversion_array) {
    6ed0:	8b 46 54             	mov    0x54(%rsi),%eax
    6ed3:	85 c0                	test   %eax,%eax
    6ed5:	0f 84 e5 00 00 00    	je     6fc0 <get_32bit_row+0x100>
/home/tenebris/Disk/Documents/RootCauseAnalysis/evaluation/test_bin/libjpeg/libjpeg_heap_buffer_overflow/libjpeg-turbo/rdbmp.c:296
    source->source_row--;
    6edb:	8b 46 48             	mov    0x48(%rsi),%eax
/home/tenebris/Disk/Documents/RootCauseAnalysis/evaluation/test_bin/libjpeg/libjpeg_heap_buffer_overflow/libjpeg-turbo/rdbmp.c:297
    image_ptr = (*cinfo->mem->access_virt_sarray)
    6ede:	45 31 c0             	xor    %r8d,%r8d
    6ee1:	b9 01 00 00 00       	mov    $0x1,%ecx
/home/tenebris/Disk/Documents/RootCauseAnalysis/evaluation/test_bin/libjpeg/libjpeg_heap_buffer_overflow/libjpeg-turbo/rdbmp.c:296
    source->source_row--;
    6ee6:	8d 50 ff             	lea    -0x1(%rax),%edx
/home/tenebris/Disk/Documents/RootCauseAnalysis/evaluation/test_bin/libjpeg/libjpeg_heap_buffer_overflow/libjpeg-turbo/rdbmp.c:297
    image_ptr = (*cinfo->mem->access_virt_sarray)
    6ee9:	48 8b 47 08          	mov    0x8(%rdi),%rax
/home/tenebris/Disk/Documents/RootCauseAnalysis/evaluation/test_bin/libjpeg/libjpeg_heap_buffer_overflow/libjpeg-turbo/rdbmp.c:296
    source->source_row--;
    6eed:	89 56 48             	mov    %edx,0x48(%rsi)
/home/tenebris/Disk/Documents/RootCauseAnalysis/evaluation/test_bin/libjpeg/libjpeg_heap_buffer_overflow/libjpeg-turbo/rdbmp.c:297
    image_ptr = (*cinfo->mem->access_virt_sarray)
    6ef0:	48 8b 76 40          	mov    0x40(%rsi),%rsi
    6ef4:	ff 50 38             	call   *0x38(%rax)
/home/tenebris/Disk/Documents/RootCauseAnalysis/evaluation/test_bin/libjpeg/libjpeg_heap_buffer_overflow/libjpeg-turbo/rdbmp.c:300
    inptr = image_ptr[0];
    6ef7:	48 8b 30             	mov    (%rax),%rsi
/home/tenebris/Disk/Documents/RootCauseAnalysis/evaluation/test_bin/libjpeg/libjpeg_heap_buffer_overflow/libjpeg-turbo/rdbmp.c:310
  outptr = source->pub.buffer[0];
    6efa:	48 8b 43 20          	mov    0x20(%rbx),%rax
    6efe:	48 8b 38             	mov    (%rax),%rdi
/home/tenebris/Disk/Documents/RootCauseAnalysis/evaluation/test_bin/libjpeg/libjpeg_heap_buffer_overflow/libjpeg-turbo/rdbmp.c:311
  if (cinfo->in_color_space == JCS_EXT_BGRX ||
    6f01:	8b 45 3c             	mov    0x3c(%rbp),%eax
    6f04:	89 c2                	mov    %eax,%edx
    6f06:	83 e2 fb             	and    $0xfffffffb,%edx
    6f09:	83 fa 09             	cmp    $0x9,%edx
    6f0c:	0f 84 7e 02 00 00    	je     7190 <get_32bit_row+0x2d0>
/home/tenebris/Disk/Documents/RootCauseAnalysis/evaluation/test_bin/libjpeg/libjpeg_heap_buffer_overflow/libjpeg-turbo/rdbmp.c:315
    for (col = cinfo->image_width; col > 0; col--) {
    6f12:	44 8b 5d 30          	mov    0x30(%rbp),%r11d
/home/tenebris/Disk/Documents/RootCauseAnalysis/evaluation/test_bin/libjpeg/libjpeg_heap_buffer_overflow/libjpeg-turbo/rdbmp.c:314
  } else if (cinfo->in_color_space == JCS_CMYK) {
    6f16:	83 f8 04             	cmp    $0x4,%eax
    6f19:	0f 84 19 01 00 00    	je     7038 <get_32bit_row+0x178>
/home/tenebris/Disk/Documents/RootCauseAnalysis/evaluation/test_bin/libjpeg/libjpeg_heap_buffer_overflow/libjpeg-turbo/rdbmp.c:323
    register int rindex = rgb_red[cinfo->in_color_space];
    6f1f:	48 8d 15 fa 37 00 00 	lea    0x37fa(%rip),%rdx        # a720 <rgb_red>
/home/tenebris/Disk/Documents/RootCauseAnalysis/evaluation/test_bin/libjpeg/libjpeg_heap_buffer_overflow/libjpeg-turbo/rdbmp.c:326
    register int aindex = alpha_index[cinfo->in_color_space];
    6f26:	4c 8d 05 73 36 00 00 	lea    0x3673(%rip),%r8        # a5a0 <alpha_index>
/home/tenebris/Disk/Documents/RootCauseAnalysis/evaluation/test_bin/libjpeg/libjpeg_heap_buffer_overflow/libjpeg-turbo/rdbmp.c:323
    register int rindex = rgb_red[cinfo->in_color_space];
    6f2d:	4c 63 0c 82          	movslq (%rdx,%rax,4),%r9
/home/tenebris/Disk/Documents/RootCauseAnalysis/evaluation/test_bin/libjpeg/libjpeg_heap_buffer_overflow/libjpeg-turbo/rdbmp.c:326
    register int aindex = alpha_index[cinfo->in_color_space];
    6f31:	4d 63 14 80          	movslq (%r8,%rax,4),%r10
/home/tenebris/Disk/Documents/RootCauseAnalysis/evaluation/test_bin/libjpeg/libjpeg_heap_buffer_overflow/libjpeg-turbo/rdbmp.c:324
    register int gindex = rgb_green[cinfo->in_color_space];
    6f35:	48 8d 15 84 37 00 00 	lea    0x3784(%rip),%rdx        # a6c0 <rgb_green>
/home/tenebris/Disk/Documents/RootCauseAnalysis/evaluation/test_bin/libjpeg/libjpeg_heap_buffer_overflow/libjpeg-turbo/rdbmp.c:327
    register int ps = rgb_pixelsize[cinfo->in_color_space];
    6f3c:	4c 8d 05 bd 36 00 00 	lea    0x36bd(%rip),%r8        # a600 <rgb_pixelsize>
/home/tenebris/Disk/Documents/RootCauseAnalysis/evaluation/test_bin/libjpeg/libjpeg_heap_buffer_overflow/libjpeg-turbo/rdbmp.c:324
    register int gindex = rgb_green[cinfo->in_color_space];
    6f43:	48 63 0c 82          	movslq (%rdx,%rax,4),%rcx
/home/tenebris/Disk/Documents/RootCauseAnalysis/evaluation/test_bin/libjpeg/libjpeg_heap_buffer_overflow/libjpeg-turbo/rdbmp.c:325
    register int bindex = rgb_blue[cinfo->in_color_space];
    6f47:	48 8d 15 12 37 00 00 	lea    0x3712(%rip),%rdx        # a660 <rgb_blue>
    6f4e:	48 63 14 82          	movslq (%rdx,%rax,4),%rdx
/home/tenebris/Disk/Documents/RootCauseAnalysis/evaluation/test_bin/libjpeg/libjpeg_heap_buffer_overflow/libjpeg-turbo/rdbmp.c:327
    register int ps = rgb_pixelsize[cinfo->in_color_space];
    6f52:	41 8b 04 80          	mov    (%r8,%rax,4),%eax
/home/tenebris/Disk/Documents/RootCauseAnalysis/evaluation/test_bin/libjpeg/libjpeg_heap_buffer_overflow/libjpeg-turbo/rdbmp.c:329
    if (aindex >= 0) {
    6f56:	45 85 d2             	test   %r10d,%r10d
    6f59:	0f 88 49 02 00 00    	js     71a8 <get_32bit_row+0x2e8>
/home/tenebris/Disk/Documents/RootCauseAnalysis/evaluation/test_bin/libjpeg/libjpeg_heap_buffer_overflow/libjpeg-turbo/rdbmp.c:330
      for (col = cinfo->image_width; col > 0; col--) {
    6f5f:	45 85 db             	test   %r11d,%r11d
    6f62:	74 4c                	je     6fb0 <get_32bit_row+0xf0>
/home/tenebris/Disk/Documents/RootCauseAnalysis/evaluation/test_bin/libjpeg/libjpeg_heap_buffer_overflow/libjpeg-turbo/rdbmp.c:335
        outptr += ps;
    6f64:	48 63 d8             	movslq %eax,%rbx
    6f67:	48 01 d7             	add    %rdx,%rdi
    6f6a:	83 f8 01             	cmp    $0x1,%eax
    6f6d:	44 89 d8             	mov    %r11d,%eax
/home/tenebris/Disk/Documents/RootCauseAnalysis/evaluation/test_bin/libjpeg/libjpeg_heap_buffer_overflow/libjpeg-turbo/rdbmp.c:332
        outptr[gindex] = *inptr++;
    6f70:	4c 63 c1             	movslq %ecx,%r8
    6f73:	4c 8d 1c 86          	lea    (%rsi,%rax,4),%r11
    6f77:	0f 85 83 00 00 00    	jne    7000 <get_32bit_row+0x140>
    6f7d:	0f 1f 00             	nopl   (%rax)
/home/tenebris/Disk/Documents/RootCauseAnalysis/evaluation/test_bin/libjpeg/libjpeg_heap_buffer_overflow/libjpeg-turbo/rdbmp.c:331
        outptr[bindex] = *inptr++;      /* can omit GETJSAMPLE() safely */
    6f80:	0f b6 06             	movzbl (%rsi),%eax
    6f83:	48 83 c6 04          	add    $0x4,%rsi
    6f87:	88 07                	mov    %al,(%rdi)
/home/tenebris/Disk/Documents/RootCauseAnalysis/evaluation/test_bin/libjpeg/libjpeg_heap_buffer_overflow/libjpeg-turbo/rdbmp.c:332
        outptr[gindex] = *inptr++;
    6f89:	48 89 f8             	mov    %rdi,%rax
    6f8c:	0f b6 4e fd          	movzbl -0x3(%rsi),%ecx
/home/tenebris/Disk/Documents/RootCauseAnalysis/evaluation/test_bin/libjpeg/libjpeg_heap_buffer_overflow/libjpeg-turbo/rdbmp.c:330
      for (col = cinfo->image_width; col > 0; col--) {
    6f90:	48 83 c7 01          	add    $0x1,%rdi
    6f94:	48 29 d0             	sub    %rdx,%rax
/home/tenebris/Disk/Documents/RootCauseAnalysis/evaluation/test_bin/libjpeg/libjpeg_heap_buffer_overflow/libjpeg-turbo/rdbmp.c:332
        outptr[gindex] = *inptr++;
    6f97:	42 88 0c 00          	mov    %cl,(%rax,%r8,1)
/home/tenebris/Disk/Documents/RootCauseAnalysis/evaluation/test_bin/libjpeg/libjpeg_heap_buffer_overflow/libjpeg-turbo/rdbmp.c:333
        outptr[rindex] = *inptr++;
    6f9b:	0f b6 4e fe          	movzbl -0x2(%rsi),%ecx
    6f9f:	42 88 0c 08          	mov    %cl,(%rax,%r9,1)
/home/tenebris/Disk/Documents/RootCauseAnalysis/evaluation/test_bin/libjpeg/libjpeg_heap_buffer_overflow/libjpeg-turbo/rdbmp.c:334
        outptr[aindex] = *inptr++;
    6fa3:	0f b6 4e ff          	movzbl -0x1(%rsi),%ecx
    6fa7:	42 88 0c 10          	mov    %cl,(%rax,%r10,1)
/home/tenebris/Disk/Documents/RootCauseAnalysis/evaluation/test_bin/libjpeg/libjpeg_heap_buffer_overflow/libjpeg-turbo/rdbmp.c:330
      for (col = cinfo->image_width; col > 0; col--) {
    6fab:	4c 39 de             	cmp    %r11,%rsi
    6fae:	75 d0                	jne    6f80 <get_32bit_row+0xc0>
/home/tenebris/Disk/Documents/RootCauseAnalysis/evaluation/test_bin/libjpeg/libjpeg_heap_buffer_overflow/libjpeg-turbo/rdbmp.c:349
}
    6fb0:	48 83 c4 08          	add    $0x8,%rsp
    6fb4:	b8 01 00 00 00       	mov    $0x1,%eax
    6fb9:	5b                   	pop    %rbx
    6fba:	5d                   	pop    %rbp
    6fbb:	c3                   	ret    
    6fbc:	0f 1f 40 00          	nopl   0x0(%rax)
/home/tenebris/Disk/Documents/RootCauseAnalysis/evaluation/test_bin/libjpeg/libjpeg_heap_buffer_overflow/libjpeg-turbo/rdbmp.c:302
    if (!ReadOK(source->pub.input_file, source->iobuffer, source->row_width))
    6fc0:	8b 56 4c             	mov    0x4c(%rsi),%edx
fread():
/usr/include/x86_64-linux-gnu/bits/stdio2.h:293
    6fc3:	48 8b 4e 18          	mov    0x18(%rsi),%rcx
    6fc7:	48 8b 7e 58          	mov    0x58(%rsi),%rdi
    6fcb:	be 01 00 00 00       	mov    $0x1,%esi
    6fd0:	e8 ab b2 ff ff       	call   2280 <fread@plt>
get_32bit_row():
/home/tenebris/Disk/Documents/RootCauseAnalysis/evaluation/test_bin/libjpeg/libjpeg_heap_buffer_overflow/libjpeg-turbo/rdbmp.c:302
    6fd5:	8b 53 4c             	mov    0x4c(%rbx),%edx
    6fd8:	48 39 c2             	cmp    %rax,%rdx
    6fdb:	74 10                	je     6fed <get_32bit_row+0x12d>
/home/tenebris/Disk/Documents/RootCauseAnalysis/evaluation/test_bin/libjpeg/libjpeg_heap_buffer_overflow/libjpeg-turbo/rdbmp.c:303
      ERREXIT(cinfo, JERR_INPUT_EOF);
    6fdd:	48 8b 45 00          	mov    0x0(%rbp),%rax
    6fe1:	48 89 ef             	mov    %rbp,%rdi
    6fe4:	c7 40 28 2b 00 00 00 	movl   $0x2b,0x28(%rax)
    6feb:	ff 10                	call   *(%rax)
/home/tenebris/Disk/Documents/RootCauseAnalysis/evaluation/test_bin/libjpeg/libjpeg_heap_buffer_overflow/libjpeg-turbo/rdbmp.c:304
    inptr = source->iobuffer;
    6fed:	48 8b 73 58          	mov    0x58(%rbx),%rsi
    6ff1:	e9 04 ff ff ff       	jmp    6efa <get_32bit_row+0x3a>
    6ff6:	66 2e 0f 1f 84 00 00 	cs nopw 0x0(%rax,%rax,1)
    6ffd:	00 00 00 
/home/tenebris/Disk/Documents/RootCauseAnalysis/evaluation/test_bin/libjpeg/libjpeg_heap_buffer_overflow/libjpeg-turbo/rdbmp.c:331 (discriminator 3)
        outptr[bindex] = *inptr++;      /* can omit GETJSAMPLE() safely */
    7000:	0f b6 06             	movzbl (%rsi),%eax
    7003:	48 83 c6 04          	add    $0x4,%rsi
    7007:	88 07                	mov    %al,(%rdi)
/home/tenebris/Disk/Documents/RootCauseAnalysis/evaluation/test_bin/libjpeg/libjpeg_heap_buffer_overflow/libjpeg-turbo/rdbmp.c:332 (discriminator 3)
        outptr[gindex] = *inptr++;
    7009:	48 89 f8             	mov    %rdi,%rax
    700c:	0f b6 4e fd          	movzbl -0x3(%rsi),%ecx
/home/tenebris/Disk/Documents/RootCauseAnalysis/evaluation/test_bin/libjpeg/libjpeg_heap_buffer_overflow/libjpeg-turbo/rdbmp.c:330 (discriminator 3)
      for (col = cinfo->image_width; col > 0; col--) {
    7010:	48 01 df             	add    %rbx,%rdi
    7013:	48 29 d0             	sub    %rdx,%rax
/home/tenebris/Disk/Documents/RootCauseAnalysis/evaluation/test_bin/libjpeg/libjpeg_heap_buffer_overflow/libjpeg-turbo/rdbmp.c:332 (discriminator 3)
        outptr[gindex] = *inptr++;
    7016:	42 88 0c 00          	mov    %cl,(%rax,%r8,1)
/home/tenebris/Disk/Documents/RootCauseAnalysis/evaluation/test_bin/libjpeg/libjpeg_heap_buffer_overflow/libjpeg-turbo/rdbmp.c:333 (discriminator 3)
        outptr[rindex] = *inptr++;
    701a:	0f b6 4e fe          	movzbl -0x2(%rsi),%ecx
    701e:	42 88 0c 08          	mov    %cl,(%rax,%r9,1)
/home/tenebris/Disk/Documents/RootCauseAnalysis/evaluation/test_bin/libjpeg/libjpeg_heap_buffer_overflow/libjpeg-turbo/rdbmp.c:334 (discriminator 3)
        outptr[aindex] = *inptr++;
    7022:	0f b6 4e ff          	movzbl -0x1(%rsi),%ecx
    7026:	42 88 0c 10          	mov    %cl,(%rax,%r10,1)
/home/tenebris/Disk/Documents/RootCauseAnalysis/evaluation/test_bin/libjpeg/libjpeg_heap_buffer_overflow/libjpeg-turbo/rdbmp.c:330 (discriminator 3)
      for (col = cinfo->image_width; col > 0; col--) {
    702a:	4c 39 de             	cmp    %r11,%rsi
    702d:	75 d1                	jne    7000 <get_32bit_row+0x140>
    702f:	e9 7c ff ff ff       	jmp    6fb0 <get_32bit_row+0xf0>
    7034:	0f 1f 40 00          	nopl   0x0(%rax)
/home/tenebris/Disk/Documents/RootCauseAnalysis/evaluation/test_bin/libjpeg/libjpeg_heap_buffer_overflow/libjpeg-turbo/rdbmp.c:315
    for (col = cinfo->image_width; col > 0; col--) {
    7038:	45 85 db             	test   %r11d,%r11d
    703b:	0f 84 6f ff ff ff    	je     6fb0 <get_32bit_row+0xf0>
    7041:	44 89 d8             	mov    %r11d,%eax
    7044:	f2 0f 10 0d 9c 31 00 	movsd  0x319c(%rip),%xmm1        # a1e8 <rgb_red+0x48>
    704b:	00 
    704c:	f2 0f 10 2d 9c 31 00 	movsd  0x319c(%rip),%xmm5        # a1f0 <rgb_red+0x50>
    7053:	00 
rgb_to_cmyk():
/home/tenebris/Disk/Documents/RootCauseAnalysis/evaluation/test_bin/libjpeg/libjpeg_heap_buffer_overflow/libjpeg-turbo/cmyk.h:41
  *c = (JSAMPLE)(255.0 - ctmp * 255.0 + 0.5);
    7054:	f2 0f 10 35 9c 31 00 	movsd  0x319c(%rip),%xmm6        # a1f8 <rgb_red+0x58>
    705b:	00 
    705c:	48 8d 14 87          	lea    (%rdi,%rax,4),%rdx
/home/tenebris/Disk/Documents/RootCauseAnalysis/evaluation/test_bin/libjpeg/libjpeg_heap_buffer_overflow/libjpeg-turbo/cmyk.h:30 (discriminator 3)
  double ctmp = 1.0 - ((double)r / 255.0);
    7060:	0f b6 46 02          	movzbl 0x2(%rsi),%eax
    7064:	66 0f ef c0          	pxor   %xmm0,%xmm0
    7068:	66 0f 28 e5          	movapd %xmm5,%xmm4
/home/tenebris/Disk/Documents/RootCauseAnalysis/evaluation/test_bin/libjpeg/libjpeg_heap_buffer_overflow/libjpeg-turbo/cmyk.h:31 (discriminator 3)
  double mtmp = 1.0 - ((double)g / 255.0);
    706c:	66 0f 28 dd          	movapd %xmm5,%xmm3
/home/tenebris/Disk/Documents/RootCauseAnalysis/evaluation/test_bin/libjpeg/libjpeg_heap_buffer_overflow/libjpeg-turbo/cmyk.h:32 (discriminator 3)
  double ytmp = 1.0 - ((double)b / 255.0);
    7070:	66 0f 28 d5          	movapd %xmm5,%xmm2
/home/tenebris/Disk/Documents/RootCauseAnalysis/evaluation/test_bin/libjpeg/libjpeg_heap_buffer_overflow/libjpeg-turbo/cmyk.h:30 (discriminator 3)
  double ctmp = 1.0 - ((double)r / 255.0);
    7074:	f2 0f 2a c0          	cvtsi2sd %eax,%xmm0
/home/tenebris/Disk/Documents/RootCauseAnalysis/evaluation/test_bin/libjpeg/libjpeg_heap_buffer_overflow/libjpeg-turbo/cmyk.h:31 (discriminator 3)
  double mtmp = 1.0 - ((double)g / 255.0);
    7078:	0f b6 46 01          	movzbl 0x1(%rsi),%eax
/home/tenebris/Disk/Documents/RootCauseAnalysis/evaluation/test_bin/libjpeg/libjpeg_heap_buffer_overflow/libjpeg-turbo/cmyk.h:30 (discriminator 3)
  double ctmp = 1.0 - ((double)r / 255.0);
    707c:	f2 0f 5e c1          	divsd  %xmm1,%xmm0
    7080:	f2 0f 5c e0          	subsd  %xmm0,%xmm4
/home/tenebris/Disk/Documents/RootCauseAnalysis/evaluation/test_bin/libjpeg/libjpeg_heap_buffer_overflow/libjpeg-turbo/cmyk.h:31 (discriminator 3)
  double mtmp = 1.0 - ((double)g / 255.0);
    7084:	66 0f ef c0          	pxor   %xmm0,%xmm0
    7088:	f2 0f 2a c0          	cvtsi2sd %eax,%xmm0
/home/tenebris/Disk/Documents/RootCauseAnalysis/evaluation/test_bin/libjpeg/libjpeg_heap_buffer_overflow/libjpeg-turbo/cmyk.h:32 (discriminator 3)
  double ytmp = 1.0 - ((double)b / 255.0);
    708c:	0f b6 06             	movzbl (%rsi),%eax
/home/tenebris/Disk/Documents/RootCauseAnalysis/evaluation/test_bin/libjpeg/libjpeg_heap_buffer_overflow/libjpeg-turbo/cmyk.h:31 (discriminator 3)
  double mtmp = 1.0 - ((double)g / 255.0);
    708f:	f2 0f 5e c1          	divsd  %xmm1,%xmm0
    7093:	f2 0f 5c d8          	subsd  %xmm0,%xmm3
/home/tenebris/Disk/Documents/RootCauseAnalysis/evaluation/test_bin/libjpeg/libjpeg_heap_buffer_overflow/libjpeg-turbo/cmyk.h:32 (discriminator 3)
  double ytmp = 1.0 - ((double)b / 255.0);
    7097:	66 0f ef c0          	pxor   %xmm0,%xmm0
    709b:	f2 0f 2a c0          	cvtsi2sd %eax,%xmm0
    709f:	f2 0f 5e c1          	divsd  %xmm1,%xmm0
    70a3:	f2 0f 5c d0          	subsd  %xmm0,%xmm2
/home/tenebris/Disk/Documents/RootCauseAnalysis/evaluation/test_bin/libjpeg/libjpeg_heap_buffer_overflow/libjpeg-turbo/cmyk.h:33 (discriminator 3)
  double ktmp = MIN(MIN(ctmp, mtmp), ytmp);
    70a7:	66 0f 28 c4          	movapd %xmm4,%xmm0
    70ab:	f2 0f 5d c3          	minsd  %xmm3,%xmm0
    70af:	f2 0f 5d c2          	minsd  %xmm2,%xmm0
/home/tenebris/Disk/Documents/RootCauseAnalysis/evaluation/test_bin/libjpeg/libjpeg_heap_buffer_overflow/libjpeg-turbo/cmyk.h:35 (discriminator 3)
  if (ktmp == 1.0) ctmp = mtmp = ytmp = 0.0;
    70b3:	66 0f 2e c5          	ucomisd %xmm5,%xmm0
    70b7:	7a 06                	jp     70bf <get_32bit_row+0x1ff>
/home/tenebris/Disk/Documents/RootCauseAnalysis/evaluation/test_bin/libjpeg/libjpeg_heap_buffer_overflow/libjpeg-turbo/cmyk.h:35
    70b9:	0f 84 a1 00 00 00    	je     7160 <get_32bit_row+0x2a0>
/home/tenebris/Disk/Documents/RootCauseAnalysis/evaluation/test_bin/libjpeg/libjpeg_heap_buffer_overflow/libjpeg-turbo/cmyk.h:37
    ctmp = (ctmp - ktmp) / (1.0 - ktmp);
    70bf:	66 0f 28 fd          	movapd %xmm5,%xmm7
    70c3:	f2 0f 5c e0          	subsd  %xmm0,%xmm4
/home/tenebris/Disk/Documents/RootCauseAnalysis/evaluation/test_bin/libjpeg/libjpeg_heap_buffer_overflow/libjpeg-turbo/cmyk.h:38
    mtmp = (mtmp - ktmp) / (1.0 - ktmp);
    70c7:	f2 0f 5c d8          	subsd  %xmm0,%xmm3
get_32bit_row():
/home/tenebris/Disk/Documents/RootCauseAnalysis/evaluation/test_bin/libjpeg/libjpeg_heap_buffer_overflow/libjpeg-turbo/rdbmp.c:320
      outptr += 4;
    70cb:	48 83 c7 04          	add    $0x4,%rdi
rgb_to_cmyk():
/home/tenebris/Disk/Documents/RootCauseAnalysis/evaluation/test_bin/libjpeg/libjpeg_heap_buffer_overflow/libjpeg-turbo/cmyk.h:37
    ctmp = (ctmp - ktmp) / (1.0 - ktmp);
    70cf:	f2 0f 5c f8          	subsd  %xmm0,%xmm7
/home/tenebris/Disk/Documents/RootCauseAnalysis/evaluation/test_bin/libjpeg/libjpeg_heap_buffer_overflow/libjpeg-turbo/cmyk.h:39
    ytmp = (ytmp - ktmp) / (1.0 - ktmp);
    70d3:	f2 0f 5c d0          	subsd  %xmm0,%xmm2
/home/tenebris/Disk/Documents/RootCauseAnalysis/evaluation/test_bin/libjpeg/libjpeg_heap_buffer_overflow/libjpeg-turbo/cmyk.h:44
  *k = (JSAMPLE)(255.0 - ktmp * 255.0 + 0.5);
    70d7:	f2 0f 59 c1          	mulsd  %xmm1,%xmm0
    70db:	48 83 c6 04          	add    $0x4,%rsi
/home/tenebris/Disk/Documents/RootCauseAnalysis/evaluation/test_bin/libjpeg/libjpeg_heap_buffer_overflow/libjpeg-turbo/cmyk.h:41
  *c = (JSAMPLE)(255.0 - ctmp * 255.0 + 0.5);
    70df:	66 44 0f 28 c1       	movapd %xmm1,%xmm8
/home/tenebris/Disk/Documents/RootCauseAnalysis/evaluation/test_bin/libjpeg/libjpeg_heap_buffer_overflow/libjpeg-turbo/cmyk.h:37
    ctmp = (ctmp - ktmp) / (1.0 - ktmp);
    70e4:	f2 0f 5e e7          	divsd  %xmm7,%xmm4
/home/tenebris/Disk/Documents/RootCauseAnalysis/evaluation/test_bin/libjpeg/libjpeg_heap_buffer_overflow/libjpeg-turbo/cmyk.h:38
    mtmp = (mtmp - ktmp) / (1.0 - ktmp);
    70e8:	f2 0f 5e df          	divsd  %xmm7,%xmm3
/home/tenebris/Disk/Documents/RootCauseAnalysis/evaluation/test_bin/libjpeg/libjpeg_heap_buffer_overflow/libjpeg-turbo/cmyk.h:41
  *c = (JSAMPLE)(255.0 - ctmp * 255.0 + 0.5);
    70ec:	f2 0f 59 e1          	mulsd  %xmm1,%xmm4
    70f0:	f2 44 0f 5c c4       	subsd  %xmm4,%xmm8
/home/tenebris/Disk/Documents/RootCauseAnalysis/evaluation/test_bin/libjpeg/libjpeg_heap_buffer_overflow/libjpeg-turbo/cmyk.h:42
  *m = (JSAMPLE)(255.0 - mtmp * 255.0 + 0.5);
    70f5:	66 0f 28 e1          	movapd %xmm1,%xmm4
/home/tenebris/Disk/Documents/RootCauseAnalysis/evaluation/test_bin/libjpeg/libjpeg_heap_buffer_overflow/libjpeg-turbo/cmyk.h:41
  *c = (JSAMPLE)(255.0 - ctmp * 255.0 + 0.5);
    70f9:	f2 44 0f 58 c6       	addsd  %xmm6,%xmm8
    70fe:	f2 41 0f 2c c0       	cvttsd2si %xmm8,%eax
/home/tenebris/Disk/Documents/RootCauseAnalysis/evaluation/test_bin/libjpeg/libjpeg_heap_buffer_overflow/libjpeg-turbo/cmyk.h:39
    ytmp = (ytmp - ktmp) / (1.0 - ktmp);
    7103:	f2 0f 5e d7          	divsd  %xmm7,%xmm2
/home/tenebris/Disk/Documents/RootCauseAnalysis/evaluation/test_bin/libjpeg/libjpeg_heap_buffer_overflow/libjpeg-turbo/cmyk.h:41
  *c = (JSAMPLE)(255.0 - ctmp * 255.0 + 0.5);
    7107:	88 47 fc             	mov    %al,-0x4(%rdi)
/home/tenebris/Disk/Documents/RootCauseAnalysis/evaluation/test_bin/libjpeg/libjpeg_heap_buffer_overflow/libjpeg-turbo/cmyk.h:42
  *m = (JSAMPLE)(255.0 - mtmp * 255.0 + 0.5);
    710a:	f2 0f 59 d9          	mulsd  %xmm1,%xmm3
    710e:	f2 0f 5c e3          	subsd  %xmm3,%xmm4
/home/tenebris/Disk/Documents/RootCauseAnalysis/evaluation/test_bin/libjpeg/libjpeg_heap_buffer_overflow/libjpeg-turbo/cmyk.h:43
  *y = (JSAMPLE)(255.0 - ytmp * 255.0 + 0.5);
    7112:	66 0f 28 d9          	movapd %xmm1,%xmm3
/home/tenebris/Disk/Documents/RootCauseAnalysis/evaluation/test_bin/libjpeg/libjpeg_heap_buffer_overflow/libjpeg-turbo/cmyk.h:42
  *m = (JSAMPLE)(255.0 - mtmp * 255.0 + 0.5);
    7116:	f2 0f 58 e6          	addsd  %xmm6,%xmm4
    711a:	f2 0f 2c c4          	cvttsd2si %xmm4,%eax
    711e:	88 47 fd             	mov    %al,-0x3(%rdi)
/home/tenebris/Disk/Documents/RootCauseAnalysis/evaluation/test_bin/libjpeg/libjpeg_heap_buffer_overflow/libjpeg-turbo/cmyk.h:43
  *y = (JSAMPLE)(255.0 - ytmp * 255.0 + 0.5);
    7121:	f2 0f 59 d1          	mulsd  %xmm1,%xmm2
    7125:	f2 0f 5c da          	subsd  %xmm2,%xmm3
/home/tenebris/Disk/Documents/RootCauseAnalysis/evaluation/test_bin/libjpeg/libjpeg_heap_buffer_overflow/libjpeg-turbo/cmyk.h:44
  *k = (JSAMPLE)(255.0 - ktmp * 255.0 + 0.5);
    7129:	66 0f 28 d1          	movapd %xmm1,%xmm2
    712d:	f2 0f 5c d0          	subsd  %xmm0,%xmm2
/home/tenebris/Disk/Documents/RootCauseAnalysis/evaluation/test_bin/libjpeg/libjpeg_heap_buffer_overflow/libjpeg-turbo/cmyk.h:43
  *y = (JSAMPLE)(255.0 - ytmp * 255.0 + 0.5);
    7131:	f2 0f 58 de          	addsd  %xmm6,%xmm3
/home/tenebris/Disk/Documents/RootCauseAnalysis/evaluation/test_bin/libjpeg/libjpeg_heap_buffer_overflow/libjpeg-turbo/cmyk.h:44
  *k = (JSAMPLE)(255.0 - ktmp * 255.0 + 0.5);
    7135:	f2 0f 58 d6          	addsd  %xmm6,%xmm2
/home/tenebris/Disk/Documents/RootCauseAnalysis/evaluation/test_bin/libjpeg/libjpeg_heap_buffer_overflow/libjpeg-turbo/cmyk.h:43
  *y = (JSAMPLE)(255.0 - ytmp * 255.0 + 0.5);
    7139:	f2 0f 2c c3          	cvttsd2si %xmm3,%eax
    713d:	88 47 fe             	mov    %al,-0x2(%rdi)
/home/tenebris/Disk/Documents/RootCauseAnalysis/evaluation/test_bin/libjpeg/libjpeg_heap_buffer_overflow/libjpeg-turbo/cmyk.h:44
  *k = (JSAMPLE)(255.0 - ktmp * 255.0 + 0.5);
    7140:	f2 0f 2c c2          	cvttsd2si %xmm2,%eax
    7144:	88 47 ff             	mov    %al,-0x1(%rdi)
get_32bit_row():
/home/tenebris/Disk/Documents/RootCauseAnalysis/evaluation/test_bin/libjpeg/libjpeg_heap_buffer_overflow/libjpeg-turbo/rdbmp.c:315
    for (col = cinfo->image_width; col > 0; col--) {
    7147:	48 39 d7             	cmp    %rdx,%rdi
    714a:	0f 85 10 ff ff ff    	jne    7060 <get_32bit_row+0x1a0>
/home/tenebris/Disk/Documents/RootCauseAnalysis/evaluation/test_bin/libjpeg/libjpeg_heap_buffer_overflow/libjpeg-turbo/rdbmp.c:349
}
    7150:	48 83 c4 08          	add    $0x8,%rsp
    7154:	b8 01 00 00 00       	mov    $0x1,%eax
    7159:	5b                   	pop    %rbx
    715a:	5d                   	pop    %rbp
    715b:	c3                   	ret    
    715c:	0f 1f 40 00          	nopl   0x0(%rax)
rgb_to_cmyk():
/home/tenebris/Disk/Documents/RootCauseAnalysis/evaluation/test_bin/libjpeg/libjpeg_heap_buffer_overflow/libjpeg-turbo/cmyk.h:41
  *c = (JSAMPLE)(255.0 - ctmp * 255.0 + 0.5);
    7160:	c6 07 ff             	movb   $0xff,(%rdi)
get_32bit_row():
/home/tenebris/Disk/Documents/RootCauseAnalysis/evaluation/test_bin/libjpeg/libjpeg_heap_buffer_overflow/libjpeg-turbo/rdbmp.c:320
      outptr += 4;
    7163:	48 83 c7 04          	add    $0x4,%rdi
    7167:	48 83 c6 04          	add    $0x4,%rsi
rgb_to_cmyk():
/home/tenebris/Disk/Documents/RootCauseAnalysis/evaluation/test_bin/libjpeg/libjpeg_heap_buffer_overflow/libjpeg-turbo/cmyk.h:42
  *m = (JSAMPLE)(255.0 - mtmp * 255.0 + 0.5);
    716b:	c6 47 fd ff          	movb   $0xff,-0x3(%rdi)
/home/tenebris/Disk/Documents/RootCauseAnalysis/evaluation/test_bin/libjpeg/libjpeg_heap_buffer_overflow/libjpeg-turbo/cmyk.h:43
  *y = (JSAMPLE)(255.0 - ytmp * 255.0 + 0.5);
    716f:	c6 47 fe ff          	movb   $0xff,-0x2(%rdi)
/home/tenebris/Disk/Documents/RootCauseAnalysis/evaluation/test_bin/libjpeg/libjpeg_heap_buffer_overflow/libjpeg-turbo/cmyk.h:44
  *k = (JSAMPLE)(255.0 - ktmp * 255.0 + 0.5);
    7173:	c6 47 ff 00          	movb   $0x0,-0x1(%rdi)
get_32bit_row():
/home/tenebris/Disk/Documents/RootCauseAnalysis/evaluation/test_bin/libjpeg/libjpeg_heap_buffer_overflow/libjpeg-turbo/rdbmp.c:315
    for (col = cinfo->image_width; col > 0; col--) {
    7177:	48 39 d7             	cmp    %rdx,%rdi
    717a:	0f 85 e0 fe ff ff    	jne    7060 <get_32bit_row+0x1a0>
/home/tenebris/Disk/Documents/RootCauseAnalysis/evaluation/test_bin/libjpeg/libjpeg_heap_buffer_overflow/libjpeg-turbo/rdbmp.c:349
}
    7180:	48 83 c4 08          	add    $0x8,%rsp
    7184:	b8 01 00 00 00       	mov    $0x1,%eax
    7189:	5b                   	pop    %rbx
    718a:	5d                   	pop    %rbp
    718b:	c3                   	ret    
    718c:	0f 1f 40 00          	nopl   0x0(%rax)
/home/tenebris/Disk/Documents/RootCauseAnalysis/evaluation/test_bin/libjpeg/libjpeg_heap_buffer_overflow/libjpeg-turbo/rdbmp.c:313
    MEMCOPY(outptr, inptr, source->row_width);
    7190:	8b 53 4c             	mov    0x4c(%rbx),%edx
memcpy():
/usr/include/x86_64-linux-gnu/bits/string_fortified.h:29
    7193:	e8 78 b1 ff ff       	call   2310 <memcpy@plt>
get_32bit_row():
/home/tenebris/Disk/Documents/RootCauseAnalysis/evaluation/test_bin/libjpeg/libjpeg_heap_buffer_overflow/libjpeg-turbo/rdbmp.c:349
}
    7198:	48 83 c4 08          	add    $0x8,%rsp
    719c:	b8 01 00 00 00       	mov    $0x1,%eax
    71a1:	5b                   	pop    %rbx
    71a2:	5d                   	pop    %rbp
    71a3:	c3                   	ret    
    71a4:	0f 1f 40 00          	nopl   0x0(%rax)
/home/tenebris/Disk/Documents/RootCauseAnalysis/evaluation/test_bin/libjpeg/libjpeg_heap_buffer_overflow/libjpeg-turbo/rdbmp.c:338
      for (col = cinfo->image_width; col > 0; col--) {
    71a8:	45 85 db             	test   %r11d,%r11d
    71ab:	0f 84 ff fd ff ff    	je     6fb0 <get_32bit_row+0xf0>
    71b1:	48 01 d7             	add    %rdx,%rdi
    71b4:	83 f8 01             	cmp    $0x1,%eax
/home/tenebris/Disk/Documents/RootCauseAnalysis/evaluation/test_bin/libjpeg/libjpeg_heap_buffer_overflow/libjpeg-turbo/rdbmp.c:335
        outptr += ps;
    71b7:	4c 63 d0             	movslq %eax,%r10
    71ba:	44 89 d8             	mov    %r11d,%eax
    71bd:	75 41                	jne    7200 <get_32bit_row+0x340>
    71bf:	4c 8d 14 86          	lea    (%rsi,%rax,4),%r10
    71c3:	0f 1f 44 00 00       	nopl   0x0(%rax,%rax,1)
/home/tenebris/Disk/Documents/RootCauseAnalysis/evaluation/test_bin/libjpeg/libjpeg_heap_buffer_overflow/libjpeg-turbo/rdbmp.c:339
        outptr[bindex] = *inptr++;      /* can omit GETJSAMPLE() safely */
    71c8:	0f b6 06             	movzbl (%rsi),%eax
    71cb:	48 83 c6 04          	add    $0x4,%rsi
    71cf:	88 07                	mov    %al,(%rdi)
/home/tenebris/Disk/Documents/RootCauseAnalysis/evaluation/test_bin/libjpeg/libjpeg_heap_buffer_overflow/libjpeg-turbo/rdbmp.c:340
        outptr[gindex] = *inptr++;
    71d1:	48 89 f8             	mov    %rdi,%rax
    71d4:	44 0f b6 46 fd       	movzbl -0x3(%rsi),%r8d
/home/tenebris/Disk/Documents/RootCauseAnalysis/evaluation/test_bin/libjpeg/libjpeg_heap_buffer_overflow/libjpeg-turbo/rdbmp.c:338
      for (col = cinfo->image_width; col > 0; col--) {
    71d9:	48 83 c7 01          	add    $0x1,%rdi
    71dd:	48 29 d0             	sub    %rdx,%rax
/home/tenebris/Disk/Documents/RootCauseAnalysis/evaluation/test_bin/libjpeg/libjpeg_heap_buffer_overflow/libjpeg-turbo/rdbmp.c:340
        outptr[gindex] = *inptr++;
    71e0:	44 88 04 08          	mov    %r8b,(%rax,%rcx,1)
/home/tenebris/Disk/Documents/RootCauseAnalysis/evaluation/test_bin/libjpeg/libjpeg_heap_buffer_overflow/libjpeg-turbo/rdbmp.c:341
        outptr[rindex] = *inptr++;
    71e4:	44 0f b6 46 fe       	movzbl -0x2(%rsi),%r8d
    71e9:	46 88 04 08          	mov    %r8b,(%rax,%r9,1)
/home/tenebris/Disk/Documents/RootCauseAnalysis/evaluation/test_bin/libjpeg/libjpeg_heap_buffer_overflow/libjpeg-turbo/rdbmp.c:338
      for (col = cinfo->image_width; col > 0; col--) {
    71ed:	4c 39 d6             	cmp    %r10,%rsi
    71f0:	75 d6                	jne    71c8 <get_32bit_row+0x308>
/home/tenebris/Disk/Documents/RootCauseAnalysis/evaluation/test_bin/libjpeg/libjpeg_heap_buffer_overflow/libjpeg-turbo/rdbmp.c:349
}
    71f2:	48 83 c4 08          	add    $0x8,%rsp
    71f6:	b8 01 00 00 00       	mov    $0x1,%eax
    71fb:	5b                   	pop    %rbx
    71fc:	5d                   	pop    %rbp
    71fd:	c3                   	ret    
    71fe:	66 90                	xchg   %ax,%ax
    7200:	4c 8d 1c 86          	lea    (%rsi,%rax,4),%r11
    7204:	0f 1f 40 00          	nopl   0x0(%rax)
/home/tenebris/Disk/Documents/RootCauseAnalysis/evaluation/test_bin/libjpeg/libjpeg_heap_buffer_overflow/libjpeg-turbo/rdbmp.c:339 (discriminator 3)
        outptr[bindex] = *inptr++;      /* can omit GETJSAMPLE() safely */
    7208:	0f b6 06             	movzbl (%rsi),%eax
    720b:	48 83 c6 04          	add    $0x4,%rsi
    720f:	88 07                	mov    %al,(%rdi)
/home/tenebris/Disk/Documents/RootCauseAnalysis/evaluation/test_bin/libjpeg/libjpeg_heap_buffer_overflow/libjpeg-turbo/rdbmp.c:340 (discriminator 3)
        outptr[gindex] = *inptr++;
    7211:	48 89 f8             	mov    %rdi,%rax
    7214:	44 0f b6 46 fd       	movzbl -0x3(%rsi),%r8d
/home/tenebris/Disk/Documents/RootCauseAnalysis/evaluation/test_bin/libjpeg/libjpeg_heap_buffer_overflow/libjpeg-turbo/rdbmp.c:338 (discriminator 3)
      for (col = cinfo->image_width; col > 0; col--) {
    7219:	4c 01 d7             	add    %r10,%rdi
    721c:	48 29 d0             	sub    %rdx,%rax
/home/tenebris/Disk/Documents/RootCauseAnalysis/evaluation/test_bin/libjpeg/libjpeg_heap_buffer_overflow/libjpeg-turbo/rdbmp.c:340 (discriminator 3)
        outptr[gindex] = *inptr++;
    721f:	44 88 04 08          	mov    %r8b,(%rax,%rcx,1)
/home/tenebris/Disk/Documents/RootCauseAnalysis/evaluation/test_bin/libjpeg/libjpeg_heap_buffer_overflow/libjpeg-turbo/rdbmp.c:341 (discriminator 3)
        outptr[rindex] = *inptr++;
    7223:	44 0f b6 46 fe       	movzbl -0x2(%rsi),%r8d
    7228:	46 88 04 08          	mov    %r8b,(%rax,%r9,1)
/home/tenebris/Disk/Documents/RootCauseAnalysis/evaluation/test_bin/libjpeg/libjpeg_heap_buffer_overflow/libjpeg-turbo/rdbmp.c:338 (discriminator 3)
      for (col = cinfo->image_width; col > 0; col--) {
    722c:	49 39 f3             	cmp    %rsi,%r11
    722f:	75 d7                	jne    7208 <get_32bit_row+0x348>
    7231:	e9 7a fd ff ff       	jmp    6fb0 <get_32bit_row+0xf0>
    7236:	66 2e 0f 1f 84 00 00 	cs nopw 0x0(%rax,%rax,1)
    723d:	00 00 00 

0000000000007240 <preload_image>:
preload_image():
/home/tenebris/Disk/Documents/RootCauseAnalysis/evaluation/test_bin/libjpeg/libjpeg_heap_buffer_overflow/libjpeg-turbo/rdbmp.c:360
{
    7240:	f3 0f 1e fa          	endbr64 
    7244:	41 56                	push   %r14
    7246:	41 55                	push   %r13
    7248:	41 54                	push   %r12
    724a:	49 89 f4             	mov    %rsi,%r12
    724d:	55                   	push   %rbp
    724e:	48 89 fd             	mov    %rdi,%rbp
    7251:	53                   	push   %rbx
/home/tenebris/Disk/Documents/RootCauseAnalysis/evaluation/test_bin/libjpeg/libjpeg_heap_buffer_overflow/libjpeg-turbo/rdbmp.c:369
  for (row = 0; row < cinfo->image_height; row++) {
    7252:	8b 47 34             	mov    0x34(%rdi),%eax
    7255:	31 db                	xor    %ebx,%ebx
/home/tenebris/Disk/Documents/RootCauseAnalysis/evaluation/test_bin/libjpeg/libjpeg_heap_buffer_overflow/libjpeg-turbo/rdbmp.c:362
  register FILE *infile = source->pub.input_file;
    7257:	4c 8b 76 18          	mov    0x18(%rsi),%r14
/home/tenebris/Disk/Documents/RootCauseAnalysis/evaluation/test_bin/libjpeg/libjpeg_heap_buffer_overflow/libjpeg-turbo/rdbmp.c:366
  cd_progress_ptr progress = (cd_progress_ptr)cinfo->progress;
    725b:	4c 8b 6f 10          	mov    0x10(%rdi),%r13
/home/tenebris/Disk/Documents/RootCauseAnalysis/evaluation/test_bin/libjpeg/libjpeg_heap_buffer_overflow/libjpeg-turbo/rdbmp.c:369
  for (row = 0; row < cinfo->image_height; row++) {
    725f:	85 c0                	test   %eax,%eax
    7261:	75 27                	jne    728a <preload_image+0x4a>
    7263:	e9 ab 00 00 00       	jmp    7313 <preload_image+0xd3>
    7268:	0f 1f 84 00 00 00 00 	nopl   0x0(%rax,%rax,1)
    726f:	00 
/home/tenebris/Disk/Documents/RootCauseAnalysis/evaluation/test_bin/libjpeg/libjpeg_heap_buffer_overflow/libjpeg-turbo/rdbmp.c:380
        ERREXIT(cinfo, JERR_INPUT_EOF);
    7270:	c7 40 28 2b 00 00 00 	movl   $0x2b,0x28(%rax)
    7277:	48 89 ef             	mov    %rbp,%rdi
    727a:	ff 10                	call   *(%rax)
/home/tenebris/Disk/Documents/RootCauseAnalysis/evaluation/test_bin/libjpeg/libjpeg_heap_buffer_overflow/libjpeg-turbo/rdbmp.c:369 (discriminator 2)
  for (row = 0; row < cinfo->image_height; row++) {
    727c:	8b 45 34             	mov    0x34(%rbp),%eax
    727f:	83 c3 01             	add    $0x1,%ebx
    7282:	39 d8                	cmp    %ebx,%eax
    7284:	0f 86 89 00 00 00    	jbe    7313 <preload_image+0xd3>
/home/tenebris/Disk/Documents/RootCauseAnalysis/evaluation/test_bin/libjpeg/libjpeg_heap_buffer_overflow/libjpeg-turbo/rdbmp.c:370
    if (progress != NULL) {
    728a:	4d 85 ed             	test   %r13,%r13
    728d:	74 1b                	je     72aa <preload_image+0x6a>
/home/tenebris/Disk/Documents/RootCauseAnalysis/evaluation/test_bin/libjpeg/libjpeg_heap_buffer_overflow/libjpeg-turbo/rdbmp.c:371
      progress->pub.pass_counter = (long)row;
    728f:	89 da                	mov    %ebx,%edx
/home/tenebris/Disk/Documents/RootCauseAnalysis/evaluation/test_bin/libjpeg/libjpeg_heap_buffer_overflow/libjpeg-turbo/rdbmp.c:372
      progress->pub.pass_limit = (long)cinfo->image_height;
    7291:	66 0f 6e c0          	movd   %eax,%xmm0
/home/tenebris/Disk/Documents/RootCauseAnalysis/evaluation/test_bin/libjpeg/libjpeg_heap_buffer_overflow/libjpeg-turbo/rdbmp.c:373
      (*progress->pub.progress_monitor) ((j_common_ptr)cinfo);
    7295:	48 89 ef             	mov    %rbp,%rdi
/home/tenebris/Disk/Documents/RootCauseAnalysis/evaluation/test_bin/libjpeg/libjpeg_heap_buffer_overflow/libjpeg-turbo/rdbmp.c:371
      progress->pub.pass_counter = (long)row;
    7298:	66 48 0f 6e ca       	movq   %rdx,%xmm1
    729d:	66 0f 6c c8          	punpcklqdq %xmm0,%xmm1
    72a1:	41 0f 11 4d 08       	movups %xmm1,0x8(%r13)
/home/tenebris/Disk/Documents/RootCauseAnalysis/evaluation/test_bin/libjpeg/libjpeg_heap_buffer_overflow/libjpeg-turbo/rdbmp.c:373
      (*progress->pub.progress_monitor) ((j_common_ptr)cinfo);
    72a6:	41 ff 55 00          	call   *0x0(%r13)
/home/tenebris/Disk/Documents/RootCauseAnalysis/evaluation/test_bin/libjpeg/libjpeg_heap_buffer_overflow/libjpeg-turbo/rdbmp.c:375
    image_ptr = (*cinfo->mem->access_virt_sarray)
    72aa:	48 8b 45 08          	mov    0x8(%rbp),%rax
    72ae:	49 8b 74 24 40       	mov    0x40(%r12),%rsi
    72b3:	b9 01 00 00 00       	mov    $0x1,%ecx
    72b8:	89 da                	mov    %ebx,%edx
    72ba:	41 b8 01 00 00 00    	mov    $0x1,%r8d
    72c0:	48 89 ef             	mov    %rbp,%rdi
    72c3:	ff 50 38             	call   *0x38(%rax)
/home/tenebris/Disk/Documents/RootCauseAnalysis/evaluation/test_bin/libjpeg/libjpeg_heap_buffer_overflow/libjpeg-turbo/rdbmp.c:378
    if (fread(out_ptr, 1, source->row_width, infile) != source->row_width) {
    72c6:	41 8b 54 24 4c       	mov    0x4c(%r12),%edx
fread():
/usr/include/x86_64-linux-gnu/bits/stdio2.h:293
    72cb:	4c 89 f1             	mov    %r14,%rcx
    72ce:	be 01 00 00 00       	mov    $0x1,%esi
    72d3:	48 8b 38             	mov    (%rax),%rdi
    72d6:	e8 a5 af ff ff       	call   2280 <fread@plt>
preload_image():
/home/tenebris/Disk/Documents/RootCauseAnalysis/evaluation/test_bin/libjpeg/libjpeg_heap_buffer_overflow/libjpeg-turbo/rdbmp.c:378
    72db:	41 8b 54 24 4c       	mov    0x4c(%r12),%edx
    72e0:	48 39 c2             	cmp    %rax,%rdx
    72e3:	74 97                	je     727c <preload_image+0x3c>
/home/tenebris/Disk/Documents/RootCauseAnalysis/evaluation/test_bin/libjpeg/libjpeg_heap_buffer_overflow/libjpeg-turbo/rdbmp.c:379
      if (feof(infile))
    72e5:	4c 89 f7             	mov    %r14,%rdi
    72e8:	e8 03 b0 ff ff       	call   22f0 <feof@plt>
    72ed:	85 c0                	test   %eax,%eax
/home/tenebris/Disk/Documents/RootCauseAnalysis/evaluation/test_bin/libjpeg/libjpeg_heap_buffer_overflow/libjpeg-turbo/rdbmp.c:380
        ERREXIT(cinfo, JERR_INPUT_EOF);
    72ef:	48 8b 45 00          	mov    0x0(%rbp),%rax
/home/tenebris/Disk/Documents/RootCauseAnalysis/evaluation/test_bin/libjpeg/libjpeg_heap_buffer_overflow/libjpeg-turbo/rdbmp.c:379
      if (feof(infile))
    72f3:	0f 85 77 ff ff ff    	jne    7270 <preload_image+0x30>
/home/tenebris/Disk/Documents/RootCauseAnalysis/evaluation/test_bin/libjpeg/libjpeg_heap_buffer_overflow/libjpeg-turbo/rdbmp.c:382
        ERREXIT(cinfo, JERR_FILE_READ);
    72f9:	c7 40 28 24 00 00 00 	movl   $0x24,0x28(%rax)
    7300:	48 89 ef             	mov    %rbp,%rdi
/home/tenebris/Disk/Documents/RootCauseAnalysis/evaluation/test_bin/libjpeg/libjpeg_heap_buffer_overflow/libjpeg-turbo/rdbmp.c:369
  for (row = 0; row < cinfo->image_height; row++) {
    7303:	83 c3 01             	add    $0x1,%ebx
/home/tenebris/Disk/Documents/RootCauseAnalysis/evaluation/test_bin/libjpeg/libjpeg_heap_buffer_overflow/libjpeg-turbo/rdbmp.c:382
        ERREXIT(cinfo, JERR_FILE_READ);
    7306:	ff 10                	call   *(%rax)
/home/tenebris/Disk/Documents/RootCauseAnalysis/evaluation/test_bin/libjpeg/libjpeg_heap_buffer_overflow/libjpeg-turbo/rdbmp.c:369
  for (row = 0; row < cinfo->image_height; row++) {
    7308:	8b 45 34             	mov    0x34(%rbp),%eax
    730b:	39 d8                	cmp    %ebx,%eax
    730d:	0f 87 77 ff ff ff    	ja     728a <preload_image+0x4a>
/home/tenebris/Disk/Documents/RootCauseAnalysis/evaluation/test_bin/libjpeg/libjpeg_heap_buffer_overflow/libjpeg-turbo/rdbmp.c:385
  if (progress != NULL)
    7313:	4d 85 ed             	test   %r13,%r13
    7316:	74 05                	je     731d <preload_image+0xdd>
/home/tenebris/Disk/Documents/RootCauseAnalysis/evaluation/test_bin/libjpeg/libjpeg_heap_buffer_overflow/libjpeg-turbo/rdbmp.c:386
    progress->completed_extra_passes++;
    7318:	41 83 45 20 01       	addl   $0x1,0x20(%r13)
/home/tenebris/Disk/Documents/RootCauseAnalysis/evaluation/test_bin/libjpeg/libjpeg_heap_buffer_overflow/libjpeg-turbo/rdbmp.c:389
  switch (source->bits_per_pixel) {
    731d:	41 8b 54 24 50       	mov    0x50(%r12),%edx
    7322:	83 fa 18             	cmp    $0x18,%edx
    7325:	74 39                	je     7360 <preload_image+0x120>
    7327:	83 fa 20             	cmp    $0x20,%edx
    732a:	74 54                	je     7380 <preload_image+0x140>
    732c:	83 fa 08             	cmp    $0x8,%edx
    732f:	74 3f                	je     7370 <preload_image+0x130>
/home/tenebris/Disk/Documents/RootCauseAnalysis/evaluation/test_bin/libjpeg/libjpeg_heap_buffer_overflow/libjpeg-turbo/rdbmp.c:400
    ERREXIT(cinfo, JERR_BMP_BADDEPTH);
    7331:	48 8b 45 00          	mov    0x0(%rbp),%rax
    7335:	48 89 ef             	mov    %rbp,%rdi
    7338:	c7 40 28 ea 03 00 00 	movl   $0x3ea,0x28(%rax)
    733f:	ff 10                	call   *(%rax)
/home/tenebris/Disk/Documents/RootCauseAnalysis/evaluation/test_bin/libjpeg/libjpeg_heap_buffer_overflow/libjpeg-turbo/rdbmp.c:405
  return (*source->pub.get_pixel_rows) (cinfo, sinfo);
    7341:	49 8b 54 24 08       	mov    0x8(%r12),%rdx
    7346:	8b 45 34             	mov    0x34(%rbp),%eax
/home/tenebris/Disk/Documents/RootCauseAnalysis/evaluation/test_bin/libjpeg/libjpeg_heap_buffer_overflow/libjpeg-turbo/rdbmp.c:406
}
    7349:	5b                   	pop    %rbx
/home/tenebris/Disk/Documents/RootCauseAnalysis/evaluation/test_bin/libjpeg/libjpeg_heap_buffer_overflow/libjpeg-turbo/rdbmp.c:402
  source->source_row = cinfo->image_height;
    734a:	41 89 44 24 48       	mov    %eax,0x48(%r12)
/home/tenebris/Disk/Documents/RootCauseAnalysis/evaluation/test_bin/libjpeg/libjpeg_heap_buffer_overflow/libjpeg-turbo/rdbmp.c:405
  return (*source->pub.get_pixel_rows) (cinfo, sinfo);
    734f:	4c 89 e6             	mov    %r12,%rsi
    7352:	48 89 ef             	mov    %rbp,%rdi
/home/tenebris/Disk/Documents/RootCauseAnalysis/evaluation/test_bin/libjpeg/libjpeg_heap_buffer_overflow/libjpeg-turbo/rdbmp.c:406
}
    7355:	5d                   	pop    %rbp
    7356:	41 5c                	pop    %r12
    7358:	41 5d                	pop    %r13
    735a:	41 5e                	pop    %r14
/home/tenebris/Disk/Documents/RootCauseAnalysis/evaluation/test_bin/libjpeg/libjpeg_heap_buffer_overflow/libjpeg-turbo/rdbmp.c:405
  return (*source->pub.get_pixel_rows) (cinfo, sinfo);
    735c:	ff e2                	jmp    *%rdx
    735e:	66 90                	xchg   %ax,%ax
/home/tenebris/Disk/Documents/RootCauseAnalysis/evaluation/test_bin/libjpeg/libjpeg_heap_buffer_overflow/libjpeg-turbo/rdbmp.c:394
    source->pub.get_pixel_rows = get_24bit_row;
    7360:	48 8d 15 b9 f7 ff ff 	lea    -0x847(%rip),%rdx        # 6b20 <get_24bit_row>
    7367:	49 89 54 24 08       	mov    %rdx,0x8(%r12)
/home/tenebris/Disk/Documents/RootCauseAnalysis/evaluation/test_bin/libjpeg/libjpeg_heap_buffer_overflow/libjpeg-turbo/rdbmp.c:395
    break;
    736c:	eb db                	jmp    7349 <preload_image+0x109>
    736e:	66 90                	xchg   %ax,%ax
/home/tenebris/Disk/Documents/RootCauseAnalysis/evaluation/test_bin/libjpeg/libjpeg_heap_buffer_overflow/libjpeg-turbo/rdbmp.c:391
    source->pub.get_pixel_rows = get_8bit_row;
    7370:	48 8d 15 e9 f3 ff ff 	lea    -0xc17(%rip),%rdx        # 6760 <get_8bit_row>
    7377:	49 89 54 24 08       	mov    %rdx,0x8(%r12)
/home/tenebris/Disk/Documents/RootCauseAnalysis/evaluation/test_bin/libjpeg/libjpeg_heap_buffer_overflow/libjpeg-turbo/rdbmp.c:392
    break;
    737c:	eb cb                	jmp    7349 <preload_image+0x109>
    737e:	66 90                	xchg   %ax,%ax
/home/tenebris/Disk/Documents/RootCauseAnalysis/evaluation/test_bin/libjpeg/libjpeg_heap_buffer_overflow/libjpeg-turbo/rdbmp.c:397
    source->pub.get_pixel_rows = get_32bit_row;
    7380:	48 8d 15 39 fb ff ff 	lea    -0x4c7(%rip),%rdx        # 6ec0 <get_32bit_row>
    7387:	49 89 54 24 08       	mov    %rdx,0x8(%r12)
/home/tenebris/Disk/Documents/RootCauseAnalysis/evaluation/test_bin/libjpeg/libjpeg_heap_buffer_overflow/libjpeg-turbo/rdbmp.c:398
    break;
    738c:	eb bb                	jmp    7349 <preload_image+0x109>
    738e:	66 90                	xchg   %ax,%ax

0000000000007390 <start_input_bmp>:
start_input_bmp():
/home/tenebris/Disk/Documents/RootCauseAnalysis/evaluation/test_bin/libjpeg/libjpeg_heap_buffer_overflow/libjpeg-turbo/rdbmp.c:415
{
    7390:	f3 0f 1e fa          	endbr64 
    7394:	41 57                	push   %r15
fread():
/usr/include/x86_64-linux-gnu/bits/stdio2.h:293
    7396:	ba 0e 00 00 00       	mov    $0xe,%edx
start_input_bmp():
/home/tenebris/Disk/Documents/RootCauseAnalysis/evaluation/test_bin/libjpeg/libjpeg_heap_buffer_overflow/libjpeg-turbo/rdbmp.c:415
    739b:	49 89 ff             	mov    %rdi,%r15
    739e:	41 56                	push   %r14
    73a0:	41 55                	push   %r13
    73a2:	41 54                	push   %r12
    73a4:	55                   	push   %rbp
    73a5:	53                   	push   %rbx
    73a6:	48 89 f3             	mov    %rsi,%rbx
    73a9:	48 81 ec 98 00 00 00 	sub    $0x98,%rsp
fread():
/usr/include/x86_64-linux-gnu/bits/stdio2.h:293
    73b0:	48 8b 4e 18          	mov    0x18(%rsi),%rcx
    73b4:	be 01 00 00 00       	mov    $0x1,%esi
start_input_bmp():
/home/tenebris/Disk/Documents/RootCauseAnalysis/evaluation/test_bin/libjpeg/libjpeg_heap_buffer_overflow/libjpeg-turbo/rdbmp.c:415
    73b9:	64 48 8b 04 25 28 00 	mov    %fs:0x28,%rax
    73c0:	00 00 
    73c2:	48 89 84 24 88 00 00 	mov    %rax,0x88(%rsp)
    73c9:	00 
    73ca:	31 c0                	xor    %eax,%eax
fread():
/usr/include/x86_64-linux-gnu/bits/stdio2.h:293
    73cc:	48 8d 7c 24 32       	lea    0x32(%rsp),%rdi
    73d1:	e8 aa ae ff ff       	call   2280 <fread@plt>
start_input_bmp():
/home/tenebris/Disk/Documents/RootCauseAnalysis/evaluation/test_bin/libjpeg/libjpeg_heap_buffer_overflow/libjpeg-turbo/rdbmp.c:442
  if (!ReadOK(source->pub.input_file, bmpfileheader, 14))
    73d6:	48 83 f8 0e          	cmp    $0xe,%rax
    73da:	74 0f                	je     73eb <start_input_bmp+0x5b>
/home/tenebris/Disk/Documents/RootCauseAnalysis/evaluation/test_bin/libjpeg/libjpeg_heap_buffer_overflow/libjpeg-turbo/rdbmp.c:443
    ERREXIT(cinfo, JERR_INPUT_EOF);
    73dc:	49 8b 07             	mov    (%r15),%rax
    73df:	4c 89 ff             	mov    %r15,%rdi
    73e2:	c7 40 28 2b 00 00 00 	movl   $0x2b,0x28(%rax)
    73e9:	ff 10                	call   *(%rax)
/home/tenebris/Disk/Documents/RootCauseAnalysis/evaluation/test_bin/libjpeg/libjpeg_heap_buffer_overflow/libjpeg-turbo/rdbmp.c:444
  if (GET_2B(bmpfileheader, 0) != 0x4D42) /* 'BM' */
    73eb:	0f b6 44 24 33       	movzbl 0x33(%rsp),%eax
    73f0:	0f b6 54 24 32       	movzbl 0x32(%rsp),%edx
    73f5:	c1 e0 08             	shl    $0x8,%eax
    73f8:	01 d0                	add    %edx,%eax
    73fa:	3d 42 4d 00 00       	cmp    $0x4d42,%eax
    73ff:	74 0f                	je     7410 <start_input_bmp+0x80>
/home/tenebris/Disk/Documents/RootCauseAnalysis/evaluation/test_bin/libjpeg/libjpeg_heap_buffer_overflow/libjpeg-turbo/rdbmp.c:445
    ERREXIT(cinfo, JERR_BMP_NOT);
    7401:	49 8b 07             	mov    (%r15),%rax
    7404:	4c 89 ff             	mov    %r15,%rdi
    7407:	c7 40 28 f0 03 00 00 	movl   $0x3f0,0x28(%rax)
    740e:	ff 10                	call   *(%rax)
/home/tenebris/Disk/Documents/RootCauseAnalysis/evaluation/test_bin/libjpeg/libjpeg_heap_buffer_overflow/libjpeg-turbo/rdbmp.c:446
  bfOffBits = GET_4B(bmpfileheader, 10);
    7410:	0f b6 44 24 3c       	movzbl 0x3c(%rsp),%eax
fread():
/usr/include/x86_64-linux-gnu/bits/stdio2.h:293
    7415:	48 8b 4b 18          	mov    0x18(%rbx),%rcx
    7419:	48 8d 7c 24 40       	lea    0x40(%rsp),%rdi
    741e:	ba 04 00 00 00       	mov    $0x4,%edx
    7423:	be 01 00 00 00       	mov    $0x1,%esi
start_input_bmp():
/home/tenebris/Disk/Documents/RootCauseAnalysis/evaluation/test_bin/libjpeg/libjpeg_heap_buffer_overflow/libjpeg-turbo/rdbmp.c:446
    7428:	44 0f b6 74 24 3e    	movzbl 0x3e(%rsp),%r14d
    742e:	44 0f b6 6c 24 3f    	movzbl 0x3f(%rsp),%r13d
    7434:	88 44 24 1c          	mov    %al,0x1c(%rsp)
    7438:	0f b6 44 24 3d       	movzbl 0x3d(%rsp),%eax
    743d:	88 44 24 21          	mov    %al,0x21(%rsp)
fread():
/usr/include/x86_64-linux-gnu/bits/stdio2.h:293
    7441:	e8 3a ae ff ff       	call   2280 <fread@plt>
start_input_bmp():
/home/tenebris/Disk/Documents/RootCauseAnalysis/evaluation/test_bin/libjpeg/libjpeg_heap_buffer_overflow/libjpeg-turbo/rdbmp.c:452
  if (!ReadOK(source->pub.input_file, bmpinfoheader, 4))
    7446:	48 83 f8 04          	cmp    $0x4,%rax
    744a:	74 0f                	je     745b <start_input_bmp+0xcb>
/home/tenebris/Disk/Documents/RootCauseAnalysis/evaluation/test_bin/libjpeg/libjpeg_heap_buffer_overflow/libjpeg-turbo/rdbmp.c:453
    ERREXIT(cinfo, JERR_INPUT_EOF);
    744c:	49 8b 07             	mov    (%r15),%rax
    744f:	4c 89 ff             	mov    %r15,%rdi
    7452:	c7 40 28 2b 00 00 00 	movl   $0x2b,0x28(%rax)
    7459:	ff 10                	call   *(%rax)
/home/tenebris/Disk/Documents/RootCauseAnalysis/evaluation/test_bin/libjpeg/libjpeg_heap_buffer_overflow/libjpeg-turbo/rdbmp.c:454
  headerSize = GET_4B(bmpinfoheader, 0);
    745b:	44 0f b6 64 24 41    	movzbl 0x41(%rsp),%r12d
    7461:	0f b6 44 24 42       	movzbl 0x42(%rsp),%eax
    7466:	41 c1 e4 08          	shl    $0x8,%r12d
    746a:	c1 e0 10             	shl    $0x10,%eax
    746d:	41 01 c4             	add    %eax,%r12d
    7470:	0f b6 44 24 40       	movzbl 0x40(%rsp),%eax
    7475:	41 01 c4             	add    %eax,%r12d
    7478:	0f b6 44 24 43       	movzbl 0x43(%rsp),%eax
    747d:	c1 e0 18             	shl    $0x18,%eax
    7480:	41 01 c4             	add    %eax,%r12d
/home/tenebris/Disk/Documents/RootCauseAnalysis/evaluation/test_bin/libjpeg/libjpeg_heap_buffer_overflow/libjpeg-turbo/rdbmp.c:455
  if (headerSize < 12 || headerSize > 64)
    7483:	41 8d 44 24 f4       	lea    -0xc(%r12),%eax
/home/tenebris/Disk/Documents/RootCauseAnalysis/evaluation/test_bin/libjpeg/libjpeg_heap_buffer_overflow/libjpeg-turbo/rdbmp.c:457
  if (!ReadOK(source->pub.input_file, bmpinfoheader + 4, headerSize - 4))
    7488:	41 8d 6c 24 fc       	lea    -0x4(%r12),%ebp
/home/tenebris/Disk/Documents/RootCauseAnalysis/evaluation/test_bin/libjpeg/libjpeg_heap_buffer_overflow/libjpeg-turbo/rdbmp.c:455
  if (headerSize < 12 || headerSize > 64)
    748d:	83 f8 34             	cmp    $0x34,%eax
    7490:	0f 86 d2 02 00 00    	jbe    7768 <start_input_bmp+0x3d8>
/home/tenebris/Disk/Documents/RootCauseAnalysis/evaluation/test_bin/libjpeg/libjpeg_heap_buffer_overflow/libjpeg-turbo/rdbmp.c:456
    ERREXIT(cinfo, JERR_BMP_BADHEADER);
    7496:	49 8b 07             	mov    (%r15),%rax
    7499:	4c 89 ff             	mov    %r15,%rdi
    749c:	c7 40 28 eb 03 00 00 	movl   $0x3eb,0x28(%rax)
    74a3:	ff 10                	call   *(%rax)
fread():
/usr/include/x86_64-linux-gnu/bits/stdio2.h:296
  if (__glibc_unsafe_len (__n, __size, sz))
    return __fread_chk_warn (__ptr, sz, __size, __n, __stream);
  return __fread_chk (__ptr, sz, __size, __n, __stream);
    74a5:	4c 8b 43 18          	mov    0x18(%rbx),%r8
    74a9:	48 8d 7c 24 44       	lea    0x44(%rsp),%rdi
    74ae:	48 89 e9             	mov    %rbp,%rcx
    74b1:	ba 01 00 00 00       	mov    $0x1,%edx
    74b6:	be 3c 00 00 00       	mov    $0x3c,%esi
    74bb:	e8 00 af ff ff       	call   23c0 <__fread_chk@plt>
start_input_bmp():
/home/tenebris/Disk/Documents/RootCauseAnalysis/evaluation/test_bin/libjpeg/libjpeg_heap_buffer_overflow/libjpeg-turbo/rdbmp.c:457
  if (!ReadOK(source->pub.input_file, bmpinfoheader + 4, headerSize - 4))
    74c0:	48 39 e8             	cmp    %rbp,%rax
    74c3:	0f 84 af 04 00 00    	je     7978 <start_input_bmp+0x5e8>
/home/tenebris/Disk/Documents/RootCauseAnalysis/evaluation/test_bin/libjpeg/libjpeg_heap_buffer_overflow/libjpeg-turbo/rdbmp.c:458
    ERREXIT(cinfo, JERR_INPUT_EOF);
    74c9:	49 8b 07             	mov    (%r15),%rax
    74cc:	4c 89 ff             	mov    %r15,%rdi
    74cf:	c7 40 28 2b 00 00 00 	movl   $0x2b,0x28(%rax)
    74d6:	ff 10                	call   *(%rax)
/home/tenebris/Disk/Documents/RootCauseAnalysis/evaluation/test_bin/libjpeg/libjpeg_heap_buffer_overflow/libjpeg-turbo/rdbmp.c:471
      TRACEMS2(cinfo, 1, JTRC_BMP_OS2_MAPPED, biWidth, biHeight);
    74d8:	49 8b 07             	mov    (%r15),%rax
/home/tenebris/Disk/Documents/RootCauseAnalysis/evaluation/test_bin/libjpeg/libjpeg_heap_buffer_overflow/libjpeg-turbo/rdbmp.c:460
  switch (headerSize) {
    74db:	41 83 fc 28          	cmp    $0x28,%r12d
    74df:	0f 84 bb 02 00 00    	je     77a0 <start_input_bmp+0x410>
    74e5:	41 83 fc 40          	cmp    $0x40,%r12d
    74e9:	0f 84 b1 02 00 00    	je     77a0 <start_input_bmp+0x410>
    74ef:	41 83 fc 0c          	cmp    $0xc,%r12d
    74f3:	0f 85 82 04 00 00    	jne    797b <start_input_bmp+0x5eb>
/home/tenebris/Disk/Documents/RootCauseAnalysis/evaluation/test_bin/libjpeg/libjpeg_heap_buffer_overflow/libjpeg-turbo/rdbmp.c:463
    biWidth = (int)GET_2B(bmpinfoheader, 4);
    74f9:	0f b6 54 24 45       	movzbl 0x45(%rsp),%edx
    74fe:	0f b6 4c 24 44       	movzbl 0x44(%rsp),%ecx
    7503:	c1 e2 08             	shl    $0x8,%edx
    7506:	8d 34 0a             	lea    (%rdx,%rcx,1),%esi
/home/tenebris/Disk/Documents/RootCauseAnalysis/evaluation/test_bin/libjpeg/libjpeg_heap_buffer_overflow/libjpeg-turbo/rdbmp.c:464
    biHeight = (int)GET_2B(bmpinfoheader, 6);
    7509:	0f b6 54 24 47       	movzbl 0x47(%rsp),%edx
    750e:	0f b6 4c 24 46       	movzbl 0x46(%rsp),%ecx
/home/tenebris/Disk/Documents/RootCauseAnalysis/evaluation/test_bin/libjpeg/libjpeg_heap_buffer_overflow/libjpeg-turbo/rdbmp.c:463
    biWidth = (int)GET_2B(bmpinfoheader, 4);
    7513:	89 74 24 08          	mov    %esi,0x8(%rsp)
/home/tenebris/Disk/Documents/RootCauseAnalysis/evaluation/test_bin/libjpeg/libjpeg_heap_buffer_overflow/libjpeg-turbo/rdbmp.c:464
    biHeight = (int)GET_2B(bmpinfoheader, 6);
    7517:	c1 e2 08             	shl    $0x8,%edx
/home/tenebris/Disk/Documents/RootCauseAnalysis/evaluation/test_bin/libjpeg/libjpeg_heap_buffer_overflow/libjpeg-turbo/rdbmp.c:568
    row_width = (JDIMENSION)biWidth;
    751a:	89 74 24 18          	mov    %esi,0x18(%rsp)
/home/tenebris/Disk/Documents/RootCauseAnalysis/evaluation/test_bin/libjpeg/libjpeg_heap_buffer_overflow/libjpeg-turbo/rdbmp.c:464
    biHeight = (int)GET_2B(bmpinfoheader, 6);
    751e:	8d 2c 0a             	lea    (%rdx,%rcx,1),%ebp
/home/tenebris/Disk/Documents/RootCauseAnalysis/evaluation/test_bin/libjpeg/libjpeg_heap_buffer_overflow/libjpeg-turbo/rdbmp.c:465
    biPlanes = GET_2B(bmpinfoheader, 8);
    7521:	0f b6 54 24 49       	movzbl 0x49(%rsp),%edx
    7526:	0f b6 4c 24 48       	movzbl 0x48(%rsp),%ecx
/home/tenebris/Disk/Documents/RootCauseAnalysis/evaluation/test_bin/libjpeg/libjpeg_heap_buffer_overflow/libjpeg-turbo/rdbmp.c:600
    source->whole_image = (*cinfo->mem->request_virt_sarray)
    752b:	89 6c 24 10          	mov    %ebp,0x10(%rsp)
/home/tenebris/Disk/Documents/RootCauseAnalysis/evaluation/test_bin/libjpeg/libjpeg_heap_buffer_overflow/libjpeg-turbo/rdbmp.c:465
    biPlanes = GET_2B(bmpinfoheader, 8);
    752f:	c1 e2 08             	shl    $0x8,%edx
    7532:	01 d1                	add    %edx,%ecx
/home/tenebris/Disk/Documents/RootCauseAnalysis/evaluation/test_bin/libjpeg/libjpeg_heap_buffer_overflow/libjpeg-turbo/rdbmp.c:466
    source->bits_per_pixel = (int)GET_2B(bmpinfoheader, 10);
    7534:	0f b6 54 24 4b       	movzbl 0x4b(%rsp),%edx
/home/tenebris/Disk/Documents/RootCauseAnalysis/evaluation/test_bin/libjpeg/libjpeg_heap_buffer_overflow/libjpeg-turbo/rdbmp.c:465
    biPlanes = GET_2B(bmpinfoheader, 8);
    7539:	66 89 4c 24 22       	mov    %cx,0x22(%rsp)
/home/tenebris/Disk/Documents/RootCauseAnalysis/evaluation/test_bin/libjpeg/libjpeg_heap_buffer_overflow/libjpeg-turbo/rdbmp.c:466
    source->bits_per_pixel = (int)GET_2B(bmpinfoheader, 10);
    753e:	0f b6 4c 24 4a       	movzbl 0x4a(%rsp),%ecx
    7543:	c1 e2 08             	shl    $0x8,%edx
    7546:	01 ca                	add    %ecx,%edx
    7548:	89 53 50             	mov    %edx,0x50(%rbx)
/home/tenebris/Disk/Documents/RootCauseAnalysis/evaluation/test_bin/libjpeg/libjpeg_heap_buffer_overflow/libjpeg-turbo/rdbmp.c:468
    switch (source->bits_per_pixel) {
    754b:	83 fa 08             	cmp    $0x8,%edx
    754e:	0f 84 5c 07 00 00    	je     7cb0 <start_input_bmp+0x920>
    7554:	83 fa 18             	cmp    $0x18,%edx
    7557:	0f 84 53 06 00 00    	je     7bb0 <start_input_bmp+0x820>
/home/tenebris/Disk/Documents/RootCauseAnalysis/evaluation/test_bin/libjpeg/libjpeg_heap_buffer_overflow/libjpeg-turbo/rdbmp.c:477
      ERREXIT(cinfo, JERR_BMP_BADDEPTH);
    755d:	c7 40 28 ea 03 00 00 	movl   $0x3ea,0x28(%rax)
    7564:	4c 89 ff             	mov    %r15,%rdi
    7567:	ff 10                	call   *(%rax)
/home/tenebris/Disk/Documents/RootCauseAnalysis/evaluation/test_bin/libjpeg/libjpeg_heap_buffer_overflow/libjpeg-turbo/rdbmp.c:437
  int mapentrysize = 0;         /* 0 indicates no colormap */
    7569:	c7 44 24 0c 00 00 00 	movl   $0x0,0xc(%rsp)
    7570:	00 
/home/tenebris/Disk/Documents/RootCauseAnalysis/evaluation/test_bin/libjpeg/libjpeg_heap_buffer_overflow/libjpeg-turbo/rdbmp.c:436
  unsigned int biClrUsed = 0;
    7571:	c7 44 24 14 00 00 00 	movl   $0x0,0x14(%rsp)
    7578:	00 
/home/tenebris/Disk/Documents/RootCauseAnalysis/evaluation/test_bin/libjpeg/libjpeg_heap_buffer_overflow/libjpeg-turbo/rdbmp.c:525
  if (biWidth <= 0 || biHeight <= 0)
    7579:	44 8b 4c 24 08       	mov    0x8(%rsp),%r9d
    757e:	45 85 c9             	test   %r9d,%r9d
    7581:	0f 8e d9 03 00 00    	jle    7960 <start_input_bmp+0x5d0>
    7587:	85 ed                	test   %ebp,%ebp
    7589:	0f 8e d1 03 00 00    	jle    7960 <start_input_bmp+0x5d0>
/home/tenebris/Disk/Documents/RootCauseAnalysis/evaluation/test_bin/libjpeg/libjpeg_heap_buffer_overflow/libjpeg-turbo/rdbmp.c:527
  if (biPlanes != 1)
    758f:	66 83 7c 24 22 01    	cmpw   $0x1,0x22(%rsp)
    7595:	74 0f                	je     75a6 <start_input_bmp+0x216>
/home/tenebris/Disk/Documents/RootCauseAnalysis/evaluation/test_bin/libjpeg/libjpeg_heap_buffer_overflow/libjpeg-turbo/rdbmp.c:528
    ERREXIT(cinfo, JERR_BMP_BADPLANES);
    7597:	49 8b 07             	mov    (%r15),%rax
    759a:	4c 89 ff             	mov    %r15,%rdi
    759d:	c7 40 28 ec 03 00 00 	movl   $0x3ec,0x28(%rax)
    75a4:	ff 10                	call   *(%rax)
/home/tenebris/Disk/Documents/RootCauseAnalysis/evaluation/test_bin/libjpeg/libjpeg_heap_buffer_overflow/libjpeg-turbo/rdbmp.c:446
  bfOffBits = GET_4B(bmpfileheader, 10);
    75a6:	0f b6 44 24 21       	movzbl 0x21(%rsp),%eax
    75ab:	0f b6 54 24 1c       	movzbl 0x1c(%rsp),%edx
/home/tenebris/Disk/Documents/RootCauseAnalysis/evaluation/test_bin/libjpeg/libjpeg_heap_buffer_overflow/libjpeg-turbo/rdbmp.c:534
  if (mapentrysize > 0) {
    75b0:	44 8b 44 24 0c       	mov    0xc(%rsp),%r8d
/home/tenebris/Disk/Documents/RootCauseAnalysis/evaluation/test_bin/libjpeg/libjpeg_heap_buffer_overflow/libjpeg-turbo/rdbmp.c:446
  bfOffBits = GET_4B(bmpfileheader, 10);
    75b5:	c1 e0 08             	shl    $0x8,%eax
/home/tenebris/Disk/Documents/RootCauseAnalysis/evaluation/test_bin/libjpeg/libjpeg_heap_buffer_overflow/libjpeg-turbo/rdbmp.c:531
  bPad = bfOffBits - (headerSize + 14);
    75b8:	8d 6c 10 f2          	lea    -0xe(%rax,%rdx,1),%ebp
/home/tenebris/Disk/Documents/RootCauseAnalysis/evaluation/test_bin/libjpeg/libjpeg_heap_buffer_overflow/libjpeg-turbo/rdbmp.c:446
  bfOffBits = GET_4B(bmpfileheader, 10);
    75bc:	41 0f b6 c6          	movzbl %r14b,%eax
    75c0:	c1 e0 10             	shl    $0x10,%eax
/home/tenebris/Disk/Documents/RootCauseAnalysis/evaluation/test_bin/libjpeg/libjpeg_heap_buffer_overflow/libjpeg-turbo/rdbmp.c:531
  bPad = bfOffBits - (headerSize + 14);
    75c3:	01 c5                	add    %eax,%ebp
/home/tenebris/Disk/Documents/RootCauseAnalysis/evaluation/test_bin/libjpeg/libjpeg_heap_buffer_overflow/libjpeg-turbo/rdbmp.c:446
  bfOffBits = GET_4B(bmpfileheader, 10);
    75c5:	44 89 e8             	mov    %r13d,%eax
    75c8:	c1 e0 18             	shl    $0x18,%eax
/home/tenebris/Disk/Documents/RootCauseAnalysis/evaluation/test_bin/libjpeg/libjpeg_heap_buffer_overflow/libjpeg-turbo/rdbmp.c:531
  bPad = bfOffBits - (headerSize + 14);
    75cb:	01 c5                	add    %eax,%ebp
    75cd:	44 29 e5             	sub    %r12d,%ebp
/home/tenebris/Disk/Documents/RootCauseAnalysis/evaluation/test_bin/libjpeg/libjpeg_heap_buffer_overflow/libjpeg-turbo/rdbmp.c:534
  if (mapentrysize > 0) {
    75d0:	45 85 c0             	test   %r8d,%r8d
    75d3:	74 74                	je     7649 <start_input_bmp+0x2b9>
/home/tenebris/Disk/Documents/RootCauseAnalysis/evaluation/test_bin/libjpeg/libjpeg_heap_buffer_overflow/libjpeg-turbo/rdbmp.c:535
    if (biClrUsed <= 0)
    75d5:	8b 44 24 14          	mov    0x14(%rsp),%eax
    75d9:	85 c0                	test   %eax,%eax
    75db:	0f 85 5f 04 00 00    	jne    7a40 <start_input_bmp+0x6b0>
/home/tenebris/Disk/Documents/RootCauseAnalysis/evaluation/test_bin/libjpeg/libjpeg_heap_buffer_overflow/libjpeg-turbo/rdbmp.c:540
    source->colormap = (*cinfo->mem->alloc_sarray)
    75e1:	49 8b 47 08          	mov    0x8(%r15),%rax
    75e5:	b9 03 00 00 00       	mov    $0x3,%ecx
    75ea:	ba 00 01 00 00       	mov    $0x100,%edx
    75ef:	4c 89 ff             	mov    %r15,%rdi
    75f2:	be 01 00 00 00       	mov    $0x1,%esi
    75f7:	ff 50 10             	call   *0x10(%rax)
    75fa:	48 89 43 38          	mov    %rax,0x38(%rbx)
read_colormap():
/home/tenebris/Disk/Documents/RootCauseAnalysis/evaluation/test_bin/libjpeg/libjpeg_heap_buffer_overflow/libjpeg-turbo/rdbmp.c:108
  switch (mapentrysize) {
    75fe:	8b 44 24 0c          	mov    0xc(%rsp),%eax
    7602:	83 f8 03             	cmp    $0x3,%eax
    7605:	0f 84 27 08 00 00    	je     7e32 <start_input_bmp+0xaa2>
    760b:	83 f8 04             	cmp    $0x4,%eax
    760e:	0f 84 4c 07 00 00    	je     7d60 <start_input_bmp+0x9d0>
    7614:	c7 44 24 14 00 01 00 	movl   $0x100,0x14(%rsp)
    761b:	00 
/home/tenebris/Disk/Documents/RootCauseAnalysis/evaluation/test_bin/libjpeg/libjpeg_heap_buffer_overflow/libjpeg-turbo/rdbmp.c:133
    ERREXIT(sinfo->cinfo, JERR_BMP_BADCMAP);
    761c:	48 8b 7b 30          	mov    0x30(%rbx),%rdi
    7620:	48 8b 07             	mov    (%rdi),%rax
    7623:	c7 40 28 e9 03 00 00 	movl   $0x3e9,0x28(%rax)
    762a:	ff 10                	call   *(%rax)
/home/tenebris/Disk/Documents/RootCauseAnalysis/evaluation/test_bin/libjpeg/libjpeg_heap_buffer_overflow/libjpeg-turbo/rdbmp.c:137
  if (sinfo->cinfo->in_color_space == JCS_UNKNOWN && gray)
    762c:	48 8b 7b 30          	mov    0x30(%rbx),%rdi
    7630:	8b 77 3c             	mov    0x3c(%rdi),%esi
    7633:	85 f6                	test   %esi,%esi
    7635:	75 07                	jne    763e <start_input_bmp+0x2ae>
/home/tenebris/Disk/Documents/RootCauseAnalysis/evaluation/test_bin/libjpeg/libjpeg_heap_buffer_overflow/libjpeg-turbo/rdbmp.c:138
    sinfo->cinfo->in_color_space = JCS_GRAYSCALE;
    7637:	c7 47 3c 01 00 00 00 	movl   $0x1,0x3c(%rdi)
start_input_bmp():
/home/tenebris/Disk/Documents/RootCauseAnalysis/evaluation/test_bin/libjpeg/libjpeg_heap_buffer_overflow/libjpeg-turbo/rdbmp.c:545
    bPad -= biClrUsed * mapentrysize;
    763e:	8b 44 24 0c          	mov    0xc(%rsp),%eax
    7642:	0f af 44 24 14       	imul   0x14(%rsp),%eax
    7647:	29 c5                	sub    %eax,%ebp
/home/tenebris/Disk/Documents/RootCauseAnalysis/evaluation/test_bin/libjpeg/libjpeg_heap_buffer_overflow/libjpeg-turbo/rdbmp.c:549
  if (bPad < 0)                 /* incorrect bfOffBits value? */
    7649:	85 ed                	test   %ebp,%ebp
    764b:	0f 88 a7 03 00 00    	js     79f8 <start_input_bmp+0x668>
/home/tenebris/Disk/Documents/RootCauseAnalysis/evaluation/test_bin/libjpeg/libjpeg_heap_buffer_overflow/libjpeg-turbo/rdbmp.c:551
  while (--bPad >= 0) {
    7651:	44 8d 65 ff          	lea    -0x1(%rbp),%r12d
    7655:	74 2d                	je     7684 <start_input_bmp+0x2f4>
    7657:	66 0f 1f 84 00 00 00 	nopw   0x0(%rax,%rax,1)
    765e:	00 00 
read_byte():
/home/tenebris/Disk/Documents/RootCauseAnalysis/evaluation/test_bin/libjpeg/libjpeg_heap_buffer_overflow/libjpeg-turbo/rdbmp.c:96
  if ((c = getc(infile)) == EOF)
    7660:	48 8b 7b 18          	mov    0x18(%rbx),%rdi
    7664:	e8 e7 ad ff ff       	call   2450 <getc@plt>
    7669:	83 f8 ff             	cmp    $0xffffffff,%eax
    766c:	75 10                	jne    767e <start_input_bmp+0x2ee>
    766e:	48 8b 7b 30          	mov    0x30(%rbx),%rdi
/home/tenebris/Disk/Documents/RootCauseAnalysis/evaluation/test_bin/libjpeg/libjpeg_heap_buffer_overflow/libjpeg-turbo/rdbmp.c:97
    ERREXIT(sinfo->cinfo, JERR_INPUT_EOF);
    7672:	48 8b 07             	mov    (%rdi),%rax
    7675:	c7 40 28 2b 00 00 00 	movl   $0x2b,0x28(%rax)
    767c:	ff 10                	call   *(%rax)
start_input_bmp():
/home/tenebris/Disk/Documents/RootCauseAnalysis/evaluation/test_bin/libjpeg/libjpeg_heap_buffer_overflow/libjpeg-turbo/rdbmp.c:551
  while (--bPad >= 0) {
    767e:	41 83 ec 01          	sub    $0x1,%r12d
    7682:	73 dc                	jae    7660 <start_input_bmp+0x2d0>
/home/tenebris/Disk/Documents/RootCauseAnalysis/evaluation/test_bin/libjpeg/libjpeg_heap_buffer_overflow/libjpeg-turbo/rdbmp.c:556
  switch (source->bits_per_pixel) {
    7684:	8b 43 50             	mov    0x50(%rbx),%eax
    7687:	83 f8 18             	cmp    $0x18,%eax
    768a:	0f 84 83 03 00 00    	je     7a13 <start_input_bmp+0x683>
    7690:	83 f8 20             	cmp    $0x20,%eax
    7693:	0f 84 6f 05 00 00    	je     7c08 <start_input_bmp+0x878>
    7699:	83 f8 08             	cmp    $0x8,%eax
    769c:	0f 84 a6 05 00 00    	je     7c48 <start_input_bmp+0x8b8>
/home/tenebris/Disk/Documents/RootCauseAnalysis/evaluation/test_bin/libjpeg/libjpeg_heap_buffer_overflow/libjpeg-turbo/rdbmp.c:593
    ERREXIT(cinfo, JERR_BMP_BADDEPTH);
    76a2:	49 8b 07             	mov    (%r15),%rax
    76a5:	4c 89 ff             	mov    %r15,%rdi
    76a8:	c7 40 28 ea 03 00 00 	movl   $0x3ea,0x28(%rax)
    76af:	ff 10                	call   *(%rax)
/home/tenebris/Disk/Documents/RootCauseAnalysis/evaluation/test_bin/libjpeg/libjpeg_heap_buffer_overflow/libjpeg-turbo/rdbmp.c:439
  JDIMENSION row_width = 0;
    76b1:	31 c9                	xor    %ecx,%ecx
/home/tenebris/Disk/Documents/RootCauseAnalysis/evaluation/test_bin/libjpeg/libjpeg_heap_buffer_overflow/libjpeg-turbo/rdbmp.c:598
  if (source->use_inversion_array) {
    76b3:	8b 53 54             	mov    0x54(%rbx),%edx
/home/tenebris/Disk/Documents/RootCauseAnalysis/evaluation/test_bin/libjpeg/libjpeg_heap_buffer_overflow/libjpeg-turbo/rdbmp.c:600
    source->whole_image = (*cinfo->mem->request_virt_sarray)
    76b6:	49 8b 47 08          	mov    0x8(%r15),%rax
/home/tenebris/Disk/Documents/RootCauseAnalysis/evaluation/test_bin/libjpeg/libjpeg_heap_buffer_overflow/libjpeg-turbo/rdbmp.c:596
  source->row_width = row_width;
    76ba:	89 4b 4c             	mov    %ecx,0x4c(%rbx)
/home/tenebris/Disk/Documents/RootCauseAnalysis/evaluation/test_bin/libjpeg/libjpeg_heap_buffer_overflow/libjpeg-turbo/rdbmp.c:598
  if (source->use_inversion_array) {
    76bd:	85 d2                	test   %edx,%edx
    76bf:	0f 84 eb 02 00 00    	je     79b0 <start_input_bmp+0x620>
/home/tenebris/Disk/Documents/RootCauseAnalysis/evaluation/test_bin/libjpeg/libjpeg_heap_buffer_overflow/libjpeg-turbo/rdbmp.c:600
    source->whole_image = (*cinfo->mem->request_virt_sarray)
    76c5:	44 8b 44 24 10       	mov    0x10(%rsp),%r8d
    76ca:	41 b9 01 00 00 00    	mov    $0x1,%r9d
    76d0:	31 d2                	xor    %edx,%edx
    76d2:	4c 89 ff             	mov    %r15,%rdi
    76d5:	be 01 00 00 00       	mov    $0x1,%esi
    76da:	ff 50 20             	call   *0x20(%rax)
    76dd:	48 89 43 40          	mov    %rax,0x40(%rbx)
/home/tenebris/Disk/Documents/RootCauseAnalysis/evaluation/test_bin/libjpeg/libjpeg_heap_buffer_overflow/libjpeg-turbo/rdbmp.c:603
    source->pub.get_pixel_rows = preload_image;
    76e1:	48 8d 05 58 fb ff ff 	lea    -0x4a8(%rip),%rax        # 7240 <preload_image>
    76e8:	48 89 43 08          	mov    %rax,0x8(%rbx)
/home/tenebris/Disk/Documents/RootCauseAnalysis/evaluation/test_bin/libjpeg/libjpeg_heap_buffer_overflow/libjpeg-turbo/rdbmp.c:604
    if (cinfo->progress != NULL) {
    76ec:	49 8b 47 10          	mov    0x10(%r15),%rax
    76f0:	48 85 c0             	test   %rax,%rax
    76f3:	74 04                	je     76f9 <start_input_bmp+0x369>
/home/tenebris/Disk/Documents/RootCauseAnalysis/evaluation/test_bin/libjpeg/libjpeg_heap_buffer_overflow/libjpeg-turbo/rdbmp.c:606
      progress->total_extra_passes++; /* count file input as separate pass */
    76f5:	83 40 24 01          	addl   $0x1,0x24(%rax)
/home/tenebris/Disk/Documents/RootCauseAnalysis/evaluation/test_bin/libjpeg/libjpeg_heap_buffer_overflow/libjpeg-turbo/rdbmp.c:630
      (unsigned long long)cinfo->input_components > 0xFFFFFFFFULL)
    76f9:	49 63 4f 38          	movslq 0x38(%r15),%rcx
/home/tenebris/Disk/Documents/RootCauseAnalysis/evaluation/test_bin/libjpeg/libjpeg_heap_buffer_overflow/libjpeg-turbo/rdbmp.c:629
  if ((unsigned long long)biWidth *
    76fd:	48 63 44 24 08       	movslq 0x8(%rsp),%rax
    7702:	48 0f af c1          	imul   %rcx,%rax
/home/tenebris/Disk/Documents/RootCauseAnalysis/evaluation/test_bin/libjpeg/libjpeg_heap_buffer_overflow/libjpeg-turbo/rdbmp.c:630
      (unsigned long long)cinfo->input_components > 0xFFFFFFFFULL)
    7706:	48 89 ca             	mov    %rcx,%rdx
/home/tenebris/Disk/Documents/RootCauseAnalysis/evaluation/test_bin/libjpeg/libjpeg_heap_buffer_overflow/libjpeg-turbo/rdbmp.c:629
  if ((unsigned long long)biWidth *
    7709:	48 c1 e8 20          	shr    $0x20,%rax
    770d:	74 13                	je     7722 <start_input_bmp+0x392>
/home/tenebris/Disk/Documents/RootCauseAnalysis/evaluation/test_bin/libjpeg/libjpeg_heap_buffer_overflow/libjpeg-turbo/rdbmp.c:631
    ERREXIT(cinfo, JERR_WIDTH_OVERFLOW);
    770f:	49 8b 07             	mov    (%r15),%rax
    7712:	4c 89 ff             	mov    %r15,%rdi
    7715:	c7 40 28 46 00 00 00 	movl   $0x46,0x28(%rax)
    771c:	ff 10                	call   *(%rax)
/home/tenebris/Disk/Documents/RootCauseAnalysis/evaluation/test_bin/libjpeg/libjpeg_heap_buffer_overflow/libjpeg-turbo/rdbmp.c:635
     (JDIMENSION)(biWidth * cinfo->input_components), (JDIMENSION)1);
    771e:	41 8b 57 38          	mov    0x38(%r15),%edx
/home/tenebris/Disk/Documents/RootCauseAnalysis/evaluation/test_bin/libjpeg/libjpeg_heap_buffer_overflow/libjpeg-turbo/rdbmp.c:633
  source->pub.buffer = (*cinfo->mem->alloc_sarray)
    7722:	49 8b 47 08          	mov    0x8(%r15),%rax
/home/tenebris/Disk/Documents/RootCauseAnalysis/evaluation/test_bin/libjpeg/libjpeg_heap_buffer_overflow/libjpeg-turbo/rdbmp.c:635
     (JDIMENSION)(biWidth * cinfo->input_components), (JDIMENSION)1);
    7726:	0f af 54 24 08       	imul   0x8(%rsp),%edx
/home/tenebris/Disk/Documents/RootCauseAnalysis/evaluation/test_bin/libjpeg/libjpeg_heap_buffer_overflow/libjpeg-turbo/rdbmp.c:633
  source->pub.buffer = (*cinfo->mem->alloc_sarray)
    772b:	b9 01 00 00 00       	mov    $0x1,%ecx
    7730:	4c 89 ff             	mov    %r15,%rdi
    7733:	be 01 00 00 00       	mov    $0x1,%esi
    7738:	ff 50 10             	call   *0x10(%rax)
/home/tenebris/Disk/Documents/RootCauseAnalysis/evaluation/test_bin/libjpeg/libjpeg_heap_buffer_overflow/libjpeg-turbo/rdbmp.c:636
  source->pub.buffer_height = 1;
    773b:	c7 43 28 01 00 00 00 	movl   $0x1,0x28(%rbx)
/home/tenebris/Disk/Documents/RootCauseAnalysis/evaluation/test_bin/libjpeg/libjpeg_heap_buffer_overflow/libjpeg-turbo/rdbmp.c:633
  source->pub.buffer = (*cinfo->mem->alloc_sarray)
    7742:	48 89 43 20          	mov    %rax,0x20(%rbx)
/home/tenebris/Disk/Documents/RootCauseAnalysis/evaluation/test_bin/libjpeg/libjpeg_heap_buffer_overflow/libjpeg-turbo/rdbmp.c:639
  cinfo->image_width = (JDIMENSION)biWidth;
    7746:	8b 44 24 18          	mov    0x18(%rsp),%eax
/home/tenebris/Disk/Documents/RootCauseAnalysis/evaluation/test_bin/libjpeg/libjpeg_heap_buffer_overflow/libjpeg-turbo/rdbmp.c:638
  cinfo->data_precision = 8;
    774a:	41 c7 47 48 08 00 00 	movl   $0x8,0x48(%r15)
    7751:	00 
/home/tenebris/Disk/Documents/RootCauseAnalysis/evaluation/test_bin/libjpeg/libjpeg_heap_buffer_overflow/libjpeg-turbo/rdbmp.c:639
  cinfo->image_width = (JDIMENSION)biWidth;
    7752:	41 89 47 30          	mov    %eax,0x30(%r15)
/home/tenebris/Disk/Documents/RootCauseAnalysis/evaluation/test_bin/libjpeg/libjpeg_heap_buffer_overflow/libjpeg-turbo/rdbmp.c:640
  cinfo->image_height = (JDIMENSION)biHeight;
    7756:	8b 44 24 10          	mov    0x10(%rsp),%eax
    775a:	41 89 47 34          	mov    %eax,0x34(%r15)
    775e:	e9 24 02 00 00       	jmp    7987 <start_input_bmp+0x5f7>
    7763:	0f 1f 44 00 00       	nopl   0x0(%rax,%rax,1)
fread():
/usr/include/x86_64-linux-gnu/bits/stdio2.h:296
    7768:	4c 8b 43 18          	mov    0x18(%rbx),%r8
    776c:	48 8d 7c 24 44       	lea    0x44(%rsp),%rdi
    7771:	48 89 e9             	mov    %rbp,%rcx
    7774:	ba 01 00 00 00       	mov    $0x1,%edx
    7779:	be 3c 00 00 00       	mov    $0x3c,%esi
    777e:	e8 3d ac ff ff       	call   23c0 <__fread_chk@plt>
start_input_bmp():
/home/tenebris/Disk/Documents/RootCauseAnalysis/evaluation/test_bin/libjpeg/libjpeg_heap_buffer_overflow/libjpeg-turbo/rdbmp.c:457
  if (!ReadOK(source->pub.input_file, bmpinfoheader + 4, headerSize - 4))
    7783:	48 39 e8             	cmp    %rbp,%rax
    7786:	0f 85 3d fd ff ff    	jne    74c9 <start_input_bmp+0x139>
/home/tenebris/Disk/Documents/RootCauseAnalysis/evaluation/test_bin/libjpeg/libjpeg_heap_buffer_overflow/libjpeg-turbo/rdbmp.c:471
      TRACEMS2(cinfo, 1, JTRC_BMP_OS2_MAPPED, biWidth, biHeight);
    778c:	49 8b 07             	mov    (%r15),%rax
/home/tenebris/Disk/Documents/RootCauseAnalysis/evaluation/test_bin/libjpeg/libjpeg_heap_buffer_overflow/libjpeg-turbo/rdbmp.c:460
  switch (headerSize) {
    778f:	41 83 fc 28          	cmp    $0x28,%r12d
    7793:	0f 85 4c fd ff ff    	jne    74e5 <start_input_bmp+0x155>
    7799:	0f 1f 80 00 00 00 00 	nopl   0x0(%rax)
/home/tenebris/Disk/Documents/RootCauseAnalysis/evaluation/test_bin/libjpeg/libjpeg_heap_buffer_overflow/libjpeg-turbo/rdbmp.c:485
    biWidth = (int)GET_4B(bmpinfoheader, 4);
    77a0:	0f b6 54 24 45       	movzbl 0x45(%rsp),%edx
    77a5:	0f b6 4c 24 46       	movzbl 0x46(%rsp),%ecx
    77aa:	c1 e2 08             	shl    $0x8,%edx
    77ad:	c1 e1 10             	shl    $0x10,%ecx
    77b0:	01 ca                	add    %ecx,%edx
    77b2:	0f b6 4c 24 44       	movzbl 0x44(%rsp),%ecx
    77b7:	01 ca                	add    %ecx,%edx
    77b9:	0f b6 4c 24 47       	movzbl 0x47(%rsp),%ecx
    77be:	c1 e1 18             	shl    $0x18,%ecx
    77c1:	8d 34 0a             	lea    (%rdx,%rcx,1),%esi
/home/tenebris/Disk/Documents/RootCauseAnalysis/evaluation/test_bin/libjpeg/libjpeg_heap_buffer_overflow/libjpeg-turbo/rdbmp.c:486
    biHeight = (int)GET_4B(bmpinfoheader, 8);
    77c4:	0f b6 54 24 49       	movzbl 0x49(%rsp),%edx
    77c9:	0f b6 4c 24 4a       	movzbl 0x4a(%rsp),%ecx
/home/tenebris/Disk/Documents/RootCauseAnalysis/evaluation/test_bin/libjpeg/libjpeg_heap_buffer_overflow/libjpeg-turbo/rdbmp.c:485
    biWidth = (int)GET_4B(bmpinfoheader, 4);
    77ce:	89 74 24 18          	mov    %esi,0x18(%rsp)
/home/tenebris/Disk/Documents/RootCauseAnalysis/evaluation/test_bin/libjpeg/libjpeg_heap_buffer_overflow/libjpeg-turbo/rdbmp.c:486
    biHeight = (int)GET_4B(bmpinfoheader, 8);
    77d2:	c1 e1 10             	shl    $0x10,%ecx
    77d5:	c1 e2 08             	shl    $0x8,%edx
/home/tenebris/Disk/Documents/RootCauseAnalysis/evaluation/test_bin/libjpeg/libjpeg_heap_buffer_overflow/libjpeg-turbo/rdbmp.c:485
    biWidth = (int)GET_4B(bmpinfoheader, 4);
    77d8:	89 74 24 08          	mov    %esi,0x8(%rsp)
/home/tenebris/Disk/Documents/RootCauseAnalysis/evaluation/test_bin/libjpeg/libjpeg_heap_buffer_overflow/libjpeg-turbo/rdbmp.c:486
    biHeight = (int)GET_4B(bmpinfoheader, 8);
    77dc:	01 ca                	add    %ecx,%edx
    77de:	0f b6 4c 24 48       	movzbl 0x48(%rsp),%ecx
    77e3:	01 ca                	add    %ecx,%edx
    77e5:	0f b6 4c 24 4b       	movzbl 0x4b(%rsp),%ecx
    77ea:	c1 e1 18             	shl    $0x18,%ecx
    77ed:	8d 34 0a             	lea    (%rdx,%rcx,1),%esi
/home/tenebris/Disk/Documents/RootCauseAnalysis/evaluation/test_bin/libjpeg/libjpeg_heap_buffer_overflow/libjpeg-turbo/rdbmp.c:487
    biPlanes = GET_2B(bmpinfoheader, 12);
    77f0:	0f b6 54 24 4d       	movzbl 0x4d(%rsp),%edx
    77f5:	0f b6 4c 24 4c       	movzbl 0x4c(%rsp),%ecx
/home/tenebris/Disk/Documents/RootCauseAnalysis/evaluation/test_bin/libjpeg/libjpeg_heap_buffer_overflow/libjpeg-turbo/rdbmp.c:486
    biHeight = (int)GET_4B(bmpinfoheader, 8);
    77fa:	89 74 24 10          	mov    %esi,0x10(%rsp)
    77fe:	89 f5                	mov    %esi,%ebp
/home/tenebris/Disk/Documents/RootCauseAnalysis/evaluation/test_bin/libjpeg/libjpeg_heap_buffer_overflow/libjpeg-turbo/rdbmp.c:487
    biPlanes = GET_2B(bmpinfoheader, 12);
    7800:	c1 e2 08             	shl    $0x8,%edx
    7803:	8d 34 0a             	lea    (%rdx,%rcx,1),%esi
/home/tenebris/Disk/Documents/RootCauseAnalysis/evaluation/test_bin/libjpeg/libjpeg_heap_buffer_overflow/libjpeg-turbo/rdbmp.c:488
    source->bits_per_pixel = (int)GET_2B(bmpinfoheader, 14);
    7806:	0f b6 54 24 4f       	movzbl 0x4f(%rsp),%edx
    780b:	0f b6 4c 24 4e       	movzbl 0x4e(%rsp),%ecx
/home/tenebris/Disk/Documents/RootCauseAnalysis/evaluation/test_bin/libjpeg/libjpeg_heap_buffer_overflow/libjpeg-turbo/rdbmp.c:487
    biPlanes = GET_2B(bmpinfoheader, 12);
    7810:	66 89 74 24 22       	mov    %si,0x22(%rsp)
/home/tenebris/Disk/Documents/RootCauseAnalysis/evaluation/test_bin/libjpeg/libjpeg_heap_buffer_overflow/libjpeg-turbo/rdbmp.c:489
    biCompression = GET_4B(bmpinfoheader, 16);
    7815:	0f b6 74 24 52       	movzbl 0x52(%rsp),%esi
/home/tenebris/Disk/Documents/RootCauseAnalysis/evaluation/test_bin/libjpeg/libjpeg_heap_buffer_overflow/libjpeg-turbo/rdbmp.c:488
    source->bits_per_pixel = (int)GET_2B(bmpinfoheader, 14);
    781a:	c1 e2 08             	shl    $0x8,%edx
    781d:	01 ca                	add    %ecx,%edx
/home/tenebris/Disk/Documents/RootCauseAnalysis/evaluation/test_bin/libjpeg/libjpeg_heap_buffer_overflow/libjpeg-turbo/rdbmp.c:489
    biCompression = GET_4B(bmpinfoheader, 16);
    781f:	0f b6 4c 24 51       	movzbl 0x51(%rsp),%ecx
    7824:	c1 e6 10             	shl    $0x10,%esi
/home/tenebris/Disk/Documents/RootCauseAnalysis/evaluation/test_bin/libjpeg/libjpeg_heap_buffer_overflow/libjpeg-turbo/rdbmp.c:488
    source->bits_per_pixel = (int)GET_2B(bmpinfoheader, 14);
    7827:	89 53 50             	mov    %edx,0x50(%rbx)
/home/tenebris/Disk/Documents/RootCauseAnalysis/evaluation/test_bin/libjpeg/libjpeg_heap_buffer_overflow/libjpeg-turbo/rdbmp.c:489
    biCompression = GET_4B(bmpinfoheader, 16);
    782a:	c1 e1 08             	shl    $0x8,%ecx
    782d:	01 f1                	add    %esi,%ecx
    782f:	0f b6 74 24 50       	movzbl 0x50(%rsp),%esi
    7834:	01 f1                	add    %esi,%ecx
    7836:	0f b6 74 24 53       	movzbl 0x53(%rsp),%esi
    783b:	c1 e6 18             	shl    $0x18,%esi
    783e:	01 ce                	add    %ecx,%esi
/home/tenebris/Disk/Documents/RootCauseAnalysis/evaluation/test_bin/libjpeg/libjpeg_heap_buffer_overflow/libjpeg-turbo/rdbmp.c:490
    biXPelsPerMeter = (int)GET_4B(bmpinfoheader, 24);
    7840:	0f b6 4c 24 59       	movzbl 0x59(%rsp),%ecx
/home/tenebris/Disk/Documents/RootCauseAnalysis/evaluation/test_bin/libjpeg/libjpeg_heap_buffer_overflow/libjpeg-turbo/rdbmp.c:489
    biCompression = GET_4B(bmpinfoheader, 16);
    7845:	89 74 24 24          	mov    %esi,0x24(%rsp)
/home/tenebris/Disk/Documents/RootCauseAnalysis/evaluation/test_bin/libjpeg/libjpeg_heap_buffer_overflow/libjpeg-turbo/rdbmp.c:490
    biXPelsPerMeter = (int)GET_4B(bmpinfoheader, 24);
    7849:	0f b6 74 24 5a       	movzbl 0x5a(%rsp),%esi
    784e:	c1 e1 08             	shl    $0x8,%ecx
    7851:	c1 e6 10             	shl    $0x10,%esi
    7854:	01 f1                	add    %esi,%ecx
    7856:	0f b6 74 24 58       	movzbl 0x58(%rsp),%esi
    785b:	01 f1                	add    %esi,%ecx
    785d:	0f b6 74 24 5b       	movzbl 0x5b(%rsp),%esi
    7862:	c1 e6 18             	shl    $0x18,%esi
    7865:	01 ce                	add    %ecx,%esi
/home/tenebris/Disk/Documents/RootCauseAnalysis/evaluation/test_bin/libjpeg/libjpeg_heap_buffer_overflow/libjpeg-turbo/rdbmp.c:491
    biYPelsPerMeter = (int)GET_4B(bmpinfoheader, 28);
    7867:	0f b6 4c 24 5d       	movzbl 0x5d(%rsp),%ecx
/home/tenebris/Disk/Documents/RootCauseAnalysis/evaluation/test_bin/libjpeg/libjpeg_heap_buffer_overflow/libjpeg-turbo/rdbmp.c:490
    biXPelsPerMeter = (int)GET_4B(bmpinfoheader, 24);
    786c:	89 74 24 28          	mov    %esi,0x28(%rsp)
/home/tenebris/Disk/Documents/RootCauseAnalysis/evaluation/test_bin/libjpeg/libjpeg_heap_buffer_overflow/libjpeg-turbo/rdbmp.c:491
    biYPelsPerMeter = (int)GET_4B(bmpinfoheader, 28);
    7870:	0f b6 74 24 5e       	movzbl 0x5e(%rsp),%esi
    7875:	c1 e1 08             	shl    $0x8,%ecx
    7878:	c1 e6 10             	shl    $0x10,%esi
    787b:	01 f1                	add    %esi,%ecx
    787d:	0f b6 74 24 5c       	movzbl 0x5c(%rsp),%esi
    7882:	01 f1                	add    %esi,%ecx
    7884:	0f b6 74 24 5f       	movzbl 0x5f(%rsp),%esi
    7889:	c1 e6 18             	shl    $0x18,%esi
    788c:	01 ce                	add    %ecx,%esi
    788e:	89 74 24 2c          	mov    %esi,0x2c(%rsp)
/home/tenebris/Disk/Documents/RootCauseAnalysis/evaluation/test_bin/libjpeg/libjpeg_heap_buffer_overflow/libjpeg-turbo/rdbmp.c:492
    biClrUsed = GET_4B(bmpinfoheader, 32);
    7892:	0f b6 4c 24 61       	movzbl 0x61(%rsp),%ecx
    7897:	0f b6 74 24 62       	movzbl 0x62(%rsp),%esi
    789c:	c1 e1 08             	shl    $0x8,%ecx
    789f:	c1 e6 10             	shl    $0x10,%esi
    78a2:	01 f1                	add    %esi,%ecx
    78a4:	0f b6 74 24 60       	movzbl 0x60(%rsp),%esi
    78a9:	01 f1                	add    %esi,%ecx
    78ab:	0f b6 74 24 63       	movzbl 0x63(%rsp),%esi
    78b0:	c1 e6 18             	shl    $0x18,%esi
    78b3:	01 ce                	add    %ecx,%esi
    78b5:	89 74 24 14          	mov    %esi,0x14(%rsp)
/home/tenebris/Disk/Documents/RootCauseAnalysis/evaluation/test_bin/libjpeg/libjpeg_heap_buffer_overflow/libjpeg-turbo/rdbmp.c:495
    switch (source->bits_per_pixel) {
    78b9:	83 fa 18             	cmp    $0x18,%edx
    78bc:	0f 84 ae 03 00 00    	je     7c70 <start_input_bmp+0x8e0>
    78c2:	83 fa 20             	cmp    $0x20,%edx
    78c5:	0f 84 a5 03 00 00    	je     7c70 <start_input_bmp+0x8e0>
    78cb:	83 fa 08             	cmp    $0x8,%edx
    78ce:	0f 84 fc 04 00 00    	je     7dd0 <start_input_bmp+0xa40>
/home/tenebris/Disk/Documents/RootCauseAnalysis/evaluation/test_bin/libjpeg/libjpeg_heap_buffer_overflow/libjpeg-turbo/rdbmp.c:507
      ERREXIT(cinfo, JERR_BMP_BADDEPTH);
    78d4:	c7 40 28 ea 03 00 00 	movl   $0x3ea,0x28(%rax)
    78db:	4c 89 ff             	mov    %r15,%rdi
    78de:	ff 10                	call   *(%rax)
/home/tenebris/Disk/Documents/RootCauseAnalysis/evaluation/test_bin/libjpeg/libjpeg_heap_buffer_overflow/libjpeg-turbo/rdbmp.c:437
  int mapentrysize = 0;         /* 0 indicates no colormap */
    78e0:	c7 44 24 0c 00 00 00 	movl   $0x0,0xc(%rsp)
    78e7:	00 
/home/tenebris/Disk/Documents/RootCauseAnalysis/evaluation/test_bin/libjpeg/libjpeg_heap_buffer_overflow/libjpeg-turbo/rdbmp.c:510
    if (biCompression != 0)
    78e8:	44 8b 54 24 24       	mov    0x24(%rsp),%r10d
    78ed:	45 85 d2             	test   %r10d,%r10d
    78f0:	0f 85 a2 02 00 00    	jne    7b98 <start_input_bmp+0x808>
/home/tenebris/Disk/Documents/RootCauseAnalysis/evaluation/test_bin/libjpeg/libjpeg_heap_buffer_overflow/libjpeg-turbo/rdbmp.c:513
    if (biXPelsPerMeter > 0 && biYPelsPerMeter > 0) {
    78f6:	8b 74 24 28          	mov    0x28(%rsp),%esi
    78fa:	85 f6                	test   %esi,%esi
    78fc:	0f 8e 77 fc ff ff    	jle    7579 <start_input_bmp+0x1e9>
    7902:	8b 4c 24 2c          	mov    0x2c(%rsp),%ecx
    7906:	85 c9                	test   %ecx,%ecx
    7908:	0f 8e 6b fc ff ff    	jle    7579 <start_input_bmp+0x1e9>
/home/tenebris/Disk/Documents/RootCauseAnalysis/evaluation/test_bin/libjpeg/libjpeg_heap_buffer_overflow/libjpeg-turbo/rdbmp.c:515
      cinfo->X_density = (UINT16)(biXPelsPerMeter / 100); /* 100 cm per meter */
    790e:	48 63 c6             	movslq %esi,%rax
/home/tenebris/Disk/Documents/RootCauseAnalysis/evaluation/test_bin/libjpeg/libjpeg_heap_buffer_overflow/libjpeg-turbo/rdbmp.c:516
      cinfo->Y_density = (UINT16)(biYPelsPerMeter / 100);
    7911:	48 63 d1             	movslq %ecx,%rdx
/home/tenebris/Disk/Documents/RootCauseAnalysis/evaluation/test_bin/libjpeg/libjpeg_heap_buffer_overflow/libjpeg-turbo/rdbmp.c:515
      cinfo->X_density = (UINT16)(biXPelsPerMeter / 100); /* 100 cm per meter */
    7914:	c1 fe 1f             	sar    $0x1f,%esi
/home/tenebris/Disk/Documents/RootCauseAnalysis/evaluation/test_bin/libjpeg/libjpeg_heap_buffer_overflow/libjpeg-turbo/rdbmp.c:525
  if (biWidth <= 0 || biHeight <= 0)
    7917:	44 8b 4c 24 08       	mov    0x8(%rsp),%r9d
/home/tenebris/Disk/Documents/RootCauseAnalysis/evaluation/test_bin/libjpeg/libjpeg_heap_buffer_overflow/libjpeg-turbo/rdbmp.c:515
      cinfo->X_density = (UINT16)(biXPelsPerMeter / 100); /* 100 cm per meter */
    791c:	48 69 c0 1f 85 eb 51 	imul   $0x51eb851f,%rax,%rax
/home/tenebris/Disk/Documents/RootCauseAnalysis/evaluation/test_bin/libjpeg/libjpeg_heap_buffer_overflow/libjpeg-turbo/rdbmp.c:516
      cinfo->Y_density = (UINT16)(biYPelsPerMeter / 100);
    7923:	c1 f9 1f             	sar    $0x1f,%ecx
/home/tenebris/Disk/Documents/RootCauseAnalysis/evaluation/test_bin/libjpeg/libjpeg_heap_buffer_overflow/libjpeg-turbo/rdbmp.c:517
      cinfo->density_unit = 2;  /* dots/cm */
    7926:	41 c6 87 26 01 00 00 	movb   $0x2,0x126(%r15)
    792d:	02 
/home/tenebris/Disk/Documents/RootCauseAnalysis/evaluation/test_bin/libjpeg/libjpeg_heap_buffer_overflow/libjpeg-turbo/rdbmp.c:516
      cinfo->Y_density = (UINT16)(biYPelsPerMeter / 100);
    792e:	48 69 d2 1f 85 eb 51 	imul   $0x51eb851f,%rdx,%rdx
/home/tenebris/Disk/Documents/RootCauseAnalysis/evaluation/test_bin/libjpeg/libjpeg_heap_buffer_overflow/libjpeg-turbo/rdbmp.c:515
      cinfo->X_density = (UINT16)(biXPelsPerMeter / 100); /* 100 cm per meter */
    7935:	48 c1 f8 25          	sar    $0x25,%rax
/home/tenebris/Disk/Documents/RootCauseAnalysis/evaluation/test_bin/libjpeg/libjpeg_heap_buffer_overflow/libjpeg-turbo/rdbmp.c:516
      cinfo->Y_density = (UINT16)(biYPelsPerMeter / 100);
    7939:	48 c1 fa 25          	sar    $0x25,%rdx
/home/tenebris/Disk/Documents/RootCauseAnalysis/evaluation/test_bin/libjpeg/libjpeg_heap_buffer_overflow/libjpeg-turbo/rdbmp.c:515
      cinfo->X_density = (UINT16)(biXPelsPerMeter / 100); /* 100 cm per meter */
    793d:	29 f0                	sub    %esi,%eax
/home/tenebris/Disk/Documents/RootCauseAnalysis/evaluation/test_bin/libjpeg/libjpeg_heap_buffer_overflow/libjpeg-turbo/rdbmp.c:516
      cinfo->Y_density = (UINT16)(biYPelsPerMeter / 100);
    793f:	29 ca                	sub    %ecx,%edx
/home/tenebris/Disk/Documents/RootCauseAnalysis/evaluation/test_bin/libjpeg/libjpeg_heap_buffer_overflow/libjpeg-turbo/rdbmp.c:515
      cinfo->X_density = (UINT16)(biXPelsPerMeter / 100); /* 100 cm per meter */
    7941:	0f b7 c0             	movzwl %ax,%eax
    7944:	c1 e2 10             	shl    $0x10,%edx
    7947:	09 d0                	or     %edx,%eax
    7949:	41 89 87 28 01 00 00 	mov    %eax,0x128(%r15)
/home/tenebris/Disk/Documents/RootCauseAnalysis/evaluation/test_bin/libjpeg/libjpeg_heap_buffer_overflow/libjpeg-turbo/rdbmp.c:525
  if (biWidth <= 0 || biHeight <= 0)
    7950:	45 85 c9             	test   %r9d,%r9d
    7953:	0f 8f 2e fc ff ff    	jg     7587 <start_input_bmp+0x1f7>
    7959:	0f 1f 80 00 00 00 00 	nopl   0x0(%rax)
/home/tenebris/Disk/Documents/RootCauseAnalysis/evaluation/test_bin/libjpeg/libjpeg_heap_buffer_overflow/libjpeg-turbo/rdbmp.c:526
    ERREXIT(cinfo, JERR_BMP_EMPTY);
    7960:	49 8b 07             	mov    (%r15),%rax
    7963:	4c 89 ff             	mov    %r15,%rdi
    7966:	c7 40 28 ef 03 00 00 	movl   $0x3ef,0x28(%rax)
    796d:	ff 10                	call   *(%rax)
    796f:	e9 1b fc ff ff       	jmp    758f <start_input_bmp+0x1ff>
    7974:	0f 1f 40 00          	nopl   0x0(%rax)
    7978:	49 8b 07             	mov    (%r15),%rax
/home/tenebris/Disk/Documents/RootCauseAnalysis/evaluation/test_bin/libjpeg/libjpeg_heap_buffer_overflow/libjpeg-turbo/rdbmp.c:521
    ERREXIT(cinfo, JERR_BMP_BADHEADER);
    797b:	c7 40 28 eb 03 00 00 	movl   $0x3eb,0x28(%rax)
    7982:	4c 89 ff             	mov    %r15,%rdi
    7985:	ff 10                	call   *(%rax)
/home/tenebris/Disk/Documents/RootCauseAnalysis/evaluation/test_bin/libjpeg/libjpeg_heap_buffer_overflow/libjpeg-turbo/rdbmp.c:641
}
    7987:	48 8b 84 24 88 00 00 	mov    0x88(%rsp),%rax
    798e:	00 
    798f:	64 48 2b 04 25 28 00 	sub    %fs:0x28,%rax
    7996:	00 00 
    7998:	0f 85 c9 05 00 00    	jne    7f67 <start_input_bmp+0xbd7>
    799e:	48 81 c4 98 00 00 00 	add    $0x98,%rsp
    79a5:	5b                   	pop    %rbx
    79a6:	5d                   	pop    %rbp
    79a7:	41 5c                	pop    %r12
    79a9:	41 5d                	pop    %r13
    79ab:	41 5e                	pop    %r14
    79ad:	41 5f                	pop    %r15
    79af:	c3                   	ret    
/home/tenebris/Disk/Documents/RootCauseAnalysis/evaluation/test_bin/libjpeg/libjpeg_heap_buffer_overflow/libjpeg-turbo/rdbmp.c:610
      (*cinfo->mem->alloc_small) ((j_common_ptr)cinfo, JPOOL_IMAGE, row_width);
    79b0:	89 ca                	mov    %ecx,%edx
    79b2:	be 01 00 00 00       	mov    $0x1,%esi
    79b7:	4c 89 ff             	mov    %r15,%rdi
    79ba:	ff 10                	call   *(%rax)
/home/tenebris/Disk/Documents/RootCauseAnalysis/evaluation/test_bin/libjpeg/libjpeg_heap_buffer_overflow/libjpeg-turbo/rdbmp.c:609
    source->iobuffer = (U_CHAR *)
    79bc:	48 89 43 58          	mov    %rax,0x58(%rbx)
/home/tenebris/Disk/Documents/RootCauseAnalysis/evaluation/test_bin/libjpeg/libjpeg_heap_buffer_overflow/libjpeg-turbo/rdbmp.c:611
    switch (source->bits_per_pixel) {
    79c0:	8b 43 50             	mov    0x50(%rbx),%eax
    79c3:	83 f8 18             	cmp    $0x18,%eax
    79c6:	0f 84 ac 03 00 00    	je     7d78 <start_input_bmp+0x9e8>
    79cc:	83 f8 20             	cmp    $0x20,%eax
    79cf:	0f 84 7b 03 00 00    	je     7d50 <start_input_bmp+0x9c0>
    79d5:	83 f8 08             	cmp    $0x8,%eax
    79d8:	0f 84 62 03 00 00    	je     7d40 <start_input_bmp+0x9b0>
/home/tenebris/Disk/Documents/RootCauseAnalysis/evaluation/test_bin/libjpeg/libjpeg_heap_buffer_overflow/libjpeg-turbo/rdbmp.c:622
      ERREXIT(cinfo, JERR_BMP_BADDEPTH);
    79de:	49 8b 07             	mov    (%r15),%rax
    79e1:	4c 89 ff             	mov    %r15,%rdi
    79e4:	c7 40 28 ea 03 00 00 	movl   $0x3ea,0x28(%rax)
    79eb:	ff 10                	call   *(%rax)
    79ed:	e9 07 fd ff ff       	jmp    76f9 <start_input_bmp+0x369>
    79f2:	66 0f 1f 44 00 00    	nopw   0x0(%rax,%rax,1)
/home/tenebris/Disk/Documents/RootCauseAnalysis/evaluation/test_bin/libjpeg/libjpeg_heap_buffer_overflow/libjpeg-turbo/rdbmp.c:550
    ERREXIT(cinfo, JERR_BMP_BADHEADER);
    79f8:	49 8b 07             	mov    (%r15),%rax
    79fb:	4c 89 ff             	mov    %r15,%rdi
    79fe:	c7 40 28 eb 03 00 00 	movl   $0x3eb,0x28(%rax)
    7a05:	ff 10                	call   *(%rax)
/home/tenebris/Disk/Documents/RootCauseAnalysis/evaluation/test_bin/libjpeg/libjpeg_heap_buffer_overflow/libjpeg-turbo/rdbmp.c:556
  switch (source->bits_per_pixel) {
    7a07:	8b 43 50             	mov    0x50(%rbx),%eax
    7a0a:	83 f8 18             	cmp    $0x18,%eax
    7a0d:	0f 85 7d fc ff ff    	jne    7690 <start_input_bmp+0x300>
/home/tenebris/Disk/Documents/RootCauseAnalysis/evaluation/test_bin/libjpeg/libjpeg_heap_buffer_overflow/libjpeg-turbo/rdbmp.c:571
    if (cinfo->in_color_space == JCS_UNKNOWN)
    7a13:	41 8b 47 3c          	mov    0x3c(%r15),%eax
    7a17:	85 c0                	test   %eax,%eax
    7a19:	0f 85 e1 03 00 00    	jne    7e00 <start_input_bmp+0xa70>
/home/tenebris/Disk/Documents/RootCauseAnalysis/evaluation/test_bin/libjpeg/libjpeg_heap_buffer_overflow/libjpeg-turbo/rdbmp.c:572
      cinfo->in_color_space = JCS_EXT_BGR;
    7a1f:	41 c7 47 3c 08 00 00 	movl   $0x8,0x3c(%r15)
    7a26:	00 
    7a27:	b8 03 00 00 00       	mov    $0x3,%eax
/home/tenebris/Disk/Documents/RootCauseAnalysis/evaluation/test_bin/libjpeg/libjpeg_heap_buffer_overflow/libjpeg-turbo/rdbmp.c:574
      cinfo->input_components = rgb_pixelsize[cinfo->in_color_space];
    7a2c:	41 89 47 38          	mov    %eax,0x38(%r15)
/home/tenebris/Disk/Documents/RootCauseAnalysis/evaluation/test_bin/libjpeg/libjpeg_heap_buffer_overflow/libjpeg-turbo/rdbmp.c:579
    row_width = (JDIMENSION)(biWidth * 3);
    7a30:	8b 44 24 08          	mov    0x8(%rsp),%eax
    7a34:	8d 0c 40             	lea    (%rax,%rax,2),%ecx
/home/tenebris/Disk/Documents/RootCauseAnalysis/evaluation/test_bin/libjpeg/libjpeg_heap_buffer_overflow/libjpeg-turbo/rdbmp.c:580
    break;
    7a37:	e9 ff 01 00 00       	jmp    7c3b <start_input_bmp+0x8ab>
    7a3c:	0f 1f 40 00          	nopl   0x0(%rax)
/home/tenebris/Disk/Documents/RootCauseAnalysis/evaluation/test_bin/libjpeg/libjpeg_heap_buffer_overflow/libjpeg-turbo/rdbmp.c:537
    else if (biClrUsed > 256)
    7a40:	3d 00 01 00 00       	cmp    $0x100,%eax
    7a45:	76 0f                	jbe    7a56 <start_input_bmp+0x6c6>
/home/tenebris/Disk/Documents/RootCauseAnalysis/evaluation/test_bin/libjpeg/libjpeg_heap_buffer_overflow/libjpeg-turbo/rdbmp.c:538
      ERREXIT(cinfo, JERR_BMP_BADCMAP);
    7a47:	49 8b 07             	mov    (%r15),%rax
    7a4a:	4c 89 ff             	mov    %r15,%rdi
    7a4d:	c7 40 28 e9 03 00 00 	movl   $0x3e9,0x28(%rax)
    7a54:	ff 10                	call   *(%rax)
/home/tenebris/Disk/Documents/RootCauseAnalysis/evaluation/test_bin/libjpeg/libjpeg_heap_buffer_overflow/libjpeg-turbo/rdbmp.c:540
    source->colormap = (*cinfo->mem->alloc_sarray)
    7a56:	4c 63 74 24 14       	movslq 0x14(%rsp),%r14
    7a5b:	49 8b 47 08          	mov    0x8(%r15),%rax
    7a5f:	be 01 00 00 00       	mov    $0x1,%esi
    7a64:	4c 89 ff             	mov    %r15,%rdi
    7a67:	b9 03 00 00 00       	mov    $0x3,%ecx
    7a6c:	44 89 f2             	mov    %r14d,%edx
    7a6f:	ff 50 10             	call   *0x10(%rax)
read_colormap():
/home/tenebris/Disk/Documents/RootCauseAnalysis/evaluation/test_bin/libjpeg/libjpeg_heap_buffer_overflow/libjpeg-turbo/rdbmp.c:108
  switch (mapentrysize) {
    7a72:	8b 74 24 0c          	mov    0xc(%rsp),%esi
start_input_bmp():
/home/tenebris/Disk/Documents/RootCauseAnalysis/evaluation/test_bin/libjpeg/libjpeg_heap_buffer_overflow/libjpeg-turbo/rdbmp.c:540
    source->colormap = (*cinfo->mem->alloc_sarray)
    7a76:	48 89 43 38          	mov    %rax,0x38(%rbx)
read_colormap():
/home/tenebris/Disk/Documents/RootCauseAnalysis/evaluation/test_bin/libjpeg/libjpeg_heap_buffer_overflow/libjpeg-turbo/rdbmp.c:108
  switch (mapentrysize) {
    7a7a:	83 fe 03             	cmp    $0x3,%esi
    7a7d:	0f 84 90 04 00 00    	je     7f13 <start_input_bmp+0xb83>
    7a83:	83 fe 04             	cmp    $0x4,%esi
    7a86:	0f 85 90 fb ff ff    	jne    761c <start_input_bmp+0x28c>
/home/tenebris/Disk/Documents/RootCauseAnalysis/evaluation/test_bin/libjpeg/libjpeg_heap_buffer_overflow/libjpeg-turbo/rdbmp.c:122
    for (i = 0; i < cmaplen; i++) {
    7a8c:	45 85 f6             	test   %r14d,%r14d
    7a8f:	0f 8e 8a 04 00 00    	jle    7f1f <start_input_bmp+0xb8f>
    7a95:	0f 1f 00             	nopl   (%rax)
/home/tenebris/Disk/Documents/RootCauseAnalysis/evaluation/test_bin/libjpeg/libjpeg_heap_buffer_overflow/libjpeg-turbo/rdbmp.c:129
        gray = 0;
    7a98:	89 6c 24 1c          	mov    %ebp,0x1c(%rsp)
/home/tenebris/Disk/Documents/RootCauseAnalysis/evaluation/test_bin/libjpeg/libjpeg_heap_buffer_overflow/libjpeg-turbo/rdbmp.c:108
  switch (mapentrysize) {
    7a9c:	45 31 e4             	xor    %r12d,%r12d
/home/tenebris/Disk/Documents/RootCauseAnalysis/evaluation/test_bin/libjpeg/libjpeg_heap_buffer_overflow/libjpeg-turbo/rdbmp.c:106
  int i, gray = 1;
    7a9f:	41 bd 01 00 00 00    	mov    $0x1,%r13d
    7aa5:	eb 19                	jmp    7ac0 <start_input_bmp+0x730>
    7aa7:	66 0f 1f 84 00 00 00 	nopw   0x0(%rax,%rax,1)
    7aae:	00 00 
/home/tenebris/Disk/Documents/RootCauseAnalysis/evaluation/test_bin/libjpeg/libjpeg_heap_buffer_overflow/libjpeg-turbo/rdbmp.c:129
        gray = 0;
    7ab0:	45 31 ed             	xor    %r13d,%r13d
/home/tenebris/Disk/Documents/RootCauseAnalysis/evaluation/test_bin/libjpeg/libjpeg_heap_buffer_overflow/libjpeg-turbo/rdbmp.c:122
    for (i = 0; i < cmaplen; i++) {
    7ab3:	49 83 c4 01          	add    $0x1,%r12
    7ab7:	4d 39 f4             	cmp    %r14,%r12
    7aba:	0f 84 20 01 00 00    	je     7be0 <start_input_bmp+0x850>
read_byte():
/home/tenebris/Disk/Documents/RootCauseAnalysis/evaluation/test_bin/libjpeg/libjpeg_heap_buffer_overflow/libjpeg-turbo/rdbmp.c:96
  if ((c = getc(infile)) == EOF)
    7ac0:	48 8b 7b 18          	mov    0x18(%rbx),%rdi
    7ac4:	e8 87 a9 ff ff       	call   2450 <getc@plt>
    7ac9:	89 c5                	mov    %eax,%ebp
    7acb:	83 f8 ff             	cmp    $0xffffffff,%eax
    7ace:	75 10                	jne    7ae0 <start_input_bmp+0x750>
    7ad0:	48 8b 7b 30          	mov    0x30(%rbx),%rdi
/home/tenebris/Disk/Documents/RootCauseAnalysis/evaluation/test_bin/libjpeg/libjpeg_heap_buffer_overflow/libjpeg-turbo/rdbmp.c:97
    ERREXIT(sinfo->cinfo, JERR_INPUT_EOF);
    7ad4:	48 8b 17             	mov    (%rdi),%rdx
    7ad7:	c7 42 28 2b 00 00 00 	movl   $0x2b,0x28(%rdx)
    7ade:	ff 12                	call   *(%rdx)
read_colormap():
/home/tenebris/Disk/Documents/RootCauseAnalysis/evaluation/test_bin/libjpeg/libjpeg_heap_buffer_overflow/libjpeg-turbo/rdbmp.c:123
      sinfo->colormap[2][i] = (JSAMPLE)read_byte(sinfo);
    7ae0:	48 8b 53 38          	mov    0x38(%rbx),%rdx
    7ae4:	48 8b 52 10          	mov    0x10(%rdx),%rdx
    7ae8:	42 88 2c 22          	mov    %bpl,(%rdx,%r12,1)
read_byte():
/home/tenebris/Disk/Documents/RootCauseAnalysis/evaluation/test_bin/libjpeg/libjpeg_heap_buffer_overflow/libjpeg-turbo/rdbmp.c:96
  if ((c = getc(infile)) == EOF)
    7aec:	48 8b 7b 18          	mov    0x18(%rbx),%rdi
    7af0:	e8 5b a9 ff ff       	call   2450 <getc@plt>
    7af5:	89 c5                	mov    %eax,%ebp
    7af7:	83 f8 ff             	cmp    $0xffffffff,%eax
    7afa:	75 10                	jne    7b0c <start_input_bmp+0x77c>
    7afc:	48 8b 7b 30          	mov    0x30(%rbx),%rdi
/home/tenebris/Disk/Documents/RootCauseAnalysis/evaluation/test_bin/libjpeg/libjpeg_heap_buffer_overflow/libjpeg-turbo/rdbmp.c:97
    ERREXIT(sinfo->cinfo, JERR_INPUT_EOF);
    7b00:	48 8b 17             	mov    (%rdi),%rdx
    7b03:	c7 42 28 2b 00 00 00 	movl   $0x2b,0x28(%rdx)
    7b0a:	ff 12                	call   *(%rdx)
read_colormap():
/home/tenebris/Disk/Documents/RootCauseAnalysis/evaluation/test_bin/libjpeg/libjpeg_heap_buffer_overflow/libjpeg-turbo/rdbmp.c:124
      sinfo->colormap[1][i] = (JSAMPLE)read_byte(sinfo);
    7b0c:	48 8b 53 38          	mov    0x38(%rbx),%rdx
    7b10:	48 8b 52 08          	mov    0x8(%rdx),%rdx
    7b14:	42 88 2c 22          	mov    %bpl,(%rdx,%r12,1)
read_byte():
/home/tenebris/Disk/Documents/RootCauseAnalysis/evaluation/test_bin/libjpeg/libjpeg_heap_buffer_overflow/libjpeg-turbo/rdbmp.c:96
  if ((c = getc(infile)) == EOF)
    7b18:	48 8b 7b 18          	mov    0x18(%rbx),%rdi
    7b1c:	e8 2f a9 ff ff       	call   2450 <getc@plt>
    7b21:	89 c5                	mov    %eax,%ebp
    7b23:	83 f8 ff             	cmp    $0xffffffff,%eax
    7b26:	75 10                	jne    7b38 <start_input_bmp+0x7a8>
    7b28:	48 8b 7b 30          	mov    0x30(%rbx),%rdi
/home/tenebris/Disk/Documents/RootCauseAnalysis/evaluation/test_bin/libjpeg/libjpeg_heap_buffer_overflow/libjpeg-turbo/rdbmp.c:97
    ERREXIT(sinfo->cinfo, JERR_INPUT_EOF);
    7b2c:	48 8b 17             	mov    (%rdi),%rdx
    7b2f:	c7 42 28 2b 00 00 00 	movl   $0x2b,0x28(%rdx)
    7b36:	ff 12                	call   *(%rdx)
read_colormap():
/home/tenebris/Disk/Documents/RootCauseAnalysis/evaluation/test_bin/libjpeg/libjpeg_heap_buffer_overflow/libjpeg-turbo/rdbmp.c:125
      sinfo->colormap[0][i] = (JSAMPLE)read_byte(sinfo);
    7b38:	48 8b 53 38          	mov    0x38(%rbx),%rdx
    7b3c:	48 8b 12             	mov    (%rdx),%rdx
    7b3f:	42 88 2c 22          	mov    %bpl,(%rdx,%r12,1)
read_byte():
/home/tenebris/Disk/Documents/RootCauseAnalysis/evaluation/test_bin/libjpeg/libjpeg_heap_buffer_overflow/libjpeg-turbo/rdbmp.c:96
  if ((c = getc(infile)) == EOF)
    7b43:	48 8b 7b 18          	mov    0x18(%rbx),%rdi
    7b47:	e8 04 a9 ff ff       	call   2450 <getc@plt>
    7b4c:	83 f8 ff             	cmp    $0xffffffff,%eax
    7b4f:	75 10                	jne    7b61 <start_input_bmp+0x7d1>
    7b51:	48 8b 7b 30          	mov    0x30(%rbx),%rdi
/home/tenebris/Disk/Documents/RootCauseAnalysis/evaluation/test_bin/libjpeg/libjpeg_heap_buffer_overflow/libjpeg-turbo/rdbmp.c:97
    ERREXIT(sinfo->cinfo, JERR_INPUT_EOF);
    7b55:	48 8b 07             	mov    (%rdi),%rax
    7b58:	c7 40 28 2b 00 00 00 	movl   $0x2b,0x28(%rax)
    7b5f:	ff 10                	call   *(%rax)
read_colormap():
/home/tenebris/Disk/Documents/RootCauseAnalysis/evaluation/test_bin/libjpeg/libjpeg_heap_buffer_overflow/libjpeg-turbo/rdbmp.c:127
      if (sinfo->colormap[2][i] != sinfo->colormap[1][i] ||
    7b61:	48 8b 43 38          	mov    0x38(%rbx),%rax
    7b65:	48 8b 50 08          	mov    0x8(%rax),%rdx
    7b69:	48 8b 48 10          	mov    0x10(%rax),%rcx
    7b6d:	42 0f b6 14 22       	movzbl (%rdx,%r12,1),%edx
    7b72:	42 38 14 21          	cmp    %dl,(%rcx,%r12,1)
    7b76:	0f 85 34 ff ff ff    	jne    7ab0 <start_input_bmp+0x720>
/home/tenebris/Disk/Documents/RootCauseAnalysis/evaluation/test_bin/libjpeg/libjpeg_heap_buffer_overflow/libjpeg-turbo/rdbmp.c:128
          sinfo->colormap[1][i] != sinfo->colormap[0][i])
    7b7c:	48 8b 00             	mov    (%rax),%rax
/home/tenebris/Disk/Documents/RootCauseAnalysis/evaluation/test_bin/libjpeg/libjpeg_heap_buffer_overflow/libjpeg-turbo/rdbmp.c:129
        gray = 0;
    7b7f:	42 3a 14 20          	cmp    (%rax,%r12,1),%dl
    7b83:	b8 00 00 00 00       	mov    $0x0,%eax
    7b88:	44 0f 45 e8          	cmovne %eax,%r13d
    7b8c:	e9 22 ff ff ff       	jmp    7ab3 <start_input_bmp+0x723>
    7b91:	0f 1f 80 00 00 00 00 	nopl   0x0(%rax)
start_input_bmp():
/home/tenebris/Disk/Documents/RootCauseAnalysis/evaluation/test_bin/libjpeg/libjpeg_heap_buffer_overflow/libjpeg-turbo/rdbmp.c:511
      ERREXIT(cinfo, JERR_BMP_COMPRESSED);
    7b98:	49 8b 07             	mov    (%r15),%rax
    7b9b:	4c 89 ff             	mov    %r15,%rdi
    7b9e:	c7 40 28 ee 03 00 00 	movl   $0x3ee,0x28(%rax)
    7ba5:	ff 10                	call   *(%rax)
    7ba7:	e9 4a fd ff ff       	jmp    78f6 <start_input_bmp+0x566>
    7bac:	0f 1f 40 00          	nopl   0x0(%rax)
/home/tenebris/Disk/Documents/RootCauseAnalysis/evaluation/test_bin/libjpeg/libjpeg_heap_buffer_overflow/libjpeg-turbo/rdbmp.c:474
      TRACEMS2(cinfo, 1, JTRC_BMP_OS2, biWidth, biHeight);
    7bb0:	89 70 2c             	mov    %esi,0x2c(%rax)
    7bb3:	4c 89 ff             	mov    %r15,%rdi
    7bb6:	be 01 00 00 00       	mov    $0x1,%esi
    7bbb:	c7 40 28 f3 03 00 00 	movl   $0x3f3,0x28(%rax)
    7bc2:	89 68 30             	mov    %ebp,0x30(%rax)
    7bc5:	ff 50 08             	call   *0x8(%rax)
/home/tenebris/Disk/Documents/RootCauseAnalysis/evaluation/test_bin/libjpeg/libjpeg_heap_buffer_overflow/libjpeg-turbo/rdbmp.c:437
  int mapentrysize = 0;         /* 0 indicates no colormap */
    7bc8:	c7 44 24 0c 00 00 00 	movl   $0x0,0xc(%rsp)
    7bcf:	00 
/home/tenebris/Disk/Documents/RootCauseAnalysis/evaluation/test_bin/libjpeg/libjpeg_heap_buffer_overflow/libjpeg-turbo/rdbmp.c:436
  unsigned int biClrUsed = 0;
    7bd0:	c7 44 24 14 00 00 00 	movl   $0x0,0x14(%rsp)
    7bd7:	00 
/home/tenebris/Disk/Documents/RootCauseAnalysis/evaluation/test_bin/libjpeg/libjpeg_heap_buffer_overflow/libjpeg-turbo/rdbmp.c:475
      break;
    7bd8:	e9 9c f9 ff ff       	jmp    7579 <start_input_bmp+0x1e9>
    7bdd:	0f 1f 00             	nopl   (%rax)
read_colormap():
/home/tenebris/Disk/Documents/RootCauseAnalysis/evaluation/test_bin/libjpeg/libjpeg_heap_buffer_overflow/libjpeg-turbo/rdbmp.c:137
  if (sinfo->cinfo->in_color_space == JCS_UNKNOWN && gray)
    7be0:	48 8b 7b 30          	mov    0x30(%rbx),%rdi
    7be4:	8b 6c 24 1c          	mov    0x1c(%rsp),%ebp
    7be8:	8b 47 3c             	mov    0x3c(%rdi),%eax
    7beb:	85 c0                	test   %eax,%eax
    7bed:	0f 85 ed 00 00 00    	jne    7ce0 <start_input_bmp+0x950>
    7bf3:	45 85 ed             	test   %r13d,%r13d
    7bf6:	0f 84 42 fa ff ff    	je     763e <start_input_bmp+0x2ae>
    7bfc:	e9 36 fa ff ff       	jmp    7637 <start_input_bmp+0x2a7>
    7c01:	0f 1f 80 00 00 00 00 	nopl   0x0(%rax)
start_input_bmp():
/home/tenebris/Disk/Documents/RootCauseAnalysis/evaluation/test_bin/libjpeg/libjpeg_heap_buffer_overflow/libjpeg-turbo/rdbmp.c:582
    if (cinfo->in_color_space == JCS_UNKNOWN)
    7c08:	41 8b 47 3c          	mov    0x3c(%r15),%eax
    7c0c:	85 c0                	test   %eax,%eax
    7c0e:	0f 85 f4 00 00 00    	jne    7d08 <start_input_bmp+0x978>
/home/tenebris/Disk/Documents/RootCauseAnalysis/evaluation/test_bin/libjpeg/libjpeg_heap_buffer_overflow/libjpeg-turbo/rdbmp.c:583
      cinfo->in_color_space = JCS_EXT_BGRA;
    7c14:	41 c7 47 3c 0d 00 00 	movl   $0xd,0x3c(%r15)
    7c1b:	00 
    7c1c:	b8 04 00 00 00       	mov    $0x4,%eax
/home/tenebris/Disk/Documents/RootCauseAnalysis/evaluation/test_bin/libjpeg/libjpeg_heap_buffer_overflow/libjpeg-turbo/rdbmp.c:585
      cinfo->input_components = rgb_pixelsize[cinfo->in_color_space];
    7c21:	41 89 47 38          	mov    %eax,0x38(%r15)
/home/tenebris/Disk/Documents/RootCauseAnalysis/evaluation/test_bin/libjpeg/libjpeg_heap_buffer_overflow/libjpeg-turbo/rdbmp.c:590
    row_width = (JDIMENSION)(biWidth * 4);
    7c25:	8b 44 24 08          	mov    0x8(%rsp),%eax
    7c29:	8d 0c 85 00 00 00 00 	lea    0x0(,%rax,4),%ecx
/home/tenebris/Disk/Documents/RootCauseAnalysis/evaluation/test_bin/libjpeg/libjpeg_heap_buffer_overflow/libjpeg-turbo/rdbmp.c:591
    break;
    7c30:	eb 09                	jmp    7c3b <start_input_bmp+0x8ab>
    7c32:	66 0f 1f 44 00 00    	nopw   0x0(%rax,%rax,1)
/home/tenebris/Disk/Documents/RootCauseAnalysis/evaluation/test_bin/libjpeg/libjpeg_heap_buffer_overflow/libjpeg-turbo/rdbmp.c:595 (discriminator 2)
  while ((row_width & 3) != 0) row_width++;
    7c38:	83 c1 01             	add    $0x1,%ecx
    7c3b:	f6 c1 03             	test   $0x3,%cl
    7c3e:	75 f8                	jne    7c38 <start_input_bmp+0x8a8>
    7c40:	e9 6e fa ff ff       	jmp    76b3 <start_input_bmp+0x323>
    7c45:	0f 1f 00             	nopl   (%rax)
/home/tenebris/Disk/Documents/RootCauseAnalysis/evaluation/test_bin/libjpeg/libjpeg_heap_buffer_overflow/libjpeg-turbo/rdbmp.c:558
    if (cinfo->in_color_space == JCS_UNKNOWN)
    7c48:	41 8b 47 3c          	mov    0x3c(%r15),%eax
    7c4c:	85 c0                	test   %eax,%eax
    7c4e:	0f 85 3c 01 00 00    	jne    7d90 <start_input_bmp+0xa00>
/home/tenebris/Disk/Documents/RootCauseAnalysis/evaluation/test_bin/libjpeg/libjpeg_heap_buffer_overflow/libjpeg-turbo/rdbmp.c:559
      cinfo->in_color_space = JCS_EXT_RGB;
    7c54:	41 c7 47 3c 06 00 00 	movl   $0x6,0x3c(%r15)
    7c5b:	00 
    7c5c:	b8 03 00 00 00       	mov    $0x3,%eax
/home/tenebris/Disk/Documents/RootCauseAnalysis/evaluation/test_bin/libjpeg/libjpeg_heap_buffer_overflow/libjpeg-turbo/rdbmp.c:561
      cinfo->input_components = rgb_pixelsize[cinfo->in_color_space];
    7c61:	41 89 47 38          	mov    %eax,0x38(%r15)
/home/tenebris/Disk/Documents/RootCauseAnalysis/evaluation/test_bin/libjpeg/libjpeg_heap_buffer_overflow/libjpeg-turbo/rdbmp.c:568
    row_width = (JDIMENSION)biWidth;
    7c65:	8b 4c 24 18          	mov    0x18(%rsp),%ecx
/home/tenebris/Disk/Documents/RootCauseAnalysis/evaluation/test_bin/libjpeg/libjpeg_heap_buffer_overflow/libjpeg-turbo/rdbmp.c:569
    break;
    7c69:	eb d0                	jmp    7c3b <start_input_bmp+0x8ab>
    7c6b:	0f 1f 44 00 00       	nopl   0x0(%rax,%rax,1)
/home/tenebris/Disk/Documents/RootCauseAnalysis/evaluation/test_bin/libjpeg/libjpeg_heap_buffer_overflow/libjpeg-turbo/rdbmp.c:504
      TRACEMS2(cinfo, 1, JTRC_BMP, biWidth, biHeight);
    7c70:	8b 74 24 18          	mov    0x18(%rsp),%esi
    7c74:	c7 40 28 f1 03 00 00 	movl   $0x3f1,0x28(%rax)
    7c7b:	4c 89 ff             	mov    %r15,%rdi
    7c7e:	89 70 2c             	mov    %esi,0x2c(%rax)
    7c81:	8b 74 24 10          	mov    0x10(%rsp),%esi
    7c85:	89 70 30             	mov    %esi,0x30(%rax)
    7c88:	be 01 00 00 00       	mov    $0x1,%esi
    7c8d:	ff 50 08             	call   *0x8(%rax)
/home/tenebris/Disk/Documents/RootCauseAnalysis/evaluation/test_bin/libjpeg/libjpeg_heap_buffer_overflow/libjpeg-turbo/rdbmp.c:510
    if (biCompression != 0)
    7c90:	44 8b 54 24 24       	mov    0x24(%rsp),%r10d
/home/tenebris/Disk/Documents/RootCauseAnalysis/evaluation/test_bin/libjpeg/libjpeg_heap_buffer_overflow/libjpeg-turbo/rdbmp.c:437
  int mapentrysize = 0;         /* 0 indicates no colormap */
    7c95:	c7 44 24 0c 00 00 00 	movl   $0x0,0xc(%rsp)
    7c9c:	00 
/home/tenebris/Disk/Documents/RootCauseAnalysis/evaluation/test_bin/libjpeg/libjpeg_heap_buffer_overflow/libjpeg-turbo/rdbmp.c:510
    if (biCompression != 0)
    7c9d:	45 85 d2             	test   %r10d,%r10d
    7ca0:	0f 84 50 fc ff ff    	je     78f6 <start_input_bmp+0x566>
    7ca6:	e9 ed fe ff ff       	jmp    7b98 <start_input_bmp+0x808>
    7cab:	0f 1f 44 00 00       	nopl   0x0(%rax,%rax,1)
/home/tenebris/Disk/Documents/RootCauseAnalysis/evaluation/test_bin/libjpeg/libjpeg_heap_buffer_overflow/libjpeg-turbo/rdbmp.c:471
      TRACEMS2(cinfo, 1, JTRC_BMP_OS2_MAPPED, biWidth, biHeight);
    7cb0:	89 70 2c             	mov    %esi,0x2c(%rax)
    7cb3:	4c 89 ff             	mov    %r15,%rdi
    7cb6:	be 01 00 00 00       	mov    $0x1,%esi
    7cbb:	c7 40 28 f4 03 00 00 	movl   $0x3f4,0x28(%rax)
    7cc2:	89 68 30             	mov    %ebp,0x30(%rax)
    7cc5:	ff 50 08             	call   *0x8(%rax)
/home/tenebris/Disk/Documents/RootCauseAnalysis/evaluation/test_bin/libjpeg/libjpeg_heap_buffer_overflow/libjpeg-turbo/rdbmp.c:470
      mapentrysize = 3;         /* OS/2 uses RGBTRIPLE colormap */
    7cc8:	c7 44 24 0c 03 00 00 	movl   $0x3,0xc(%rsp)
    7ccf:	00 
/home/tenebris/Disk/Documents/RootCauseAnalysis/evaluation/test_bin/libjpeg/libjpeg_heap_buffer_overflow/libjpeg-turbo/rdbmp.c:436
  unsigned int biClrUsed = 0;
    7cd0:	c7 44 24 14 00 00 00 	movl   $0x0,0x14(%rsp)
    7cd7:	00 
/home/tenebris/Disk/Documents/RootCauseAnalysis/evaluation/test_bin/libjpeg/libjpeg_heap_buffer_overflow/libjpeg-turbo/rdbmp.c:472
      break;
    7cd8:	e9 9c f8 ff ff       	jmp    7579 <start_input_bmp+0x1e9>
    7cdd:	0f 1f 00             	nopl   (%rax)
read_colormap():
/home/tenebris/Disk/Documents/RootCauseAnalysis/evaluation/test_bin/libjpeg/libjpeg_heap_buffer_overflow/libjpeg-turbo/rdbmp.c:140
  if (sinfo->cinfo->in_color_space == JCS_GRAYSCALE && !gray)
    7ce0:	83 f8 01             	cmp    $0x1,%eax
    7ce3:	0f 85 55 f9 ff ff    	jne    763e <start_input_bmp+0x2ae>
    7ce9:	41 83 e5 01          	and    $0x1,%r13d
    7ced:	0f 85 4b f9 ff ff    	jne    763e <start_input_bmp+0x2ae>
/home/tenebris/Disk/Documents/RootCauseAnalysis/evaluation/test_bin/libjpeg/libjpeg_heap_buffer_overflow/libjpeg-turbo/rdbmp.c:141
    ERREXIT(sinfo->cinfo, JERR_BAD_IN_COLORSPACE);
    7cf3:	48 8b 07             	mov    (%rdi),%rax
    7cf6:	c7 40 28 09 00 00 00 	movl   $0x9,0x28(%rax)
    7cfd:	ff 10                	call   *(%rax)
    7cff:	e9 3a f9 ff ff       	jmp    763e <start_input_bmp+0x2ae>
    7d04:	0f 1f 40 00          	nopl   0x0(%rax)
start_input_bmp():
/home/tenebris/Disk/Documents/RootCauseAnalysis/evaluation/test_bin/libjpeg/libjpeg_heap_buffer_overflow/libjpeg-turbo/rdbmp.c:584
    if (IsExtRGB(cinfo->in_color_space))
    7d08:	8d 50 fa             	lea    -0x6(%rax),%edx
    7d0b:	83 fa 09             	cmp    $0x9,%edx
    7d0e:	0f 86 76 02 00 00    	jbe    7f8a <start_input_bmp+0xbfa>
    7d14:	83 f8 02             	cmp    $0x2,%eax
    7d17:	0f 84 6d 02 00 00    	je     7f8a <start_input_bmp+0xbfa>
/home/tenebris/Disk/Documents/RootCauseAnalysis/evaluation/test_bin/libjpeg/libjpeg_heap_buffer_overflow/libjpeg-turbo/rdbmp.c:586
    else if (cinfo->in_color_space == JCS_CMYK)
    7d1d:	83 f8 04             	cmp    $0x4,%eax
    7d20:	0f 84 34 02 00 00    	je     7f5a <start_input_bmp+0xbca>
/home/tenebris/Disk/Documents/RootCauseAnalysis/evaluation/test_bin/libjpeg/libjpeg_heap_buffer_overflow/libjpeg-turbo/rdbmp.c:589
      ERREXIT(cinfo, JERR_BAD_IN_COLORSPACE);
    7d26:	49 8b 07             	mov    (%r15),%rax
    7d29:	4c 89 ff             	mov    %r15,%rdi
    7d2c:	c7 40 28 09 00 00 00 	movl   $0x9,0x28(%rax)
    7d33:	ff 10                	call   *(%rax)
    7d35:	e9 eb fe ff ff       	jmp    7c25 <start_input_bmp+0x895>
    7d3a:	66 0f 1f 44 00 00    	nopw   0x0(%rax,%rax,1)
/home/tenebris/Disk/Documents/RootCauseAnalysis/evaluation/test_bin/libjpeg/libjpeg_heap_buffer_overflow/libjpeg-turbo/rdbmp.c:613
      source->pub.get_pixel_rows = get_8bit_row;
    7d40:	48 8d 05 19 ea ff ff 	lea    -0x15e7(%rip),%rax        # 6760 <get_8bit_row>
    7d47:	48 89 43 08          	mov    %rax,0x8(%rbx)
/home/tenebris/Disk/Documents/RootCauseAnalysis/evaluation/test_bin/libjpeg/libjpeg_heap_buffer_overflow/libjpeg-turbo/rdbmp.c:614
      break;
    7d4b:	e9 a9 f9 ff ff       	jmp    76f9 <start_input_bmp+0x369>
/home/tenebris/Disk/Documents/RootCauseAnalysis/evaluation/test_bin/libjpeg/libjpeg_heap_buffer_overflow/libjpeg-turbo/rdbmp.c:619
      source->pub.get_pixel_rows = get_32bit_row;
    7d50:	48 8d 05 69 f1 ff ff 	lea    -0xe97(%rip),%rax        # 6ec0 <get_32bit_row>
    7d57:	48 89 43 08          	mov    %rax,0x8(%rbx)
/home/tenebris/Disk/Documents/RootCauseAnalysis/evaluation/test_bin/libjpeg/libjpeg_heap_buffer_overflow/libjpeg-turbo/rdbmp.c:620
      break;
    7d5b:	e9 99 f9 ff ff       	jmp    76f9 <start_input_bmp+0x369>
read_colormap():
/home/tenebris/Disk/Documents/RootCauseAnalysis/evaluation/test_bin/libjpeg/libjpeg_heap_buffer_overflow/libjpeg-turbo/rdbmp.c:108
  switch (mapentrysize) {
    7d60:	c7 44 24 14 00 01 00 	movl   $0x100,0x14(%rsp)
    7d67:	00 
    7d68:	41 be 00 01 00 00    	mov    $0x100,%r14d
    7d6e:	e9 25 fd ff ff       	jmp    7a98 <start_input_bmp+0x708>
    7d73:	0f 1f 44 00 00       	nopl   0x0(%rax,%rax,1)
start_input_bmp():
/home/tenebris/Disk/Documents/RootCauseAnalysis/evaluation/test_bin/libjpeg/libjpeg_heap_buffer_overflow/libjpeg-turbo/rdbmp.c:616
      source->pub.get_pixel_rows = get_24bit_row;
    7d78:	48 8d 05 a1 ed ff ff 	lea    -0x125f(%rip),%rax        # 6b20 <get_24bit_row>
    7d7f:	48 89 43 08          	mov    %rax,0x8(%rbx)
/home/tenebris/Disk/Documents/RootCauseAnalysis/evaluation/test_bin/libjpeg/libjpeg_heap_buffer_overflow/libjpeg-turbo/rdbmp.c:617
      break;
    7d83:	e9 71 f9 ff ff       	jmp    76f9 <start_input_bmp+0x369>
    7d88:	0f 1f 84 00 00 00 00 	nopl   0x0(%rax,%rax,1)
    7d8f:	00 
/home/tenebris/Disk/Documents/RootCauseAnalysis/evaluation/test_bin/libjpeg/libjpeg_heap_buffer_overflow/libjpeg-turbo/rdbmp.c:560
    if (IsExtRGB(cinfo->in_color_space))
    7d90:	8d 50 fa             	lea    -0x6(%rax),%edx
    7d93:	83 fa 09             	cmp    $0x9,%edx
    7d96:	0f 86 df 01 00 00    	jbe    7f7b <start_input_bmp+0xbeb>
    7d9c:	83 f8 02             	cmp    $0x2,%eax
    7d9f:	0f 84 d6 01 00 00    	je     7f7b <start_input_bmp+0xbeb>
/home/tenebris/Disk/Documents/RootCauseAnalysis/evaluation/test_bin/libjpeg/libjpeg_heap_buffer_overflow/libjpeg-turbo/rdbmp.c:562
    else if (cinfo->in_color_space == JCS_GRAYSCALE)
    7da5:	83 f8 01             	cmp    $0x1,%eax
    7da8:	0f 84 9f 01 00 00    	je     7f4d <start_input_bmp+0xbbd>
/home/tenebris/Disk/Documents/RootCauseAnalysis/evaluation/test_bin/libjpeg/libjpeg_heap_buffer_overflow/libjpeg-turbo/rdbmp.c:564
    else if (cinfo->in_color_space == JCS_CMYK)
    7dae:	83 f8 04             	cmp    $0x4,%eax
    7db1:	0f 84 7c 01 00 00    	je     7f33 <start_input_bmp+0xba3>
/home/tenebris/Disk/Documents/RootCauseAnalysis/evaluation/test_bin/libjpeg/libjpeg_heap_buffer_overflow/libjpeg-turbo/rdbmp.c:567
      ERREXIT(cinfo, JERR_BAD_IN_COLORSPACE);
    7db7:	49 8b 07             	mov    (%r15),%rax
    7dba:	4c 89 ff             	mov    %r15,%rdi
    7dbd:	c7 40 28 09 00 00 00 	movl   $0x9,0x28(%rax)
    7dc4:	ff 10                	call   *(%rax)
    7dc6:	e9 9a fe ff ff       	jmp    7c65 <start_input_bmp+0x8d5>
    7dcb:	0f 1f 44 00 00       	nopl   0x0(%rax,%rax,1)
/home/tenebris/Disk/Documents/RootCauseAnalysis/evaluation/test_bin/libjpeg/libjpeg_heap_buffer_overflow/libjpeg-turbo/rdbmp.c:498
      TRACEMS2(cinfo, 1, JTRC_BMP_MAPPED, biWidth, biHeight);
    7dd0:	8b 74 24 18          	mov    0x18(%rsp),%esi
    7dd4:	c7 40 28 f2 03 00 00 	movl   $0x3f2,0x28(%rax)
    7ddb:	4c 89 ff             	mov    %r15,%rdi
    7dde:	89 68 30             	mov    %ebp,0x30(%rax)
    7de1:	89 70 2c             	mov    %esi,0x2c(%rax)
    7de4:	be 01 00 00 00       	mov    $0x1,%esi
    7de9:	ff 50 08             	call   *0x8(%rax)
/home/tenebris/Disk/Documents/RootCauseAnalysis/evaluation/test_bin/libjpeg/libjpeg_heap_buffer_overflow/libjpeg-turbo/rdbmp.c:497
      mapentrysize = 4;         /* Windows uses RGBQUAD colormap */
    7dec:	c7 44 24 0c 04 00 00 	movl   $0x4,0xc(%rsp)
    7df3:	00 
/home/tenebris/Disk/Documents/RootCauseAnalysis/evaluation/test_bin/libjpeg/libjpeg_heap_buffer_overflow/libjpeg-turbo/rdbmp.c:499
      break;
    7df4:	e9 ef fa ff ff       	jmp    78e8 <start_input_bmp+0x558>
    7df9:	0f 1f 80 00 00 00 00 	nopl   0x0(%rax)
/home/tenebris/Disk/Documents/RootCauseAnalysis/evaluation/test_bin/libjpeg/libjpeg_heap_buffer_overflow/libjpeg-turbo/rdbmp.c:573
    if (IsExtRGB(cinfo->in_color_space))
    7e00:	8d 50 fa             	lea    -0x6(%rax),%edx
    7e03:	83 fa 09             	cmp    $0x9,%edx
    7e06:	0f 86 60 01 00 00    	jbe    7f6c <start_input_bmp+0xbdc>
    7e0c:	83 f8 02             	cmp    $0x2,%eax
    7e0f:	0f 84 57 01 00 00    	je     7f6c <start_input_bmp+0xbdc>
/home/tenebris/Disk/Documents/RootCauseAnalysis/evaluation/test_bin/libjpeg/libjpeg_heap_buffer_overflow/libjpeg-turbo/rdbmp.c:575
    else if (cinfo->in_color_space == JCS_CMYK)
    7e15:	83 f8 04             	cmp    $0x4,%eax
    7e18:	0f 84 22 01 00 00    	je     7f40 <start_input_bmp+0xbb0>
/home/tenebris/Disk/Documents/RootCauseAnalysis/evaluation/test_bin/libjpeg/libjpeg_heap_buffer_overflow/libjpeg-turbo/rdbmp.c:578
      ERREXIT(cinfo, JERR_BAD_IN_COLORSPACE);
    7e1e:	49 8b 07             	mov    (%r15),%rax
    7e21:	4c 89 ff             	mov    %r15,%rdi
    7e24:	c7 40 28 09 00 00 00 	movl   $0x9,0x28(%rax)
    7e2b:	ff 10                	call   *(%rax)
    7e2d:	e9 fe fb ff ff       	jmp    7a30 <start_input_bmp+0x6a0>
read_colormap():
/home/tenebris/Disk/Documents/RootCauseAnalysis/evaluation/test_bin/libjpeg/libjpeg_heap_buffer_overflow/libjpeg-turbo/rdbmp.c:108
  switch (mapentrysize) {
    7e32:	c7 44 24 14 00 01 00 	movl   $0x100,0x14(%rsp)
    7e39:	00 
    7e3a:	41 be 00 01 00 00    	mov    $0x100,%r14d
/home/tenebris/Disk/Documents/RootCauseAnalysis/evaluation/test_bin/libjpeg/libjpeg_heap_buffer_overflow/libjpeg-turbo/rdbmp.c:117
        gray = 0;
    7e40:	89 6c 24 1c          	mov    %ebp,0x1c(%rsp)
/home/tenebris/Disk/Documents/RootCauseAnalysis/evaluation/test_bin/libjpeg/libjpeg_heap_buffer_overflow/libjpeg-turbo/rdbmp.c:108
  switch (mapentrysize) {
    7e44:	45 31 e4             	xor    %r12d,%r12d
    7e47:	41 bd 01 00 00 00    	mov    $0x1,%r13d
    7e4d:	eb 11                	jmp    7e60 <start_input_bmp+0xad0>
    7e4f:	90                   	nop
/home/tenebris/Disk/Documents/RootCauseAnalysis/evaluation/test_bin/libjpeg/libjpeg_heap_buffer_overflow/libjpeg-turbo/rdbmp.c:117
        gray = 0;
    7e50:	45 31 ed             	xor    %r13d,%r13d
/home/tenebris/Disk/Documents/RootCauseAnalysis/evaluation/test_bin/libjpeg/libjpeg_heap_buffer_overflow/libjpeg-turbo/rdbmp.c:111
    for (i = 0; i < cmaplen; i++) {
    7e53:	49 83 c4 01          	add    $0x1,%r12
    7e57:	45 39 e6             	cmp    %r12d,%r14d
    7e5a:	0f 8e 80 fd ff ff    	jle    7be0 <start_input_bmp+0x850>
read_byte():
/home/tenebris/Disk/Documents/RootCauseAnalysis/evaluation/test_bin/libjpeg/libjpeg_heap_buffer_overflow/libjpeg-turbo/rdbmp.c:96
  if ((c = getc(infile)) == EOF)
    7e60:	48 8b 7b 18          	mov    0x18(%rbx),%rdi
    7e64:	e8 e7 a5 ff ff       	call   2450 <getc@plt>
    7e69:	89 c5                	mov    %eax,%ebp
    7e6b:	83 f8 ff             	cmp    $0xffffffff,%eax
    7e6e:	75 10                	jne    7e80 <start_input_bmp+0xaf0>
    7e70:	48 8b 7b 30          	mov    0x30(%rbx),%rdi
/home/tenebris/Disk/Documents/RootCauseAnalysis/evaluation/test_bin/libjpeg/libjpeg_heap_buffer_overflow/libjpeg-turbo/rdbmp.c:97
    ERREXIT(sinfo->cinfo, JERR_INPUT_EOF);
    7e74:	48 8b 17             	mov    (%rdi),%rdx
    7e77:	c7 42 28 2b 00 00 00 	movl   $0x2b,0x28(%rdx)
    7e7e:	ff 12                	call   *(%rdx)
read_colormap():
/home/tenebris/Disk/Documents/RootCauseAnalysis/evaluation/test_bin/libjpeg/libjpeg_heap_buffer_overflow/libjpeg-turbo/rdbmp.c:112
      sinfo->colormap[2][i] = (JSAMPLE)read_byte(sinfo);
    7e80:	48 8b 53 38          	mov    0x38(%rbx),%rdx
    7e84:	48 8b 52 10          	mov    0x10(%rdx),%rdx
    7e88:	42 88 2c 22          	mov    %bpl,(%rdx,%r12,1)
read_byte():
/home/tenebris/Disk/Documents/RootCauseAnalysis/evaluation/test_bin/libjpeg/libjpeg_heap_buffer_overflow/libjpeg-turbo/rdbmp.c:96
  if ((c = getc(infile)) == EOF)
    7e8c:	48 8b 7b 18          	mov    0x18(%rbx),%rdi
    7e90:	e8 bb a5 ff ff       	call   2450 <getc@plt>
    7e95:	89 c5                	mov    %eax,%ebp
    7e97:	83 f8 ff             	cmp    $0xffffffff,%eax
    7e9a:	75 10                	jne    7eac <start_input_bmp+0xb1c>
    7e9c:	48 8b 7b 30          	mov    0x30(%rbx),%rdi
/home/tenebris/Disk/Documents/RootCauseAnalysis/evaluation/test_bin/libjpeg/libjpeg_heap_buffer_overflow/libjpeg-turbo/rdbmp.c:97
    ERREXIT(sinfo->cinfo, JERR_INPUT_EOF);
    7ea0:	48 8b 17             	mov    (%rdi),%rdx
    7ea3:	c7 42 28 2b 00 00 00 	movl   $0x2b,0x28(%rdx)
    7eaa:	ff 12                	call   *(%rdx)
read_colormap():
/home/tenebris/Disk/Documents/RootCauseAnalysis/evaluation/test_bin/libjpeg/libjpeg_heap_buffer_overflow/libjpeg-turbo/rdbmp.c:113
      sinfo->colormap[1][i] = (JSAMPLE)read_byte(sinfo);
    7eac:	48 8b 53 38          	mov    0x38(%rbx),%rdx
    7eb0:	48 8b 52 08          	mov    0x8(%rdx),%rdx
    7eb4:	42 88 2c 22          	mov    %bpl,(%rdx,%r12,1)
read_byte():
/home/tenebris/Disk/Documents/RootCauseAnalysis/evaluation/test_bin/libjpeg/libjpeg_heap_buffer_overflow/libjpeg-turbo/rdbmp.c:96
  if ((c = getc(infile)) == EOF)
    7eb8:	48 8b 7b 18          	mov    0x18(%rbx),%rdi
    7ebc:	e8 8f a5 ff ff       	call   2450 <getc@plt>
    7ec1:	89 c5                	mov    %eax,%ebp
    7ec3:	83 f8 ff             	cmp    $0xffffffff,%eax
    7ec6:	75 10                	jne    7ed8 <start_input_bmp+0xb48>
    7ec8:	48 8b 7b 30          	mov    0x30(%rbx),%rdi
/home/tenebris/Disk/Documents/RootCauseAnalysis/evaluation/test_bin/libjpeg/libjpeg_heap_buffer_overflow/libjpeg-turbo/rdbmp.c:97
    ERREXIT(sinfo->cinfo, JERR_INPUT_EOF);
    7ecc:	48 8b 17             	mov    (%rdi),%rdx
    7ecf:	c7 42 28 2b 00 00 00 	movl   $0x2b,0x28(%rdx)
    7ed6:	ff 12                	call   *(%rdx)
read_colormap():
/home/tenebris/Disk/Documents/RootCauseAnalysis/evaluation/test_bin/libjpeg/libjpeg_heap_buffer_overflow/libjpeg-turbo/rdbmp.c:114
      sinfo->colormap[0][i] = (JSAMPLE)read_byte(sinfo);
    7ed8:	48 8b 53 38          	mov    0x38(%rbx),%rdx
    7edc:	48 8b 12             	mov    (%rdx),%rdx
    7edf:	42 88 2c 22          	mov    %bpl,(%rdx,%r12,1)
/home/tenebris/Disk/Documents/RootCauseAnalysis/evaluation/test_bin/libjpeg/libjpeg_heap_buffer_overflow/libjpeg-turbo/rdbmp.c:115
      if (sinfo->colormap[2][i] != sinfo->colormap[1][i] ||
    7ee3:	48 8b 43 38          	mov    0x38(%rbx),%rax
    7ee7:	48 8b 50 08          	mov    0x8(%rax),%rdx
    7eeb:	48 8b 48 10          	mov    0x10(%rax),%rcx
    7eef:	42 0f b6 14 22       	movzbl (%rdx,%r12,1),%edx
    7ef4:	42 38 14 21          	cmp    %dl,(%rcx,%r12,1)
    7ef8:	0f 85 52 ff ff ff    	jne    7e50 <start_input_bmp+0xac0>
/home/tenebris/Disk/Documents/RootCauseAnalysis/evaluation/test_bin/libjpeg/libjpeg_heap_buffer_overflow/libjpeg-turbo/rdbmp.c:116
          sinfo->colormap[1][i] != sinfo->colormap[0][i])
    7efe:	48 8b 00             	mov    (%rax),%rax
/home/tenebris/Disk/Documents/RootCauseAnalysis/evaluation/test_bin/libjpeg/libjpeg_heap_buffer_overflow/libjpeg-turbo/rdbmp.c:117
        gray = 0;
    7f01:	42 3a 14 20          	cmp    (%rax,%r12,1),%dl
    7f05:	b8 00 00 00 00       	mov    $0x0,%eax
    7f0a:	44 0f 45 e8          	cmovne %eax,%r13d
    7f0e:	e9 40 ff ff ff       	jmp    7e53 <start_input_bmp+0xac3>
/home/tenebris/Disk/Documents/RootCauseAnalysis/evaluation/test_bin/libjpeg/libjpeg_heap_buffer_overflow/libjpeg-turbo/rdbmp.c:111
    for (i = 0; i < cmaplen; i++) {
    7f13:	8b 7c 24 14          	mov    0x14(%rsp),%edi
    7f17:	85 ff                	test   %edi,%edi
    7f19:	0f 8f 21 ff ff ff    	jg     7e40 <start_input_bmp+0xab0>
/home/tenebris/Disk/Documents/RootCauseAnalysis/evaluation/test_bin/libjpeg/libjpeg_heap_buffer_overflow/libjpeg-turbo/rdbmp.c:137
  if (sinfo->cinfo->in_color_space == JCS_UNKNOWN && gray)
    7f1f:	48 8b 7b 30          	mov    0x30(%rbx),%rdi
    7f23:	8b 4f 3c             	mov    0x3c(%rdi),%ecx
    7f26:	85 c9                	test   %ecx,%ecx
    7f28:	0f 84 09 f7 ff ff    	je     7637 <start_input_bmp+0x2a7>
    7f2e:	e9 0b f7 ff ff       	jmp    763e <start_input_bmp+0x2ae>
start_input_bmp():
/home/tenebris/Disk/Documents/RootCauseAnalysis/evaluation/test_bin/libjpeg/libjpeg_heap_buffer_overflow/libjpeg-turbo/rdbmp.c:565
      cinfo->input_components = 4;
    7f33:	41 c7 47 38 04 00 00 	movl   $0x4,0x38(%r15)
    7f3a:	00 
    7f3b:	e9 25 fd ff ff       	jmp    7c65 <start_input_bmp+0x8d5>
/home/tenebris/Disk/Documents/RootCauseAnalysis/evaluation/test_bin/libjpeg/libjpeg_heap_buffer_overflow/libjpeg-turbo/rdbmp.c:576
      cinfo->input_components = 4;
    7f40:	41 c7 47 38 04 00 00 	movl   $0x4,0x38(%r15)
    7f47:	00 
    7f48:	e9 e3 fa ff ff       	jmp    7a30 <start_input_bmp+0x6a0>
/home/tenebris/Disk/Documents/RootCauseAnalysis/evaluation/test_bin/libjpeg/libjpeg_heap_buffer_overflow/libjpeg-turbo/rdbmp.c:563
      cinfo->input_components = 1;
    7f4d:	41 c7 47 38 01 00 00 	movl   $0x1,0x38(%r15)
    7f54:	00 
    7f55:	e9 0b fd ff ff       	jmp    7c65 <start_input_bmp+0x8d5>
/home/tenebris/Disk/Documents/RootCauseAnalysis/evaluation/test_bin/libjpeg/libjpeg_heap_buffer_overflow/libjpeg-turbo/rdbmp.c:587
      cinfo->input_components = 4;
    7f5a:	41 c7 47 38 04 00 00 	movl   $0x4,0x38(%r15)
    7f61:	00 
    7f62:	e9 be fc ff ff       	jmp    7c25 <start_input_bmp+0x895>
/home/tenebris/Disk/Documents/RootCauseAnalysis/evaluation/test_bin/libjpeg/libjpeg_heap_buffer_overflow/libjpeg-turbo/rdbmp.c:641
}
    7f67:	e8 44 a3 ff ff       	call   22b0 <__stack_chk_fail@plt>
/home/tenebris/Disk/Documents/RootCauseAnalysis/evaluation/test_bin/libjpeg/libjpeg_heap_buffer_overflow/libjpeg-turbo/rdbmp.c:561
      cinfo->input_components = rgb_pixelsize[cinfo->in_color_space];
    7f6c:	48 8d 15 8d 26 00 00 	lea    0x268d(%rip),%rdx        # a600 <rgb_pixelsize>
    7f73:	8b 04 82             	mov    (%rdx,%rax,4),%eax
    7f76:	e9 b1 fa ff ff       	jmp    7a2c <start_input_bmp+0x69c>
    7f7b:	48 8d 15 7e 26 00 00 	lea    0x267e(%rip),%rdx        # a600 <rgb_pixelsize>
    7f82:	8b 04 82             	mov    (%rdx,%rax,4),%eax
    7f85:	e9 d7 fc ff ff       	jmp    7c61 <start_input_bmp+0x8d1>
    7f8a:	48 8d 15 6f 26 00 00 	lea    0x266f(%rip),%rdx        # a600 <rgb_pixelsize>
    7f91:	8b 04 82             	mov    (%rdx,%rax,4),%eax
    7f94:	e9 88 fc ff ff       	jmp    7c21 <start_input_bmp+0x891>
    7f99:	0f 1f 80 00 00 00 00 	nopl   0x0(%rax)

0000000000007fa0 <jinit_read_bmp>:
jinit_read_bmp():
/home/tenebris/Disk/Documents/RootCauseAnalysis/evaluation/test_bin/libjpeg/libjpeg_heap_buffer_overflow/libjpeg-turbo/rdbmp.c:661
 * The module selection routine for BMP format input.
 */

GLOBAL(cjpeg_source_ptr)
jinit_read_bmp(j_compress_ptr cinfo, boolean use_inversion_array)
{
    7fa0:	f3 0f 1e fa          	endbr64 
    7fa4:	55                   	push   %rbp
/home/tenebris/Disk/Documents/RootCauseAnalysis/evaluation/test_bin/libjpeg/libjpeg_heap_buffer_overflow/libjpeg-turbo/rdbmp.c:666
  bmp_source_ptr source;

  /* Create module interface object */
  source = (bmp_source_ptr)
    (*cinfo->mem->alloc_small) ((j_common_ptr)cinfo, JPOOL_IMAGE,
    7fa5:	ba 60 00 00 00       	mov    $0x60,%edx
/home/tenebris/Disk/Documents/RootCauseAnalysis/evaluation/test_bin/libjpeg/libjpeg_heap_buffer_overflow/libjpeg-turbo/rdbmp.c:661
{
    7faa:	89 f5                	mov    %esi,%ebp
/home/tenebris/Disk/Documents/RootCauseAnalysis/evaluation/test_bin/libjpeg/libjpeg_heap_buffer_overflow/libjpeg-turbo/rdbmp.c:666
    (*cinfo->mem->alloc_small) ((j_common_ptr)cinfo, JPOOL_IMAGE,
    7fac:	be 01 00 00 00       	mov    $0x1,%esi
/home/tenebris/Disk/Documents/RootCauseAnalysis/evaluation/test_bin/libjpeg/libjpeg_heap_buffer_overflow/libjpeg-turbo/rdbmp.c:661
{
    7fb1:	53                   	push   %rbx
    7fb2:	48 89 fb             	mov    %rdi,%rbx
    7fb5:	48 83 ec 08          	sub    $0x8,%rsp
/home/tenebris/Disk/Documents/RootCauseAnalysis/evaluation/test_bin/libjpeg/libjpeg_heap_buffer_overflow/libjpeg-turbo/rdbmp.c:666
    (*cinfo->mem->alloc_small) ((j_common_ptr)cinfo, JPOOL_IMAGE,
    7fb9:	48 8b 47 08          	mov    0x8(%rdi),%rax
    7fbd:	ff 10                	call   *(%rax)
/home/tenebris/Disk/Documents/RootCauseAnalysis/evaluation/test_bin/libjpeg/libjpeg_heap_buffer_overflow/libjpeg-turbo/rdbmp.c:670
                                sizeof(bmp_source_struct));
  source->cinfo = cinfo;        /* make back link for subroutines */
  /* Fill in method ptrs, except get_pixel_rows which start_input sets */
  source->pub.start_input = start_input_bmp;
    7fbf:	48 8d 0d ca f3 ff ff 	lea    -0xc36(%rip),%rcx        # 7390 <start_input_bmp>
/home/tenebris/Disk/Documents/RootCauseAnalysis/evaluation/test_bin/libjpeg/libjpeg_heap_buffer_overflow/libjpeg-turbo/rdbmp.c:671
  source->pub.finish_input = finish_input_bmp;
    7fc6:	48 8d 15 83 e7 ff ff 	lea    -0x187d(%rip),%rdx        # 6750 <finish_input_bmp>
/home/tenebris/Disk/Documents/RootCauseAnalysis/evaluation/test_bin/libjpeg/libjpeg_heap_buffer_overflow/libjpeg-turbo/rdbmp.c:668
  source->cinfo = cinfo;        /* make back link for subroutines */
    7fcd:	48 89 58 30          	mov    %rbx,0x30(%rax)
/home/tenebris/Disk/Documents/RootCauseAnalysis/evaluation/test_bin/libjpeg/libjpeg_heap_buffer_overflow/libjpeg-turbo/rdbmp.c:670
  source->pub.start_input = start_input_bmp;
    7fd1:	48 89 08             	mov    %rcx,(%rax)
/home/tenebris/Disk/Documents/RootCauseAnalysis/evaluation/test_bin/libjpeg/libjpeg_heap_buffer_overflow/libjpeg-turbo/rdbmp.c:671
  source->pub.finish_input = finish_input_bmp;
    7fd4:	48 89 50 10          	mov    %rdx,0x10(%rax)
/home/tenebris/Disk/Documents/RootCauseAnalysis/evaluation/test_bin/libjpeg/libjpeg_heap_buffer_overflow/libjpeg-turbo/rdbmp.c:673

  source->use_inversion_array = use_inversion_array;
    7fd8:	89 68 54             	mov    %ebp,0x54(%rax)
/home/tenebris/Disk/Documents/RootCauseAnalysis/evaluation/test_bin/libjpeg/libjpeg_heap_buffer_overflow/libjpeg-turbo/rdbmp.c:676

  return (cjpeg_source_ptr)source;
}
    7fdb:	48 83 c4 08          	add    $0x8,%rsp
    7fdf:	5b                   	pop    %rbx
    7fe0:	5d                   	pop    %rbp
    7fe1:	c3                   	ret    
    7fe2:	66 2e 0f 1f 84 00 00 	cs nopw 0x0(%rax,%rax,1)
    7fe9:	00 00 00 
    7fec:	0f 1f 40 00          	nopl   0x0(%rax)

0000000000007ff0 <get_8bit_gray_row>:
get_8bit_gray_row():
/home/tenebris/Disk/Documents/RootCauseAnalysis/evaluation/test_bin/libjpeg/libjpeg_heap_buffer_overflow/libjpeg-turbo/rdtarga.c:177


METHODDEF(JDIMENSION)
get_8bit_gray_row(j_compress_ptr cinfo, cjpeg_source_ptr sinfo)
/* This version is for reading 8-bit grayscale pixels */
{
    7ff0:	f3 0f 1e fa          	endbr64 
    7ff4:	41 54                	push   %r12
/home/tenebris/Disk/Documents/RootCauseAnalysis/evaluation/test_bin/libjpeg/libjpeg_heap_buffer_overflow/libjpeg-turbo/rdtarga.c:182
  tga_source_ptr source = (tga_source_ptr)sinfo;
  register JSAMPROW ptr;
  register JDIMENSION col;

  ptr = source->pub.buffer[0];
    7ff6:	48 8b 46 20          	mov    0x20(%rsi),%rax
/home/tenebris/Disk/Documents/RootCauseAnalysis/evaluation/test_bin/libjpeg/libjpeg_heap_buffer_overflow/libjpeg-turbo/rdtarga.c:177
{
    7ffa:	55                   	push   %rbp
    7ffb:	53                   	push   %rbx
/home/tenebris/Disk/Documents/RootCauseAnalysis/evaluation/test_bin/libjpeg/libjpeg_heap_buffer_overflow/libjpeg-turbo/rdtarga.c:183
  for (col = cinfo->image_width; col > 0; col--) {
    7ffc:	44 8b 67 30          	mov    0x30(%rdi),%r12d
/home/tenebris/Disk/Documents/RootCauseAnalysis/evaluation/test_bin/libjpeg/libjpeg_heap_buffer_overflow/libjpeg-turbo/rdtarga.c:182
  ptr = source->pub.buffer[0];
    8000:	48 8b 18             	mov    (%rax),%rbx
/home/tenebris/Disk/Documents/RootCauseAnalysis/evaluation/test_bin/libjpeg/libjpeg_heap_buffer_overflow/libjpeg-turbo/rdtarga.c:183
  for (col = cinfo->image_width; col > 0; col--) {
    8003:	45 85 e4             	test   %r12d,%r12d
    8006:	74 1e                	je     8026 <get_8bit_gray_row+0x36>
    8008:	48 89 f5             	mov    %rsi,%rbp
    800b:	49 01 dc             	add    %rbx,%r12
    800e:	66 90                	xchg   %ax,%ax
/home/tenebris/Disk/Documents/RootCauseAnalysis/evaluation/test_bin/libjpeg/libjpeg_heap_buffer_overflow/libjpeg-turbo/rdtarga.c:184 (discriminator 3)
    (*source->read_pixel) (source); /* Load next pixel into tga_pixel */
    8010:	48 89 ef             	mov    %rbp,%rdi
/home/tenebris/Disk/Documents/RootCauseAnalysis/evaluation/test_bin/libjpeg/libjpeg_heap_buffer_overflow/libjpeg-turbo/rdtarga.c:185 (discriminator 3)
    *ptr++ = (JSAMPLE)UCH(source->tga_pixel[0]);
    8013:	48 83 c3 01          	add    $0x1,%rbx
/home/tenebris/Disk/Documents/RootCauseAnalysis/evaluation/test_bin/libjpeg/libjpeg_heap_buffer_overflow/libjpeg-turbo/rdtarga.c:184 (discriminator 3)
    (*source->read_pixel) (source); /* Load next pixel into tga_pixel */
    8017:	ff 55 50             	call   *0x50(%rbp)
/home/tenebris/Disk/Documents/RootCauseAnalysis/evaluation/test_bin/libjpeg/libjpeg_heap_buffer_overflow/libjpeg-turbo/rdtarga.c:185 (discriminator 3)
    *ptr++ = (JSAMPLE)UCH(source->tga_pixel[0]);
    801a:	0f b6 45 58          	movzbl 0x58(%rbp),%eax
    801e:	88 43 ff             	mov    %al,-0x1(%rbx)
/home/tenebris/Disk/Documents/RootCauseAnalysis/evaluation/test_bin/libjpeg/libjpeg_heap_buffer_overflow/libjpeg-turbo/rdtarga.c:183 (discriminator 3)
  for (col = cinfo->image_width; col > 0; col--) {
    8021:	4c 39 e3             	cmp    %r12,%rbx
    8024:	75 ea                	jne    8010 <get_8bit_gray_row+0x20>
/home/tenebris/Disk/Documents/RootCauseAnalysis/evaluation/test_bin/libjpeg/libjpeg_heap_buffer_overflow/libjpeg-turbo/rdtarga.c:188
  }
  return 1;
}
    8026:	5b                   	pop    %rbx
    8027:	b8 01 00 00 00       	mov    $0x1,%eax
    802c:	5d                   	pop    %rbp
    802d:	41 5c                	pop    %r12
    802f:	c3                   	ret    

0000000000008030 <get_8bit_row>:
get_8bit_row():
/home/tenebris/Disk/Documents/RootCauseAnalysis/evaluation/test_bin/libjpeg/libjpeg_heap_buffer_overflow/libjpeg-turbo/rdtarga.c:193

METHODDEF(JDIMENSION)
get_8bit_row(j_compress_ptr cinfo, cjpeg_source_ptr sinfo)
/* This version is for reading 8-bit colormap indexes */
{
    8030:	f3 0f 1e fa          	endbr64 
    8034:	41 55                	push   %r13
    8036:	41 54                	push   %r12
    8038:	55                   	push   %rbp
    8039:	53                   	push   %rbx
    803a:	48 83 ec 08          	sub    $0x8,%rsp
/home/tenebris/Disk/Documents/RootCauseAnalysis/evaluation/test_bin/libjpeg/libjpeg_heap_buffer_overflow/libjpeg-turbo/rdtarga.c:200
  register int t;
  register JSAMPROW ptr;
  register JDIMENSION col;
  register JSAMPARRAY colormap = source->colormap;

  ptr = source->pub.buffer[0];
    803e:	48 8b 46 20          	mov    0x20(%rsi),%rax
/home/tenebris/Disk/Documents/RootCauseAnalysis/evaluation/test_bin/libjpeg/libjpeg_heap_buffer_overflow/libjpeg-turbo/rdtarga.c:198
  register JSAMPARRAY colormap = source->colormap;
    8042:	4c 8b 66 38          	mov    0x38(%rsi),%r12
/home/tenebris/Disk/Documents/RootCauseAnalysis/evaluation/test_bin/libjpeg/libjpeg_heap_buffer_overflow/libjpeg-turbo/rdtarga.c:200
  ptr = source->pub.buffer[0];
    8046:	48 8b 18             	mov    (%rax),%rbx
/home/tenebris/Disk/Documents/RootCauseAnalysis/evaluation/test_bin/libjpeg/libjpeg_heap_buffer_overflow/libjpeg-turbo/rdtarga.c:201
  for (col = cinfo->image_width; col > 0; col--) {
    8049:	8b 47 30             	mov    0x30(%rdi),%eax
    804c:	85 c0                	test   %eax,%eax
    804e:	74 46                	je     8096 <get_8bit_row+0x66>
    8050:	4c 8d 2c 40          	lea    (%rax,%rax,2),%r13
    8054:	48 89 f5             	mov    %rsi,%rbp
    8057:	49 01 dd             	add    %rbx,%r13
    805a:	66 0f 1f 44 00 00    	nopw   0x0(%rax,%rax,1)
/home/tenebris/Disk/Documents/RootCauseAnalysis/evaluation/test_bin/libjpeg/libjpeg_heap_buffer_overflow/libjpeg-turbo/rdtarga.c:202 (discriminator 3)
    (*source->read_pixel) (source); /* Load next pixel into tga_pixel */
    8060:	48 89 ef             	mov    %rbp,%rdi
    8063:	48 83 c3 03          	add    $0x3,%rbx
    8067:	ff 55 50             	call   *0x50(%rbp)
/home/tenebris/Disk/Documents/RootCauseAnalysis/evaluation/test_bin/libjpeg/libjpeg_heap_buffer_overflow/libjpeg-turbo/rdtarga.c:204 (discriminator 3)
    t = UCH(source->tga_pixel[0]);
    *ptr++ = colormap[0][t];
    806a:	0f b6 45 58          	movzbl 0x58(%rbp),%eax
    806e:	49 8b 14 24          	mov    (%r12),%rdx
    8072:	0f b6 14 02          	movzbl (%rdx,%rax,1),%edx
    8076:	88 53 fd             	mov    %dl,-0x3(%rbx)
/home/tenebris/Disk/Documents/RootCauseAnalysis/evaluation/test_bin/libjpeg/libjpeg_heap_buffer_overflow/libjpeg-turbo/rdtarga.c:205 (discriminator 3)
    *ptr++ = colormap[1][t];
    8079:	49 8b 54 24 08       	mov    0x8(%r12),%rdx
    807e:	0f b6 14 02          	movzbl (%rdx,%rax,1),%edx
    8082:	88 53 fe             	mov    %dl,-0x2(%rbx)
/home/tenebris/Disk/Documents/RootCauseAnalysis/evaluation/test_bin/libjpeg/libjpeg_heap_buffer_overflow/libjpeg-turbo/rdtarga.c:206 (discriminator 3)
    *ptr++ = colormap[2][t];
    8085:	49 8b 54 24 10       	mov    0x10(%r12),%rdx
    808a:	0f b6 04 02          	movzbl (%rdx,%rax,1),%eax
    808e:	88 43 ff             	mov    %al,-0x1(%rbx)
/home/tenebris/Disk/Documents/RootCauseAnalysis/evaluation/test_bin/libjpeg/libjpeg_heap_buffer_overflow/libjpeg-turbo/rdtarga.c:201 (discriminator 3)
  for (col = cinfo->image_width; col > 0; col--) {
    8091:	49 39 dd             	cmp    %rbx,%r13
    8094:	75 ca                	jne    8060 <get_8bit_row+0x30>
/home/tenebris/Disk/Documents/RootCauseAnalysis/evaluation/test_bin/libjpeg/libjpeg_heap_buffer_overflow/libjpeg-turbo/rdtarga.c:209
  }
  return 1;
}
    8096:	48 83 c4 08          	add    $0x8,%rsp
    809a:	b8 01 00 00 00       	mov    $0x1,%eax
    809f:	5b                   	pop    %rbx
    80a0:	5d                   	pop    %rbp
    80a1:	41 5c                	pop    %r12
    80a3:	41 5d                	pop    %r13
    80a5:	c3                   	ret    
    80a6:	66 2e 0f 1f 84 00 00 	cs nopw 0x0(%rax,%rax,1)
    80ad:	00 00 00 

00000000000080b0 <get_16bit_row>:
get_16bit_row():
/home/tenebris/Disk/Documents/RootCauseAnalysis/evaluation/test_bin/libjpeg/libjpeg_heap_buffer_overflow/libjpeg-turbo/rdtarga.c:214

METHODDEF(JDIMENSION)
get_16bit_row(j_compress_ptr cinfo, cjpeg_source_ptr sinfo)
/* This version is for reading 16-bit pixels */
{
    80b0:	f3 0f 1e fa          	endbr64 
    80b4:	41 55                	push   %r13
    80b6:	41 54                	push   %r12
    80b8:	55                   	push   %rbp
    80b9:	53                   	push   %rbx
    80ba:	48 83 ec 08          	sub    $0x8,%rsp
/home/tenebris/Disk/Documents/RootCauseAnalysis/evaluation/test_bin/libjpeg/libjpeg_heap_buffer_overflow/libjpeg-turbo/rdtarga.c:220
  tga_source_ptr source = (tga_source_ptr)sinfo;
  register int t;
  register JSAMPROW ptr;
  register JDIMENSION col;

  ptr = source->pub.buffer[0];
    80be:	48 8b 46 20          	mov    0x20(%rsi),%rax
    80c2:	48 8b 18             	mov    (%rax),%rbx
/home/tenebris/Disk/Documents/RootCauseAnalysis/evaluation/test_bin/libjpeg/libjpeg_heap_buffer_overflow/libjpeg-turbo/rdtarga.c:221
  for (col = cinfo->image_width; col > 0; col--) {
    80c5:	8b 47 30             	mov    0x30(%rdi),%eax
    80c8:	85 c0                	test   %eax,%eax
    80ca:	74 62                	je     812e <get_16bit_row+0x7e>
    80cc:	48 8d 2c 40          	lea    (%rax,%rax,2),%rbp
    80d0:	49 89 f4             	mov    %rsi,%r12
    80d3:	4c 8d 2d a6 26 00 00 	lea    0x26a6(%rip),%r13        # a780 <c5to8bits>
    80da:	48 01 dd             	add    %rbx,%rbp
    80dd:	0f 1f 00             	nopl   (%rax)
/home/tenebris/Disk/Documents/RootCauseAnalysis/evaluation/test_bin/libjpeg/libjpeg_heap_buffer_overflow/libjpeg-turbo/rdtarga.c:222 (discriminator 3)
    (*source->read_pixel) (source); /* Load next pixel into tga_pixel */
    80e0:	4c 89 e7             	mov    %r12,%rdi
/home/tenebris/Disk/Documents/RootCauseAnalysis/evaluation/test_bin/libjpeg/libjpeg_heap_buffer_overflow/libjpeg-turbo/rdtarga.c:234 (discriminator 3)
    ptr[2] = (JSAMPLE)c5to8bits[t & 0x1F];
    t >>= 5;
    ptr[1] = (JSAMPLE)c5to8bits[t & 0x1F];
    t >>= 5;
    ptr[0] = (JSAMPLE)c5to8bits[t & 0x1F];
    ptr += 3;
    80e3:	48 83 c3 03          	add    $0x3,%rbx
/home/tenebris/Disk/Documents/RootCauseAnalysis/evaluation/test_bin/libjpeg/libjpeg_heap_buffer_overflow/libjpeg-turbo/rdtarga.c:222 (discriminator 3)
    (*source->read_pixel) (source); /* Load next pixel into tga_pixel */
    80e7:	41 ff 54 24 50       	call   *0x50(%r12)
/home/tenebris/Disk/Documents/RootCauseAnalysis/evaluation/test_bin/libjpeg/libjpeg_heap_buffer_overflow/libjpeg-turbo/rdtarga.c:224 (discriminator 3)
    t += UCH(source->tga_pixel[1]) << 8;
    80ec:	41 0f b6 44 24 59    	movzbl 0x59(%r12),%eax
/home/tenebris/Disk/Documents/RootCauseAnalysis/evaluation/test_bin/libjpeg/libjpeg_heap_buffer_overflow/libjpeg-turbo/rdtarga.c:223 (discriminator 3)
    t = UCH(source->tga_pixel[0]);
    80f2:	41 0f b6 54 24 58    	movzbl 0x58(%r12),%edx
/home/tenebris/Disk/Documents/RootCauseAnalysis/evaluation/test_bin/libjpeg/libjpeg_heap_buffer_overflow/libjpeg-turbo/rdtarga.c:224 (discriminator 3)
    t += UCH(source->tga_pixel[1]) << 8;
    80f8:	c1 e0 08             	shl    $0x8,%eax
    80fb:	01 d0                	add    %edx,%eax
/home/tenebris/Disk/Documents/RootCauseAnalysis/evaluation/test_bin/libjpeg/libjpeg_heap_buffer_overflow/libjpeg-turbo/rdtarga.c:229 (discriminator 3)
    ptr[2] = (JSAMPLE)c5to8bits[t & 0x1F];
    80fd:	83 e2 1f             	and    $0x1f,%edx
    8100:	41 0f b6 54 15 00    	movzbl 0x0(%r13,%rdx,1),%edx
    8106:	88 53 ff             	mov    %dl,-0x1(%rbx)
/home/tenebris/Disk/Documents/RootCauseAnalysis/evaluation/test_bin/libjpeg/libjpeg_heap_buffer_overflow/libjpeg-turbo/rdtarga.c:230 (discriminator 3)
    t >>= 5;
    8109:	89 c2                	mov    %eax,%edx
/home/tenebris/Disk/Documents/RootCauseAnalysis/evaluation/test_bin/libjpeg/libjpeg_heap_buffer_overflow/libjpeg-turbo/rdtarga.c:232 (discriminator 3)
    t >>= 5;
    810b:	c1 f8 0a             	sar    $0xa,%eax
/home/tenebris/Disk/Documents/RootCauseAnalysis/evaluation/test_bin/libjpeg/libjpeg_heap_buffer_overflow/libjpeg-turbo/rdtarga.c:230 (discriminator 3)
    t >>= 5;
    810e:	c1 fa 05             	sar    $0x5,%edx
/home/tenebris/Disk/Documents/RootCauseAnalysis/evaluation/test_bin/libjpeg/libjpeg_heap_buffer_overflow/libjpeg-turbo/rdtarga.c:233 (discriminator 3)
    ptr[0] = (JSAMPLE)c5to8bits[t & 0x1F];
    8111:	83 e0 1f             	and    $0x1f,%eax
/home/tenebris/Disk/Documents/RootCauseAnalysis/evaluation/test_bin/libjpeg/libjpeg_heap_buffer_overflow/libjpeg-turbo/rdtarga.c:231 (discriminator 3)
    ptr[1] = (JSAMPLE)c5to8bits[t & 0x1F];
    8114:	83 e2 1f             	and    $0x1f,%edx
/home/tenebris/Disk/Documents/RootCauseAnalysis/evaluation/test_bin/libjpeg/libjpeg_heap_buffer_overflow/libjpeg-turbo/rdtarga.c:233 (discriminator 3)
    ptr[0] = (JSAMPLE)c5to8bits[t & 0x1F];
    8117:	41 0f b6 44 05 00    	movzbl 0x0(%r13,%rax,1),%eax
/home/tenebris/Disk/Documents/RootCauseAnalysis/evaluation/test_bin/libjpeg/libjpeg_heap_buffer_overflow/libjpeg-turbo/rdtarga.c:231 (discriminator 3)
    ptr[1] = (JSAMPLE)c5to8bits[t & 0x1F];
    811d:	41 0f b6 54 15 00    	movzbl 0x0(%r13,%rdx,1),%edx
/home/tenebris/Disk/Documents/RootCauseAnalysis/evaluation/test_bin/libjpeg/libjpeg_heap_buffer_overflow/libjpeg-turbo/rdtarga.c:233 (discriminator 3)
    ptr[0] = (JSAMPLE)c5to8bits[t & 0x1F];
    8123:	88 43 fd             	mov    %al,-0x3(%rbx)
/home/tenebris/Disk/Documents/RootCauseAnalysis/evaluation/test_bin/libjpeg/libjpeg_heap_buffer_overflow/libjpeg-turbo/rdtarga.c:231 (discriminator 3)
    ptr[1] = (JSAMPLE)c5to8bits[t & 0x1F];
    8126:	88 53 fe             	mov    %dl,-0x2(%rbx)
/home/tenebris/Disk/Documents/RootCauseAnalysis/evaluation/test_bin/libjpeg/libjpeg_heap_buffer_overflow/libjpeg-turbo/rdtarga.c:221 (discriminator 3)
  for (col = cinfo->image_width; col > 0; col--) {
    8129:	48 39 eb             	cmp    %rbp,%rbx
    812c:	75 b2                	jne    80e0 <get_16bit_row+0x30>
/home/tenebris/Disk/Documents/RootCauseAnalysis/evaluation/test_bin/libjpeg/libjpeg_heap_buffer_overflow/libjpeg-turbo/rdtarga.c:237
  }
  return 1;
}
    812e:	48 83 c4 08          	add    $0x8,%rsp
    8132:	b8 01 00 00 00       	mov    $0x1,%eax
    8137:	5b                   	pop    %rbx
    8138:	5d                   	pop    %rbp
    8139:	41 5c                	pop    %r12
    813b:	41 5d                	pop    %r13
    813d:	c3                   	ret    
    813e:	66 90                	xchg   %ax,%ax

0000000000008140 <get_24bit_row>:
get_24bit_row():
/home/tenebris/Disk/Documents/RootCauseAnalysis/evaluation/test_bin/libjpeg/libjpeg_heap_buffer_overflow/libjpeg-turbo/rdtarga.c:242

METHODDEF(JDIMENSION)
get_24bit_row(j_compress_ptr cinfo, cjpeg_source_ptr sinfo)
/* This version is for reading 24-bit pixels */
{
    8140:	f3 0f 1e fa          	endbr64 
/home/tenebris/Disk/Documents/RootCauseAnalysis/evaluation/test_bin/libjpeg/libjpeg_heap_buffer_overflow/libjpeg-turbo/rdtarga.c:247
  tga_source_ptr source = (tga_source_ptr)sinfo;
  register JSAMPROW ptr;
  register JDIMENSION col;

  ptr = source->pub.buffer[0];
    8144:	48 8b 46 20          	mov    0x20(%rsi),%rax
/home/tenebris/Disk/Documents/RootCauseAnalysis/evaluation/test_bin/libjpeg/libjpeg_heap_buffer_overflow/libjpeg-turbo/rdtarga.c:242
{
    8148:	41 54                	push   %r12
    814a:	55                   	push   %rbp
    814b:	53                   	push   %rbx
/home/tenebris/Disk/Documents/RootCauseAnalysis/evaluation/test_bin/libjpeg/libjpeg_heap_buffer_overflow/libjpeg-turbo/rdtarga.c:247
  ptr = source->pub.buffer[0];
    814c:	48 8b 18             	mov    (%rax),%rbx
/home/tenebris/Disk/Documents/RootCauseAnalysis/evaluation/test_bin/libjpeg/libjpeg_heap_buffer_overflow/libjpeg-turbo/rdtarga.c:248
  for (col = cinfo->image_width; col > 0; col--) {
    814f:	8b 47 30             	mov    0x30(%rdi),%eax
    8152:	85 c0                	test   %eax,%eax
    8154:	74 2e                	je     8184 <get_24bit_row+0x44>
    8156:	4c 8d 24 40          	lea    (%rax,%rax,2),%r12
    815a:	48 89 f5             	mov    %rsi,%rbp
    815d:	49 01 dc             	add    %rbx,%r12
/home/tenebris/Disk/Documents/RootCauseAnalysis/evaluation/test_bin/libjpeg/libjpeg_heap_buffer_overflow/libjpeg-turbo/rdtarga.c:249 (discriminator 3)
    (*source->read_pixel) (source); /* Load next pixel into tga_pixel */
    8160:	48 89 ef             	mov    %rbp,%rdi
    8163:	48 83 c3 03          	add    $0x3,%rbx
    8167:	ff 55 50             	call   *0x50(%rbp)
/home/tenebris/Disk/Documents/RootCauseAnalysis/evaluation/test_bin/libjpeg/libjpeg_heap_buffer_overflow/libjpeg-turbo/rdtarga.c:250 (discriminator 3)
    *ptr++ = (JSAMPLE)UCH(source->tga_pixel[2]); /* change BGR to RGB order */
    816a:	0f b6 45 5a          	movzbl 0x5a(%rbp),%eax
    816e:	88 43 fd             	mov    %al,-0x3(%rbx)
/home/tenebris/Disk/Documents/RootCauseAnalysis/evaluation/test_bin/libjpeg/libjpeg_heap_buffer_overflow/libjpeg-turbo/rdtarga.c:251 (discriminator 3)
    *ptr++ = (JSAMPLE)UCH(source->tga_pixel[1]);
    8171:	0f b6 45 59          	movzbl 0x59(%rbp),%eax
    8175:	88 43 fe             	mov    %al,-0x2(%rbx)
/home/tenebris/Disk/Documents/RootCauseAnalysis/evaluation/test_bin/libjpeg/libjpeg_heap_buffer_overflow/libjpeg-turbo/rdtarga.c:252 (discriminator 3)
    *ptr++ = (JSAMPLE)UCH(source->tga_pixel[0]);
    8178:	0f b6 45 58          	movzbl 0x58(%rbp),%eax
    817c:	88 43 ff             	mov    %al,-0x1(%rbx)
/home/tenebris/Disk/Documents/RootCauseAnalysis/evaluation/test_bin/libjpeg/libjpeg_heap_buffer_overflow/libjpeg-turbo/rdtarga.c:248 (discriminator 3)
  for (col = cinfo->image_width; col > 0; col--) {
    817f:	49 39 dc             	cmp    %rbx,%r12
    8182:	75 dc                	jne    8160 <get_24bit_row+0x20>
/home/tenebris/Disk/Documents/RootCauseAnalysis/evaluation/test_bin/libjpeg/libjpeg_heap_buffer_overflow/libjpeg-turbo/rdtarga.c:255
  }
  return 1;
}
    8184:	5b                   	pop    %rbx
    8185:	b8 01 00 00 00       	mov    $0x1,%eax
    818a:	5d                   	pop    %rbp
    818b:	41 5c                	pop    %r12
    818d:	c3                   	ret    
    818e:	66 90                	xchg   %ax,%ax

0000000000008190 <get_memory_row>:
get_memory_row():
/home/tenebris/Disk/Documents/RootCauseAnalysis/evaluation/test_bin/libjpeg/libjpeg_heap_buffer_overflow/libjpeg-turbo/rdtarga.c:275
 * with proper conversion of pixel format, but it's in a funny row order.
 */

METHODDEF(JDIMENSION)
get_memory_row(j_compress_ptr cinfo, cjpeg_source_ptr sinfo)
{
    8190:	f3 0f 1e fa          	endbr64 
/home/tenebris/Disk/Documents/RootCauseAnalysis/evaluation/test_bin/libjpeg/libjpeg_heap_buffer_overflow/libjpeg-turbo/rdtarga.c:282
  JDIMENSION source_row;

  /* Compute row of source that maps to current_row of normal order */
  /* For now, assume image is bottom-up and not interlaced. */
  /* NEEDS WORK to support interlaced images! */
  source_row = cinfo->image_height - source->current_row - 1;
    8194:	8b 47 34             	mov    0x34(%rdi),%eax
/home/tenebris/Disk/Documents/RootCauseAnalysis/evaluation/test_bin/libjpeg/libjpeg_heap_buffer_overflow/libjpeg-turbo/rdtarga.c:275
{
    8197:	53                   	push   %rbx
/home/tenebris/Disk/Documents/RootCauseAnalysis/evaluation/test_bin/libjpeg/libjpeg_heap_buffer_overflow/libjpeg-turbo/rdtarga.c:285

  /* Fetch that row from virtual array */
  source->pub.buffer = (*cinfo->mem->access_virt_sarray)
    8198:	45 31 c0             	xor    %r8d,%r8d
/home/tenebris/Disk/Documents/RootCauseAnalysis/evaluation/test_bin/libjpeg/libjpeg_heap_buffer_overflow/libjpeg-turbo/rdtarga.c:275
{
    819b:	48 89 f3             	mov    %rsi,%rbx
/home/tenebris/Disk/Documents/RootCauseAnalysis/evaluation/test_bin/libjpeg/libjpeg_heap_buffer_overflow/libjpeg-turbo/rdtarga.c:285
  source->pub.buffer = (*cinfo->mem->access_virt_sarray)
    819e:	b9 01 00 00 00       	mov    $0x1,%ecx
/home/tenebris/Disk/Documents/RootCauseAnalysis/evaluation/test_bin/libjpeg/libjpeg_heap_buffer_overflow/libjpeg-turbo/rdtarga.c:282
  source_row = cinfo->image_height - source->current_row - 1;
    81a3:	8d 50 ff             	lea    -0x1(%rax),%edx
/home/tenebris/Disk/Documents/RootCauseAnalysis/evaluation/test_bin/libjpeg/libjpeg_heap_buffer_overflow/libjpeg-turbo/rdtarga.c:285
  source->pub.buffer = (*cinfo->mem->access_virt_sarray)
    81a6:	48 8b 47 08          	mov    0x8(%rdi),%rax
/home/tenebris/Disk/Documents/RootCauseAnalysis/evaluation/test_bin/libjpeg/libjpeg_heap_buffer_overflow/libjpeg-turbo/rdtarga.c:282
  source_row = cinfo->image_height - source->current_row - 1;
    81aa:	2b 56 48             	sub    0x48(%rsi),%edx
/home/tenebris/Disk/Documents/RootCauseAnalysis/evaluation/test_bin/libjpeg/libjpeg_heap_buffer_overflow/libjpeg-turbo/rdtarga.c:285
  source->pub.buffer = (*cinfo->mem->access_virt_sarray)
    81ad:	48 8b 76 40          	mov    0x40(%rsi),%rsi
    81b1:	ff 50 38             	call   *0x38(%rax)
/home/tenebris/Disk/Documents/RootCauseAnalysis/evaluation/test_bin/libjpeg/libjpeg_heap_buffer_overflow/libjpeg-turbo/rdtarga.c:289
    ((j_common_ptr)cinfo, source->whole_image,
     source_row, (JDIMENSION)1, FALSE);

  source->current_row++;
    81b4:	83 43 48 01          	addl   $0x1,0x48(%rbx)
/home/tenebris/Disk/Documents/RootCauseAnalysis/evaluation/test_bin/libjpeg/libjpeg_heap_buffer_overflow/libjpeg-turbo/rdtarga.c:285
  source->pub.buffer = (*cinfo->mem->access_virt_sarray)
    81b8:	48 89 43 20          	mov    %rax,0x20(%rbx)
/home/tenebris/Disk/Documents/RootCauseAnalysis/evaluation/test_bin/libjpeg/libjpeg_heap_buffer_overflow/libjpeg-turbo/rdtarga.c:291
  return 1;
}
    81bc:	b8 01 00 00 00       	mov    $0x1,%eax
    81c1:	5b                   	pop    %rbx
    81c2:	c3                   	ret    
    81c3:	66 66 2e 0f 1f 84 00 	data16 cs nopw 0x0(%rax,%rax,1)
    81ca:	00 00 00 00 
    81ce:	66 90                	xchg   %ax,%ax

00000000000081d0 <preload_image>:
preload_image():
/home/tenebris/Disk/Documents/RootCauseAnalysis/evaluation/test_bin/libjpeg/libjpeg_heap_buffer_overflow/libjpeg-turbo/rdtarga.c:302
 * get_memory_row on subsequent calls.
 */

METHODDEF(JDIMENSION)
preload_image(j_compress_ptr cinfo, cjpeg_source_ptr sinfo)
{
    81d0:	f3 0f 1e fa          	endbr64 
    81d4:	41 55                	push   %r13
    81d6:	41 54                	push   %r12
    81d8:	55                   	push   %rbp
    81d9:	48 89 fd             	mov    %rdi,%rbp
    81dc:	53                   	push   %rbx
    81dd:	48 89 f3             	mov    %rsi,%rbx
    81e0:	48 83 ec 08          	sub    $0x8,%rsp
/home/tenebris/Disk/Documents/RootCauseAnalysis/evaluation/test_bin/libjpeg/libjpeg_heap_buffer_overflow/libjpeg-turbo/rdtarga.c:308
  tga_source_ptr source = (tga_source_ptr)sinfo;
  JDIMENSION row;
  cd_progress_ptr progress = (cd_progress_ptr)cinfo->progress;

  /* Read the data into a virtual array in input-file row order. */
  for (row = 0; row < cinfo->image_height; row++) {
    81e4:	8b 57 34             	mov    0x34(%rdi),%edx
/home/tenebris/Disk/Documents/RootCauseAnalysis/evaluation/test_bin/libjpeg/libjpeg_heap_buffer_overflow/libjpeg-turbo/rdtarga.c:305
  cd_progress_ptr progress = (cd_progress_ptr)cinfo->progress;
    81e7:	4c 8b 67 10          	mov    0x10(%rdi),%r12
/home/tenebris/Disk/Documents/RootCauseAnalysis/evaluation/test_bin/libjpeg/libjpeg_heap_buffer_overflow/libjpeg-turbo/rdtarga.c:308
  for (row = 0; row < cinfo->image_height; row++) {
    81eb:	85 d2                	test   %edx,%edx
    81ed:	0f 84 ed 00 00 00    	je     82e0 <preload_image+0x110>
    81f3:	45 31 ed             	xor    %r13d,%r13d
    81f6:	4d 85 e4             	test   %r12,%r12
    81f9:	0f 84 a1 00 00 00    	je     82a0 <preload_image+0xd0>
    81ff:	90                   	nop
/home/tenebris/Disk/Documents/RootCauseAnalysis/evaluation/test_bin/libjpeg/libjpeg_heap_buffer_overflow/libjpeg-turbo/rdtarga.c:311
    if (progress != NULL) {
      progress->pub.pass_counter = (long)row;
      progress->pub.pass_limit = (long)cinfo->image_height;
    8200:	66 0f 6e c2          	movd   %edx,%xmm0
/home/tenebris/Disk/Documents/RootCauseAnalysis/evaluation/test_bin/libjpeg/libjpeg_heap_buffer_overflow/libjpeg-turbo/rdtarga.c:310
      progress->pub.pass_counter = (long)row;
    8204:	66 41 0f 6e cd       	movd   %r13d,%xmm1
/home/tenebris/Disk/Documents/RootCauseAnalysis/evaluation/test_bin/libjpeg/libjpeg_heap_buffer_overflow/libjpeg-turbo/rdtarga.c:312
      (*progress->pub.progress_monitor) ((j_common_ptr)cinfo);
    8209:	48 89 ef             	mov    %rbp,%rdi
/home/tenebris/Disk/Documents/RootCauseAnalysis/evaluation/test_bin/libjpeg/libjpeg_heap_buffer_overflow/libjpeg-turbo/rdtarga.c:310
      progress->pub.pass_counter = (long)row;
    820c:	66 0f 6c c8          	punpcklqdq %xmm0,%xmm1
    8210:	41 0f 11 4c 24 08    	movups %xmm1,0x8(%r12)
/home/tenebris/Disk/Documents/RootCauseAnalysis/evaluation/test_bin/libjpeg/libjpeg_heap_buffer_overflow/libjpeg-turbo/rdtarga.c:312
      (*progress->pub.progress_monitor) ((j_common_ptr)cinfo);
    8216:	41 ff 14 24          	call   *(%r12)
/home/tenebris/Disk/Documents/RootCauseAnalysis/evaluation/test_bin/libjpeg/libjpeg_heap_buffer_overflow/libjpeg-turbo/rdtarga.c:314
    }
    source->pub.buffer = (*cinfo->mem->access_virt_sarray)
    821a:	48 8b 45 08          	mov    0x8(%rbp),%rax
    821e:	44 89 ea             	mov    %r13d,%edx
    8221:	48 8b 73 40          	mov    0x40(%rbx),%rsi
    8225:	41 b8 01 00 00 00    	mov    $0x1,%r8d
    822b:	b9 01 00 00 00       	mov    $0x1,%ecx
    8230:	48 89 ef             	mov    %rbp,%rdi
/home/tenebris/Disk/Documents/RootCauseAnalysis/evaluation/test_bin/libjpeg/libjpeg_heap_buffer_overflow/libjpeg-turbo/rdtarga.c:308
  for (row = 0; row < cinfo->image_height; row++) {
    8233:	41 83 c5 01          	add    $0x1,%r13d
/home/tenebris/Disk/Documents/RootCauseAnalysis/evaluation/test_bin/libjpeg/libjpeg_heap_buffer_overflow/libjpeg-turbo/rdtarga.c:314
    source->pub.buffer = (*cinfo->mem->access_virt_sarray)
    8237:	ff 50 38             	call   *0x38(%rax)
/home/tenebris/Disk/Documents/RootCauseAnalysis/evaluation/test_bin/libjpeg/libjpeg_heap_buffer_overflow/libjpeg-turbo/rdtarga.c:316
      ((j_common_ptr)cinfo, source->whole_image, row, (JDIMENSION)1, TRUE);
    (*source->get_pixel_rows) (cinfo, sinfo);
    823a:	48 89 de             	mov    %rbx,%rsi
    823d:	48 89 ef             	mov    %rbp,%rdi
/home/tenebris/Disk/Documents/RootCauseAnalysis/evaluation/test_bin/libjpeg/libjpeg_heap_buffer_overflow/libjpeg-turbo/rdtarga.c:314
    source->pub.buffer = (*cinfo->mem->access_virt_sarray)
    8240:	48 89 43 20          	mov    %rax,0x20(%rbx)
/home/tenebris/Disk/Documents/RootCauseAnalysis/evaluation/test_bin/libjpeg/libjpeg_heap_buffer_overflow/libjpeg-turbo/rdtarga.c:316
    (*source->get_pixel_rows) (cinfo, sinfo);
    8244:	ff 53 68             	call   *0x68(%rbx)
/home/tenebris/Disk/Documents/RootCauseAnalysis/evaluation/test_bin/libjpeg/libjpeg_heap_buffer_overflow/libjpeg-turbo/rdtarga.c:308
  for (row = 0; row < cinfo->image_height; row++) {
    8247:	8b 55 34             	mov    0x34(%rbp),%edx
    824a:	44 39 ea             	cmp    %r13d,%edx
    824d:	77 b1                	ja     8200 <preload_image+0x30>
get_memory_row():
/home/tenebris/Disk/Documents/RootCauseAnalysis/evaluation/test_bin/libjpeg/libjpeg_heap_buffer_overflow/libjpeg-turbo/rdtarga.c:282
  source_row = cinfo->image_height - source->current_row - 1;
    824f:	83 ea 01             	sub    $0x1,%edx
preload_image():
/home/tenebris/Disk/Documents/RootCauseAnalysis/evaluation/test_bin/libjpeg/libjpeg_heap_buffer_overflow/libjpeg-turbo/rdtarga.c:318
  }
  if (progress != NULL)
    8252:	4d 85 e4             	test   %r12,%r12
    8255:	74 06                	je     825d <preload_image+0x8d>
/home/tenebris/Disk/Documents/RootCauseAnalysis/evaluation/test_bin/libjpeg/libjpeg_heap_buffer_overflow/libjpeg-turbo/rdtarga.c:319
    progress->completed_extra_passes++;
    8257:	41 83 44 24 20 01    	addl   $0x1,0x20(%r12)
get_memory_row():
/home/tenebris/Disk/Documents/RootCauseAnalysis/evaluation/test_bin/libjpeg/libjpeg_heap_buffer_overflow/libjpeg-turbo/rdtarga.c:285
  source->pub.buffer = (*cinfo->mem->access_virt_sarray)
    825d:	48 8b 73 40          	mov    0x40(%rbx),%rsi
    8261:	48 89 ef             	mov    %rbp,%rdi
    8264:	45 31 c0             	xor    %r8d,%r8d
    8267:	b9 01 00 00 00       	mov    $0x1,%ecx
preload_image():
/home/tenebris/Disk/Documents/RootCauseAnalysis/evaluation/test_bin/libjpeg/libjpeg_heap_buffer_overflow/libjpeg-turbo/rdtarga.c:322

  /* Set up to read from the virtual array in unscrambled order */
  source->pub.get_pixel_rows = get_memory_row;
    826c:	48 8d 05 1d ff ff ff 	lea    -0xe3(%rip),%rax        # 8190 <get_memory_row>
/home/tenebris/Disk/Documents/RootCauseAnalysis/evaluation/test_bin/libjpeg/libjpeg_heap_buffer_overflow/libjpeg-turbo/rdtarga.c:323
  source->current_row = 0;
    8273:	c7 43 48 00 00 00 00 	movl   $0x0,0x48(%rbx)
/home/tenebris/Disk/Documents/RootCauseAnalysis/evaluation/test_bin/libjpeg/libjpeg_heap_buffer_overflow/libjpeg-turbo/rdtarga.c:322
  source->pub.get_pixel_rows = get_memory_row;
    827a:	48 89 43 08          	mov    %rax,0x8(%rbx)
get_memory_row():
/home/tenebris/Disk/Documents/RootCauseAnalysis/evaluation/test_bin/libjpeg/libjpeg_heap_buffer_overflow/libjpeg-turbo/rdtarga.c:285
  source->pub.buffer = (*cinfo->mem->access_virt_sarray)
    827e:	48 8b 45 08          	mov    0x8(%rbp),%rax
    8282:	ff 50 38             	call   *0x38(%rax)
/home/tenebris/Disk/Documents/RootCauseAnalysis/evaluation/test_bin/libjpeg/libjpeg_heap_buffer_overflow/libjpeg-turbo/rdtarga.c:289
  source->current_row++;
    8285:	83 43 48 01          	addl   $0x1,0x48(%rbx)
/home/tenebris/Disk/Documents/RootCauseAnalysis/evaluation/test_bin/libjpeg/libjpeg_heap_buffer_overflow/libjpeg-turbo/rdtarga.c:285
  source->pub.buffer = (*cinfo->mem->access_virt_sarray)
    8289:	48 89 43 20          	mov    %rax,0x20(%rbx)
preload_image():
/home/tenebris/Disk/Documents/RootCauseAnalysis/evaluation/test_bin/libjpeg/libjpeg_heap_buffer_overflow/libjpeg-turbo/rdtarga.c:326
  /* And read the first row */
  return get_memory_row(cinfo, sinfo);
}
    828d:	48 83 c4 08          	add    $0x8,%rsp
    8291:	b8 01 00 00 00       	mov    $0x1,%eax
    8296:	5b                   	pop    %rbx
    8297:	5d                   	pop    %rbp
    8298:	41 5c                	pop    %r12
    829a:	41 5d                	pop    %r13
    829c:	c3                   	ret    
    829d:	0f 1f 00             	nopl   (%rax)
/home/tenebris/Disk/Documents/RootCauseAnalysis/evaluation/test_bin/libjpeg/libjpeg_heap_buffer_overflow/libjpeg-turbo/rdtarga.c:314
    source->pub.buffer = (*cinfo->mem->access_virt_sarray)
    82a0:	48 8b 45 08          	mov    0x8(%rbp),%rax
    82a4:	44 89 ea             	mov    %r13d,%edx
    82a7:	48 8b 73 40          	mov    0x40(%rbx),%rsi
    82ab:	b9 01 00 00 00       	mov    $0x1,%ecx
    82b0:	41 b8 01 00 00 00    	mov    $0x1,%r8d
    82b6:	48 89 ef             	mov    %rbp,%rdi
/home/tenebris/Disk/Documents/RootCauseAnalysis/evaluation/test_bin/libjpeg/libjpeg_heap_buffer_overflow/libjpeg-turbo/rdtarga.c:308
  for (row = 0; row < cinfo->image_height; row++) {
    82b9:	41 83 c5 01          	add    $0x1,%r13d
/home/tenebris/Disk/Documents/RootCauseAnalysis/evaluation/test_bin/libjpeg/libjpeg_heap_buffer_overflow/libjpeg-turbo/rdtarga.c:314
    source->pub.buffer = (*cinfo->mem->access_virt_sarray)
    82bd:	ff 50 38             	call   *0x38(%rax)
/home/tenebris/Disk/Documents/RootCauseAnalysis/evaluation/test_bin/libjpeg/libjpeg_heap_buffer_overflow/libjpeg-turbo/rdtarga.c:316
    (*source->get_pixel_rows) (cinfo, sinfo);
    82c0:	48 89 de             	mov    %rbx,%rsi
    82c3:	48 89 ef             	mov    %rbp,%rdi
/home/tenebris/Disk/Documents/RootCauseAnalysis/evaluation/test_bin/libjpeg/libjpeg_heap_buffer_overflow/libjpeg-turbo/rdtarga.c:314
    source->pub.buffer = (*cinfo->mem->access_virt_sarray)
    82c6:	48 89 43 20          	mov    %rax,0x20(%rbx)
/home/tenebris/Disk/Documents/RootCauseAnalysis/evaluation/test_bin/libjpeg/libjpeg_heap_buffer_overflow/libjpeg-turbo/rdtarga.c:316
    (*source->get_pixel_rows) (cinfo, sinfo);
    82ca:	ff 53 68             	call   *0x68(%rbx)
/home/tenebris/Disk/Documents/RootCauseAnalysis/evaluation/test_bin/libjpeg/libjpeg_heap_buffer_overflow/libjpeg-turbo/rdtarga.c:308
  for (row = 0; row < cinfo->image_height; row++) {
    82cd:	8b 55 34             	mov    0x34(%rbp),%edx
    82d0:	41 39 d5             	cmp    %edx,%r13d
    82d3:	72 cb                	jb     82a0 <preload_image+0xd0>
    82d5:	e9 75 ff ff ff       	jmp    824f <preload_image+0x7f>
    82da:	66 0f 1f 44 00 00    	nopw   0x0(%rax,%rax,1)
    82e0:	ba ff ff ff ff       	mov    $0xffffffff,%edx
    82e5:	e9 68 ff ff ff       	jmp    8252 <preload_image+0x82>
    82ea:	66 0f 1f 44 00 00    	nopw   0x0(%rax,%rax,1)

00000000000082f0 <finish_input_tga>:
finish_input_tga():
/home/tenebris/Disk/Documents/RootCauseAnalysis/evaluation/test_bin/libjpeg/libjpeg_heap_buffer_overflow/libjpeg-turbo/rdtarga.c:476
 * Finish up at the end of the file.
 */

METHODDEF(void)
finish_input_tga(j_compress_ptr cinfo, cjpeg_source_ptr sinfo)
{
    82f0:	f3 0f 1e fa          	endbr64 
/home/tenebris/Disk/Documents/RootCauseAnalysis/evaluation/test_bin/libjpeg/libjpeg_heap_buffer_overflow/libjpeg-turbo/rdtarga.c:478
  /* no work */
}
    82f4:	c3                   	ret    
    82f5:	66 66 2e 0f 1f 84 00 	data16 cs nopw 0x0(%rax,%rax,1)
    82fc:	00 00 00 00 

0000000000008300 <read_non_rle_pixel>:
read_non_rle_pixel():
/home/tenebris/Disk/Documents/RootCauseAnalysis/evaluation/test_bin/libjpeg/libjpeg_heap_buffer_overflow/libjpeg-turbo/rdtarga.c:128
{
    8300:	f3 0f 1e fa          	endbr64 
/home/tenebris/Disk/Documents/RootCauseAnalysis/evaluation/test_bin/libjpeg/libjpeg_heap_buffer_overflow/libjpeg-turbo/rdtarga.c:131
  for (i = 0; i < sinfo->pixel_size; i++) {
    8304:	8b 47 5c             	mov    0x5c(%rdi),%eax
    8307:	85 c0                	test   %eax,%eax
    8309:	7e 5d                	jle    8368 <read_non_rle_pixel+0x68>
/home/tenebris/Disk/Documents/RootCauseAnalysis/evaluation/test_bin/libjpeg/libjpeg_heap_buffer_overflow/libjpeg-turbo/rdtarga.c:128
{
    830b:	55                   	push   %rbp
/home/tenebris/Disk/Documents/RootCauseAnalysis/evaluation/test_bin/libjpeg/libjpeg_heap_buffer_overflow/libjpeg-turbo/rdtarga.c:131
  for (i = 0; i < sinfo->pixel_size; i++) {
    830c:	31 ed                	xor    %ebp,%ebp
/home/tenebris/Disk/Documents/RootCauseAnalysis/evaluation/test_bin/libjpeg/libjpeg_heap_buffer_overflow/libjpeg-turbo/rdtarga.c:128
{
    830e:	53                   	push   %rbx
    830f:	48 89 fb             	mov    %rdi,%rbx
    8312:	48 83 ec 08          	sub    $0x8,%rsp
read_byte():
/home/tenebris/Disk/Documents/RootCauseAnalysis/evaluation/test_bin/libjpeg/libjpeg_heap_buffer_overflow/libjpeg-turbo/rdtarga.c:97
  if ((c = getc(infile)) == EOF)
    8316:	48 8b 7b 18          	mov    0x18(%rbx),%rdi
    831a:	e8 31 a1 ff ff       	call   2450 <getc@plt>
    831f:	83 f8 ff             	cmp    $0xffffffff,%eax
    8322:	74 1c                	je     8340 <read_non_rle_pixel+0x40>
read_non_rle_pixel():
/home/tenebris/Disk/Documents/RootCauseAnalysis/evaluation/test_bin/libjpeg/libjpeg_heap_buffer_overflow/libjpeg-turbo/rdtarga.c:132
    sinfo->tga_pixel[i] = (U_CHAR)read_byte(sinfo);
    8324:	88 44 2b 58          	mov    %al,0x58(%rbx,%rbp,1)
/home/tenebris/Disk/Documents/RootCauseAnalysis/evaluation/test_bin/libjpeg/libjpeg_heap_buffer_overflow/libjpeg-turbo/rdtarga.c:131
  for (i = 0; i < sinfo->pixel_size; i++) {
    8328:	48 83 c5 01          	add    $0x1,%rbp
    832c:	39 6b 5c             	cmp    %ebp,0x5c(%rbx)
    832f:	7f e5                	jg     8316 <read_non_rle_pixel+0x16>
/home/tenebris/Disk/Documents/RootCauseAnalysis/evaluation/test_bin/libjpeg/libjpeg_heap_buffer_overflow/libjpeg-turbo/rdtarga.c:134
}
    8331:	48 83 c4 08          	add    $0x8,%rsp
    8335:	5b                   	pop    %rbx
    8336:	5d                   	pop    %rbp
    8337:	c3                   	ret    
    8338:	0f 1f 84 00 00 00 00 	nopl   0x0(%rax,%rax,1)
    833f:	00 
    8340:	48 8b 7b 30          	mov    0x30(%rbx),%rdi
read_byte():
/home/tenebris/Disk/Documents/RootCauseAnalysis/evaluation/test_bin/libjpeg/libjpeg_heap_buffer_overflow/libjpeg-turbo/rdtarga.c:98
    ERREXIT(sinfo->cinfo, JERR_INPUT_EOF);
    8344:	48 8b 07             	mov    (%rdi),%rax
    8347:	c7 40 28 2b 00 00 00 	movl   $0x2b,0x28(%rax)
    834e:	ff 10                	call   *(%rax)
read_non_rle_pixel():
/home/tenebris/Disk/Documents/RootCauseAnalysis/evaluation/test_bin/libjpeg/libjpeg_heap_buffer_overflow/libjpeg-turbo/rdtarga.c:132
    sinfo->tga_pixel[i] = (U_CHAR)read_byte(sinfo);
    8350:	c6 44 2b 58 ff       	movb   $0xff,0x58(%rbx,%rbp,1)
/home/tenebris/Disk/Documents/RootCauseAnalysis/evaluation/test_bin/libjpeg/libjpeg_heap_buffer_overflow/libjpeg-turbo/rdtarga.c:131
  for (i = 0; i < sinfo->pixel_size; i++) {
    8355:	48 83 c5 01          	add    $0x1,%rbp
    8359:	39 6b 5c             	cmp    %ebp,0x5c(%rbx)
    835c:	7f b8                	jg     8316 <read_non_rle_pixel+0x16>
/home/tenebris/Disk/Documents/RootCauseAnalysis/evaluation/test_bin/libjpeg/libjpeg_heap_buffer_overflow/libjpeg-turbo/rdtarga.c:134
}
    835e:	48 83 c4 08          	add    $0x8,%rsp
    8362:	5b                   	pop    %rbx
    8363:	5d                   	pop    %rbp
    8364:	c3                   	ret    
    8365:	0f 1f 00             	nopl   (%rax)
    8368:	c3                   	ret    
    8369:	0f 1f 80 00 00 00 00 	nopl   0x0(%rax)

0000000000008370 <read_rle_pixel>:
read_rle_pixel():
/home/tenebris/Disk/Documents/RootCauseAnalysis/evaluation/test_bin/libjpeg/libjpeg_heap_buffer_overflow/libjpeg-turbo/rdtarga.c:140
{
    8370:	f3 0f 1e fa          	endbr64 
    8374:	55                   	push   %rbp
    8375:	53                   	push   %rbx
    8376:	48 89 fb             	mov    %rdi,%rbx
    8379:	48 83 ec 08          	sub    $0x8,%rsp
/home/tenebris/Disk/Documents/RootCauseAnalysis/evaluation/test_bin/libjpeg/libjpeg_heap_buffer_overflow/libjpeg-turbo/rdtarga.c:144
  if (sinfo->dup_pixel_count > 0) {
    837d:	8b 47 64             	mov    0x64(%rdi),%eax
    8380:	85 c0                	test   %eax,%eax
    8382:	7f 5c                	jg     83e0 <read_rle_pixel+0x70>
/home/tenebris/Disk/Documents/RootCauseAnalysis/evaluation/test_bin/libjpeg/libjpeg_heap_buffer_overflow/libjpeg-turbo/rdtarga.c:150
  if (--sinfo->block_count < 0) { /* decrement pixels remaining in block */
    8384:	83 6f 60 01          	subl   $0x1,0x60(%rdi)
    8388:	78 66                	js     83f0 <read_rle_pixel+0x80>
/home/tenebris/Disk/Documents/RootCauseAnalysis/evaluation/test_bin/libjpeg/libjpeg_heap_buffer_overflow/libjpeg-turbo/rdtarga.c:161
  for (i = 0; i < sinfo->pixel_size; i++) {
    838a:	8b 43 5c             	mov    0x5c(%rbx),%eax
    838d:	31 ed                	xor    %ebp,%ebp
    838f:	85 c0                	test   %eax,%eax
    8391:	7e 1b                	jle    83ae <read_rle_pixel+0x3e>
read_byte():
/home/tenebris/Disk/Documents/RootCauseAnalysis/evaluation/test_bin/libjpeg/libjpeg_heap_buffer_overflow/libjpeg-turbo/rdtarga.c:97
  if ((c = getc(infile)) == EOF)
    8393:	48 8b 7b 18          	mov    0x18(%rbx),%rdi
    8397:	e8 b4 a0 ff ff       	call   2450 <getc@plt>
    839c:	83 f8 ff             	cmp    $0xffffffff,%eax
    839f:	74 17                	je     83b8 <read_rle_pixel+0x48>
read_rle_pixel():
/home/tenebris/Disk/Documents/RootCauseAnalysis/evaluation/test_bin/libjpeg/libjpeg_heap_buffer_overflow/libjpeg-turbo/rdtarga.c:162
    sinfo->tga_pixel[i] = (U_CHAR)read_byte(sinfo);
    83a1:	88 44 2b 58          	mov    %al,0x58(%rbx,%rbp,1)
/home/tenebris/Disk/Documents/RootCauseAnalysis/evaluation/test_bin/libjpeg/libjpeg_heap_buffer_overflow/libjpeg-turbo/rdtarga.c:161
  for (i = 0; i < sinfo->pixel_size; i++) {
    83a5:	48 83 c5 01          	add    $0x1,%rbp
    83a9:	39 6b 5c             	cmp    %ebp,0x5c(%rbx)
    83ac:	7f e5                	jg     8393 <read_rle_pixel+0x23>
/home/tenebris/Disk/Documents/RootCauseAnalysis/evaluation/test_bin/libjpeg/libjpeg_heap_buffer_overflow/libjpeg-turbo/rdtarga.c:164
}
    83ae:	48 83 c4 08          	add    $0x8,%rsp
    83b2:	5b                   	pop    %rbx
    83b3:	5d                   	pop    %rbp
    83b4:	c3                   	ret    
    83b5:	0f 1f 00             	nopl   (%rax)
    83b8:	48 8b 7b 30          	mov    0x30(%rbx),%rdi
read_byte():
/home/tenebris/Disk/Documents/RootCauseAnalysis/evaluation/test_bin/libjpeg/libjpeg_heap_buffer_overflow/libjpeg-turbo/rdtarga.c:98
    ERREXIT(sinfo->cinfo, JERR_INPUT_EOF);
    83bc:	48 8b 07             	mov    (%rdi),%rax
    83bf:	c7 40 28 2b 00 00 00 	movl   $0x2b,0x28(%rax)
    83c6:	ff 10                	call   *(%rax)
read_rle_pixel():
/home/tenebris/Disk/Documents/RootCauseAnalysis/evaluation/test_bin/libjpeg/libjpeg_heap_buffer_overflow/libjpeg-turbo/rdtarga.c:162
    sinfo->tga_pixel[i] = (U_CHAR)read_byte(sinfo);
    83c8:	c6 44 2b 58 ff       	movb   $0xff,0x58(%rbx,%rbp,1)
/home/tenebris/Disk/Documents/RootCauseAnalysis/evaluation/test_bin/libjpeg/libjpeg_heap_buffer_overflow/libjpeg-turbo/rdtarga.c:161
  for (i = 0; i < sinfo->pixel_size; i++) {
    83cd:	48 83 c5 01          	add    $0x1,%rbp
    83d1:	39 6b 5c             	cmp    %ebp,0x5c(%rbx)
    83d4:	7f bd                	jg     8393 <read_rle_pixel+0x23>
/home/tenebris/Disk/Documents/RootCauseAnalysis/evaluation/test_bin/libjpeg/libjpeg_heap_buffer_overflow/libjpeg-turbo/rdtarga.c:164
}
    83d6:	48 83 c4 08          	add    $0x8,%rsp
    83da:	5b                   	pop    %rbx
    83db:	5d                   	pop    %rbp
    83dc:	c3                   	ret    
    83dd:	0f 1f 00             	nopl   (%rax)
/home/tenebris/Disk/Documents/RootCauseAnalysis/evaluation/test_bin/libjpeg/libjpeg_heap_buffer_overflow/libjpeg-turbo/rdtarga.c:145
    sinfo->dup_pixel_count--;
    83e0:	83 e8 01             	sub    $0x1,%eax
    83e3:	89 47 64             	mov    %eax,0x64(%rdi)
/home/tenebris/Disk/Documents/RootCauseAnalysis/evaluation/test_bin/libjpeg/libjpeg_heap_buffer_overflow/libjpeg-turbo/rdtarga.c:164
}
    83e6:	48 83 c4 08          	add    $0x8,%rsp
    83ea:	5b                   	pop    %rbx
    83eb:	5d                   	pop    %rbp
    83ec:	c3                   	ret    
    83ed:	0f 1f 00             	nopl   (%rax)
read_byte():
/home/tenebris/Disk/Documents/RootCauseAnalysis/evaluation/test_bin/libjpeg/libjpeg_heap_buffer_overflow/libjpeg-turbo/rdtarga.c:97
  if ((c = getc(infile)) == EOF)
    83f0:	48 8b 7f 18          	mov    0x18(%rdi),%rdi
    83f4:	e8 57 a0 ff ff       	call   2450 <getc@plt>
    83f9:	89 c5                	mov    %eax,%ebp
    83fb:	83 f8 ff             	cmp    $0xffffffff,%eax
    83fe:	74 18                	je     8418 <read_rle_pixel+0xa8>
read_rle_pixel():
/home/tenebris/Disk/Documents/RootCauseAnalysis/evaluation/test_bin/libjpeg/libjpeg_heap_buffer_overflow/libjpeg-turbo/rdtarga.c:156
      sinfo->block_count = i & 0x7F; /* number of pixels after this one */
    8400:	83 e0 7f             	and    $0x7f,%eax
/home/tenebris/Disk/Documents/RootCauseAnalysis/evaluation/test_bin/libjpeg/libjpeg_heap_buffer_overflow/libjpeg-turbo/rdtarga.c:152
    if (i & 0x80) {             /* Start of duplicate-pixel block? */
    8403:	40 f6 c5 80          	test   $0x80,%bpl
    8407:	75 1f                	jne    8428 <read_rle_pixel+0xb8>
/home/tenebris/Disk/Documents/RootCauseAnalysis/evaluation/test_bin/libjpeg/libjpeg_heap_buffer_overflow/libjpeg-turbo/rdtarga.c:156
      sinfo->block_count = i & 0x7F; /* number of pixels after this one */
    8409:	89 43 60             	mov    %eax,0x60(%rbx)
    840c:	e9 79 ff ff ff       	jmp    838a <read_rle_pixel+0x1a>
    8411:	0f 1f 80 00 00 00 00 	nopl   0x0(%rax)
    8418:	48 8b 7b 30          	mov    0x30(%rbx),%rdi
read_byte():
/home/tenebris/Disk/Documents/RootCauseAnalysis/evaluation/test_bin/libjpeg/libjpeg_heap_buffer_overflow/libjpeg-turbo/rdtarga.c:98
    ERREXIT(sinfo->cinfo, JERR_INPUT_EOF);
    841c:	48 8b 07             	mov    (%rdi),%rax
    841f:	c7 40 28 2b 00 00 00 	movl   $0x2b,0x28(%rax)
    8426:	ff 10                	call   *(%rax)
read_rle_pixel():
/home/tenebris/Disk/Documents/RootCauseAnalysis/evaluation/test_bin/libjpeg/libjpeg_heap_buffer_overflow/libjpeg-turbo/rdtarga.c:153
      sinfo->dup_pixel_count = i & 0x7F; /* number of dups after this one */
    8428:	83 e5 7f             	and    $0x7f,%ebp
/home/tenebris/Disk/Documents/RootCauseAnalysis/evaluation/test_bin/libjpeg/libjpeg_heap_buffer_overflow/libjpeg-turbo/rdtarga.c:154
      sinfo->block_count = 0;   /* then read new block header */
    842b:	c7 43 60 00 00 00 00 	movl   $0x0,0x60(%rbx)
/home/tenebris/Disk/Documents/RootCauseAnalysis/evaluation/test_bin/libjpeg/libjpeg_heap_buffer_overflow/libjpeg-turbo/rdtarga.c:153
      sinfo->dup_pixel_count = i & 0x7F; /* number of dups after this one */
    8432:	89 6b 64             	mov    %ebp,0x64(%rbx)
/home/tenebris/Disk/Documents/RootCauseAnalysis/evaluation/test_bin/libjpeg/libjpeg_heap_buffer_overflow/libjpeg-turbo/rdtarga.c:154
      sinfo->block_count = 0;   /* then read new block header */
    8435:	e9 50 ff ff ff       	jmp    838a <read_rle_pixel+0x1a>
    843a:	66 0f 1f 44 00 00    	nopw   0x0(%rax,%rax,1)

0000000000008440 <start_input_tga>:
start_input_tga():
/home/tenebris/Disk/Documents/RootCauseAnalysis/evaluation/test_bin/libjpeg/libjpeg_heap_buffer_overflow/libjpeg-turbo/rdtarga.c:335
{
    8440:	f3 0f 1e fa          	endbr64 
    8444:	41 57                	push   %r15
fread():
/usr/include/x86_64-linux-gnu/bits/stdio2.h:293
    return __fread_alias (__ptr, __size, __n, __stream);
    8446:	ba 12 00 00 00       	mov    $0x12,%edx
start_input_tga():
/home/tenebris/Disk/Documents/RootCauseAnalysis/evaluation/test_bin/libjpeg/libjpeg_heap_buffer_overflow/libjpeg-turbo/rdtarga.c:335
    844b:	41 56                	push   %r14
    844d:	49 89 f6             	mov    %rsi,%r14
    8450:	41 55                	push   %r13
    8452:	41 54                	push   %r12
    8454:	55                   	push   %rbp
    8455:	48 89 fd             	mov    %rdi,%rbp
    8458:	53                   	push   %rbx
    8459:	48 83 ec 38          	sub    $0x38,%rsp
fread():
/usr/include/x86_64-linux-gnu/bits/stdio2.h:293
    845d:	48 8b 4e 18          	mov    0x18(%rsi),%rcx
    8461:	be 01 00 00 00       	mov    $0x1,%esi
start_input_tga():
/home/tenebris/Disk/Documents/RootCauseAnalysis/evaluation/test_bin/libjpeg/libjpeg_heap_buffer_overflow/libjpeg-turbo/rdtarga.c:335
    8466:	64 48 8b 04 25 28 00 	mov    %fs:0x28,%rax
    846d:	00 00 
    846f:	48 89 44 24 28       	mov    %rax,0x28(%rsp)
    8474:	31 c0                	xor    %eax,%eax
fread():
/usr/include/x86_64-linux-gnu/bits/stdio2.h:293
    8476:	48 8d 7c 24 10       	lea    0x10(%rsp),%rdi
    847b:	e8 00 9e ff ff       	call   2280 <fread@plt>
start_input_tga():
/home/tenebris/Disk/Documents/RootCauseAnalysis/evaluation/test_bin/libjpeg/libjpeg_heap_buffer_overflow/libjpeg-turbo/rdtarga.c:345
  if (!ReadOK(source->pub.input_file, targaheader, 18))
    8480:	48 83 f8 12          	cmp    $0x12,%rax
    8484:	74 10                	je     8496 <start_input_tga+0x56>
/home/tenebris/Disk/Documents/RootCauseAnalysis/evaluation/test_bin/libjpeg/libjpeg_heap_buffer_overflow/libjpeg-turbo/rdtarga.c:346
    ERREXIT(cinfo, JERR_INPUT_EOF);
    8486:	48 8b 45 00          	mov    0x0(%rbp),%rax
    848a:	48 89 ef             	mov    %rbp,%rdi
    848d:	c7 40 28 2b 00 00 00 	movl   $0x2b,0x28(%rax)
    8494:	ff 10                	call   *(%rax)
/home/tenebris/Disk/Documents/RootCauseAnalysis/evaluation/test_bin/libjpeg/libjpeg_heap_buffer_overflow/libjpeg-turbo/rdtarga.c:349
  if (targaheader[16] == 15)
    8496:	0f b6 54 24 20       	movzbl 0x20(%rsp),%edx
    849b:	80 fa 0f             	cmp    $0xf,%dl
    849e:	0f 84 3c 03 00 00    	je     87e0 <start_input_tga+0x3a0>
/home/tenebris/Disk/Documents/RootCauseAnalysis/evaluation/test_bin/libjpeg/libjpeg_heap_buffer_overflow/libjpeg-turbo/rdtarga.c:358
  source->pixel_size = UCH(targaheader[16]) >> 3;
    84a4:	89 d0                	mov    %edx,%eax
    84a6:	c0 e8 03             	shr    $0x3,%al
    84a9:	0f b6 c8             	movzbl %al,%ecx
/home/tenebris/Disk/Documents/RootCauseAnalysis/evaluation/test_bin/libjpeg/libjpeg_heap_buffer_overflow/libjpeg-turbo/rdtarga.c:364
  if (cmaptype > 1 ||           /* cmaptype must be 0 or 1 */
    84ac:	83 e8 01             	sub    $0x1,%eax
    84af:	3c 03                	cmp    $0x3,%al
    84b1:	40 0f 97 c6          	seta   %sil
/home/tenebris/Disk/Documents/RootCauseAnalysis/evaluation/test_bin/libjpeg/libjpeg_heap_buffer_overflow/libjpeg-turbo/rdtarga.c:355
  maplen = GET_2B(5);
    84b5:	44 0f b6 64 24 16    	movzbl 0x16(%rsp),%r12d
    84bb:	0f b6 7c 24 15       	movzbl 0x15(%rsp),%edi
/home/tenebris/Disk/Documents/RootCauseAnalysis/evaluation/test_bin/libjpeg/libjpeg_heap_buffer_overflow/libjpeg-turbo/rdtarga.c:358
  source->pixel_size = UCH(targaheader[16]) >> 3;
    84c0:	41 89 4e 5c          	mov    %ecx,0x5c(%r14)
/home/tenebris/Disk/Documents/RootCauseAnalysis/evaluation/test_bin/libjpeg/libjpeg_heap_buffer_overflow/libjpeg-turbo/rdtarga.c:356
  width = GET_2B(12);
    84c4:	44 0f b6 6c 24 1d    	movzbl 0x1d(%rsp),%r13d
/home/tenebris/Disk/Documents/RootCauseAnalysis/evaluation/test_bin/libjpeg/libjpeg_heap_buffer_overflow/libjpeg-turbo/rdtarga.c:357
  height = GET_2B(14);
    84ca:	0f b6 44 24 1f       	movzbl 0x1f(%rsp),%eax
/home/tenebris/Disk/Documents/RootCauseAnalysis/evaluation/test_bin/libjpeg/libjpeg_heap_buffer_overflow/libjpeg-turbo/rdtarga.c:355
  maplen = GET_2B(5);
    84cf:	41 c1 e4 08          	shl    $0x8,%r12d
/home/tenebris/Disk/Documents/RootCauseAnalysis/evaluation/test_bin/libjpeg/libjpeg_heap_buffer_overflow/libjpeg-turbo/rdtarga.c:359
  flags = UCH(targaheader[17]); /* Image Descriptor byte */
    84d3:	0f b6 4c 24 21       	movzbl 0x21(%rsp),%ecx
/home/tenebris/Disk/Documents/RootCauseAnalysis/evaluation/test_bin/libjpeg/libjpeg_heap_buffer_overflow/libjpeg-turbo/rdtarga.c:354
  subtype = UCH(targaheader[2]);
    84d8:	0f b6 5c 24 12       	movzbl 0x12(%rsp),%ebx
/home/tenebris/Disk/Documents/RootCauseAnalysis/evaluation/test_bin/libjpeg/libjpeg_heap_buffer_overflow/libjpeg-turbo/rdtarga.c:356
  width = GET_2B(12);
    84dd:	41 c1 e5 08          	shl    $0x8,%r13d
/home/tenebris/Disk/Documents/RootCauseAnalysis/evaluation/test_bin/libjpeg/libjpeg_heap_buffer_overflow/libjpeg-turbo/rdtarga.c:355
  maplen = GET_2B(5);
    84e1:	41 01 fc             	add    %edi,%r12d
/home/tenebris/Disk/Documents/RootCauseAnalysis/evaluation/test_bin/libjpeg/libjpeg_heap_buffer_overflow/libjpeg-turbo/rdtarga.c:356
  width = GET_2B(12);
    84e4:	0f b6 7c 24 1c       	movzbl 0x1c(%rsp),%edi
/home/tenebris/Disk/Documents/RootCauseAnalysis/evaluation/test_bin/libjpeg/libjpeg_heap_buffer_overflow/libjpeg-turbo/rdtarga.c:357
  height = GET_2B(14);
    84e9:	c1 e0 08             	shl    $0x8,%eax
/home/tenebris/Disk/Documents/RootCauseAnalysis/evaluation/test_bin/libjpeg/libjpeg_heap_buffer_overflow/libjpeg-turbo/rdtarga.c:353
  cmaptype = UCH(targaheader[1]);
    84ec:	44 0f b6 54 24 11    	movzbl 0x11(%rsp),%r10d
/home/tenebris/Disk/Documents/RootCauseAnalysis/evaluation/test_bin/libjpeg/libjpeg_heap_buffer_overflow/libjpeg-turbo/rdtarga.c:352
  idlen = UCH(targaheader[0]);
    84f2:	44 0f b6 7c 24 10    	movzbl 0x10(%rsp),%r15d
/home/tenebris/Disk/Documents/RootCauseAnalysis/evaluation/test_bin/libjpeg/libjpeg_heap_buffer_overflow/libjpeg-turbo/rdtarga.c:356
  width = GET_2B(12);
    84f8:	41 01 fd             	add    %edi,%r13d
/home/tenebris/Disk/Documents/RootCauseAnalysis/evaluation/test_bin/libjpeg/libjpeg_heap_buffer_overflow/libjpeg-turbo/rdtarga.c:357
  height = GET_2B(14);
    84fb:	0f b6 7c 24 1e       	movzbl 0x1e(%rsp),%edi
/home/tenebris/Disk/Documents/RootCauseAnalysis/evaluation/test_bin/libjpeg/libjpeg_heap_buffer_overflow/libjpeg-turbo/rdtarga.c:353
  cmaptype = UCH(targaheader[1]);
    8500:	44 89 54 24 0c       	mov    %r10d,0xc(%rsp)
/home/tenebris/Disk/Documents/RootCauseAnalysis/evaluation/test_bin/libjpeg/libjpeg_heap_buffer_overflow/libjpeg-turbo/rdtarga.c:357
  height = GET_2B(14);
    8505:	01 f8                	add    %edi,%eax
    8507:	89 04 24             	mov    %eax,(%rsp)
/home/tenebris/Disk/Documents/RootCauseAnalysis/evaluation/test_bin/libjpeg/libjpeg_heap_buffer_overflow/libjpeg-turbo/rdtarga.c:361
  is_bottom_up = ((flags & 0x20) == 0); /* bit 5 set => top-down */
    850a:	89 c8                	mov    %ecx,%eax
    850c:	83 e0 20             	and    $0x20,%eax
    850f:	88 44 24 07          	mov    %al,0x7(%rsp)
/home/tenebris/Disk/Documents/RootCauseAnalysis/evaluation/test_bin/libjpeg/libjpeg_heap_buffer_overflow/libjpeg-turbo/rdtarga.c:365
      source->pixel_size < 1 || source->pixel_size > 4 ||
    8513:	41 83 fa 01          	cmp    $0x1,%r10d
    8517:	7f 09                	jg     8522 <start_input_tga+0xe2>
    8519:	40 84 f6             	test   %sil,%sil
    851c:	0f 84 ae 03 00 00    	je     88d0 <start_input_tga+0x490>
/home/tenebris/Disk/Documents/RootCauseAnalysis/evaluation/test_bin/libjpeg/libjpeg_heap_buffer_overflow/libjpeg-turbo/rdtarga.c:369
    ERREXIT(cinfo, JERR_TGA_BADPARMS);
    8522:	48 8b 55 00          	mov    0x0(%rbp),%rdx
    8526:	48 89 ef             	mov    %rbp,%rdi
    8529:	c7 42 28 0b 04 00 00 	movl   $0x40b,0x28(%rdx)
    8530:	ff 12                	call   *(%rdx)
/home/tenebris/Disk/Documents/RootCauseAnalysis/evaluation/test_bin/libjpeg/libjpeg_heap_buffer_overflow/libjpeg-turbo/rdtarga.c:378
    source->read_pixel = read_non_rle_pixel;
    8532:	48 8d 15 c7 fd ff ff 	lea    -0x239(%rip),%rdx        # 8300 <read_non_rle_pixel>
/home/tenebris/Disk/Documents/RootCauseAnalysis/evaluation/test_bin/libjpeg/libjpeg_heap_buffer_overflow/libjpeg-turbo/rdtarga.c:371
  if (subtype > 8) {
    8539:	83 fb 08             	cmp    $0x8,%ebx
    853c:	7e 12                	jle    8550 <start_input_tga+0x110>
/home/tenebris/Disk/Documents/RootCauseAnalysis/evaluation/test_bin/libjpeg/libjpeg_heap_buffer_overflow/libjpeg-turbo/rdtarga.c:374
    source->block_count = source->dup_pixel_count = 0;
    853e:	49 c7 46 60 00 00 00 	movq   $0x0,0x60(%r14)
    8545:	00 
/home/tenebris/Disk/Documents/RootCauseAnalysis/evaluation/test_bin/libjpeg/libjpeg_heap_buffer_overflow/libjpeg-turbo/rdtarga.c:375
    subtype -= 8;
    8546:	83 eb 08             	sub    $0x8,%ebx
/home/tenebris/Disk/Documents/RootCauseAnalysis/evaluation/test_bin/libjpeg/libjpeg_heap_buffer_overflow/libjpeg-turbo/rdtarga.c:373
    source->read_pixel = read_rle_pixel;
    8549:	48 8d 15 20 fe ff ff 	lea    -0x1e0(%rip),%rdx        # 8370 <read_rle_pixel>
    8550:	49 89 56 50          	mov    %rdx,0x50(%r14)
/home/tenebris/Disk/Documents/RootCauseAnalysis/evaluation/test_bin/libjpeg/libjpeg_heap_buffer_overflow/libjpeg-turbo/rdtarga.c:390
      ERREXIT(cinfo, JERR_TGA_BADPARMS);
    8554:	48 8b 55 00          	mov    0x0(%rbp),%rdx
/home/tenebris/Disk/Documents/RootCauseAnalysis/evaluation/test_bin/libjpeg/libjpeg_heap_buffer_overflow/libjpeg-turbo/rdtarga.c:383
  cinfo->in_color_space = JCS_RGB;
    8558:	c7 45 3c 02 00 00 00 	movl   $0x2,0x3c(%rbp)
/home/tenebris/Disk/Documents/RootCauseAnalysis/evaluation/test_bin/libjpeg/libjpeg_heap_buffer_overflow/libjpeg-turbo/rdtarga.c:385
  switch (subtype) {
    855f:	83 fb 02             	cmp    $0x2,%ebx
    8562:	0f 84 38 03 00 00    	je     88a0 <start_input_tga+0x460>
    8568:	83 fb 03             	cmp    $0x3,%ebx
    856b:	0f 84 df 02 00 00    	je     8850 <start_input_tga+0x410>
    8571:	83 fb 01             	cmp    $0x1,%ebx
    8574:	0f 84 86 02 00 00    	je     8800 <start_input_tga+0x3c0>
/home/tenebris/Disk/Documents/RootCauseAnalysis/evaluation/test_bin/libjpeg/libjpeg_heap_buffer_overflow/libjpeg-turbo/rdtarga.c:420
    ERREXIT(cinfo, JERR_TGA_BADPARMS);
    857a:	c7 42 28 0b 04 00 00 	movl   $0x40b,0x28(%rdx)
    8581:	48 89 ef             	mov    %rbp,%rdi
    8584:	ff 12                	call   *(%rdx)
/home/tenebris/Disk/Documents/RootCauseAnalysis/evaluation/test_bin/libjpeg/libjpeg_heap_buffer_overflow/libjpeg-turbo/rdtarga.c:382
  components = 3;               /* until proven different */
    8586:	c7 44 24 08 03 00 00 	movl   $0x3,0x8(%rsp)
    858d:	00 
/home/tenebris/Disk/Documents/RootCauseAnalysis/evaluation/test_bin/libjpeg/libjpeg_heap_buffer_overflow/libjpeg-turbo/rdtarga.c:426
    source->whole_image = (*cinfo->mem->request_virt_sarray)
    858e:	43 8d 54 6d 00       	lea    0x0(%r13,%r13,2),%edx
/home/tenebris/Disk/Documents/RootCauseAnalysis/evaluation/test_bin/libjpeg/libjpeg_heap_buffer_overflow/libjpeg-turbo/rdtarga.c:424
  if (is_bottom_up) {
    8593:	80 7c 24 07 00       	cmpb   $0x0,0x7(%rsp)
/home/tenebris/Disk/Documents/RootCauseAnalysis/evaluation/test_bin/libjpeg/libjpeg_heap_buffer_overflow/libjpeg-turbo/rdtarga.c:426
    source->whole_image = (*cinfo->mem->request_virt_sarray)
    8598:	48 8b 45 08          	mov    0x8(%rbp),%rax
/home/tenebris/Disk/Documents/RootCauseAnalysis/evaluation/test_bin/libjpeg/libjpeg_heap_buffer_overflow/libjpeg-turbo/rdtarga.c:424
  if (is_bottom_up) {
    859c:	0f 85 56 01 00 00    	jne    86f8 <start_input_tga+0x2b8>
/home/tenebris/Disk/Documents/RootCauseAnalysis/evaluation/test_bin/libjpeg/libjpeg_heap_buffer_overflow/libjpeg-turbo/rdtarga.c:426
    source->whole_image = (*cinfo->mem->request_virt_sarray)
    85a2:	89 d1                	mov    %edx,%ecx
    85a4:	44 8b 04 24          	mov    (%rsp),%r8d
    85a8:	41 b9 01 00 00 00    	mov    $0x1,%r9d
    85ae:	31 d2                	xor    %edx,%edx
    85b0:	be 01 00 00 00       	mov    $0x1,%esi
    85b5:	48 89 ef             	mov    %rbp,%rdi
    85b8:	ff 50 20             	call   *0x20(%rax)
    85bb:	49 89 46 40          	mov    %rax,0x40(%r14)
/home/tenebris/Disk/Documents/RootCauseAnalysis/evaluation/test_bin/libjpeg/libjpeg_heap_buffer_overflow/libjpeg-turbo/rdtarga.c:429
    if (cinfo->progress != NULL) {
    85bf:	48 8b 45 10          	mov    0x10(%rbp),%rax
    85c3:	48 85 c0             	test   %rax,%rax
    85c6:	74 04                	je     85cc <start_input_tga+0x18c>
/home/tenebris/Disk/Documents/RootCauseAnalysis/evaluation/test_bin/libjpeg/libjpeg_heap_buffer_overflow/libjpeg-turbo/rdtarga.c:431
      progress->total_extra_passes++; /* count file input as separate pass */
    85c8:	83 40 24 01          	addl   $0x1,0x24(%rax)
/home/tenebris/Disk/Documents/RootCauseAnalysis/evaluation/test_bin/libjpeg/libjpeg_heap_buffer_overflow/libjpeg-turbo/rdtarga.c:434
    source->pub.buffer_height = 1; /* in case anyone looks at it */
    85cc:	41 c7 46 28 01 00 00 	movl   $0x1,0x28(%r14)
    85d3:	00 
/home/tenebris/Disk/Documents/RootCauseAnalysis/evaluation/test_bin/libjpeg/libjpeg_heap_buffer_overflow/libjpeg-turbo/rdtarga.c:435
    source->pub.get_pixel_rows = preload_image;
    85d4:	48 8d 05 f5 fb ff ff 	lea    -0x40b(%rip),%rax        # 81d0 <preload_image>
    85db:	49 89 46 08          	mov    %rax,0x8(%r14)
/home/tenebris/Disk/Documents/RootCauseAnalysis/evaluation/test_bin/libjpeg/libjpeg_heap_buffer_overflow/libjpeg-turbo/rdtarga.c:446
  while (idlen--)               /* Throw away ID field */
    85df:	41 0f b6 df          	movzbl %r15b,%ebx
    85e3:	45 84 ff             	test   %r15b,%r15b
    85e6:	74 2b                	je     8613 <start_input_tga+0x1d3>
    85e8:	0f 1f 84 00 00 00 00 	nopl   0x0(%rax,%rax,1)
    85ef:	00 
read_byte():
/home/tenebris/Disk/Documents/RootCauseAnalysis/evaluation/test_bin/libjpeg/libjpeg_heap_buffer_overflow/libjpeg-turbo/rdtarga.c:97
  if ((c = getc(infile)) == EOF)
    85f0:	49 8b 7e 18          	mov    0x18(%r14),%rdi
    85f4:	e8 57 9e ff ff       	call   2450 <getc@plt>
    85f9:	83 f8 ff             	cmp    $0xffffffff,%eax
    85fc:	75 10                	jne    860e <start_input_tga+0x1ce>
    85fe:	49 8b 7e 30          	mov    0x30(%r14),%rdi
/home/tenebris/Disk/Documents/RootCauseAnalysis/evaluation/test_bin/libjpeg/libjpeg_heap_buffer_overflow/libjpeg-turbo/rdtarga.c:98
    ERREXIT(sinfo->cinfo, JERR_INPUT_EOF);
    8602:	48 8b 07             	mov    (%rdi),%rax
    8605:	c7 40 28 2b 00 00 00 	movl   $0x2b,0x28(%rax)
    860c:	ff 10                	call   *(%rax)
start_input_tga():
/home/tenebris/Disk/Documents/RootCauseAnalysis/evaluation/test_bin/libjpeg/libjpeg_heap_buffer_overflow/libjpeg-turbo/rdtarga.c:446
  while (idlen--)               /* Throw away ID field */
    860e:	83 eb 01             	sub    $0x1,%ebx
    8611:	75 dd                	jne    85f0 <start_input_tga+0x1b0>
/home/tenebris/Disk/Documents/RootCauseAnalysis/evaluation/test_bin/libjpeg/libjpeg_heap_buffer_overflow/libjpeg-turbo/rdtarga.c:449
  if (maplen > 0) {
    8613:	45 85 e4             	test   %r12d,%r12d
    8616:	0f 84 0c 01 00 00    	je     8728 <start_input_tga+0x2e8>
/home/tenebris/Disk/Documents/RootCauseAnalysis/evaluation/test_bin/libjpeg/libjpeg_heap_buffer_overflow/libjpeg-turbo/rdtarga.c:450
    if (maplen > 256 || GET_2B(3) != 0)
    861c:	41 81 fc 00 01 00 00 	cmp    $0x100,%r12d
    8623:	0f 86 4f 01 00 00    	jbe    8778 <start_input_tga+0x338>
/home/tenebris/Disk/Documents/RootCauseAnalysis/evaluation/test_bin/libjpeg/libjpeg_heap_buffer_overflow/libjpeg-turbo/rdtarga.c:451
      ERREXIT(cinfo, JERR_TGA_BADCMAP);
    8629:	48 8b 45 00          	mov    0x0(%rbp),%rax
    862d:	48 89 ef             	mov    %rbp,%rdi
    8630:	c7 40 28 0a 04 00 00 	movl   $0x40a,0x28(%rax)
    8637:	ff 10                	call   *(%rax)
/home/tenebris/Disk/Documents/RootCauseAnalysis/evaluation/test_bin/libjpeg/libjpeg_heap_buffer_overflow/libjpeg-turbo/rdtarga.c:453
    source->colormap = (*cinfo->mem->alloc_sarray)
    8639:	48 8b 45 08          	mov    0x8(%rbp),%rax
    863d:	b9 03 00 00 00       	mov    $0x3,%ecx
    8642:	44 89 e2             	mov    %r12d,%edx
    8645:	48 89 ef             	mov    %rbp,%rdi
    8648:	be 01 00 00 00       	mov    $0x1,%esi
    864d:	ff 50 10             	call   *0x10(%rax)
read_colormap():
/home/tenebris/Disk/Documents/RootCauseAnalysis/evaluation/test_bin/libjpeg/libjpeg_heap_buffer_overflow/libjpeg-turbo/rdtarga.c:110
  if (mapentrysize != 24)
    8650:	80 7c 24 17 18       	cmpb   $0x18,0x17(%rsp)
start_input_tga():
/home/tenebris/Disk/Documents/RootCauseAnalysis/evaluation/test_bin/libjpeg/libjpeg_heap_buffer_overflow/libjpeg-turbo/rdtarga.c:453
    source->colormap = (*cinfo->mem->alloc_sarray)
    8655:	49 89 46 38          	mov    %rax,0x38(%r14)
read_colormap():
/home/tenebris/Disk/Documents/RootCauseAnalysis/evaluation/test_bin/libjpeg/libjpeg_heap_buffer_overflow/libjpeg-turbo/rdtarga.c:110
  if (mapentrysize != 24)
    8659:	74 10                	je     866b <start_input_tga+0x22b>
/home/tenebris/Disk/Documents/RootCauseAnalysis/evaluation/test_bin/libjpeg/libjpeg_heap_buffer_overflow/libjpeg-turbo/rdtarga.c:111
    ERREXIT(sinfo->cinfo, JERR_TGA_BADCMAP);
    865b:	49 8b 7e 30          	mov    0x30(%r14),%rdi
    865f:	48 8b 07             	mov    (%rdi),%rax
    8662:	c7 40 28 0a 04 00 00 	movl   $0x40a,0x28(%rax)
    8669:	ff 10                	call   *(%rax)
start_input_tga():
/home/tenebris/Disk/Documents/RootCauseAnalysis/evaluation/test_bin/libjpeg/libjpeg_heap_buffer_overflow/libjpeg-turbo/rdtarga.c:111
    866b:	31 db                	xor    %ebx,%ebx
    866d:	0f 1f 00             	nopl   (%rax)
read_byte():
/home/tenebris/Disk/Documents/RootCauseAnalysis/evaluation/test_bin/libjpeg/libjpeg_heap_buffer_overflow/libjpeg-turbo/rdtarga.c:97
  if ((c = getc(infile)) == EOF)
    8670:	49 8b 7e 18          	mov    0x18(%r14),%rdi
    8674:	e8 d7 9d ff ff       	call   2450 <getc@plt>
    8679:	41 89 c7             	mov    %eax,%r15d
    867c:	83 f8 ff             	cmp    $0xffffffff,%eax
    867f:	75 10                	jne    8691 <start_input_tga+0x251>
    8681:	49 8b 7e 30          	mov    0x30(%r14),%rdi
/home/tenebris/Disk/Documents/RootCauseAnalysis/evaluation/test_bin/libjpeg/libjpeg_heap_buffer_overflow/libjpeg-turbo/rdtarga.c:98
    ERREXIT(sinfo->cinfo, JERR_INPUT_EOF);
    8685:	48 8b 07             	mov    (%rdi),%rax
    8688:	c7 40 28 2b 00 00 00 	movl   $0x2b,0x28(%rax)
    868f:	ff 10                	call   *(%rax)
read_colormap():
/home/tenebris/Disk/Documents/RootCauseAnalysis/evaluation/test_bin/libjpeg/libjpeg_heap_buffer_overflow/libjpeg-turbo/rdtarga.c:114
    sinfo->colormap[2][i] = (JSAMPLE)read_byte(sinfo);
    8691:	49 8b 46 38          	mov    0x38(%r14),%rax
    8695:	48 8b 40 10          	mov    0x10(%rax),%rax
    8699:	44 88 3c 18          	mov    %r15b,(%rax,%rbx,1)
read_byte():
/home/tenebris/Disk/Documents/RootCauseAnalysis/evaluation/test_bin/libjpeg/libjpeg_heap_buffer_overflow/libjpeg-turbo/rdtarga.c:97
  if ((c = getc(infile)) == EOF)
    869d:	49 8b 7e 18          	mov    0x18(%r14),%rdi
    86a1:	e8 aa 9d ff ff       	call   2450 <getc@plt>
    86a6:	41 89 c7             	mov    %eax,%r15d
    86a9:	83 f8 ff             	cmp    $0xffffffff,%eax
    86ac:	75 10                	jne    86be <start_input_tga+0x27e>
    86ae:	49 8b 7e 30          	mov    0x30(%r14),%rdi
/home/tenebris/Disk/Documents/RootCauseAnalysis/evaluation/test_bin/libjpeg/libjpeg_heap_buffer_overflow/libjpeg-turbo/rdtarga.c:98
    ERREXIT(sinfo->cinfo, JERR_INPUT_EOF);
    86b2:	48 8b 07             	mov    (%rdi),%rax
    86b5:	c7 40 28 2b 00 00 00 	movl   $0x2b,0x28(%rax)
    86bc:	ff 10                	call   *(%rax)
read_colormap():
/home/tenebris/Disk/Documents/RootCauseAnalysis/evaluation/test_bin/libjpeg/libjpeg_heap_buffer_overflow/libjpeg-turbo/rdtarga.c:115
    sinfo->colormap[1][i] = (JSAMPLE)read_byte(sinfo);
    86be:	49 8b 46 38          	mov    0x38(%r14),%rax
    86c2:	48 8b 40 08          	mov    0x8(%rax),%rax
    86c6:	44 88 3c 18          	mov    %r15b,(%rax,%rbx,1)
read_byte():
/home/tenebris/Disk/Documents/RootCauseAnalysis/evaluation/test_bin/libjpeg/libjpeg_heap_buffer_overflow/libjpeg-turbo/rdtarga.c:97
  if ((c = getc(infile)) == EOF)
    86ca:	49 8b 7e 18          	mov    0x18(%r14),%rdi
    86ce:	e8 7d 9d ff ff       	call   2450 <getc@plt>
    86d3:	83 f8 ff             	cmp    $0xffffffff,%eax
    86d6:	0f 84 d4 00 00 00    	je     87b0 <start_input_tga+0x370>
read_colormap():
/home/tenebris/Disk/Documents/RootCauseAnalysis/evaluation/test_bin/libjpeg/libjpeg_heap_buffer_overflow/libjpeg-turbo/rdtarga.c:116
    sinfo->colormap[0][i] = (JSAMPLE)read_byte(sinfo);
    86dc:	49 8b 56 38          	mov    0x38(%r14),%rdx
    86e0:	48 8b 12             	mov    (%rdx),%rdx
    86e3:	88 04 1a             	mov    %al,(%rdx,%rbx,1)
/home/tenebris/Disk/Documents/RootCauseAnalysis/evaluation/test_bin/libjpeg/libjpeg_heap_buffer_overflow/libjpeg-turbo/rdtarga.c:113
  for (i = 0; i < cmaplen; i++) {
    86e6:	48 83 c3 01          	add    $0x1,%rbx
    86ea:	41 39 dc             	cmp    %ebx,%r12d
    86ed:	7f 81                	jg     8670 <start_input_tga+0x230>
    86ef:	eb 47                	jmp    8738 <start_input_tga+0x2f8>
    86f1:	0f 1f 80 00 00 00 00 	nopl   0x0(%rax)
start_input_tga():
/home/tenebris/Disk/Documents/RootCauseAnalysis/evaluation/test_bin/libjpeg/libjpeg_heap_buffer_overflow/libjpeg-turbo/rdtarga.c:438
    source->whole_image = NULL;
    86f8:	49 c7 46 40 00 00 00 	movq   $0x0,0x40(%r14)
    86ff:	00 
/home/tenebris/Disk/Documents/RootCauseAnalysis/evaluation/test_bin/libjpeg/libjpeg_heap_buffer_overflow/libjpeg-turbo/rdtarga.c:439
    source->pub.buffer = (*cinfo->mem->alloc_sarray)
    8700:	b9 01 00 00 00       	mov    $0x1,%ecx
    8705:	be 01 00 00 00       	mov    $0x1,%esi
    870a:	48 89 ef             	mov    %rbp,%rdi
    870d:	ff 50 10             	call   *0x10(%rax)
/home/tenebris/Disk/Documents/RootCauseAnalysis/evaluation/test_bin/libjpeg/libjpeg_heap_buffer_overflow/libjpeg-turbo/rdtarga.c:442
    source->pub.buffer_height = 1;
    8710:	41 c7 46 28 01 00 00 	movl   $0x1,0x28(%r14)
    8717:	00 
/home/tenebris/Disk/Documents/RootCauseAnalysis/evaluation/test_bin/libjpeg/libjpeg_heap_buffer_overflow/libjpeg-turbo/rdtarga.c:439
    source->pub.buffer = (*cinfo->mem->alloc_sarray)
    8718:	49 89 46 20          	mov    %rax,0x20(%r14)
/home/tenebris/Disk/Documents/RootCauseAnalysis/evaluation/test_bin/libjpeg/libjpeg_heap_buffer_overflow/libjpeg-turbo/rdtarga.c:443
    source->pub.get_pixel_rows = source->get_pixel_rows;
    871c:	49 8b 46 68          	mov    0x68(%r14),%rax
    8720:	e9 b6 fe ff ff       	jmp    85db <start_input_tga+0x19b>
    8725:	0f 1f 00             	nopl   (%rax)
/home/tenebris/Disk/Documents/RootCauseAnalysis/evaluation/test_bin/libjpeg/libjpeg_heap_buffer_overflow/libjpeg-turbo/rdtarga.c:458
    if (cmaptype)               /* but you promised a cmap! */
    8728:	8b 44 24 0c          	mov    0xc(%rsp),%eax
    872c:	85 c0                	test   %eax,%eax
    872e:	75 68                	jne    8798 <start_input_tga+0x358>
/home/tenebris/Disk/Documents/RootCauseAnalysis/evaluation/test_bin/libjpeg/libjpeg_heap_buffer_overflow/libjpeg-turbo/rdtarga.c:460
    source->colormap = NULL;
    8730:	49 c7 46 38 00 00 00 	movq   $0x0,0x38(%r14)
    8737:	00 
/home/tenebris/Disk/Documents/RootCauseAnalysis/evaluation/test_bin/libjpeg/libjpeg_heap_buffer_overflow/libjpeg-turbo/rdtarga.c:463
  cinfo->input_components = components;
    8738:	8b 44 24 08          	mov    0x8(%rsp),%eax
/home/tenebris/Disk/Documents/RootCauseAnalysis/evaluation/test_bin/libjpeg/libjpeg_heap_buffer_overflow/libjpeg-turbo/rdtarga.c:464
  cinfo->data_precision = 8;
    873c:	c7 45 48 08 00 00 00 	movl   $0x8,0x48(%rbp)
/home/tenebris/Disk/Documents/RootCauseAnalysis/evaluation/test_bin/libjpeg/libjpeg_heap_buffer_overflow/libjpeg-turbo/rdtarga.c:465
  cinfo->image_width = width;
    8743:	44 89 6d 30          	mov    %r13d,0x30(%rbp)
/home/tenebris/Disk/Documents/RootCauseAnalysis/evaluation/test_bin/libjpeg/libjpeg_heap_buffer_overflow/libjpeg-turbo/rdtarga.c:463
  cinfo->input_components = components;
    8747:	89 45 38             	mov    %eax,0x38(%rbp)
/home/tenebris/Disk/Documents/RootCauseAnalysis/evaluation/test_bin/libjpeg/libjpeg_heap_buffer_overflow/libjpeg-turbo/rdtarga.c:466
  cinfo->image_height = height;
    874a:	8b 04 24             	mov    (%rsp),%eax
    874d:	89 45 34             	mov    %eax,0x34(%rbp)
/home/tenebris/Disk/Documents/RootCauseAnalysis/evaluation/test_bin/libjpeg/libjpeg_heap_buffer_overflow/libjpeg-turbo/rdtarga.c:467
}
    8750:	48 8b 44 24 28       	mov    0x28(%rsp),%rax
    8755:	64 48 2b 04 25 28 00 	sub    %fs:0x28,%rax
    875c:	00 00 
    875e:	0f 85 d2 01 00 00    	jne    8936 <start_input_tga+0x4f6>
    8764:	48 83 c4 38          	add    $0x38,%rsp
    8768:	5b                   	pop    %rbx
    8769:	5d                   	pop    %rbp
    876a:	41 5c                	pop    %r12
    876c:	41 5d                	pop    %r13
    876e:	41 5e                	pop    %r14
    8770:	41 5f                	pop    %r15
    8772:	c3                   	ret    
    8773:	0f 1f 44 00 00       	nopl   0x0(%rax,%rax,1)
/home/tenebris/Disk/Documents/RootCauseAnalysis/evaluation/test_bin/libjpeg/libjpeg_heap_buffer_overflow/libjpeg-turbo/rdtarga.c:450 (discriminator 1)
    if (maplen > 256 || GET_2B(3) != 0)
    8778:	0f b6 44 24 14       	movzbl 0x14(%rsp),%eax
    877d:	0f b6 54 24 13       	movzbl 0x13(%rsp),%edx
    8782:	c1 e0 08             	shl    $0x8,%eax
    8785:	01 d0                	add    %edx,%eax
    8787:	0f 84 ac fe ff ff    	je     8639 <start_input_tga+0x1f9>
    878d:	e9 97 fe ff ff       	jmp    8629 <start_input_tga+0x1e9>
    8792:	66 0f 1f 44 00 00    	nopw   0x0(%rax,%rax,1)
/home/tenebris/Disk/Documents/RootCauseAnalysis/evaluation/test_bin/libjpeg/libjpeg_heap_buffer_overflow/libjpeg-turbo/rdtarga.c:459
      ERREXIT(cinfo, JERR_TGA_BADPARMS);
    8798:	48 8b 45 00          	mov    0x0(%rbp),%rax
    879c:	48 89 ef             	mov    %rbp,%rdi
    879f:	c7 40 28 0b 04 00 00 	movl   $0x40b,0x28(%rax)
    87a6:	ff 10                	call   *(%rax)
    87a8:	eb 86                	jmp    8730 <start_input_tga+0x2f0>
    87aa:	66 0f 1f 44 00 00    	nopw   0x0(%rax,%rax,1)
    87b0:	49 8b 7e 30          	mov    0x30(%r14),%rdi
read_byte():
/home/tenebris/Disk/Documents/RootCauseAnalysis/evaluation/test_bin/libjpeg/libjpeg_heap_buffer_overflow/libjpeg-turbo/rdtarga.c:98
    ERREXIT(sinfo->cinfo, JERR_INPUT_EOF);
    87b4:	48 8b 07             	mov    (%rdi),%rax
    87b7:	c7 40 28 2b 00 00 00 	movl   $0x2b,0x28(%rax)
    87be:	ff 10                	call   *(%rax)
read_colormap():
/home/tenebris/Disk/Documents/RootCauseAnalysis/evaluation/test_bin/libjpeg/libjpeg_heap_buffer_overflow/libjpeg-turbo/rdtarga.c:116
    sinfo->colormap[0][i] = (JSAMPLE)read_byte(sinfo);
    87c0:	49 8b 46 38          	mov    0x38(%r14),%rax
    87c4:	48 8b 00             	mov    (%rax),%rax
    87c7:	c6 04 18 ff          	movb   $0xff,(%rax,%rbx,1)
/home/tenebris/Disk/Documents/RootCauseAnalysis/evaluation/test_bin/libjpeg/libjpeg_heap_buffer_overflow/libjpeg-turbo/rdtarga.c:113
  for (i = 0; i < cmaplen; i++) {
    87cb:	48 83 c3 01          	add    $0x1,%rbx
    87cf:	41 39 dc             	cmp    %ebx,%r12d
    87d2:	0f 8f 98 fe ff ff    	jg     8670 <start_input_tga+0x230>
    87d8:	e9 5b ff ff ff       	jmp    8738 <start_input_tga+0x2f8>
    87dd:	0f 1f 00             	nopl   (%rax)
start_input_tga():
/home/tenebris/Disk/Documents/RootCauseAnalysis/evaluation/test_bin/libjpeg/libjpeg_heap_buffer_overflow/libjpeg-turbo/rdtarga.c:350
    targaheader[16] = 16;
    87e0:	c6 44 24 20 10       	movb   $0x10,0x20(%rsp)
    87e5:	31 f6                	xor    %esi,%esi
    87e7:	b9 02 00 00 00       	mov    $0x2,%ecx
    87ec:	ba 10 00 00 00       	mov    $0x10,%edx
    87f1:	e9 bf fc ff ff       	jmp    84b5 <start_input_tga+0x75>
    87f6:	66 2e 0f 1f 84 00 00 	cs nopw 0x0(%rax,%rax,1)
    87fd:	00 00 00 
/home/tenebris/Disk/Documents/RootCauseAnalysis/evaluation/test_bin/libjpeg/libjpeg_heap_buffer_overflow/libjpeg-turbo/rdtarga.c:387
    if (source->pixel_size == 1 && cmaptype == 1)
    8800:	41 83 7e 5c 01       	cmpl   $0x1,0x5c(%r14)
    8805:	75 0b                	jne    8812 <start_input_tga+0x3d2>
    8807:	83 7c 24 0c 01       	cmpl   $0x1,0xc(%rsp)
    880c:	0f 84 14 01 00 00    	je     8926 <start_input_tga+0x4e6>
/home/tenebris/Disk/Documents/RootCauseAnalysis/evaluation/test_bin/libjpeg/libjpeg_heap_buffer_overflow/libjpeg-turbo/rdtarga.c:390
      ERREXIT(cinfo, JERR_TGA_BADPARMS);
    8812:	c7 42 28 0b 04 00 00 	movl   $0x40b,0x28(%rdx)
    8819:	48 89 ef             	mov    %rbp,%rdi
    881c:	ff 12                	call   *(%rdx)
    881e:	48 8b 55 00          	mov    0x0(%rbp),%rdx
/home/tenebris/Disk/Documents/RootCauseAnalysis/evaluation/test_bin/libjpeg/libjpeg_heap_buffer_overflow/libjpeg-turbo/rdtarga.c:391
    TRACEMS2(cinfo, 1, JTRC_TGA_MAPPED, width, height);
    8822:	c7 42 28 0f 04 00 00 	movl   $0x40f,0x28(%rdx)
/home/tenebris/Disk/Documents/RootCauseAnalysis/evaluation/test_bin/libjpeg/libjpeg_heap_buffer_overflow/libjpeg-turbo/rdtarga.c:408
    TRACEMS2(cinfo, 1, JTRC_TGA, width, height);
    8829:	8b 04 24             	mov    (%rsp),%eax
    882c:	44 89 6a 2c          	mov    %r13d,0x2c(%rdx)
    8830:	be 01 00 00 00       	mov    $0x1,%esi
    8835:	48 89 ef             	mov    %rbp,%rdi
    8838:	89 42 30             	mov    %eax,0x30(%rdx)
    883b:	ff 52 08             	call   *0x8(%rdx)
/home/tenebris/Disk/Documents/RootCauseAnalysis/evaluation/test_bin/libjpeg/libjpeg_heap_buffer_overflow/libjpeg-turbo/rdtarga.c:382
  components = 3;               /* until proven different */
    883e:	c7 44 24 08 03 00 00 	movl   $0x3,0x8(%rsp)
    8845:	00 
/home/tenebris/Disk/Documents/RootCauseAnalysis/evaluation/test_bin/libjpeg/libjpeg_heap_buffer_overflow/libjpeg-turbo/rdtarga.c:426
    source->whole_image = (*cinfo->mem->request_virt_sarray)
    8846:	43 8d 54 6d 00       	lea    0x0(%r13,%r13,2),%edx
/home/tenebris/Disk/Documents/RootCauseAnalysis/evaluation/test_bin/libjpeg/libjpeg_heap_buffer_overflow/libjpeg-turbo/rdtarga.c:409
    break;
    884b:	e9 43 fd ff ff       	jmp    8593 <start_input_tga+0x153>
/home/tenebris/Disk/Documents/RootCauseAnalysis/evaluation/test_bin/libjpeg/libjpeg_heap_buffer_overflow/libjpeg-turbo/rdtarga.c:413
    if (source->pixel_size == 1)
    8850:	41 83 7e 5c 01       	cmpl   $0x1,0x5c(%r14)
/home/tenebris/Disk/Documents/RootCauseAnalysis/evaluation/test_bin/libjpeg/libjpeg_heap_buffer_overflow/libjpeg-turbo/rdtarga.c:412
    cinfo->in_color_space = JCS_GRAYSCALE;
    8855:	c7 45 3c 01 00 00 00 	movl   $0x1,0x3c(%rbp)
/home/tenebris/Disk/Documents/RootCauseAnalysis/evaluation/test_bin/libjpeg/libjpeg_heap_buffer_overflow/libjpeg-turbo/rdtarga.c:413
    if (source->pixel_size == 1)
    885c:	0f 84 95 00 00 00    	je     88f7 <start_input_tga+0x4b7>
/home/tenebris/Disk/Documents/RootCauseAnalysis/evaluation/test_bin/libjpeg/libjpeg_heap_buffer_overflow/libjpeg-turbo/rdtarga.c:416
      ERREXIT(cinfo, JERR_TGA_BADPARMS);
    8862:	c7 42 28 0b 04 00 00 	movl   $0x40b,0x28(%rdx)
    8869:	48 89 ef             	mov    %rbp,%rdi
    886c:	ff 12                	call   *(%rdx)
    886e:	48 8b 55 00          	mov    0x0(%rbp),%rdx
/home/tenebris/Disk/Documents/RootCauseAnalysis/evaluation/test_bin/libjpeg/libjpeg_heap_buffer_overflow/libjpeg-turbo/rdtarga.c:417
    TRACEMS2(cinfo, 1, JTRC_TGA_GRAY, width, height);
    8872:	8b 04 24             	mov    (%rsp),%eax
    8875:	44 89 6a 2c          	mov    %r13d,0x2c(%rdx)
    8879:	be 01 00 00 00       	mov    $0x1,%esi
    887e:	48 89 ef             	mov    %rbp,%rdi
    8881:	c7 42 28 0e 04 00 00 	movl   $0x40e,0x28(%rdx)
    8888:	89 42 30             	mov    %eax,0x30(%rdx)
    888b:	ff 52 08             	call   *0x8(%rdx)
/home/tenebris/Disk/Documents/RootCauseAnalysis/evaluation/test_bin/libjpeg/libjpeg_heap_buffer_overflow/libjpeg-turbo/rdtarga.c:411
    components = 1;
    888e:	c7 44 24 08 01 00 00 	movl   $0x1,0x8(%rsp)
    8895:	00 
/home/tenebris/Disk/Documents/RootCauseAnalysis/evaluation/test_bin/libjpeg/libjpeg_heap_buffer_overflow/libjpeg-turbo/rdtarga.c:356
  width = GET_2B(12);
    8896:	44 89 ea             	mov    %r13d,%edx
/home/tenebris/Disk/Documents/RootCauseAnalysis/evaluation/test_bin/libjpeg/libjpeg_heap_buffer_overflow/libjpeg-turbo/rdtarga.c:418
    break;
    8899:	e9 f5 fc ff ff       	jmp    8593 <start_input_tga+0x153>
    889e:	66 90                	xchg   %ax,%ax
/home/tenebris/Disk/Documents/RootCauseAnalysis/evaluation/test_bin/libjpeg/libjpeg_heap_buffer_overflow/libjpeg-turbo/rdtarga.c:394
    switch (source->pixel_size) {
    88a0:	41 8b 46 5c          	mov    0x5c(%r14),%eax
    88a4:	83 f8 02             	cmp    $0x2,%eax
    88a7:	74 5e                	je     8907 <start_input_tga+0x4c7>
    88a9:	83 e8 03             	sub    $0x3,%eax
    88ac:	83 f8 01             	cmp    $0x1,%eax
    88af:	77 63                	ja     8914 <start_input_tga+0x4d4>
/home/tenebris/Disk/Documents/RootCauseAnalysis/evaluation/test_bin/libjpeg/libjpeg_heap_buffer_overflow/libjpeg-turbo/rdtarga.c:399
      source->get_pixel_rows = get_24bit_row;
    88b1:	48 8d 05 88 f8 ff ff 	lea    -0x778(%rip),%rax        # 8140 <get_24bit_row>
    88b8:	49 89 46 68          	mov    %rax,0x68(%r14)
/home/tenebris/Disk/Documents/RootCauseAnalysis/evaluation/test_bin/libjpeg/libjpeg_heap_buffer_overflow/libjpeg-turbo/rdtarga.c:408
    TRACEMS2(cinfo, 1, JTRC_TGA, width, height);
    88bc:	c7 42 28 0d 04 00 00 	movl   $0x40d,0x28(%rdx)
    88c3:	e9 61 ff ff ff       	jmp    8829 <start_input_tga+0x3e9>
    88c8:	0f 1f 84 00 00 00 00 	nopl   0x0(%rax,%rax,1)
    88cf:	00 
/home/tenebris/Disk/Documents/RootCauseAnalysis/evaluation/test_bin/libjpeg/libjpeg_heap_buffer_overflow/libjpeg-turbo/rdtarga.c:366
      (UCH(targaheader[16]) & 7) != 0 || /* bits/pixel must be multiple of 8 */
    88d0:	83 e2 07             	and    $0x7,%edx
/home/tenebris/Disk/Documents/RootCauseAnalysis/evaluation/test_bin/libjpeg/libjpeg_heap_buffer_overflow/libjpeg-turbo/rdtarga.c:362
  interlace_type = flags >> 6;  /* bits 6/7 are interlace code */
    88d3:	c1 f9 06             	sar    $0x6,%ecx
/home/tenebris/Disk/Documents/RootCauseAnalysis/evaluation/test_bin/libjpeg/libjpeg_heap_buffer_overflow/libjpeg-turbo/rdtarga.c:366
      (UCH(targaheader[16]) & 7) != 0 || /* bits/pixel must be multiple of 8 */
    88d6:	09 ca                	or     %ecx,%edx
    88d8:	0f 85 44 fc ff ff    	jne    8522 <start_input_tga+0xe2>
/home/tenebris/Disk/Documents/RootCauseAnalysis/evaluation/test_bin/libjpeg/libjpeg_heap_buffer_overflow/libjpeg-turbo/rdtarga.c:368
      width == 0 || height == 0)  /* image width/height must be non-zero */
    88de:	45 85 ed             	test   %r13d,%r13d
    88e1:	0f 84 3b fc ff ff    	je     8522 <start_input_tga+0xe2>
    88e7:	8b 14 24             	mov    (%rsp),%edx
    88ea:	85 d2                	test   %edx,%edx
    88ec:	0f 85 40 fc ff ff    	jne    8532 <start_input_tga+0xf2>
    88f2:	e9 2b fc ff ff       	jmp    8522 <start_input_tga+0xe2>
/home/tenebris/Disk/Documents/RootCauseAnalysis/evaluation/test_bin/libjpeg/libjpeg_heap_buffer_overflow/libjpeg-turbo/rdtarga.c:414
      source->get_pixel_rows = get_8bit_gray_row;
    88f7:	48 8d 05 f2 f6 ff ff 	lea    -0x90e(%rip),%rax        # 7ff0 <get_8bit_gray_row>
    88fe:	49 89 46 68          	mov    %rax,0x68(%r14)
    8902:	e9 6b ff ff ff       	jmp    8872 <start_input_tga+0x432>
/home/tenebris/Disk/Documents/RootCauseAnalysis/evaluation/test_bin/libjpeg/libjpeg_heap_buffer_overflow/libjpeg-turbo/rdtarga.c:396
      source->get_pixel_rows = get_16bit_row;
    8907:	48 8d 05 a2 f7 ff ff 	lea    -0x85e(%rip),%rax        # 80b0 <get_16bit_row>
    890e:	49 89 46 68          	mov    %rax,0x68(%r14)
/home/tenebris/Disk/Documents/RootCauseAnalysis/evaluation/test_bin/libjpeg/libjpeg_heap_buffer_overflow/libjpeg-turbo/rdtarga.c:397
      break;
    8912:	eb a8                	jmp    88bc <start_input_tga+0x47c>
/home/tenebris/Disk/Documents/RootCauseAnalysis/evaluation/test_bin/libjpeg/libjpeg_heap_buffer_overflow/libjpeg-turbo/rdtarga.c:405
      ERREXIT(cinfo, JERR_TGA_BADPARMS);
    8914:	c7 42 28 0b 04 00 00 	movl   $0x40b,0x28(%rdx)
    891b:	48 89 ef             	mov    %rbp,%rdi
    891e:	ff 12                	call   *(%rdx)
/home/tenebris/Disk/Documents/RootCauseAnalysis/evaluation/test_bin/libjpeg/libjpeg_heap_buffer_overflow/libjpeg-turbo/rdtarga.c:406
      break;
    8920:	48 8b 55 00          	mov    0x0(%rbp),%rdx
    8924:	eb 96                	jmp    88bc <start_input_tga+0x47c>
/home/tenebris/Disk/Documents/RootCauseAnalysis/evaluation/test_bin/libjpeg/libjpeg_heap_buffer_overflow/libjpeg-turbo/rdtarga.c:388
      source->get_pixel_rows = get_8bit_row;
    8926:	48 8d 05 03 f7 ff ff 	lea    -0x8fd(%rip),%rax        # 8030 <get_8bit_row>
    892d:	49 89 46 68          	mov    %rax,0x68(%r14)
    8931:	e9 ec fe ff ff       	jmp    8822 <start_input_tga+0x3e2>
/home/tenebris/Disk/Documents/RootCauseAnalysis/evaluation/test_bin/libjpeg/libjpeg_heap_buffer_overflow/libjpeg-turbo/rdtarga.c:467
}
    8936:	e8 75 99 ff ff       	call   22b0 <__stack_chk_fail@plt>
    893b:	0f 1f 44 00 00       	nopl   0x0(%rax,%rax,1)

0000000000008940 <jinit_read_targa>:
jinit_read_targa():
/home/tenebris/Disk/Documents/RootCauseAnalysis/evaluation/test_bin/libjpeg/libjpeg_heap_buffer_overflow/libjpeg-turbo/rdtarga.c:487
 * The module selection routine for Targa format input.
 */

GLOBAL(cjpeg_source_ptr)
jinit_read_targa(j_compress_ptr cinfo)
{
    8940:	f3 0f 1e fa          	endbr64 
/home/tenebris/Disk/Documents/RootCauseAnalysis/evaluation/test_bin/libjpeg/libjpeg_heap_buffer_overflow/libjpeg-turbo/rdtarga.c:492
  tga_source_ptr source;

  /* Create module interface object */
  source = (tga_source_ptr)
    (*cinfo->mem->alloc_small) ((j_common_ptr)cinfo, JPOOL_IMAGE,
    8944:	48 8b 47 08          	mov    0x8(%rdi),%rax
/home/tenebris/Disk/Documents/RootCauseAnalysis/evaluation/test_bin/libjpeg/libjpeg_heap_buffer_overflow/libjpeg-turbo/rdtarga.c:487
{
    8948:	53                   	push   %rbx
/home/tenebris/Disk/Documents/RootCauseAnalysis/evaluation/test_bin/libjpeg/libjpeg_heap_buffer_overflow/libjpeg-turbo/rdtarga.c:492
    (*cinfo->mem->alloc_small) ((j_common_ptr)cinfo, JPOOL_IMAGE,
    8949:	ba 70 00 00 00       	mov    $0x70,%edx
/home/tenebris/Disk/Documents/RootCauseAnalysis/evaluation/test_bin/libjpeg/libjpeg_heap_buffer_overflow/libjpeg-turbo/rdtarga.c:487
{
    894e:	48 89 fb             	mov    %rdi,%rbx
/home/tenebris/Disk/Documents/RootCauseAnalysis/evaluation/test_bin/libjpeg/libjpeg_heap_buffer_overflow/libjpeg-turbo/rdtarga.c:492
    (*cinfo->mem->alloc_small) ((j_common_ptr)cinfo, JPOOL_IMAGE,
    8951:	be 01 00 00 00       	mov    $0x1,%esi
    8956:	ff 10                	call   *(%rax)
/home/tenebris/Disk/Documents/RootCauseAnalysis/evaluation/test_bin/libjpeg/libjpeg_heap_buffer_overflow/libjpeg-turbo/rdtarga.c:496
                                sizeof(tga_source_struct));
  source->cinfo = cinfo;        /* make back link for subroutines */
  /* Fill in method ptrs, except get_pixel_rows which start_input sets */
  source->pub.start_input = start_input_tga;
    8958:	48 8d 0d e1 fa ff ff 	lea    -0x51f(%rip),%rcx        # 8440 <start_input_tga>
/home/tenebris/Disk/Documents/RootCauseAnalysis/evaluation/test_bin/libjpeg/libjpeg_heap_buffer_overflow/libjpeg-turbo/rdtarga.c:497
  source->pub.finish_input = finish_input_tga;
    895f:	48 8d 15 8a f9 ff ff 	lea    -0x676(%rip),%rdx        # 82f0 <finish_input_tga>
/home/tenebris/Disk/Documents/RootCauseAnalysis/evaluation/test_bin/libjpeg/libjpeg_heap_buffer_overflow/libjpeg-turbo/rdtarga.c:494
  source->cinfo = cinfo;        /* make back link for subroutines */
    8966:	48 89 58 30          	mov    %rbx,0x30(%rax)
/home/tenebris/Disk/Documents/RootCauseAnalysis/evaluation/test_bin/libjpeg/libjpeg_heap_buffer_overflow/libjpeg-turbo/rdtarga.c:496
  source->pub.start_input = start_input_tga;
    896a:	48 89 08             	mov    %rcx,(%rax)
/home/tenebris/Disk/Documents/RootCauseAnalysis/evaluation/test_bin/libjpeg/libjpeg_heap_buffer_overflow/libjpeg-turbo/rdtarga.c:497
  source->pub.finish_input = finish_input_tga;
    896d:	48 89 50 10          	mov    %rdx,0x10(%rax)
/home/tenebris/Disk/Documents/RootCauseAnalysis/evaluation/test_bin/libjpeg/libjpeg_heap_buffer_overflow/libjpeg-turbo/rdtarga.c:500

  return (cjpeg_source_ptr)source;
}
    8971:	5b                   	pop    %rbx
    8972:	c3                   	ret    

Disassembly of section .fini:

0000000000008974 <_fini>:
_fini():
    8974:	f3 0f 1e fa          	endbr64 
    8978:	48 83 ec 08          	sub    $0x8,%rsp
    897c:	48 83 c4 08          	add    $0x8,%rsp
    8980:	c3                   	ret    
