
cjpeg_divide_by_zero_trace:     file format elf64-x86-64


Disassembly of section .init:

0000000000002000 <_init>:
_init():
    2000:	f3 0f 1e fa          	endbr64 
    2004:	48 83 ec 08          	sub    $0x8,%rsp
    2008:	48 8b 05 d9 cf 00 00 	mov    0xcfd9(%rip),%rax        # efe8 <__gmon_start__@Base>
    200f:	48 85 c0             	test   %rax,%rax
    2012:	74 02                	je     2016 <_init+0x16>
    2014:	ff d0                	call   *%rax
    2016:	48 83 c4 08          	add    $0x8,%rsp
    201a:	c3                   	ret    

Disassembly of section .plt:

0000000000002020 <.plt>:
    2020:	ff 35 8a ce 00 00    	push   0xce8a(%rip)        # eeb0 <_GLOBAL_OFFSET_TABLE_+0x8>
    2026:	f2 ff 25 8b ce 00 00 	bnd jmp *0xce8b(%rip)        # eeb8 <_GLOBAL_OFFSET_TABLE_+0x10>
    202d:	0f 1f 00             	nopl   (%rax)
    2030:	f3 0f 1e fa          	endbr64 
    2034:	68 00 00 00 00       	push   $0x0
    2039:	f2 e9 e1 ff ff ff    	bnd jmp 2020 <_init+0x20>
    203f:	90                   	nop
    2040:	f3 0f 1e fa          	endbr64 
    2044:	68 01 00 00 00       	push   $0x1
    2049:	f2 e9 d1 ff ff ff    	bnd jmp 2020 <_init+0x20>
    204f:	90                   	nop
    2050:	f3 0f 1e fa          	endbr64 
    2054:	68 02 00 00 00       	push   $0x2
    2059:	f2 e9 c1 ff ff ff    	bnd jmp 2020 <_init+0x20>
    205f:	90                   	nop
    2060:	f3 0f 1e fa          	endbr64 
    2064:	68 03 00 00 00       	push   $0x3
    2069:	f2 e9 b1 ff ff ff    	bnd jmp 2020 <_init+0x20>
    206f:	90                   	nop
    2070:	f3 0f 1e fa          	endbr64 
    2074:	68 04 00 00 00       	push   $0x4
    2079:	f2 e9 a1 ff ff ff    	bnd jmp 2020 <_init+0x20>
    207f:	90                   	nop
    2080:	f3 0f 1e fa          	endbr64 
    2084:	68 05 00 00 00       	push   $0x5
    2089:	f2 e9 91 ff ff ff    	bnd jmp 2020 <_init+0x20>
    208f:	90                   	nop
    2090:	f3 0f 1e fa          	endbr64 
    2094:	68 06 00 00 00       	push   $0x6
    2099:	f2 e9 81 ff ff ff    	bnd jmp 2020 <_init+0x20>
    209f:	90                   	nop
    20a0:	f3 0f 1e fa          	endbr64 
    20a4:	68 07 00 00 00       	push   $0x7
    20a9:	f2 e9 71 ff ff ff    	bnd jmp 2020 <_init+0x20>
    20af:	90                   	nop
    20b0:	f3 0f 1e fa          	endbr64 
    20b4:	68 08 00 00 00       	push   $0x8
    20b9:	f2 e9 61 ff ff ff    	bnd jmp 2020 <_init+0x20>
    20bf:	90                   	nop
    20c0:	f3 0f 1e fa          	endbr64 
    20c4:	68 09 00 00 00       	push   $0x9
    20c9:	f2 e9 51 ff ff ff    	bnd jmp 2020 <_init+0x20>
    20cf:	90                   	nop
    20d0:	f3 0f 1e fa          	endbr64 
    20d4:	68 0a 00 00 00       	push   $0xa
    20d9:	f2 e9 41 ff ff ff    	bnd jmp 2020 <_init+0x20>
    20df:	90                   	nop
    20e0:	f3 0f 1e fa          	endbr64 
    20e4:	68 0b 00 00 00       	push   $0xb
    20e9:	f2 e9 31 ff ff ff    	bnd jmp 2020 <_init+0x20>
    20ef:	90                   	nop
    20f0:	f3 0f 1e fa          	endbr64 
    20f4:	68 0c 00 00 00       	push   $0xc
    20f9:	f2 e9 21 ff ff ff    	bnd jmp 2020 <_init+0x20>
    20ff:	90                   	nop
    2100:	f3 0f 1e fa          	endbr64 
    2104:	68 0d 00 00 00       	push   $0xd
    2109:	f2 e9 11 ff ff ff    	bnd jmp 2020 <_init+0x20>
    210f:	90                   	nop
    2110:	f3 0f 1e fa          	endbr64 
    2114:	68 0e 00 00 00       	push   $0xe
    2119:	f2 e9 01 ff ff ff    	bnd jmp 2020 <_init+0x20>
    211f:	90                   	nop
    2120:	f3 0f 1e fa          	endbr64 
    2124:	68 0f 00 00 00       	push   $0xf
    2129:	f2 e9 f1 fe ff ff    	bnd jmp 2020 <_init+0x20>
    212f:	90                   	nop
    2130:	f3 0f 1e fa          	endbr64 
    2134:	68 10 00 00 00       	push   $0x10
    2139:	f2 e9 e1 fe ff ff    	bnd jmp 2020 <_init+0x20>
    213f:	90                   	nop
    2140:	f3 0f 1e fa          	endbr64 
    2144:	68 11 00 00 00       	push   $0x11
    2149:	f2 e9 d1 fe ff ff    	bnd jmp 2020 <_init+0x20>
    214f:	90                   	nop
    2150:	f3 0f 1e fa          	endbr64 
    2154:	68 12 00 00 00       	push   $0x12
    2159:	f2 e9 c1 fe ff ff    	bnd jmp 2020 <_init+0x20>
    215f:	90                   	nop
    2160:	f3 0f 1e fa          	endbr64 
    2164:	68 13 00 00 00       	push   $0x13
    2169:	f2 e9 b1 fe ff ff    	bnd jmp 2020 <_init+0x20>
    216f:	90                   	nop
    2170:	f3 0f 1e fa          	endbr64 
    2174:	68 14 00 00 00       	push   $0x14
    2179:	f2 e9 a1 fe ff ff    	bnd jmp 2020 <_init+0x20>
    217f:	90                   	nop
    2180:	f3 0f 1e fa          	endbr64 
    2184:	68 15 00 00 00       	push   $0x15
    2189:	f2 e9 91 fe ff ff    	bnd jmp 2020 <_init+0x20>
    218f:	90                   	nop
    2190:	f3 0f 1e fa          	endbr64 
    2194:	68 16 00 00 00       	push   $0x16
    2199:	f2 e9 81 fe ff ff    	bnd jmp 2020 <_init+0x20>
    219f:	90                   	nop
    21a0:	f3 0f 1e fa          	endbr64 
    21a4:	68 17 00 00 00       	push   $0x17
    21a9:	f2 e9 71 fe ff ff    	bnd jmp 2020 <_init+0x20>
    21af:	90                   	nop
    21b0:	f3 0f 1e fa          	endbr64 
    21b4:	68 18 00 00 00       	push   $0x18
    21b9:	f2 e9 61 fe ff ff    	bnd jmp 2020 <_init+0x20>
    21bf:	90                   	nop
    21c0:	f3 0f 1e fa          	endbr64 
    21c4:	68 19 00 00 00       	push   $0x19
    21c9:	f2 e9 51 fe ff ff    	bnd jmp 2020 <_init+0x20>
    21cf:	90                   	nop
    21d0:	f3 0f 1e fa          	endbr64 
    21d4:	68 1a 00 00 00       	push   $0x1a
    21d9:	f2 e9 41 fe ff ff    	bnd jmp 2020 <_init+0x20>
    21df:	90                   	nop
    21e0:	f3 0f 1e fa          	endbr64 
    21e4:	68 1b 00 00 00       	push   $0x1b
    21e9:	f2 e9 31 fe ff ff    	bnd jmp 2020 <_init+0x20>
    21ef:	90                   	nop
    21f0:	f3 0f 1e fa          	endbr64 
    21f4:	68 1c 00 00 00       	push   $0x1c
    21f9:	f2 e9 21 fe ff ff    	bnd jmp 2020 <_init+0x20>
    21ff:	90                   	nop
    2200:	f3 0f 1e fa          	endbr64 
    2204:	68 1d 00 00 00       	push   $0x1d
    2209:	f2 e9 11 fe ff ff    	bnd jmp 2020 <_init+0x20>
    220f:	90                   	nop
    2210:	f3 0f 1e fa          	endbr64 
    2214:	68 1e 00 00 00       	push   $0x1e
    2219:	f2 e9 01 fe ff ff    	bnd jmp 2020 <_init+0x20>
    221f:	90                   	nop
    2220:	f3 0f 1e fa          	endbr64 
    2224:	68 1f 00 00 00       	push   $0x1f
    2229:	f2 e9 f1 fd ff ff    	bnd jmp 2020 <_init+0x20>
    222f:	90                   	nop
    2230:	f3 0f 1e fa          	endbr64 
    2234:	68 20 00 00 00       	push   $0x20
    2239:	f2 e9 e1 fd ff ff    	bnd jmp 2020 <_init+0x20>
    223f:	90                   	nop
    2240:	f3 0f 1e fa          	endbr64 
    2244:	68 21 00 00 00       	push   $0x21
    2249:	f2 e9 d1 fd ff ff    	bnd jmp 2020 <_init+0x20>
    224f:	90                   	nop
    2250:	f3 0f 1e fa          	endbr64 
    2254:	68 22 00 00 00       	push   $0x22
    2259:	f2 e9 c1 fd ff ff    	bnd jmp 2020 <_init+0x20>
    225f:	90                   	nop

Disassembly of section .plt.got:

0000000000002260 <__cxa_finalize@plt>:
    2260:	f3 0f 1e fa          	endbr64 
    2264:	f2 ff 25 8d cd 00 00 	bnd jmp *0xcd8d(%rip)        # eff8 <__cxa_finalize@GLIBC_2.2.5>
    226b:	0f 1f 44 00 00       	nopl   0x0(%rax,%rax,1)

Disassembly of section .plt.sec:

0000000000002270 <free@plt>:
    2270:	f3 0f 1e fa          	endbr64 
    2274:	f2 ff 25 45 cc 00 00 	bnd jmp *0xcc45(%rip)        # eec0 <free@GLIBC_2.2.5>
    227b:	0f 1f 44 00 00       	nopl   0x0(%rax,%rax,1)

0000000000002280 <jpeg_default_colorspace@plt>:
    2280:	f3 0f 1e fa          	endbr64 
    2284:	f2 ff 25 3d cc 00 00 	bnd jmp *0xcc3d(%rip)        # eec8 <jpeg_default_colorspace@LIBJPEG_6.2>
    228b:	0f 1f 44 00 00       	nopl   0x0(%rax,%rax,1)

0000000000002290 <fread@plt>:
    2290:	f3 0f 1e fa          	endbr64 
    2294:	f2 ff 25 35 cc 00 00 	bnd jmp *0xcc35(%rip)        # eed0 <fread@GLIBC_2.2.5>
    229b:	0f 1f 44 00 00       	nopl   0x0(%rax,%rax,1)

00000000000022a0 <jpeg_add_quant_table@plt>:
    22a0:	f3 0f 1e fa          	endbr64 
    22a4:	f2 ff 25 2d cc 00 00 	bnd jmp *0xcc2d(%rip)        # eed8 <jpeg_add_quant_table@LIBJPEG_6.2>
    22ab:	0f 1f 44 00 00       	nopl   0x0(%rax,%rax,1)

00000000000022b0 <fclose@plt>:
    22b0:	f3 0f 1e fa          	endbr64 
    22b4:	f2 ff 25 25 cc 00 00 	bnd jmp *0xcc25(%rip)        # eee0 <fclose@GLIBC_2.2.5>
    22bb:	0f 1f 44 00 00       	nopl   0x0(%rax,%rax,1)

00000000000022c0 <__stack_chk_fail@plt>:
    22c0:	f3 0f 1e fa          	endbr64 
    22c4:	f2 ff 25 1d cc 00 00 	bnd jmp *0xcc1d(%rip)        # eee8 <__stack_chk_fail@GLIBC_2.4>
    22cb:	0f 1f 44 00 00       	nopl   0x0(%rax,%rax,1)

00000000000022d0 <jpeg_simple_progression@plt>:
    22d0:	f3 0f 1e fa          	endbr64 
    22d4:	f2 ff 25 15 cc 00 00 	bnd jmp *0xcc15(%rip)        # eef0 <jpeg_simple_progression@LIBJPEG_6.2>
    22db:	0f 1f 44 00 00       	nopl   0x0(%rax,%rax,1)

00000000000022e0 <jpeg_std_error@plt>:
    22e0:	f3 0f 1e fa          	endbr64 
    22e4:	f2 ff 25 0d cc 00 00 	bnd jmp *0xcc0d(%rip)        # eef8 <jpeg_std_error@LIBJPEG_6.2>
    22eb:	0f 1f 44 00 00       	nopl   0x0(%rax,%rax,1)

00000000000022f0 <ftell@plt>:
    22f0:	f3 0f 1e fa          	endbr64 
    22f4:	f2 ff 25 05 cc 00 00 	bnd jmp *0xcc05(%rip)        # ef00 <ftell@GLIBC_2.2.5>
    22fb:	0f 1f 44 00 00       	nopl   0x0(%rax,%rax,1)

0000000000002300 <feof@plt>:
    2300:	f3 0f 1e fa          	endbr64 
    2304:	f2 ff 25 fd cb 00 00 	bnd jmp *0xcbfd(%rip)        # ef08 <feof@GLIBC_2.2.5>
    230b:	0f 1f 44 00 00       	nopl   0x0(%rax,%rax,1)

0000000000002310 <jpeg_finish_compress@plt>:
    2310:	f3 0f 1e fa          	endbr64 
    2314:	f2 ff 25 f5 cb 00 00 	bnd jmp *0xcbf5(%rip)        # ef10 <jpeg_finish_compress@LIBJPEG_6.2>
    231b:	0f 1f 44 00 00       	nopl   0x0(%rax,%rax,1)

0000000000002320 <memcpy@plt>:
    2320:	f3 0f 1e fa          	endbr64 
    2324:	f2 ff 25 ed cb 00 00 	bnd jmp *0xcbed(%rip)        # ef18 <memcpy@GLIBC_2.14>
    232b:	0f 1f 44 00 00       	nopl   0x0(%rax,%rax,1)

0000000000002330 <jpeg_CreateCompress@plt>:
    2330:	f3 0f 1e fa          	endbr64 
    2334:	f2 ff 25 e5 cb 00 00 	bnd jmp *0xcbe5(%rip)        # ef20 <jpeg_CreateCompress@LIBJPEG_6.2>
    233b:	0f 1f 44 00 00       	nopl   0x0(%rax,%rax,1)

0000000000002340 <jpeg_quality_scaling@plt>:
    2340:	f3 0f 1e fa          	endbr64 
    2344:	f2 ff 25 dd cb 00 00 	bnd jmp *0xcbdd(%rip)        # ef28 <jpeg_quality_scaling@LIBJPEG_6.2>
    234b:	0f 1f 44 00 00       	nopl   0x0(%rax,%rax,1)

0000000000002350 <malloc@plt>:
    2350:	f3 0f 1e fa          	endbr64 
    2354:	f2 ff 25 d5 cb 00 00 	bnd jmp *0xcbd5(%rip)        # ef30 <malloc@GLIBC_2.2.5>
    235b:	0f 1f 44 00 00       	nopl   0x0(%rax,%rax,1)

0000000000002360 <fflush@plt>:
    2360:	f3 0f 1e fa          	endbr64 
    2364:	f2 ff 25 cd cb 00 00 	bnd jmp *0xcbcd(%rip)        # ef38 <fflush@GLIBC_2.2.5>
    236b:	0f 1f 44 00 00       	nopl   0x0(%rax,%rax,1)

0000000000002370 <__isoc99_sscanf@plt>:
    2370:	f3 0f 1e fa          	endbr64 
    2374:	f2 ff 25 c5 cb 00 00 	bnd jmp *0xcbc5(%rip)        # ef40 <__isoc99_sscanf@GLIBC_2.7>
    237b:	0f 1f 44 00 00       	nopl   0x0(%rax,%rax,1)

0000000000002380 <jpeg_start_compress@plt>:
    2380:	f3 0f 1e fa          	endbr64 
    2384:	f2 ff 25 bd cb 00 00 	bnd jmp *0xcbbd(%rip)        # ef48 <jpeg_start_compress@LIBJPEG_6.2>
    238b:	0f 1f 44 00 00       	nopl   0x0(%rax,%rax,1)

0000000000002390 <ungetc@plt>:
    2390:	f3 0f 1e fa          	endbr64 
    2394:	f2 ff 25 b5 cb 00 00 	bnd jmp *0xcbb5(%rip)        # ef50 <ungetc@GLIBC_2.2.5>
    239b:	0f 1f 44 00 00       	nopl   0x0(%rax,%rax,1)

00000000000023a0 <fseek@plt>:
    23a0:	f3 0f 1e fa          	endbr64 
    23a4:	f2 ff 25 ad cb 00 00 	bnd jmp *0xcbad(%rip)        # ef58 <fseek@GLIBC_2.2.5>
    23ab:	0f 1f 44 00 00       	nopl   0x0(%rax,%rax,1)

00000000000023b0 <jpeg_mem_dest@plt>:
    23b0:	f3 0f 1e fa          	endbr64 
    23b4:	f2 ff 25 a5 cb 00 00 	bnd jmp *0xcba5(%rip)        # ef60 <jpeg_mem_dest@LIBJPEGTURBO_6.2>
    23bb:	0f 1f 44 00 00       	nopl   0x0(%rax,%rax,1)

00000000000023c0 <jpeg_set_defaults@plt>:
    23c0:	f3 0f 1e fa          	endbr64 
    23c4:	f2 ff 25 9d cb 00 00 	bnd jmp *0xcb9d(%rip)        # ef68 <jpeg_set_defaults@LIBJPEG_6.2>
    23cb:	0f 1f 44 00 00       	nopl   0x0(%rax,%rax,1)

00000000000023d0 <jpeg_stdio_dest@plt>:
    23d0:	f3 0f 1e fa          	endbr64 
    23d4:	f2 ff 25 95 cb 00 00 	bnd jmp *0xcb95(%rip)        # ef70 <jpeg_stdio_dest@LIBJPEG_6.2>
    23db:	0f 1f 44 00 00       	nopl   0x0(%rax,%rax,1)

00000000000023e0 <__fread_chk@plt>:
    23e0:	f3 0f 1e fa          	endbr64 
    23e4:	f2 ff 25 8d cb 00 00 	bnd jmp *0xcb8d(%rip)        # ef78 <__fread_chk@GLIBC_2.7>
    23eb:	0f 1f 44 00 00       	nopl   0x0(%rax,%rax,1)

00000000000023f0 <jpeg_destroy_compress@plt>:
    23f0:	f3 0f 1e fa          	endbr64 
    23f4:	f2 ff 25 85 cb 00 00 	bnd jmp *0xcb85(%rip)        # ef80 <jpeg_destroy_compress@LIBJPEG_6.2>
    23fb:	0f 1f 44 00 00       	nopl   0x0(%rax,%rax,1)

0000000000002400 <fopen@plt>:
    2400:	f3 0f 1e fa          	endbr64 
    2404:	f2 ff 25 7d cb 00 00 	bnd jmp *0xcb7d(%rip)        # ef88 <fopen@GLIBC_2.2.5>
    240b:	0f 1f 44 00 00       	nopl   0x0(%rax,%rax,1)

0000000000002410 <jpeg_write_icc_profile@plt>:
    2410:	f3 0f 1e fa          	endbr64 
    2414:	f2 ff 25 75 cb 00 00 	bnd jmp *0xcb75(%rip)        # ef90 <jpeg_write_icc_profile@LIBJPEG_6.2>
    241b:	0f 1f 44 00 00       	nopl   0x0(%rax,%rax,1)

0000000000002420 <jpeg_write_scanlines@plt>:
    2420:	f3 0f 1e fa          	endbr64 
    2424:	f2 ff 25 6d cb 00 00 	bnd jmp *0xcb6d(%rip)        # ef98 <jpeg_write_scanlines@LIBJPEG_6.2>
    242b:	0f 1f 44 00 00       	nopl   0x0(%rax,%rax,1)

0000000000002430 <exit@plt>:
    2430:	f3 0f 1e fa          	endbr64 
    2434:	f2 ff 25 65 cb 00 00 	bnd jmp *0xcb65(%rip)        # efa0 <exit@GLIBC_2.2.5>
    243b:	0f 1f 44 00 00       	nopl   0x0(%rax,%rax,1)

0000000000002440 <fwrite@plt>:
    2440:	f3 0f 1e fa          	endbr64 
    2444:	f2 ff 25 5d cb 00 00 	bnd jmp *0xcb5d(%rip)        # efa8 <fwrite@GLIBC_2.2.5>
    244b:	0f 1f 44 00 00       	nopl   0x0(%rax,%rax,1)

0000000000002450 <__fprintf_chk@plt>:
    2450:	f3 0f 1e fa          	endbr64 
    2454:	f2 ff 25 55 cb 00 00 	bnd jmp *0xcb55(%rip)        # efb0 <__fprintf_chk@GLIBC_2.3.4>
    245b:	0f 1f 44 00 00       	nopl   0x0(%rax,%rax,1)

0000000000002460 <jpeg_set_colorspace@plt>:
    2460:	f3 0f 1e fa          	endbr64 
    2464:	f2 ff 25 4d cb 00 00 	bnd jmp *0xcb4d(%rip)        # efb8 <jpeg_set_colorspace@LIBJPEG_6.2>
    246b:	0f 1f 44 00 00       	nopl   0x0(%rax,%rax,1)

0000000000002470 <getc@plt>:
    2470:	f3 0f 1e fa          	endbr64 
    2474:	f2 ff 25 45 cb 00 00 	bnd jmp *0xcb45(%rip)        # efc0 <getc@GLIBC_2.2.5>
    247b:	0f 1f 44 00 00       	nopl   0x0(%rax,%rax,1)

0000000000002480 <__ctype_tolower_loc@plt>:
    2480:	f3 0f 1e fa          	endbr64 
    2484:	f2 ff 25 3d cb 00 00 	bnd jmp *0xcb3d(%rip)        # efc8 <__ctype_tolower_loc@GLIBC_2.3>
    248b:	0f 1f 44 00 00       	nopl   0x0(%rax,%rax,1)

0000000000002490 <__ctype_b_loc@plt>:
    2490:	f3 0f 1e fa          	endbr64 
    2494:	f2 ff 25 35 cb 00 00 	bnd jmp *0xcb35(%rip)        # efd0 <__ctype_b_loc@GLIBC_2.3>
    249b:	0f 1f 44 00 00       	nopl   0x0(%rax,%rax,1)

Disassembly of section .text:

00000000000024a0 <main.cold>:
select_file_type():
/home/tenebris/Disk/Racing-code/examples/23-libjpeg-divide-by-zero/libjpeg-turbo-2.0.90/cjpeg.c:125
#ifdef TARGA_SUPPORTED
  case 0x00:
    return jinit_read_targa(cinfo);
#endif
  default:
    ERREXIT(cinfo, JERR_UNKNOWN_FORMAT);
    24a0:	48 8b 84 24 10 01 00 	mov    0x110(%rsp),%rax
    24a7:	00 
    24a8:	48 89 ef             	mov    %rbp,%rdi
    24ab:	c7 40 28 14 04 00 00 	movl   $0x414,0x28(%rax)
    24b2:	ff 10                	call   *(%rax)
main():
/home/tenebris/Disk/Racing-code/examples/23-libjpeg-divide-by-zero/libjpeg-turbo-2.0.90/cjpeg.c:638
    progress.report = report;
  }

  /* Figure out the input file format, and set up to read it. */
  src_mgr = select_file_type(&cinfo, input_file);
  src_mgr->input_file = input_file;
    24b4:	48 8b 04 24          	mov    (%rsp),%rax
    24b8:	48 89 04 25 18 00 00 	mov    %rax,0x18
    24bf:	00 
    24c0:	0f 0b                	ud2    
main.cold():
    24c2:	66 2e 0f 1f 84 00 00 	cs nopw 0x0(%rax,%rax,1)
    24c9:	00 00 00 
    24cc:	0f 1f 40 00          	nopl   0x0(%rax)

00000000000024d0 <main>:
main():
/home/tenebris/Disk/Racing-code/examples/23-libjpeg-divide-by-zero/libjpeg-turbo-2.0.90/cjpeg.c:507
{
    24d0:	f3 0f 1e fa          	endbr64 
    24d4:	41 57                	push   %r15
    24d6:	41 56                	push   %r14
    24d8:	41 55                	push   %r13
    24da:	49 89 f5             	mov    %rsi,%r13
    24dd:	41 54                	push   %r12
    24df:	41 89 fc             	mov    %edi,%r12d
    24e2:	55                   	push   %rbp
    24e3:	53                   	push   %rbx
    24e4:	48 81 ec 28 03 00 00 	sub    $0x328,%rsp
    24eb:	64 48 8b 04 25 28 00 	mov    %fs:0x28,%rax
    24f2:	00 00 
    24f4:	48 89 84 24 18 03 00 	mov    %rax,0x318(%rsp)
    24fb:	00 
    24fc:	31 c0                	xor    %eax,%eax
/home/tenebris/Disk/Racing-code/examples/23-libjpeg-divide-by-zero/libjpeg-turbo-2.0.90/cjpeg.c:527
  progname = argv[0];
    24fe:	48 8b 06             	mov    (%rsi),%rax
/home/tenebris/Disk/Racing-code/examples/23-libjpeg-divide-by-zero/libjpeg-turbo-2.0.90/cjpeg.c:518
  unsigned char *outbuffer = NULL;
    2501:	48 c7 44 24 10 00 00 	movq   $0x0,0x10(%rsp)
    2508:	00 00 
/home/tenebris/Disk/Racing-code/examples/23-libjpeg-divide-by-zero/libjpeg-turbo-2.0.90/cjpeg.c:519
  unsigned long outsize = 0;
    250a:	48 c7 44 24 18 00 00 	movq   $0x0,0x18(%rsp)
    2511:	00 00 
/home/tenebris/Disk/Racing-code/examples/23-libjpeg-divide-by-zero/libjpeg-turbo-2.0.90/cjpeg.c:527
  progname = argv[0];
    2513:	48 89 05 56 cb 00 00 	mov    %rax,0xcb56(%rip)        # f070 <progname>
/home/tenebris/Disk/Racing-code/examples/23-libjpeg-divide-by-zero/libjpeg-turbo-2.0.90/cjpeg.c:528
  if (progname == NULL || progname[0] == 0)
    251a:	48 85 c0             	test   %rax,%rax
    251d:	0f 84 50 01 00 00    	je     2673 <main+0x1a3>
/home/tenebris/Disk/Racing-code/examples/23-libjpeg-divide-by-zero/libjpeg-turbo-2.0.90/cjpeg.c:528 (discriminator 1)
    2523:	80 38 00             	cmpb   $0x0,(%rax)
    2526:	0f 84 47 01 00 00    	je     2673 <main+0x1a3>
/home/tenebris/Disk/Racing-code/examples/23-libjpeg-divide-by-zero/libjpeg-turbo-2.0.90/cjpeg.c:533
  jpeg_create_compress(&cinfo);
    252c:	48 8d ac 24 10 01 00 	lea    0x110(%rsp),%rbp
    2533:	00 
/home/tenebris/Disk/Racing-code/examples/23-libjpeg-divide-by-zero/libjpeg-turbo-2.0.90/cjpeg.c:532
  cinfo.err = jpeg_std_error(&jerr);
    2534:	48 8d 7c 24 60       	lea    0x60(%rsp),%rdi
    2539:	e8 a2 fd ff ff       	call   22e0 <jpeg_std_error@plt>
/home/tenebris/Disk/Racing-code/examples/23-libjpeg-divide-by-zero/libjpeg-turbo-2.0.90/cjpeg.c:533
  jpeg_create_compress(&cinfo);
    253e:	ba 08 02 00 00       	mov    $0x208,%edx
    2543:	be 3e 00 00 00       	mov    $0x3e,%esi
    2548:	48 89 ef             	mov    %rbp,%rdi
/home/tenebris/Disk/Racing-code/examples/23-libjpeg-divide-by-zero/libjpeg-turbo-2.0.90/cjpeg.c:532
  cinfo.err = jpeg_std_error(&jerr);
    254b:	48 89 84 24 10 01 00 	mov    %rax,0x110(%rsp)
    2552:	00 
/home/tenebris/Disk/Racing-code/examples/23-libjpeg-divide-by-zero/libjpeg-turbo-2.0.90/cjpeg.c:533
  jpeg_create_compress(&cinfo);
    2553:	e8 d8 fd ff ff       	call   2330 <jpeg_CreateCompress@plt>
/home/tenebris/Disk/Racing-code/examples/23-libjpeg-divide-by-zero/libjpeg-turbo-2.0.90/cjpeg.c:535
  jerr.addon_message_table = cdjpeg_message_table;
    2558:	48 8d 05 c1 c5 00 00 	lea    0xc5c1(%rip),%rax        # eb20 <cdjpeg_message_table>
/home/tenebris/Disk/Racing-code/examples/23-libjpeg-divide-by-zero/libjpeg-turbo-2.0.90/cjpeg.c:546
  jpeg_set_defaults(&cinfo);
    255f:	48 89 ef             	mov    %rbp,%rdi
/home/tenebris/Disk/Racing-code/examples/23-libjpeg-divide-by-zero/libjpeg-turbo-2.0.90/cjpeg.c:545
  cinfo.in_color_space = JCS_RGB; /* arbitrary guess */
    2562:	c7 84 24 4c 01 00 00 	movl   $0x2,0x14c(%rsp)
    2569:	02 00 00 00 
/home/tenebris/Disk/Racing-code/examples/23-libjpeg-divide-by-zero/libjpeg-turbo-2.0.90/cjpeg.c:535
  jerr.addon_message_table = cdjpeg_message_table;
    256d:	48 89 84 24 f8 00 00 	mov    %rax,0xf8(%rsp)
    2574:	00 
/home/tenebris/Disk/Racing-code/examples/23-libjpeg-divide-by-zero/libjpeg-turbo-2.0.90/cjpeg.c:536
  jerr.first_addon_message = JMSG_FIRSTADDONCODE;
    2575:	48 8b 05 14 9b 00 00 	mov    0x9b14(%rip),%rax        # c090 <_IO_stdin_used+0x1090>
    257c:	48 89 84 24 00 01 00 	mov    %rax,0x100(%rsp)
    2583:	00 
/home/tenebris/Disk/Racing-code/examples/23-libjpeg-divide-by-zero/libjpeg-turbo-2.0.90/cjpeg.c:546
  jpeg_set_defaults(&cinfo);
    2584:	e8 37 fe ff ff       	call   23c0 <jpeg_set_defaults@plt>
/home/tenebris/Disk/Racing-code/examples/23-libjpeg-divide-by-zero/libjpeg-turbo-2.0.90/cjpeg.c:554
  file_index = parse_switches(&cinfo, argc, argv, 0, FALSE);
    2589:	4c 89 ea             	mov    %r13,%rdx
    258c:	31 c9                	xor    %ecx,%ecx
    258e:	44 89 e6             	mov    %r12d,%esi
    2591:	48 89 ef             	mov    %rbp,%rdi
    2594:	e8 77 09 00 00       	call   2f10 <parse_switches.constprop.0>
/home/tenebris/Disk/Racing-code/examples/23-libjpeg-divide-by-zero/libjpeg-turbo-2.0.90/cjpeg.c:576
  if (file_index < argc - 1) {
    2599:	41 8d 54 24 ff       	lea    -0x1(%r12),%edx
    259e:	39 c2                	cmp    %eax,%edx
    25a0:	0f 8f 2f 01 00 00    	jg     26d5 <main+0x205>
/home/tenebris/Disk/Racing-code/examples/23-libjpeg-divide-by-zero/libjpeg-turbo-2.0.90/cjpeg.c:583
  if (file_index < argc) {
    25a6:	41 39 c4             	cmp    %eax,%r12d
    25a9:	0f 8f d7 00 00 00    	jg     2686 <main+0x1b6>
/home/tenebris/Disk/Racing-code/examples/23-libjpeg-divide-by-zero/libjpeg-turbo-2.0.90/cjpeg.c:590
    input_file = read_stdin();
    25af:	e8 4c 17 00 00       	call   3d00 <read_stdin>
    25b4:	48 89 04 24          	mov    %rax,(%rsp)
/home/tenebris/Disk/Racing-code/examples/23-libjpeg-divide-by-zero/libjpeg-turbo-2.0.90/cjpeg.c:594
  if (outfilename != NULL) {
    25b8:	4c 8b 35 a1 ca 00 00 	mov    0xcaa1(%rip),%r14        # f060 <outfilename>
    25bf:	4d 85 f6             	test   %r14,%r14
    25c2:	0f 84 33 01 00 00    	je     26fb <main+0x22b>
/home/tenebris/Disk/Racing-code/examples/23-libjpeg-divide-by-zero/libjpeg-turbo-2.0.90/cjpeg.c:595
    if ((output_file = fopen(outfilename, WRITE_BINARY)) == NULL) {
    25c8:	4c 89 f7             	mov    %r14,%rdi
    25cb:	48 8d 35 ed 8b 00 00 	lea    0x8bed(%rip),%rsi        # b1bf <_IO_stdin_used+0x1bf>
    25d2:	e8 29 fe ff ff       	call   2400 <fopen@plt>
fprintf():
/usr/include/x86_64-linux-gnu/bits/stdio2.h:105

# ifdef __va_arg_pack
__fortify_function int
fprintf (FILE *__restrict __stream, const char *__restrict __fmt, ...)
{
  return __fprintf_chk (__stream, __USE_FORTIFY_LEVEL - 1, __fmt,
    25d7:	4c 8b 05 82 ca 00 00 	mov    0xca82(%rip),%r8        # f060 <outfilename>
main():
/home/tenebris/Disk/Racing-code/examples/23-libjpeg-divide-by-zero/libjpeg-turbo-2.0.90/cjpeg.c:595
    25de:	49 89 c6             	mov    %rax,%r14
    25e1:	48 85 c0             	test   %rax,%rax
    25e4:	0f 84 4d 04 00 00    	je     2a37 <main+0x567>
/home/tenebris/Disk/Racing-code/examples/23-libjpeg-divide-by-zero/libjpeg-turbo-2.0.90/cjpeg.c:604
  if (icc_filename != NULL) {
    25ea:	48 8b 1d 77 ca 00 00 	mov    0xca77(%rip),%rbx        # f068 <icc_filename>
    25f1:	48 85 db             	test   %rbx,%rbx
    25f4:	0f 84 1b 01 00 00    	je     2715 <main+0x245>
/home/tenebris/Disk/Racing-code/examples/23-libjpeg-divide-by-zero/libjpeg-turbo-2.0.90/cjpeg.c:605
    if ((icc_file = fopen(icc_filename, READ_BINARY)) == NULL) {
    25fa:	48 8d 35 a8 8b 00 00 	lea    0x8ba8(%rip),%rsi        # b1a9 <_IO_stdin_used+0x1a9>
    2601:	48 89 df             	mov    %rbx,%rdi
    2604:	e8 f7 fd ff ff       	call   2400 <fopen@plt>
    2609:	49 89 c7             	mov    %rax,%r15
    260c:	48 85 c0             	test   %rax,%rax
    260f:	0f 84 1b 04 00 00    	je     2a30 <main+0x560>
/home/tenebris/Disk/Racing-code/examples/23-libjpeg-divide-by-zero/libjpeg-turbo-2.0.90/cjpeg.c:609
    if (fseek(icc_file, 0, SEEK_END) < 0 ||
    2615:	31 f6                	xor    %esi,%esi
    2617:	ba 02 00 00 00       	mov    $0x2,%edx
    261c:	48 89 c7             	mov    %rax,%rdi
    261f:	e8 7c fd ff ff       	call   23a0 <fseek@plt>
    2624:	85 c0                	test   %eax,%eax
    2626:	78 19                	js     2641 <main+0x171>
/home/tenebris/Disk/Racing-code/examples/23-libjpeg-divide-by-zero/libjpeg-turbo-2.0.90/cjpeg.c:610 (discriminator 1)
        (icc_len = ftell(icc_file)) < 1 ||
    2628:	4c 89 ff             	mov    %r15,%rdi
    262b:	e8 c0 fc ff ff       	call   22f0 <ftell@plt>
    2630:	48 89 44 24 08       	mov    %rax,0x8(%rsp)
    2635:	48 89 c3             	mov    %rax,%rbx
/home/tenebris/Disk/Racing-code/examples/23-libjpeg-divide-by-zero/libjpeg-turbo-2.0.90/cjpeg.c:609 (discriminator 1)
    if (fseek(icc_file, 0, SEEK_END) < 0 ||
    2638:	48 85 c0             	test   %rax,%rax
    263b:	0f 8f 6b 02 00 00    	jg     28ac <main+0x3dc>
fprintf():
/usr/include/x86_64-linux-gnu/bits/stdio2.h:105
    2641:	4c 8b 05 20 ca 00 00 	mov    0xca20(%rip),%r8        # f068 <icc_filename>
    2648:	48 8b 0d 21 ca 00 00 	mov    0xca21(%rip),%rcx        # f070 <progname>
    264f:	48 8d 15 aa 95 00 00 	lea    0x95aa(%rip),%rdx        # bc00 <_IO_stdin_used+0xc00>
    2656:	48 8b 3d e3 c9 00 00 	mov    0xc9e3(%rip),%rdi        # f040 <stderr@GLIBC_2.2.5>
    265d:	be 01 00 00 00       	mov    $0x1,%esi
    2662:	31 c0                	xor    %eax,%eax
    2664:	e8 e7 fd ff ff       	call   2450 <__fprintf_chk@plt>
main():
/home/tenebris/Disk/Racing-code/examples/23-libjpeg-divide-by-zero/libjpeg-turbo-2.0.90/cjpeg.c:607
      exit(EXIT_FAILURE);
    2669:	bf 01 00 00 00       	mov    $0x1,%edi
    266e:	e8 bd fd ff ff       	call   2430 <exit@plt>
/home/tenebris/Disk/Racing-code/examples/23-libjpeg-divide-by-zero/libjpeg-turbo-2.0.90/cjpeg.c:529
    progname = "cjpeg";         /* in case C library doesn't provide it */
    2673:	48 8d 05 10 8b 00 00 	lea    0x8b10(%rip),%rax        # b18a <_IO_stdin_used+0x18a>
    267a:	48 89 05 ef c9 00 00 	mov    %rax,0xc9ef(%rip)        # f070 <progname>
    2681:	e9 a6 fe ff ff       	jmp    252c <main+0x5c>
/home/tenebris/Disk/Racing-code/examples/23-libjpeg-divide-by-zero/libjpeg-turbo-2.0.90/cjpeg.c:584
    if ((input_file = fopen(argv[file_index], READ_BINARY)) == NULL) {
    2686:	48 98                	cltq   
    2688:	48 8d 35 1a 8b 00 00 	lea    0x8b1a(%rip),%rsi        # b1a9 <_IO_stdin_used+0x1a9>
    268f:	49 8d 5c c5 00       	lea    0x0(%r13,%rax,8),%rbx
    2694:	48 8b 3b             	mov    (%rbx),%rdi
    2697:	e8 64 fd ff ff       	call   2400 <fopen@plt>
    269c:	48 89 04 24          	mov    %rax,(%rsp)
    26a0:	48 85 c0             	test   %rax,%rax
    26a3:	0f 85 0f ff ff ff    	jne    25b8 <main+0xe8>
fprintf():
/usr/include/x86_64-linux-gnu/bits/stdio2.h:105
    26a9:	48 8b 3d 90 c9 00 00 	mov    0xc990(%rip),%rdi        # f040 <stderr@GLIBC_2.2.5>
    26b0:	4c 8b 03             	mov    (%rbx),%r8
    26b3:	48 8d 15 f2 8a 00 00 	lea    0x8af2(%rip),%rdx        # b1ac <_IO_stdin_used+0x1ac>
    26ba:	be 01 00 00 00       	mov    $0x1,%esi
    26bf:	48 8b 0d aa c9 00 00 	mov    0xc9aa(%rip),%rcx        # f070 <progname>
    26c6:	e8 85 fd ff ff       	call   2450 <__fprintf_chk@plt>
main():
/home/tenebris/Disk/Racing-code/examples/23-libjpeg-divide-by-zero/libjpeg-turbo-2.0.90/cjpeg.c:586
      exit(EXIT_FAILURE);
    26cb:	bf 01 00 00 00       	mov    $0x1,%edi
    26d0:	e8 5b fd ff ff       	call   2430 <exit@plt>
fprintf():
/usr/include/x86_64-linux-gnu/bits/stdio2.h:105
    26d5:	48 8b 0d 94 c9 00 00 	mov    0xc994(%rip),%rcx        # f070 <progname>
    26dc:	48 8b 3d 5d c9 00 00 	mov    0xc95d(%rip),%rdi        # f040 <stderr@GLIBC_2.2.5>
    26e3:	48 8d 15 a6 8a 00 00 	lea    0x8aa6(%rip),%rdx        # b190 <_IO_stdin_used+0x190>
    26ea:	31 c0                	xor    %eax,%eax
    26ec:	be 01 00 00 00       	mov    $0x1,%esi
    26f1:	e8 5a fd ff ff       	call   2450 <__fprintf_chk@plt>
main():
/home/tenebris/Disk/Racing-code/examples/23-libjpeg-divide-by-zero/libjpeg-turbo-2.0.90/cjpeg.c:578
    usage();
    26f6:	e8 85 04 00 00       	call   2b80 <usage>
/home/tenebris/Disk/Racing-code/examples/23-libjpeg-divide-by-zero/libjpeg-turbo-2.0.90/cjpeg.c:599
  } else if (!memdst) {
    26fb:	83 3d 52 c9 00 00 00 	cmpl   $0x0,0xc952(%rip)        # f054 <memdst>
    2702:	0f 85 e2 fe ff ff    	jne    25ea <main+0x11a>
/home/tenebris/Disk/Racing-code/examples/23-libjpeg-divide-by-zero/libjpeg-turbo-2.0.90/cjpeg.c:601
    output_file = write_stdout();
    2708:	e8 03 16 00 00       	call   3d10 <write_stdout>
    270d:	49 89 c6             	mov    %rax,%r14
    2710:	e9 d5 fe ff ff       	jmp    25ea <main+0x11a>
/home/tenebris/Disk/Racing-code/examples/23-libjpeg-divide-by-zero/libjpeg-turbo-2.0.90/cjpeg.c:516
  long icc_len = 0;
    2715:	48 c7 44 24 08 00 00 	movq   $0x0,0x8(%rsp)
    271c:	00 00 
/home/tenebris/Disk/Racing-code/examples/23-libjpeg-divide-by-zero/libjpeg-turbo-2.0.90/cjpeg.c:631
  if (report) {
    271e:	83 3d 2b c9 00 00 00 	cmpl   $0x0,0xc92b(%rip)        # f050 <report>
    2725:	0f 85 c7 02 00 00    	jne    29f2 <main+0x522>
select_file_type():
/home/tenebris/Disk/Racing-code/examples/23-libjpeg-divide-by-zero/libjpeg-turbo-2.0.90/cjpeg.c:94
  if (is_targa) {
    272b:	83 3d 46 c9 00 00 00 	cmpl   $0x0,0xc946(%rip)        # f078 <is_targa>
    2732:	0f 85 5f 02 00 00    	jne    2997 <main+0x4c7>
/home/tenebris/Disk/Racing-code/examples/23-libjpeg-divide-by-zero/libjpeg-turbo-2.0.90/cjpeg.c:102
  if ((c = getc(infile)) == EOF)
    2738:	48 8b 3c 24          	mov    (%rsp),%rdi
    273c:	e8 2f fd ff ff       	call   2470 <getc@plt>
    2741:	41 89 c7             	mov    %eax,%r15d
    2744:	83 f8 ff             	cmp    $0xffffffff,%eax
    2747:	0f 84 e5 01 00 00    	je     2932 <main+0x462>
/home/tenebris/Disk/Racing-code/examples/23-libjpeg-divide-by-zero/libjpeg-turbo-2.0.90/cjpeg.c:104
  if (ungetc(c, infile) == EOF)
    274d:	48 8b 34 24          	mov    (%rsp),%rsi
    2751:	89 c7                	mov    %eax,%edi
    2753:	e8 38 fc ff ff       	call   2390 <ungetc@plt>
    2758:	83 c0 01             	add    $0x1,%eax
    275b:	0f 84 fa 01 00 00    	je     295b <main+0x48b>
/home/tenebris/Disk/Racing-code/examples/23-libjpeg-divide-by-zero/libjpeg-turbo-2.0.90/cjpeg.c:107
  switch (c) {
    2761:	41 83 ff 42          	cmp    $0x42,%r15d
    2765:	0f 84 a3 02 00 00    	je     2a0e <main+0x53e>
    276b:	0f 8e 1d 02 00 00    	jle    298e <main+0x4be>
    2771:	41 83 ff 47          	cmp    $0x47,%r15d
    2775:	0f 85 f9 01 00 00    	jne    2974 <main+0x4a4>
/home/tenebris/Disk/Racing-code/examples/23-libjpeg-divide-by-zero/libjpeg-turbo-2.0.90/cjpeg.c:114
    return jinit_read_gif(cinfo);
    277b:	48 89 ef             	mov    %rbp,%rdi
    277e:	e8 2d 29 00 00       	call   50b0 <jinit_read_gif>
    2783:	49 89 c7             	mov    %rax,%r15
main():
/home/tenebris/Disk/Racing-code/examples/23-libjpeg-divide-by-zero/libjpeg-turbo-2.0.90/cjpeg.c:638
  src_mgr->input_file = input_file;
    2786:	48 8b 04 24          	mov    (%rsp),%rax
/home/tenebris/Disk/Racing-code/examples/23-libjpeg-divide-by-zero/libjpeg-turbo-2.0.90/cjpeg.c:641

  /* Read the input file header to obtain file size & colorspace. */
  (*src_mgr->start_input) (&cinfo, src_mgr);
    278a:	4c 89 fe             	mov    %r15,%rsi
    278d:	48 89 ef             	mov    %rbp,%rdi
/home/tenebris/Disk/Racing-code/examples/23-libjpeg-divide-by-zero/libjpeg-turbo-2.0.90/cjpeg.c:638
  src_mgr->input_file = input_file;
    2790:	49 89 47 18          	mov    %rax,0x18(%r15)
/home/tenebris/Disk/Racing-code/examples/23-libjpeg-divide-by-zero/libjpeg-turbo-2.0.90/cjpeg.c:641
  (*src_mgr->start_input) (&cinfo, src_mgr);
    2794:	41 ff 17             	call   *(%r15)
/home/tenebris/Disk/Racing-code/examples/23-libjpeg-divide-by-zero/libjpeg-turbo-2.0.90/cjpeg.c:644

  /* Now that we know input colorspace, fix colorspace-dependent defaults */
  jpeg_default_colorspace(&cinfo);
    2797:	48 89 ef             	mov    %rbp,%rdi
    279a:	e8 e1 fa ff ff       	call   2280 <jpeg_default_colorspace@plt>
/home/tenebris/Disk/Racing-code/examples/23-libjpeg-divide-by-zero/libjpeg-turbo-2.0.90/cjpeg.c:647

  /* Adjust default compression parameters by re-parsing the options */
  file_index = parse_switches(&cinfo, argc, argv, 0, TRUE);
    279f:	b9 01 00 00 00       	mov    $0x1,%ecx
    27a4:	4c 89 ea             	mov    %r13,%rdx
    27a7:	44 89 e6             	mov    %r12d,%esi
    27aa:	48 89 ef             	mov    %rbp,%rdi
    27ad:	e8 5e 07 00 00       	call   2f10 <parse_switches.constprop.0>
/home/tenebris/Disk/Racing-code/examples/23-libjpeg-divide-by-zero/libjpeg-turbo-2.0.90/cjpeg.c:651

  /* Specify data destination for compression */
#if JPEG_LIB_VERSION >= 80 || defined(MEM_SRCDST_SUPPORTED)
  if (memdst)
    27b2:	83 3d 9b c8 00 00 00 	cmpl   $0x0,0xc89b(%rip)        # f054 <memdst>
    27b9:	0f 84 e8 01 00 00    	je     29a7 <main+0x4d7>
/home/tenebris/Disk/Racing-code/examples/23-libjpeg-divide-by-zero/libjpeg-turbo-2.0.90/cjpeg.c:652
    jpeg_mem_dest(&cinfo, &outbuffer, &outsize);
    27bf:	48 8d 54 24 18       	lea    0x18(%rsp),%rdx
    27c4:	48 8d 74 24 10       	lea    0x10(%rsp),%rsi
    27c9:	48 89 ef             	mov    %rbp,%rdi
    27cc:	e8 df fb ff ff       	call   23b0 <jpeg_mem_dest@plt>
/home/tenebris/Disk/Racing-code/examples/23-libjpeg-divide-by-zero/libjpeg-turbo-2.0.90/cjpeg.c:658
  else
#endif
    jpeg_stdio_dest(&cinfo, output_file);

  /* Start compressor */
  jpeg_start_compress(&cinfo, TRUE);
    27d1:	be 01 00 00 00       	mov    $0x1,%esi
    27d6:	48 89 ef             	mov    %rbp,%rdi
    27d9:	e8 a2 fb ff ff       	call   2380 <jpeg_start_compress@plt>
/home/tenebris/Disk/Racing-code/examples/23-libjpeg-divide-by-zero/libjpeg-turbo-2.0.90/cjpeg.c:660

  if (icc_profile != NULL)
    27de:	48 85 db             	test   %rbx,%rbx
    27e1:	74 0f                	je     27f2 <main+0x322>
/home/tenebris/Disk/Racing-code/examples/23-libjpeg-divide-by-zero/libjpeg-turbo-2.0.90/cjpeg.c:661
    jpeg_write_icc_profile(&cinfo, icc_profile, (unsigned int)icc_len);
    27e3:	8b 54 24 08          	mov    0x8(%rsp),%edx
    27e7:	48 89 de             	mov    %rbx,%rsi
    27ea:	48 89 ef             	mov    %rbp,%rdi
    27ed:	e8 1e fc ff ff       	call   2410 <jpeg_write_icc_profile@plt>
/home/tenebris/Disk/Racing-code/examples/23-libjpeg-divide-by-zero/libjpeg-turbo-2.0.90/cjpeg.c:664

  /* Process data */
  while (cinfo.next_scanline < cinfo.image_height) {
    27f2:	8b 84 24 40 02 00 00 	mov    0x240(%rsp),%eax
    27f9:	39 84 24 44 01 00 00 	cmp    %eax,0x144(%rsp)
    2800:	76 2e                	jbe    2830 <main+0x360>
    2802:	66 0f 1f 44 00 00    	nopw   0x0(%rax,%rax,1)
/home/tenebris/Disk/Racing-code/examples/23-libjpeg-divide-by-zero/libjpeg-turbo-2.0.90/cjpeg.c:665
    num_scanlines = (*src_mgr->get_pixel_rows) (&cinfo, src_mgr);
    2808:	4c 89 fe             	mov    %r15,%rsi
    280b:	48 89 ef             	mov    %rbp,%rdi
    280e:	41 ff 57 08          	call   *0x8(%r15)
/home/tenebris/Disk/Racing-code/examples/23-libjpeg-divide-by-zero/libjpeg-turbo-2.0.90/cjpeg.c:666
    (void)jpeg_write_scanlines(&cinfo, src_mgr->buffer, num_scanlines);
    2812:	49 8b 77 20          	mov    0x20(%r15),%rsi
    2816:	48 89 ef             	mov    %rbp,%rdi
/home/tenebris/Disk/Racing-code/examples/23-libjpeg-divide-by-zero/libjpeg-turbo-2.0.90/cjpeg.c:665
    num_scanlines = (*src_mgr->get_pixel_rows) (&cinfo, src_mgr);
    2819:	89 c2                	mov    %eax,%edx
/home/tenebris/Disk/Racing-code/examples/23-libjpeg-divide-by-zero/libjpeg-turbo-2.0.90/cjpeg.c:666
    (void)jpeg_write_scanlines(&cinfo, src_mgr->buffer, num_scanlines);
    281b:	e8 00 fc ff ff       	call   2420 <jpeg_write_scanlines@plt>
/home/tenebris/Disk/Racing-code/examples/23-libjpeg-divide-by-zero/libjpeg-turbo-2.0.90/cjpeg.c:664
  while (cinfo.next_scanline < cinfo.image_height) {
    2820:	8b 84 24 44 01 00 00 	mov    0x144(%rsp),%eax
    2827:	39 84 24 40 02 00 00 	cmp    %eax,0x240(%rsp)
    282e:	72 d8                	jb     2808 <main+0x338>
/home/tenebris/Disk/Racing-code/examples/23-libjpeg-divide-by-zero/libjpeg-turbo-2.0.90/cjpeg.c:670
  }

  /* Finish compression and release memory */
  (*src_mgr->finish_input) (&cinfo, src_mgr);
    2830:	4c 89 fe             	mov    %r15,%rsi
    2833:	48 89 ef             	mov    %rbp,%rdi
    2836:	41 ff 57 10          	call   *0x10(%r15)
/home/tenebris/Disk/Racing-code/examples/23-libjpeg-divide-by-zero/libjpeg-turbo-2.0.90/cjpeg.c:671
  jpeg_finish_compress(&cinfo);
    283a:	48 89 ef             	mov    %rbp,%rdi
    283d:	e8 ce fa ff ff       	call   2310 <jpeg_finish_compress@plt>
/home/tenebris/Disk/Racing-code/examples/23-libjpeg-divide-by-zero/libjpeg-turbo-2.0.90/cjpeg.c:672
  jpeg_destroy_compress(&cinfo);
    2842:	48 89 ef             	mov    %rbp,%rdi
    2845:	e8 a6 fb ff ff       	call   23f0 <jpeg_destroy_compress@plt>
/home/tenebris/Disk/Racing-code/examples/23-libjpeg-divide-by-zero/libjpeg-turbo-2.0.90/cjpeg.c:675

  /* Close files, if we opened them */
  if (input_file != stdin)
    284a:	48 8b 04 24          	mov    (%rsp),%rax
    284e:	48 39 05 db c7 00 00 	cmp    %rax,0xc7db(%rip)        # f030 <stdin@GLIBC_2.2.5>
    2855:	74 08                	je     285f <main+0x38f>
/home/tenebris/Disk/Racing-code/examples/23-libjpeg-divide-by-zero/libjpeg-turbo-2.0.90/cjpeg.c:676
    fclose(input_file);
    2857:	48 89 c7             	mov    %rax,%rdi
    285a:	e8 51 fa ff ff       	call   22b0 <fclose@plt>
/home/tenebris/Disk/Racing-code/examples/23-libjpeg-divide-by-zero/libjpeg-turbo-2.0.90/cjpeg.c:677
  if (output_file != stdout && output_file != NULL)
    285f:	4c 39 35 ba c7 00 00 	cmp    %r14,0xc7ba(%rip)        # f020 <stdout@GLIBC_2.2.5>
    2866:	74 0d                	je     2875 <main+0x3a5>
    2868:	4d 85 f6             	test   %r14,%r14
    286b:	74 08                	je     2875 <main+0x3a5>
/home/tenebris/Disk/Racing-code/examples/23-libjpeg-divide-by-zero/libjpeg-turbo-2.0.90/cjpeg.c:678
    fclose(output_file);
    286d:	4c 89 f7             	mov    %r14,%rdi
    2870:	e8 3b fa ff ff       	call   22b0 <fclose@plt>
/home/tenebris/Disk/Racing-code/examples/23-libjpeg-divide-by-zero/libjpeg-turbo-2.0.90/cjpeg.c:680

  if (report)
    2875:	83 3d d4 c7 00 00 00 	cmpl   $0x0,0xc7d4(%rip)        # f050 <report>
    287c:	0f 85 63 01 00 00    	jne    29e5 <main+0x515>
/home/tenebris/Disk/Racing-code/examples/23-libjpeg-divide-by-zero/libjpeg-turbo-2.0.90/cjpeg.c:683
    end_progress_monitor((j_common_ptr)&cinfo);

  if (memdst) {
    2882:	83 3d cb c7 00 00 00 	cmpl   $0x0,0xc7cb(%rip)        # f054 <memdst>
    2889:	0f 85 28 01 00 00    	jne    29b7 <main+0x4e7>
/home/tenebris/Disk/Racing-code/examples/23-libjpeg-divide-by-zero/libjpeg-turbo-2.0.90/cjpeg.c:688
    fprintf(stderr, "Compressed size:  %lu bytes\n", outsize);
    free(outbuffer);
  }

  free(icc_profile);
    288f:	48 89 df             	mov    %rbx,%rdi
    2892:	e8 d9 f9 ff ff       	call   2270 <free@plt>
/home/tenebris/Disk/Racing-code/examples/23-libjpeg-divide-by-zero/libjpeg-turbo-2.0.90/cjpeg.c:691

  /* All done. */
  exit(jerr.num_warnings ? EXIT_WARNING : EXIT_SUCCESS);
    2897:	48 8b 84 24 e0 00 00 	mov    0xe0(%rsp),%rax
    289e:	00 
    289f:	48 f7 d8             	neg    %rax
    28a2:	19 ff                	sbb    %edi,%edi
    28a4:	83 e7 02             	and    $0x2,%edi
    28a7:	e8 84 fb ff ff       	call   2430 <exit@plt>
/home/tenebris/Disk/Racing-code/examples/23-libjpeg-divide-by-zero/libjpeg-turbo-2.0.90/cjpeg.c:611
        fseek(icc_file, 0, SEEK_SET) < 0) {
    28ac:	31 d2                	xor    %edx,%edx
    28ae:	31 f6                	xor    %esi,%esi
    28b0:	4c 89 ff             	mov    %r15,%rdi
    28b3:	e8 e8 fa ff ff       	call   23a0 <fseek@plt>
/home/tenebris/Disk/Racing-code/examples/23-libjpeg-divide-by-zero/libjpeg-turbo-2.0.90/cjpeg.c:610
        (icc_len = ftell(icc_file)) < 1 ||
    28b8:	85 c0                	test   %eax,%eax
    28ba:	0f 88 81 fd ff ff    	js     2641 <main+0x171>
/home/tenebris/Disk/Racing-code/examples/23-libjpeg-divide-by-zero/libjpeg-turbo-2.0.90/cjpeg.c:616
    if ((icc_profile = (JOCTET *)malloc(icc_len)) == NULL) {
    28c0:	48 89 df             	mov    %rbx,%rdi
    28c3:	e8 88 fa ff ff       	call   2350 <malloc@plt>
    28c8:	48 89 c3             	mov    %rax,%rbx
    28cb:	48 85 c0             	test   %rax,%rax
    28ce:	0f 84 76 01 00 00    	je     2a4a <main+0x57a>
fread():
/usr/include/x86_64-linux-gnu/bits/stdio2.h:293
fread (void *__restrict __ptr, size_t __size, size_t __n,
       FILE *__restrict __stream)
{
  size_t sz = __glibc_objsize0 (__ptr);
  if (__glibc_safe_or_unknown_len (__n, __size, sz))
    return __fread_alias (__ptr, __size, __n, __stream);
    28d4:	48 8b 74 24 08       	mov    0x8(%rsp),%rsi
    28d9:	4c 89 f9             	mov    %r15,%rcx
    28dc:	ba 01 00 00 00       	mov    $0x1,%edx
    28e1:	48 89 c7             	mov    %rax,%rdi
    28e4:	e8 a7 f9 ff ff       	call   2290 <fread@plt>
main():
/home/tenebris/Disk/Racing-code/examples/23-libjpeg-divide-by-zero/libjpeg-turbo-2.0.90/cjpeg.c:621
    if (fread(icc_profile, icc_len, 1, icc_file) < 1) {
    28e9:	48 85 c0             	test   %rax,%rax
    28ec:	0f 85 31 01 00 00    	jne    2a23 <main+0x553>
fprintf():
/usr/include/x86_64-linux-gnu/bits/stdio2.h:105
  return __fprintf_chk (__stream, __USE_FORTIFY_LEVEL - 1, __fmt,
    28f2:	4c 8b 05 6f c7 00 00 	mov    0xc76f(%rip),%r8        # f068 <icc_filename>
    28f9:	48 8b 0d 70 c7 00 00 	mov    0xc770(%rip),%rcx        # f070 <progname>
    2900:	48 8d 15 49 93 00 00 	lea    0x9349(%rip),%rdx        # bc50 <_IO_stdin_used+0xc50>
    2907:	be 01 00 00 00       	mov    $0x1,%esi
    290c:	48 8b 3d 2d c7 00 00 	mov    0xc72d(%rip),%rdi        # f040 <stderr@GLIBC_2.2.5>
    2913:	e8 38 fb ff ff       	call   2450 <__fprintf_chk@plt>
main():
/home/tenebris/Disk/Racing-code/examples/23-libjpeg-divide-by-zero/libjpeg-turbo-2.0.90/cjpeg.c:624
      free(icc_profile);
    2918:	48 89 df             	mov    %rbx,%rdi
    291b:	e8 50 f9 ff ff       	call   2270 <free@plt>
/home/tenebris/Disk/Racing-code/examples/23-libjpeg-divide-by-zero/libjpeg-turbo-2.0.90/cjpeg.c:625
      fclose(icc_file);
    2920:	4c 89 ff             	mov    %r15,%rdi
    2923:	e8 88 f9 ff ff       	call   22b0 <fclose@plt>
/home/tenebris/Disk/Racing-code/examples/23-libjpeg-divide-by-zero/libjpeg-turbo-2.0.90/cjpeg.c:626
      exit(EXIT_FAILURE);
    2928:	bf 01 00 00 00       	mov    $0x1,%edi
    292d:	e8 fe fa ff ff       	call   2430 <exit@plt>
select_file_type():
/home/tenebris/Disk/Racing-code/examples/23-libjpeg-divide-by-zero/libjpeg-turbo-2.0.90/cjpeg.c:103
    ERREXIT(cinfo, JERR_INPUT_EMPTY);
    2932:	48 8b 84 24 10 01 00 	mov    0x110(%rsp),%rax
    2939:	00 
    293a:	48 89 ef             	mov    %rbp,%rdi
    293d:	c7 40 28 2a 00 00 00 	movl   $0x2a,0x28(%rax)
    2944:	ff 10                	call   *(%rax)
/home/tenebris/Disk/Racing-code/examples/23-libjpeg-divide-by-zero/libjpeg-turbo-2.0.90/cjpeg.c:104
  if (ungetc(c, infile) == EOF)
    2946:	48 8b 34 24          	mov    (%rsp),%rsi
    294a:	83 cf ff             	or     $0xffffffff,%edi
    294d:	e8 3e fa ff ff       	call   2390 <ungetc@plt>
    2952:	83 c0 01             	add    $0x1,%eax
    2955:	0f 85 45 fb ff ff    	jne    24a0 <main.cold>
/home/tenebris/Disk/Racing-code/examples/23-libjpeg-divide-by-zero/libjpeg-turbo-2.0.90/cjpeg.c:105
    ERREXIT(cinfo, JERR_UNGETC_FAILED);
    295b:	48 8b 84 24 10 01 00 	mov    0x110(%rsp),%rax
    2962:	00 
    2963:	48 89 ef             	mov    %rbp,%rdi
    2966:	c7 40 28 13 04 00 00 	movl   $0x413,0x28(%rax)
    296d:	ff 10                	call   *(%rax)
    296f:	e9 ed fd ff ff       	jmp    2761 <main+0x291>
/home/tenebris/Disk/Racing-code/examples/23-libjpeg-divide-by-zero/libjpeg-turbo-2.0.90/cjpeg.c:107
  switch (c) {
    2974:	41 83 ff 50          	cmp    $0x50,%r15d
    2978:	0f 85 04 01 00 00    	jne    2a82 <main+0x5b2>
/home/tenebris/Disk/Racing-code/examples/23-libjpeg-divide-by-zero/libjpeg-turbo-2.0.90/cjpeg.c:118
    return jinit_read_ppm(cinfo);
    297e:	48 89 ef             	mov    %rbp,%rdi
    2981:	e8 ea 48 00 00       	call   7270 <jinit_read_ppm>
    2986:	49 89 c7             	mov    %rax,%r15
    2989:	e9 f8 fd ff ff       	jmp    2786 <main+0x2b6>
/home/tenebris/Disk/Racing-code/examples/23-libjpeg-divide-by-zero/libjpeg-turbo-2.0.90/cjpeg.c:107
  switch (c) {
    298e:	45 85 ff             	test   %r15d,%r15d
    2991:	0f 85 e6 00 00 00    	jne    2a7d <main+0x5ad>
/home/tenebris/Disk/Racing-code/examples/23-libjpeg-divide-by-zero/libjpeg-turbo-2.0.90/cjpeg.c:122
    return jinit_read_targa(cinfo);
    2997:	48 89 ef             	mov    %rbp,%rdi
    299a:	e8 91 76 00 00       	call   a030 <jinit_read_targa>
    299f:	49 89 c7             	mov    %rax,%r15
    29a2:	e9 df fd ff ff       	jmp    2786 <main+0x2b6>
main():
/home/tenebris/Disk/Racing-code/examples/23-libjpeg-divide-by-zero/libjpeg-turbo-2.0.90/cjpeg.c:655
    jpeg_stdio_dest(&cinfo, output_file);
    29a7:	4c 89 f6             	mov    %r14,%rsi
    29aa:	48 89 ef             	mov    %rbp,%rdi
    29ad:	e8 1e fa ff ff       	call   23d0 <jpeg_stdio_dest@plt>
    29b2:	e9 1a fe ff ff       	jmp    27d1 <main+0x301>
fprintf():
/usr/include/x86_64-linux-gnu/bits/stdio2.h:105
    29b7:	48 8b 4c 24 18       	mov    0x18(%rsp),%rcx
    29bc:	48 8b 3d 7d c6 00 00 	mov    0xc67d(%rip),%rdi        # f040 <stderr@GLIBC_2.2.5>
    29c3:	48 8d 15 f8 87 00 00 	lea    0x87f8(%rip),%rdx        # b1c2 <_IO_stdin_used+0x1c2>
    29ca:	31 c0                	xor    %eax,%eax
    29cc:	be 01 00 00 00       	mov    $0x1,%esi
    29d1:	e8 7a fa ff ff       	call   2450 <__fprintf_chk@plt>
main():
/home/tenebris/Disk/Racing-code/examples/23-libjpeg-divide-by-zero/libjpeg-turbo-2.0.90/cjpeg.c:685
    free(outbuffer);
    29d6:	48 8b 7c 24 10       	mov    0x10(%rsp),%rdi
    29db:	e8 90 f8 ff ff       	call   2270 <free@plt>
    29e0:	e9 aa fe ff ff       	jmp    288f <main+0x3bf>
/home/tenebris/Disk/Racing-code/examples/23-libjpeg-divide-by-zero/libjpeg-turbo-2.0.90/cjpeg.c:681
    end_progress_monitor((j_common_ptr)&cinfo);
    29e5:	48 89 ef             	mov    %rbp,%rdi
    29e8:	e8 23 12 00 00       	call   3c10 <end_progress_monitor>
    29ed:	e9 90 fe ff ff       	jmp    2882 <main+0x3b2>
/home/tenebris/Disk/Racing-code/examples/23-libjpeg-divide-by-zero/libjpeg-turbo-2.0.90/cjpeg.c:632
    start_progress_monitor((j_common_ptr)&cinfo, &progress);
    29f2:	48 8d 74 24 20       	lea    0x20(%rsp),%rsi
    29f7:	48 89 ef             	mov    %rbp,%rdi
    29fa:	e8 d1 11 00 00       	call   3bd0 <start_progress_monitor>
/home/tenebris/Disk/Racing-code/examples/23-libjpeg-divide-by-zero/libjpeg-turbo-2.0.90/cjpeg.c:633
    progress.report = report;
    29ff:	8b 05 4b c6 00 00    	mov    0xc64b(%rip),%eax        # f050 <report>
    2a05:	89 44 24 4c          	mov    %eax,0x4c(%rsp)
    2a09:	e9 1d fd ff ff       	jmp    272b <main+0x25b>
select_file_type():
/home/tenebris/Disk/Racing-code/examples/23-libjpeg-divide-by-zero/libjpeg-turbo-2.0.90/cjpeg.c:110
    return jinit_read_bmp(cinfo, TRUE);
    2a0e:	be 01 00 00 00       	mov    $0x1,%esi
    2a13:	48 89 ef             	mov    %rbp,%rdi
    2a16:	e8 35 6c 00 00       	call   9650 <jinit_read_bmp>
    2a1b:	49 89 c7             	mov    %rax,%r15
    2a1e:	e9 63 fd ff ff       	jmp    2786 <main+0x2b6>
main():
/home/tenebris/Disk/Racing-code/examples/23-libjpeg-divide-by-zero/libjpeg-turbo-2.0.90/cjpeg.c:628
    fclose(icc_file);
    2a23:	4c 89 ff             	mov    %r15,%rdi
    2a26:	e8 85 f8 ff ff       	call   22b0 <fclose@plt>
    2a2b:	e9 ee fc ff ff       	jmp    271e <main+0x24e>
fprintf():
/usr/include/x86_64-linux-gnu/bits/stdio2.h:105
    2a30:	4c 8b 05 31 c6 00 00 	mov    0xc631(%rip),%r8        # f068 <icc_filename>
    2a37:	48 8b 0d 32 c6 00 00 	mov    0xc632(%rip),%rcx        # f070 <progname>
    2a3e:	48 8d 15 67 87 00 00 	lea    0x8767(%rip),%rdx        # b1ac <_IO_stdin_used+0x1ac>
    2a45:	e9 0c fc ff ff       	jmp    2656 <main+0x186>
    2a4a:	48 8b 0d 1f c6 00 00 	mov    0xc61f(%rip),%rcx        # f070 <progname>
    2a51:	48 8b 3d e8 c5 00 00 	mov    0xc5e8(%rip),%rdi        # f040 <stderr@GLIBC_2.2.5>
    2a58:	48 8d 15 c1 91 00 00 	lea    0x91c1(%rip),%rdx        # bc20 <_IO_stdin_used+0xc20>
    2a5f:	31 c0                	xor    %eax,%eax
    2a61:	be 01 00 00 00       	mov    $0x1,%esi
    2a66:	e8 e5 f9 ff ff       	call   2450 <__fprintf_chk@plt>
main():
/home/tenebris/Disk/Racing-code/examples/23-libjpeg-divide-by-zero/libjpeg-turbo-2.0.90/cjpeg.c:618
      fclose(icc_file);
    2a6b:	4c 89 ff             	mov    %r15,%rdi
    2a6e:	e8 3d f8 ff ff       	call   22b0 <fclose@plt>
/home/tenebris/Disk/Racing-code/examples/23-libjpeg-divide-by-zero/libjpeg-turbo-2.0.90/cjpeg.c:619
      exit(EXIT_FAILURE);
    2a73:	bf 01 00 00 00       	mov    $0x1,%edi
    2a78:	e8 b3 f9 ff ff       	call   2430 <exit@plt>
    2a7d:	e9 1e fa ff ff       	jmp    24a0 <main.cold>
    2a82:	e9 19 fa ff ff       	jmp    24a0 <main.cold>
    2a87:	66 0f 1f 84 00 00 00 	nopw   0x0(%rax,%rax,1)
    2a8e:	00 00 

0000000000002a90 <_start>:
_start():
    2a90:	f3 0f 1e fa          	endbr64 
    2a94:	31 ed                	xor    %ebp,%ebp
    2a96:	49 89 d1             	mov    %rdx,%r9
    2a99:	5e                   	pop    %rsi
    2a9a:	48 89 e2             	mov    %rsp,%rdx
    2a9d:	48 83 e4 f0          	and    $0xfffffffffffffff0,%rsp
    2aa1:	50                   	push   %rax
    2aa2:	54                   	push   %rsp
    2aa3:	45 31 c0             	xor    %r8d,%r8d
    2aa6:	31 c9                	xor    %ecx,%ecx
    2aa8:	48 8d 3d 21 fa ff ff 	lea    -0x5df(%rip),%rdi        # 24d0 <main>
    2aaf:	ff 15 23 c5 00 00    	call   *0xc523(%rip)        # efd8 <__libc_start_main@GLIBC_2.34>
    2ab5:	f4                   	hlt    
    2ab6:	66 2e 0f 1f 84 00 00 	cs nopw 0x0(%rax,%rax,1)
    2abd:	00 00 00 

0000000000002ac0 <deregister_tm_clones>:
deregister_tm_clones():
    2ac0:	48 8d 3d 59 c5 00 00 	lea    0xc559(%rip),%rdi        # f020 <stdout@GLIBC_2.2.5>
    2ac7:	48 8d 05 52 c5 00 00 	lea    0xc552(%rip),%rax        # f020 <stdout@GLIBC_2.2.5>
    2ace:	48 39 f8             	cmp    %rdi,%rax
    2ad1:	74 15                	je     2ae8 <deregister_tm_clones+0x28>
    2ad3:	48 8b 05 06 c5 00 00 	mov    0xc506(%rip),%rax        # efe0 <_ITM_deregisterTMCloneTable@Base>
    2ada:	48 85 c0             	test   %rax,%rax
    2add:	74 09                	je     2ae8 <deregister_tm_clones+0x28>
    2adf:	ff e0                	jmp    *%rax
    2ae1:	0f 1f 80 00 00 00 00 	nopl   0x0(%rax)
    2ae8:	c3                   	ret    
    2ae9:	0f 1f 80 00 00 00 00 	nopl   0x0(%rax)

0000000000002af0 <register_tm_clones>:
register_tm_clones():
    2af0:	48 8d 3d 29 c5 00 00 	lea    0xc529(%rip),%rdi        # f020 <stdout@GLIBC_2.2.5>
    2af7:	48 8d 35 22 c5 00 00 	lea    0xc522(%rip),%rsi        # f020 <stdout@GLIBC_2.2.5>
    2afe:	48 29 fe             	sub    %rdi,%rsi
    2b01:	48 89 f0             	mov    %rsi,%rax
    2b04:	48 c1 ee 3f          	shr    $0x3f,%rsi
    2b08:	48 c1 f8 03          	sar    $0x3,%rax
    2b0c:	48 01 c6             	add    %rax,%rsi
    2b0f:	48 d1 fe             	sar    %rsi
    2b12:	74 14                	je     2b28 <register_tm_clones+0x38>
    2b14:	48 8b 05 d5 c4 00 00 	mov    0xc4d5(%rip),%rax        # eff0 <_ITM_registerTMCloneTable@Base>
    2b1b:	48 85 c0             	test   %rax,%rax
    2b1e:	74 08                	je     2b28 <register_tm_clones+0x38>
    2b20:	ff e0                	jmp    *%rax
    2b22:	66 0f 1f 44 00 00    	nopw   0x0(%rax,%rax,1)
    2b28:	c3                   	ret    
    2b29:	0f 1f 80 00 00 00 00 	nopl   0x0(%rax)

0000000000002b30 <__do_global_dtors_aux>:
__do_global_dtors_aux():
    2b30:	f3 0f 1e fa          	endbr64 
    2b34:	80 3d 0d c5 00 00 00 	cmpb   $0x0,0xc50d(%rip)        # f048 <completed.0>
    2b3b:	75 2b                	jne    2b68 <__do_global_dtors_aux+0x38>
    2b3d:	55                   	push   %rbp
    2b3e:	48 83 3d b2 c4 00 00 	cmpq   $0x0,0xc4b2(%rip)        # eff8 <__cxa_finalize@GLIBC_2.2.5>
    2b45:	00 
    2b46:	48 89 e5             	mov    %rsp,%rbp
    2b49:	74 0c                	je     2b57 <__do_global_dtors_aux+0x27>
    2b4b:	48 8b 3d b6 c4 00 00 	mov    0xc4b6(%rip),%rdi        # f008 <__dso_handle>
    2b52:	e8 09 f7 ff ff       	call   2260 <__cxa_finalize@plt>
    2b57:	e8 64 ff ff ff       	call   2ac0 <deregister_tm_clones>
    2b5c:	c6 05 e5 c4 00 00 01 	movb   $0x1,0xc4e5(%rip)        # f048 <completed.0>
    2b63:	5d                   	pop    %rbp
    2b64:	c3                   	ret    
    2b65:	0f 1f 00             	nopl   (%rax)
    2b68:	c3                   	ret    
    2b69:	0f 1f 80 00 00 00 00 	nopl   0x0(%rax)

0000000000002b70 <frame_dummy>:
frame_dummy():
    2b70:	f3 0f 1e fa          	endbr64 
    2b74:	e9 77 ff ff ff       	jmp    2af0 <register_tm_clones>
    2b79:	0f 1f 80 00 00 00 00 	nopl   0x0(%rax)

0000000000002b80 <usage>:
usage():
/home/tenebris/Disk/Racing-code/examples/23-libjpeg-divide-by-zero/libjpeg-turbo-2.0.90/cjpeg.c:152
{
    2b80:	41 54                	push   %r12
fprintf():
/usr/include/x86_64-linux-gnu/bits/stdio2.h:105
    2b82:	48 8b 0d e7 c4 00 00 	mov    0xc4e7(%rip),%rcx        # f070 <progname>
    2b89:	be 01 00 00 00       	mov    $0x1,%esi
    2b8e:	31 c0                	xor    %eax,%eax
    2b90:	48 8b 3d a9 c4 00 00 	mov    0xc4a9(%rip),%rdi        # f040 <stderr@GLIBC_2.2.5>
    2b97:	48 8d 15 66 84 00 00 	lea    0x8466(%rip),%rdx        # b004 <_IO_stdin_used+0x4>
    2b9e:	4c 8d 25 33 85 00 00 	lea    0x8533(%rip),%r12        # b0d8 <_IO_stdin_used+0xd8>
    2ba5:	e8 a6 f8 ff ff       	call   2450 <__fprintf_chk@plt>
    2baa:	ba 0c 00 00 00       	mov    $0xc,%edx
    2baf:	48 8b 0d 8a c4 00 00 	mov    0xc48a(%rip),%rcx        # f040 <stderr@GLIBC_2.2.5>
    2bb6:	be 01 00 00 00       	mov    $0x1,%esi
    2bbb:	48 8d 3d 58 84 00 00 	lea    0x8458(%rip),%rdi        # b01a <_IO_stdin_used+0x1a>
    2bc2:	e8 79 f8 ff ff       	call   2440 <fwrite@plt>
    2bc7:	ba 25 00 00 00       	mov    $0x25,%edx
    2bcc:	48 8b 0d 6d c4 00 00 	mov    0xc46d(%rip),%rcx        # f040 <stderr@GLIBC_2.2.5>
    2bd3:	be 01 00 00 00       	mov    $0x1,%esi
    2bd8:	48 8d 3d d1 87 00 00 	lea    0x87d1(%rip),%rdi        # b3b0 <_IO_stdin_used+0x3b0>
    2bdf:	e8 5c f8 ff ff       	call   2440 <fwrite@plt>
    2be4:	ba 4d 00 00 00       	mov    $0x4d,%edx
    2be9:	48 8b 0d 50 c4 00 00 	mov    0xc450(%rip),%rcx        # f040 <stderr@GLIBC_2.2.5>
    2bf0:	be 01 00 00 00       	mov    $0x1,%esi
    2bf5:	48 8d 3d dc 87 00 00 	lea    0x87dc(%rip),%rdi        # b3d8 <_IO_stdin_used+0x3d8>
    2bfc:	e8 3f f8 ff ff       	call   2440 <fwrite@plt>
    2c01:	ba 24 00 00 00       	mov    $0x24,%edx
    2c06:	48 8b 0d 33 c4 00 00 	mov    0xc433(%rip),%rcx        # f040 <stderr@GLIBC_2.2.5>
    2c0d:	be 01 00 00 00       	mov    $0x1,%esi
    2c12:	48 8d 3d 0f 88 00 00 	lea    0x880f(%rip),%rdi        # b428 <_IO_stdin_used+0x428>
    2c19:	e8 22 f8 ff ff       	call   2440 <fwrite@plt>
    2c1e:	ba 2d 00 00 00       	mov    $0x2d,%edx
    2c23:	48 8b 0d 16 c4 00 00 	mov    0xc416(%rip),%rcx        # f040 <stderr@GLIBC_2.2.5>
    2c2a:	be 01 00 00 00       	mov    $0x1,%esi
    2c2f:	48 8d 3d 1a 88 00 00 	lea    0x881a(%rip),%rdi        # b450 <_IO_stdin_used+0x450>
    2c36:	e8 05 f8 ff ff       	call   2440 <fwrite@plt>
    2c3b:	ba 26 00 00 00       	mov    $0x26,%edx
    2c40:	48 8b 0d f9 c3 00 00 	mov    0xc3f9(%rip),%rcx        # f040 <stderr@GLIBC_2.2.5>
    2c47:	be 01 00 00 00       	mov    $0x1,%esi
    2c4c:	48 8d 3d 2d 88 00 00 	lea    0x882d(%rip),%rdi        # b480 <_IO_stdin_used+0x480>
    2c53:	e8 e8 f7 ff ff       	call   2440 <fwrite@plt>
    2c58:	ba 4d 00 00 00       	mov    $0x4d,%edx
    2c5d:	48 8b 0d dc c3 00 00 	mov    0xc3dc(%rip),%rcx        # f040 <stderr@GLIBC_2.2.5>
    2c64:	be 01 00 00 00       	mov    $0x1,%esi
    2c69:	48 8d 3d 38 88 00 00 	lea    0x8838(%rip),%rdi        # b4a8 <_IO_stdin_used+0x4a8>
    2c70:	e8 cb f7 ff ff       	call   2440 <fwrite@plt>
    2c75:	ba 2e 00 00 00       	mov    $0x2e,%edx
    2c7a:	48 8b 0d bf c3 00 00 	mov    0xc3bf(%rip),%rcx        # f040 <stderr@GLIBC_2.2.5>
    2c81:	be 01 00 00 00       	mov    $0x1,%esi
    2c86:	48 8d 3d 6b 88 00 00 	lea    0x886b(%rip),%rdi        # b4f8 <_IO_stdin_used+0x4f8>
    2c8d:	e8 ae f7 ff ff       	call   2440 <fwrite@plt>
    2c92:	ba 41 00 00 00       	mov    $0x41,%edx
    2c97:	48 8b 0d a2 c3 00 00 	mov    0xc3a2(%rip),%rcx        # f040 <stderr@GLIBC_2.2.5>
    2c9e:	be 01 00 00 00       	mov    $0x1,%esi
    2ca3:	48 8d 3d 7e 88 00 00 	lea    0x887e(%rip),%rdi        # b528 <_IO_stdin_used+0x528>
    2caa:	e8 91 f7 ff ff       	call   2440 <fwrite@plt>
    2caf:	ba 1d 00 00 00       	mov    $0x1d,%edx
    2cb4:	48 8b 0d 85 c3 00 00 	mov    0xc385(%rip),%rcx        # f040 <stderr@GLIBC_2.2.5>
    2cbb:	be 01 00 00 00       	mov    $0x1,%esi
    2cc0:	48 8d 3d 60 83 00 00 	lea    0x8360(%rip),%rdi        # b027 <_IO_stdin_used+0x27>
    2cc7:	e8 74 f7 ff ff       	call   2440 <fwrite@plt>
    2ccc:	ba 27 00 00 00       	mov    $0x27,%edx
    2cd1:	48 8b 0d 68 c3 00 00 	mov    0xc368(%rip),%rcx        # f040 <stderr@GLIBC_2.2.5>
    2cd8:	be 01 00 00 00       	mov    $0x1,%esi
    2cdd:	48 8d 3d 8c 88 00 00 	lea    0x888c(%rip),%rdi        # b570 <_IO_stdin_used+0x570>
    2ce4:	e8 57 f7 ff ff       	call   2440 <fwrite@plt>
    2ce9:	48 8b 3d 50 c3 00 00 	mov    0xc350(%rip),%rdi        # f040 <stderr@GLIBC_2.2.5>
    2cf0:	be 01 00 00 00       	mov    $0x1,%esi
    2cf5:	31 c0                	xor    %eax,%eax
    2cf7:	48 8d 0d 47 83 00 00 	lea    0x8347(%rip),%rcx        # b045 <_IO_stdin_used+0x45>
    2cfe:	48 8d 15 93 88 00 00 	lea    0x8893(%rip),%rdx        # b598 <_IO_stdin_used+0x598>
    2d05:	e8 46 f7 ff ff       	call   2450 <__fprintf_chk@plt>
    2d0a:	4c 89 e1             	mov    %r12,%rcx
    2d0d:	be 01 00 00 00       	mov    $0x1,%esi
    2d12:	31 c0                	xor    %eax,%eax
    2d14:	48 8b 3d 25 c3 00 00 	mov    0xc325(%rip),%rdi        # f040 <stderr@GLIBC_2.2.5>
    2d1b:	48 8d 15 ae 88 00 00 	lea    0x88ae(%rip),%rdx        # b5d0 <_IO_stdin_used+0x5d0>
    2d22:	e8 29 f7 ff ff       	call   2450 <__fprintf_chk@plt>
    2d27:	4c 89 e1             	mov    %r12,%rcx
    2d2a:	be 01 00 00 00       	mov    $0x1,%esi
    2d2f:	31 c0                	xor    %eax,%eax
    2d31:	48 8b 3d 08 c3 00 00 	mov    0xc308(%rip),%rdi        # f040 <stderr@GLIBC_2.2.5>
    2d38:	48 8d 15 e1 88 00 00 	lea    0x88e1(%rip),%rdx        # b620 <_IO_stdin_used+0x620>
    2d3f:	e8 0c f7 ff ff       	call   2450 <__fprintf_chk@plt>
    2d44:	ba 35 00 00 00       	mov    $0x35,%edx
    2d49:	48 8b 0d f0 c2 00 00 	mov    0xc2f0(%rip),%rcx        # f040 <stderr@GLIBC_2.2.5>
    2d50:	be 01 00 00 00       	mov    $0x1,%esi
    2d55:	48 8d 3d 0c 89 00 00 	lea    0x890c(%rip),%rdi        # b668 <_IO_stdin_used+0x668>
    2d5c:	e8 df f6 ff ff       	call   2440 <fwrite@plt>
    2d61:	ba 43 00 00 00       	mov    $0x43,%edx
    2d66:	48 8b 0d d3 c2 00 00 	mov    0xc2d3(%rip),%rcx        # f040 <stderr@GLIBC_2.2.5>
    2d6d:	be 01 00 00 00       	mov    $0x1,%esi
    2d72:	48 8d 3d 27 89 00 00 	lea    0x8927(%rip),%rdi        # b6a0 <_IO_stdin_used+0x6a0>
    2d79:	e8 c2 f6 ff ff       	call   2440 <fwrite@plt>
    2d7e:	ba 3e 00 00 00       	mov    $0x3e,%edx
    2d83:	48 8b 0d b6 c2 00 00 	mov    0xc2b6(%rip),%rcx        # f040 <stderr@GLIBC_2.2.5>
    2d8a:	be 01 00 00 00       	mov    $0x1,%esi
    2d8f:	48 8d 3d 52 89 00 00 	lea    0x8952(%rip),%rdi        # b6e8 <_IO_stdin_used+0x6e8>
    2d96:	e8 a5 f6 ff ff       	call   2440 <fwrite@plt>
    2d9b:	ba 33 00 00 00       	mov    $0x33,%edx
    2da0:	48 8b 0d 99 c2 00 00 	mov    0xc299(%rip),%rcx        # f040 <stderr@GLIBC_2.2.5>
    2da7:	be 01 00 00 00       	mov    $0x1,%esi
    2dac:	48 8d 3d 75 89 00 00 	lea    0x8975(%rip),%rdi        # b728 <_IO_stdin_used+0x728>
    2db3:	e8 88 f6 ff ff       	call   2440 <fwrite@plt>
    2db8:	ba 2e 00 00 00       	mov    $0x2e,%edx
    2dbd:	48 8b 0d 7c c2 00 00 	mov    0xc27c(%rip),%rcx        # f040 <stderr@GLIBC_2.2.5>
    2dc4:	be 01 00 00 00       	mov    $0x1,%esi
    2dc9:	48 8d 3d 90 89 00 00 	lea    0x8990(%rip),%rdi        # b760 <_IO_stdin_used+0x760>
    2dd0:	e8 6b f6 ff ff       	call   2440 <fwrite@plt>
    2dd5:	ba 4e 00 00 00       	mov    $0x4e,%edx
    2dda:	48 8b 0d 5f c2 00 00 	mov    0xc25f(%rip),%rcx        # f040 <stderr@GLIBC_2.2.5>
    2de1:	be 01 00 00 00       	mov    $0x1,%esi
    2de6:	48 8d 3d a3 89 00 00 	lea    0x89a3(%rip),%rdi        # b790 <_IO_stdin_used+0x790>
    2ded:	e8 4e f6 ff ff       	call   2440 <fwrite@plt>
    2df2:	ba 2d 00 00 00       	mov    $0x2d,%edx
    2df7:	48 8b 0d 42 c2 00 00 	mov    0xc242(%rip),%rcx        # f040 <stderr@GLIBC_2.2.5>
    2dfe:	be 01 00 00 00       	mov    $0x1,%esi
    2e03:	48 8d 3d d6 89 00 00 	lea    0x89d6(%rip),%rdi        # b7e0 <_IO_stdin_used+0x7e0>
    2e0a:	e8 31 f6 ff ff       	call   2440 <fwrite@plt>
    2e0f:	ba 2b 00 00 00       	mov    $0x2b,%edx
    2e14:	48 8b 0d 25 c2 00 00 	mov    0xc225(%rip),%rcx        # f040 <stderr@GLIBC_2.2.5>
    2e1b:	be 01 00 00 00       	mov    $0x1,%esi
    2e20:	48 8d 3d e9 89 00 00 	lea    0x89e9(%rip),%rdi        # b810 <_IO_stdin_used+0x810>
    2e27:	e8 14 f6 ff ff       	call   2440 <fwrite@plt>
    2e2c:	ba 34 00 00 00       	mov    $0x34,%edx
    2e31:	48 8b 0d 08 c2 00 00 	mov    0xc208(%rip),%rcx        # f040 <stderr@GLIBC_2.2.5>
    2e38:	be 01 00 00 00       	mov    $0x1,%esi
    2e3d:	48 8d 3d fc 89 00 00 	lea    0x89fc(%rip),%rdi        # b840 <_IO_stdin_used+0x840>
    2e44:	e8 f7 f5 ff ff       	call   2440 <fwrite@plt>
    2e49:	ba 16 00 00 00       	mov    $0x16,%edx
    2e4e:	48 8b 0d eb c1 00 00 	mov    0xc1eb(%rip),%rcx        # f040 <stderr@GLIBC_2.2.5>
    2e55:	be 01 00 00 00       	mov    $0x1,%esi
    2e5a:	48 8d 3d ef 81 00 00 	lea    0x81ef(%rip),%rdi        # b050 <_IO_stdin_used+0x50>
    2e61:	e8 da f5 ff ff       	call   2440 <fwrite@plt>
    2e66:	ba 34 00 00 00       	mov    $0x34,%edx
    2e6b:	48 8b 0d ce c1 00 00 	mov    0xc1ce(%rip),%rcx        # f040 <stderr@GLIBC_2.2.5>
    2e72:	be 01 00 00 00       	mov    $0x1,%esi
    2e77:	48 8d 3d fa 89 00 00 	lea    0x89fa(%rip),%rdi        # b878 <_IO_stdin_used+0x878>
    2e7e:	e8 bd f5 ff ff       	call   2440 <fwrite@plt>
    2e83:	ba 37 00 00 00       	mov    $0x37,%edx
    2e88:	48 8b 0d b1 c1 00 00 	mov    0xc1b1(%rip),%rcx        # f040 <stderr@GLIBC_2.2.5>
    2e8f:	be 01 00 00 00       	mov    $0x1,%esi
    2e94:	48 8d 3d 15 8a 00 00 	lea    0x8a15(%rip),%rdi        # b8b0 <_IO_stdin_used+0x8b0>
    2e9b:	e8 a0 f5 ff ff       	call   2440 <fwrite@plt>
    2ea0:	ba 37 00 00 00       	mov    $0x37,%edx
    2ea5:	48 8b 0d 94 c1 00 00 	mov    0xc194(%rip),%rcx        # f040 <stderr@GLIBC_2.2.5>
    2eac:	be 01 00 00 00       	mov    $0x1,%esi
    2eb1:	48 8d 3d 30 8a 00 00 	lea    0x8a30(%rip),%rdi        # b8e8 <_IO_stdin_used+0x8e8>
    2eb8:	e8 83 f5 ff ff       	call   2440 <fwrite@plt>
    2ebd:	ba 34 00 00 00       	mov    $0x34,%edx
    2ec2:	48 8b 0d 77 c1 00 00 	mov    0xc177(%rip),%rcx        # f040 <stderr@GLIBC_2.2.5>
    2ec9:	be 01 00 00 00       	mov    $0x1,%esi
    2ece:	48 8d 3d 4b 8a 00 00 	lea    0x8a4b(%rip),%rdi        # b920 <_IO_stdin_used+0x920>
    2ed5:	e8 66 f5 ff ff       	call   2440 <fwrite@plt>
    2eda:	ba 38 00 00 00       	mov    $0x38,%edx
    2edf:	be 01 00 00 00       	mov    $0x1,%esi
    2ee4:	48 8b 0d 55 c1 00 00 	mov    0xc155(%rip),%rcx        # f040 <stderr@GLIBC_2.2.5>
    2eeb:	48 8d 3d 66 8a 00 00 	lea    0x8a66(%rip),%rdi        # b958 <_IO_stdin_used+0x958>
    2ef2:	e8 49 f5 ff ff       	call   2440 <fwrite@plt>
usage():
/home/tenebris/Disk/Racing-code/examples/23-libjpeg-divide-by-zero/libjpeg-turbo-2.0.90/cjpeg.c:211
  exit(EXIT_FAILURE);
    2ef7:	bf 01 00 00 00       	mov    $0x1,%edi
    2efc:	e8 2f f5 ff ff       	call   2430 <exit@plt>
    2f01:	66 66 2e 0f 1f 84 00 	data16 cs nopw 0x0(%rax,%rax,1)
    2f08:	00 00 00 00 
    2f0c:	0f 1f 40 00          	nopl   0x0(%rax)

0000000000002f10 <parse_switches.constprop.0>:
parse_switches():
/home/tenebris/Disk/Racing-code/examples/23-libjpeg-divide-by-zero/libjpeg-turbo-2.0.90/cjpeg.c:216
parse_switches(j_compress_ptr cinfo, int argc, char **argv,
    2f10:	41 57                	push   %r15
    2f12:	41 89 ca             	mov    %ecx,%r10d
    2f15:	41 56                	push   %r14
    2f17:	41 55                	push   %r13
    2f19:	41 54                	push   %r12
    2f1b:	55                   	push   %rbp
    2f1c:	53                   	push   %rbx
    2f1d:	48 83 ec 68          	sub    $0x68,%rsp
    2f21:	64 48 8b 04 25 28 00 	mov    %fs:0x28,%rax
    2f28:	00 00 
    2f2a:	48 89 44 24 58       	mov    %rax,0x58(%rsp)
    2f2f:	31 c0                	xor    %eax,%eax
/home/tenebris/Disk/Racing-code/examples/23-libjpeg-divide-by-zero/libjpeg-turbo-2.0.90/cjpeg.c:246
  cinfo->err->trace_level = 0;
    2f31:	48 8b 07             	mov    (%rdi),%rax
/home/tenebris/Disk/Racing-code/examples/23-libjpeg-divide-by-zero/libjpeg-turbo-2.0.90/cjpeg.c:241
  is_targa = FALSE;
    2f34:	c7 05 3a c1 00 00 00 	movl   $0x0,0xc13a(%rip)        # f078 <is_targa>
    2f3b:	00 00 00 
/home/tenebris/Disk/Racing-code/examples/23-libjpeg-divide-by-zero/libjpeg-turbo-2.0.90/cjpeg.c:242
  icc_filename = NULL;
    2f3e:	48 c7 05 1f c1 00 00 	movq   $0x0,0xc11f(%rip)        # f068 <icc_filename>
    2f45:	00 00 00 00 
/home/tenebris/Disk/Racing-code/examples/23-libjpeg-divide-by-zero/libjpeg-turbo-2.0.90/cjpeg.c:243
  outfilename = NULL;
    2f49:	48 c7 05 0c c1 00 00 	movq   $0x0,0xc10c(%rip)        # f060 <outfilename>
    2f50:	00 00 00 00 
/home/tenebris/Disk/Racing-code/examples/23-libjpeg-divide-by-zero/libjpeg-turbo-2.0.90/cjpeg.c:244
  memdst = FALSE;
    2f54:	c7 05 f6 c0 00 00 00 	movl   $0x0,0xc0f6(%rip)        # f054 <memdst>
    2f5b:	00 00 00 
/home/tenebris/Disk/Racing-code/examples/23-libjpeg-divide-by-zero/libjpeg-turbo-2.0.90/cjpeg.c:245
  report = FALSE;
    2f5e:	c7 05 e8 c0 00 00 00 	movl   $0x0,0xc0e8(%rip)        # f050 <report>
    2f65:	00 00 00 
/home/tenebris/Disk/Racing-code/examples/23-libjpeg-divide-by-zero/libjpeg-turbo-2.0.90/cjpeg.c:246
  cinfo->err->trace_level = 0;
    2f68:	c7 40 7c 00 00 00 00 	movl   $0x0,0x7c(%rax)
/home/tenebris/Disk/Racing-code/examples/23-libjpeg-divide-by-zero/libjpeg-turbo-2.0.90/cjpeg.c:250
  for (argn = 1; argn < argc; argn++) {
    2f6f:	83 fe 01             	cmp    $0x1,%esi
    2f72:	0f 8e 3e 02 00 00    	jle    31b6 <parse_switches.constprop.0+0x2a6>
/home/tenebris/Disk/Racing-code/examples/23-libjpeg-divide-by-zero/libjpeg-turbo-2.0.90/cjpeg.c:233
  char *qslotsarg = NULL;       /* saves -qslots parm if any */
    2f78:	48 c7 44 24 08 00 00 	movq   $0x0,0x8(%rsp)
    2f7f:	00 00 
    2f81:	48 89 fd             	mov    %rdi,%rbp
    2f84:	41 89 f5             	mov    %esi,%r13d
    2f87:	48 89 d3             	mov    %rdx,%rbx
/home/tenebris/Disk/Racing-code/examples/23-libjpeg-divide-by-zero/libjpeg-turbo-2.0.90/cjpeg.c:235
  char *scansarg = NULL;        /* saves -scans parm if any */
    2f8a:	45 31 ff             	xor    %r15d,%r15d
/home/tenebris/Disk/Racing-code/examples/23-libjpeg-divide-by-zero/libjpeg-turbo-2.0.90/cjpeg.c:234
  char *samplearg = NULL;       /* saves -sample parm if any */
    2f8d:	45 31 f6             	xor    %r14d,%r14d
/home/tenebris/Disk/Racing-code/examples/23-libjpeg-divide-by-zero/libjpeg-turbo-2.0.90/cjpeg.c:231
  char *qualityarg = NULL;      /* saves -quality parm if any */
    2f90:	45 31 db             	xor    %r11d,%r11d
/home/tenebris/Disk/Racing-code/examples/23-libjpeg-divide-by-zero/libjpeg-turbo-2.0.90/cjpeg.c:250
  for (argn = 1; argn < argc; argn++) {
    2f93:	41 bc 01 00 00 00    	mov    $0x1,%r12d
/home/tenebris/Disk/Racing-code/examples/23-libjpeg-divide-by-zero/libjpeg-turbo-2.0.90/cjpeg.c:232
  char *qtablefile = NULL;      /* saves -qtables filename if any */
    2f99:	48 c7 44 24 10 00 00 	movq   $0x0,0x10(%rsp)
    2fa0:	00 00 
/home/tenebris/Disk/Racing-code/examples/23-libjpeg-divide-by-zero/libjpeg-turbo-2.0.90/cjpeg.c:240
  simple_progressive = FALSE;
    2fa2:	c7 44 24 38 00 00 00 	movl   $0x0,0x38(%rsp)
    2fa9:	00 
/home/tenebris/Disk/Racing-code/examples/23-libjpeg-divide-by-zero/libjpeg-turbo-2.0.90/cjpeg.c:239
  force_baseline = FALSE;       /* by default, allow 16-bit quantizers */
    2faa:	c7 44 24 04 00 00 00 	movl   $0x0,0x4(%rsp)
    2fb1:	00 
/home/tenebris/Disk/Racing-code/examples/23-libjpeg-divide-by-zero/libjpeg-turbo-2.0.90/cjpeg.c:251
    arg = argv[argn];
    2fb2:	49 63 c4             	movslq %r12d,%rax
    2fb5:	48 8d 0c c5 00 00 00 	lea    0x0(,%rax,8),%rcx
    2fbc:	00 
    2fbd:	48 8b 04 c3          	mov    (%rbx,%rax,8),%rax
/home/tenebris/Disk/Racing-code/examples/23-libjpeg-divide-by-zero/libjpeg-turbo-2.0.90/cjpeg.c:252
    if (*arg != '-') {
    2fc1:	80 38 2d             	cmpb   $0x2d,(%rax)
    2fc4:	0f 84 c4 00 00 00    	je     308e <parse_switches.constprop.0+0x17e>
/home/tenebris/Disk/Racing-code/examples/23-libjpeg-divide-by-zero/libjpeg-turbo-2.0.90/cjpeg.c:465
  if (for_real) {
    2fca:	45 85 d2             	test   %r10d,%r10d
    2fcd:	0f 84 95 00 00 00    	je     3068 <parse_switches.constprop.0+0x158>
/home/tenebris/Disk/Racing-code/examples/23-libjpeg-divide-by-zero/libjpeg-turbo-2.0.90/cjpeg.c:469
    if (qualityarg != NULL)     /* process -quality if it was present */
    2fd3:	4d 85 db             	test   %r11,%r11
    2fd6:	74 17                	je     2fef <parse_switches.constprop.0+0xdf>
/home/tenebris/Disk/Racing-code/examples/23-libjpeg-divide-by-zero/libjpeg-turbo-2.0.90/cjpeg.c:470
      if (!set_quality_ratings(cinfo, qualityarg, force_baseline))
    2fd8:	8b 54 24 04          	mov    0x4(%rsp),%edx
    2fdc:	4c 89 de             	mov    %r11,%rsi
    2fdf:	48 89 ef             	mov    %rbp,%rdi
    2fe2:	e8 c9 49 00 00       	call   79b0 <set_quality_ratings>
    2fe7:	85 c0                	test   %eax,%eax
    2fe9:	0f 84 4b 01 00 00    	je     313a <parse_switches.constprop.0+0x22a>
/home/tenebris/Disk/Racing-code/examples/23-libjpeg-divide-by-zero/libjpeg-turbo-2.0.90/cjpeg.c:473
    if (qtablefile != NULL)     /* process -qtables if it was present */
    2fef:	48 8b 44 24 10       	mov    0x10(%rsp),%rax
    2ff4:	48 85 c0             	test   %rax,%rax
    2ff7:	74 17                	je     3010 <parse_switches.constprop.0+0x100>
/home/tenebris/Disk/Racing-code/examples/23-libjpeg-divide-by-zero/libjpeg-turbo-2.0.90/cjpeg.c:474
      if (!read_quant_tables(cinfo, qtablefile, force_baseline))
    2ff9:	8b 54 24 04          	mov    0x4(%rsp),%edx
    2ffd:	48 89 c6             	mov    %rax,%rsi
    3000:	48 89 ef             	mov    %rbp,%rdi
    3003:	e8 48 44 00 00       	call   7450 <read_quant_tables>
    3008:	85 c0                	test   %eax,%eax
    300a:	0f 84 2a 01 00 00    	je     313a <parse_switches.constprop.0+0x22a>
/home/tenebris/Disk/Racing-code/examples/23-libjpeg-divide-by-zero/libjpeg-turbo-2.0.90/cjpeg.c:477
    if (qslotsarg != NULL)      /* process -qslots if it was present */
    3010:	48 8b 44 24 08       	mov    0x8(%rsp),%rax
    3015:	48 85 c0             	test   %rax,%rax
    3018:	74 13                	je     302d <parse_switches.constprop.0+0x11d>
/home/tenebris/Disk/Racing-code/examples/23-libjpeg-divide-by-zero/libjpeg-turbo-2.0.90/cjpeg.c:478
      if (!set_quant_slots(cinfo, qslotsarg))
    301a:	48 89 c6             	mov    %rax,%rsi
    301d:	48 89 ef             	mov    %rbp,%rdi
    3020:	e8 ab 4a 00 00       	call   7ad0 <set_quant_slots>
    3025:	85 c0                	test   %eax,%eax
    3027:	0f 84 0d 01 00 00    	je     313a <parse_switches.constprop.0+0x22a>
/home/tenebris/Disk/Racing-code/examples/23-libjpeg-divide-by-zero/libjpeg-turbo-2.0.90/cjpeg.c:481
    if (samplearg != NULL)      /* process -sample if it was present */
    302d:	4d 85 f6             	test   %r14,%r14
    3030:	74 13                	je     3045 <parse_switches.constprop.0+0x135>
/home/tenebris/Disk/Racing-code/examples/23-libjpeg-divide-by-zero/libjpeg-turbo-2.0.90/cjpeg.c:482
      if (!set_sample_factors(cinfo, samplearg))
    3032:	4c 89 f6             	mov    %r14,%rsi
    3035:	48 89 ef             	mov    %rbp,%rdi
    3038:	e8 a3 4b 00 00       	call   7be0 <set_sample_factors>
    303d:	85 c0                	test   %eax,%eax
    303f:	0f 84 f5 00 00 00    	je     313a <parse_switches.constprop.0+0x22a>
/home/tenebris/Disk/Racing-code/examples/23-libjpeg-divide-by-zero/libjpeg-turbo-2.0.90/cjpeg.c:486
    if (simple_progressive)     /* process -progressive; -scans can override */
    3045:	83 7c 24 38 00       	cmpl   $0x0,0x38(%rsp)
    304a:	0f 85 9b 00 00 00    	jne    30eb <parse_switches.constprop.0+0x1db>
/home/tenebris/Disk/Racing-code/examples/23-libjpeg-divide-by-zero/libjpeg-turbo-2.0.90/cjpeg.c:491
    if (scansarg != NULL)       /* process -scans if it was present */
    3050:	4d 85 ff             	test   %r15,%r15
    3053:	74 13                	je     3068 <parse_switches.constprop.0+0x158>
/home/tenebris/Disk/Racing-code/examples/23-libjpeg-divide-by-zero/libjpeg-turbo-2.0.90/cjpeg.c:492
      if (!read_scan_script(cinfo, scansarg))
    3055:	4c 89 fe             	mov    %r15,%rsi
    3058:	48 89 ef             	mov    %rbp,%rdi
    305b:	e8 e0 45 00 00       	call   7640 <read_scan_script>
    3060:	85 c0                	test   %eax,%eax
    3062:	0f 84 d2 00 00 00    	je     313a <parse_switches.constprop.0+0x22a>
/home/tenebris/Disk/Racing-code/examples/23-libjpeg-divide-by-zero/libjpeg-turbo-2.0.90/cjpeg.c:498
}
    3068:	48 8b 44 24 58       	mov    0x58(%rsp),%rax
    306d:	64 48 2b 04 25 28 00 	sub    %fs:0x28,%rax
    3074:	00 00 
    3076:	0f 85 df 03 00 00    	jne    345b <parse_switches.constprop.0+0x54b>
    307c:	48 83 c4 68          	add    $0x68,%rsp
    3080:	44 89 e0             	mov    %r12d,%eax
    3083:	5b                   	pop    %rbx
    3084:	5d                   	pop    %rbp
    3085:	41 5c                	pop    %r12
    3087:	41 5d                	pop    %r13
    3089:	41 5e                	pop    %r14
    308b:	41 5f                	pop    %r15
    308d:	c3                   	ret    
/home/tenebris/Disk/Racing-code/examples/23-libjpeg-divide-by-zero/libjpeg-turbo-2.0.90/cjpeg.c:260
    arg++;                      /* advance past switch marker character */
    308e:	48 8d 78 01          	lea    0x1(%rax),%rdi
/home/tenebris/Disk/Racing-code/examples/23-libjpeg-divide-by-zero/libjpeg-turbo-2.0.90/cjpeg.c:262
    if (keymatch(arg, "arithmetic", 1)) {
    3092:	ba 01 00 00 00       	mov    $0x1,%edx
    3097:	44 89 54 24 30       	mov    %r10d,0x30(%rsp)
    309c:	48 8d 35 c4 7f 00 00 	lea    0x7fc4(%rip),%rsi        # b067 <_IO_stdin_used+0x67>
    30a3:	4c 89 5c 24 28       	mov    %r11,0x28(%rsp)
    30a8:	48 89 4c 24 20       	mov    %rcx,0x20(%rsp)
    30ad:	48 89 7c 24 18       	mov    %rdi,0x18(%rsp)
    30b2:	e8 a9 0b 00 00       	call   3c60 <keymatch>
    30b7:	48 8b 7c 24 18       	mov    0x18(%rsp),%rdi
    30bc:	48 8b 4c 24 20       	mov    0x20(%rsp),%rcx
    30c1:	85 c0                	test   %eax,%eax
    30c3:	4c 8b 5c 24 28       	mov    0x28(%rsp),%r11
    30c8:	44 8b 54 24 30       	mov    0x30(%rsp),%r10d
    30cd:	74 29                	je     30f8 <parse_switches.constprop.0+0x1e8>
/home/tenebris/Disk/Racing-code/examples/23-libjpeg-divide-by-zero/libjpeg-turbo-2.0.90/cjpeg.c:265
      cinfo->arith_code = TRUE;
    30cf:	c7 85 04 01 00 00 01 	movl   $0x1,0x104(%rbp)
    30d6:	00 00 00 
/home/tenebris/Disk/Racing-code/examples/23-libjpeg-divide-by-zero/libjpeg-turbo-2.0.90/cjpeg.c:250
  for (argn = 1; argn < argc; argn++) {
    30d9:	41 83 c4 01          	add    $0x1,%r12d
    30dd:	45 39 e5             	cmp    %r12d,%r13d
    30e0:	0f 8f cc fe ff ff    	jg     2fb2 <parse_switches.constprop.0+0xa2>
    30e6:	e9 df fe ff ff       	jmp    2fca <parse_switches.constprop.0+0xba>
/home/tenebris/Disk/Racing-code/examples/23-libjpeg-divide-by-zero/libjpeg-turbo-2.0.90/cjpeg.c:487
      jpeg_simple_progression(cinfo);
    30eb:	48 89 ef             	mov    %rbp,%rdi
    30ee:	e8 dd f1 ff ff       	call   22d0 <jpeg_simple_progression@plt>
    30f3:	e9 58 ff ff ff       	jmp    3050 <parse_switches.constprop.0+0x140>
/home/tenebris/Disk/Racing-code/examples/23-libjpeg-divide-by-zero/libjpeg-turbo-2.0.90/cjpeg.c:272
    } else if (keymatch(arg, "baseline", 1)) {
    30f8:	ba 01 00 00 00       	mov    $0x1,%edx
    30fd:	48 8d 35 6e 7f 00 00 	lea    0x7f6e(%rip),%rsi        # b072 <_IO_stdin_used+0x72>
    3104:	44 89 54 24 30       	mov    %r10d,0x30(%rsp)
    3109:	4c 89 5c 24 28       	mov    %r11,0x28(%rsp)
    310e:	48 89 7c 24 18       	mov    %rdi,0x18(%rsp)
    3113:	48 89 4c 24 20       	mov    %rcx,0x20(%rsp)
    3118:	e8 43 0b 00 00       	call   3c60 <keymatch>
    311d:	48 8b 7c 24 18       	mov    0x18(%rsp),%rdi
    3122:	4c 8b 5c 24 28       	mov    0x28(%rsp),%r11
    3127:	85 c0                	test   %eax,%eax
    3129:	44 8b 54 24 30       	mov    0x30(%rsp),%r10d
    312e:	74 0f                	je     313f <parse_switches.constprop.0+0x22f>
/home/tenebris/Disk/Racing-code/examples/23-libjpeg-divide-by-zero/libjpeg-turbo-2.0.90/cjpeg.c:274
      force_baseline = TRUE;
    3130:	c7 44 24 04 01 00 00 	movl   $0x1,0x4(%rsp)
    3137:	00 
    3138:	eb 9f                	jmp    30d9 <parse_switches.constprop.0+0x1c9>
/home/tenebris/Disk/Racing-code/examples/23-libjpeg-divide-by-zero/libjpeg-turbo-2.0.90/cjpeg.c:279
        usage();
    313a:	e8 41 fa ff ff       	call   2b80 <usage>
/home/tenebris/Disk/Racing-code/examples/23-libjpeg-divide-by-zero/libjpeg-turbo-2.0.90/cjpeg.c:276
    } else if (keymatch(arg, "dct", 2)) {
    313f:	ba 02 00 00 00       	mov    $0x2,%edx
    3144:	48 8d 35 30 7f 00 00 	lea    0x7f30(%rip),%rsi        # b07b <_IO_stdin_used+0x7b>
    314b:	e8 10 0b 00 00       	call   3c60 <keymatch>
    3150:	48 8b 7c 24 18       	mov    0x18(%rsp),%rdi
    3155:	48 8b 4c 24 20       	mov    0x20(%rsp),%rcx
    315a:	85 c0                	test   %eax,%eax
    315c:	4c 8b 5c 24 28       	mov    0x28(%rsp),%r11
    3161:	44 8b 54 24 30       	mov    0x30(%rsp),%r10d
    3166:	74 5f                	je     31c7 <parse_switches.constprop.0+0x2b7>
/home/tenebris/Disk/Racing-code/examples/23-libjpeg-divide-by-zero/libjpeg-turbo-2.0.90/cjpeg.c:278
      if (++argn >= argc)       /* advance to next argument */
    3168:	41 83 c4 01          	add    $0x1,%r12d
    316c:	45 39 ec             	cmp    %r13d,%r12d
    316f:	7d c9                	jge    313a <parse_switches.constprop.0+0x22a>
/home/tenebris/Disk/Racing-code/examples/23-libjpeg-divide-by-zero/libjpeg-turbo-2.0.90/cjpeg.c:280
      if (keymatch(argv[argn], "int", 1)) {
    3171:	48 8d 44 0b 08       	lea    0x8(%rbx,%rcx,1),%rax
    3176:	ba 01 00 00 00       	mov    $0x1,%edx
    317b:	44 89 54 24 20       	mov    %r10d,0x20(%rsp)
    3180:	48 8d 35 f8 7e 00 00 	lea    0x7ef8(%rip),%rsi        # b07f <_IO_stdin_used+0x7f>
    3187:	48 8b 38             	mov    (%rax),%rdi
    318a:	4c 89 5c 24 18       	mov    %r11,0x18(%rsp)
    318f:	48 89 44 24 28       	mov    %rax,0x28(%rsp)
    3194:	e8 c7 0a 00 00       	call   3c60 <keymatch>
    3199:	4c 8b 5c 24 18       	mov    0x18(%rsp),%r11
    319e:	44 8b 54 24 20       	mov    0x20(%rsp),%r10d
    31a3:	85 c0                	test   %eax,%eax
    31a5:	74 77                	je     321e <parse_switches.constprop.0+0x30e>
/home/tenebris/Disk/Racing-code/examples/23-libjpeg-divide-by-zero/libjpeg-turbo-2.0.90/cjpeg.c:281
        cinfo->dct_method = JDCT_ISLOW;
    31a7:	c7 85 14 01 00 00 00 	movl   $0x0,0x114(%rbp)
    31ae:	00 00 00 
    31b1:	e9 23 ff ff ff       	jmp    30d9 <parse_switches.constprop.0+0x1c9>
/home/tenebris/Disk/Racing-code/examples/23-libjpeg-divide-by-zero/libjpeg-turbo-2.0.90/cjpeg.c:465
  if (for_real) {
    31b6:	85 c9                	test   %ecx,%ecx
/home/tenebris/Disk/Racing-code/examples/23-libjpeg-divide-by-zero/libjpeg-turbo-2.0.90/cjpeg.c:250
  for (argn = 1; argn < argc; argn++) {
    31b8:	41 bc 01 00 00 00    	mov    $0x1,%r12d
    31be:	44 0f 45 e1          	cmovne %ecx,%r12d
    31c2:	e9 a1 fe ff ff       	jmp    3068 <parse_switches.constprop.0+0x158>
/home/tenebris/Disk/Racing-code/examples/23-libjpeg-divide-by-zero/libjpeg-turbo-2.0.90/cjpeg.c:289
    } else if (keymatch(arg, "debug", 1) || keymatch(arg, "verbose", 1)) {
    31c7:	ba 01 00 00 00       	mov    $0x1,%edx
    31cc:	48 8d 35 bb 7e 00 00 	lea    0x7ebb(%rip),%rsi        # b08e <_IO_stdin_used+0x8e>
    31d3:	44 89 54 24 30       	mov    %r10d,0x30(%rsp)
    31d8:	4c 89 5c 24 28       	mov    %r11,0x28(%rsp)
    31dd:	48 89 4c 24 20       	mov    %rcx,0x20(%rsp)
    31e2:	48 89 7c 24 18       	mov    %rdi,0x18(%rsp)
    31e7:	e8 74 0a 00 00       	call   3c60 <keymatch>
    31ec:	48 8b 7c 24 18       	mov    0x18(%rsp),%rdi
    31f1:	48 8b 4c 24 20       	mov    0x20(%rsp),%rcx
    31f6:	85 c0                	test   %eax,%eax
    31f8:	4c 8b 5c 24 28       	mov    0x28(%rsp),%r11
    31fd:	44 8b 54 24 30       	mov    0x30(%rsp),%r10d
    3202:	74 5e                	je     3262 <parse_switches.constprop.0+0x352>
/home/tenebris/Disk/Racing-code/examples/23-libjpeg-divide-by-zero/libjpeg-turbo-2.0.90/cjpeg.c:294
      if (!printed_version) {
    3204:	83 3d 4d be 00 00 00 	cmpl   $0x0,0xbe4d(%rip)        # f058 <printed_version.0>
    320b:	0f 84 72 01 00 00    	je     3383 <parse_switches.constprop.0+0x473>
/home/tenebris/Disk/Racing-code/examples/23-libjpeg-divide-by-zero/libjpeg-turbo-2.0.90/cjpeg.c:302
      cinfo->err->trace_level++;
    3211:	48 8b 45 00          	mov    0x0(%rbp),%rax
    3215:	83 40 7c 01          	addl   $0x1,0x7c(%rax)
/home/tenebris/Disk/Racing-code/examples/23-libjpeg-divide-by-zero/libjpeg-turbo-2.0.90/cjpeg.c:289
    } else if (keymatch(arg, "debug", 1) || keymatch(arg, "verbose", 1)) {
    3219:	e9 bb fe ff ff       	jmp    30d9 <parse_switches.constprop.0+0x1c9>
/home/tenebris/Disk/Racing-code/examples/23-libjpeg-divide-by-zero/libjpeg-turbo-2.0.90/cjpeg.c:282
      } else if (keymatch(argv[argn], "fast", 2)) {
    321e:	48 8b 44 24 28       	mov    0x28(%rsp),%rax
    3223:	ba 02 00 00 00       	mov    $0x2,%edx
    3228:	44 89 54 24 20       	mov    %r10d,0x20(%rsp)
    322d:	48 8d 35 4f 7e 00 00 	lea    0x7e4f(%rip),%rsi        # b083 <_IO_stdin_used+0x83>
    3234:	4c 89 5c 24 18       	mov    %r11,0x18(%rsp)
    3239:	48 8b 38             	mov    (%rax),%rdi
    323c:	e8 1f 0a 00 00       	call   3c60 <keymatch>
    3241:	4c 8b 5c 24 18       	mov    0x18(%rsp),%r11
    3246:	44 8b 54 24 20       	mov    0x20(%rsp),%r10d
    324b:	85 c0                	test   %eax,%eax
    324d:	0f 84 c4 01 00 00    	je     3417 <parse_switches.constprop.0+0x507>
/home/tenebris/Disk/Racing-code/examples/23-libjpeg-divide-by-zero/libjpeg-turbo-2.0.90/cjpeg.c:283
        cinfo->dct_method = JDCT_IFAST;
    3253:	c7 85 14 01 00 00 01 	movl   $0x1,0x114(%rbp)
    325a:	00 00 00 
    325d:	e9 77 fe ff ff       	jmp    30d9 <parse_switches.constprop.0+0x1c9>
/home/tenebris/Disk/Racing-code/examples/23-libjpeg-divide-by-zero/libjpeg-turbo-2.0.90/cjpeg.c:289
    } else if (keymatch(arg, "debug", 1) || keymatch(arg, "verbose", 1)) {
    3262:	ba 01 00 00 00       	mov    $0x1,%edx
    3267:	48 8d 35 26 7e 00 00 	lea    0x7e26(%rip),%rsi        # b094 <_IO_stdin_used+0x94>
    326e:	44 89 54 24 30       	mov    %r10d,0x30(%rsp)
    3273:	4c 89 5c 24 28       	mov    %r11,0x28(%rsp)
    3278:	48 89 4c 24 20       	mov    %rcx,0x20(%rsp)
    327d:	48 89 7c 24 18       	mov    %rdi,0x18(%rsp)
    3282:	e8 d9 09 00 00       	call   3c60 <keymatch>
    3287:	48 8b 7c 24 18       	mov    0x18(%rsp),%rdi
    328c:	48 8b 4c 24 20       	mov    0x20(%rsp),%rcx
    3291:	85 c0                	test   %eax,%eax
    3293:	4c 8b 5c 24 28       	mov    0x28(%rsp),%r11
    3298:	44 8b 54 24 30       	mov    0x30(%rsp),%r10d
    329d:	0f 85 61 ff ff ff    	jne    3204 <parse_switches.constprop.0+0x2f4>
/home/tenebris/Disk/Racing-code/examples/23-libjpeg-divide-by-zero/libjpeg-turbo-2.0.90/cjpeg.c:304
    } else if (keymatch(arg, "version", 4)) {
    32a3:	ba 04 00 00 00       	mov    $0x4,%edx
    32a8:	48 8d 35 3a 7e 00 00 	lea    0x7e3a(%rip),%rsi        # b0e9 <_IO_stdin_used+0xe9>
    32af:	44 89 54 24 30       	mov    %r10d,0x30(%rsp)
    32b4:	4c 89 5c 24 28       	mov    %r11,0x28(%rsp)
    32b9:	48 89 4c 24 20       	mov    %rcx,0x20(%rsp)
    32be:	48 89 7c 24 18       	mov    %rdi,0x18(%rsp)
    32c3:	e8 98 09 00 00       	call   3c60 <keymatch>
    32c8:	48 8b 7c 24 18       	mov    0x18(%rsp),%rdi
    32cd:	48 8b 4c 24 20       	mov    0x20(%rsp),%rcx
    32d2:	85 c0                	test   %eax,%eax
    32d4:	4c 8b 5c 24 28       	mov    0x28(%rsp),%r11
    32d9:	44 8b 54 24 30       	mov    0x30(%rsp),%r10d
    32de:	0f 85 26 02 00 00    	jne    350a <parse_switches.constprop.0+0x5fa>
/home/tenebris/Disk/Racing-code/examples/23-libjpeg-divide-by-zero/libjpeg-turbo-2.0.90/cjpeg.c:309
    } else if (keymatch(arg, "grayscale", 2) ||
    32e4:	ba 02 00 00 00       	mov    $0x2,%edx
    32e9:	48 8d 35 01 7e 00 00 	lea    0x7e01(%rip),%rsi        # b0f1 <_IO_stdin_used+0xf1>
    32f0:	44 89 54 24 30       	mov    %r10d,0x30(%rsp)
    32f5:	4c 89 5c 24 28       	mov    %r11,0x28(%rsp)
    32fa:	48 89 4c 24 20       	mov    %rcx,0x20(%rsp)
    32ff:	48 89 7c 24 18       	mov    %rdi,0x18(%rsp)
    3304:	e8 57 09 00 00       	call   3c60 <keymatch>
    3309:	48 8b 7c 24 18       	mov    0x18(%rsp),%rdi
    330e:	48 8b 4c 24 20       	mov    0x20(%rsp),%rcx
    3313:	85 c0                	test   %eax,%eax
    3315:	4c 8b 5c 24 28       	mov    0x28(%rsp),%r11
    331a:	44 8b 54 24 30       	mov    0x30(%rsp),%r10d
    331f:	75 3c                	jne    335d <parse_switches.constprop.0+0x44d>
/home/tenebris/Disk/Racing-code/examples/23-libjpeg-divide-by-zero/libjpeg-turbo-2.0.90/cjpeg.c:310
               keymatch(arg, "greyscale", 2)) {
    3321:	ba 02 00 00 00       	mov    $0x2,%edx
    3326:	48 8d 35 ce 7d 00 00 	lea    0x7dce(%rip),%rsi        # b0fb <_IO_stdin_used+0xfb>
    332d:	44 89 54 24 30       	mov    %r10d,0x30(%rsp)
    3332:	4c 89 5c 24 28       	mov    %r11,0x28(%rsp)
    3337:	48 89 7c 24 18       	mov    %rdi,0x18(%rsp)
    333c:	48 89 4c 24 20       	mov    %rcx,0x20(%rsp)
    3341:	e8 1a 09 00 00       	call   3c60 <keymatch>
/home/tenebris/Disk/Racing-code/examples/23-libjpeg-divide-by-zero/libjpeg-turbo-2.0.90/cjpeg.c:309
    } else if (keymatch(arg, "grayscale", 2) ||
    3346:	48 8b 7c 24 18       	mov    0x18(%rsp),%rdi
    334b:	4c 8b 5c 24 28       	mov    0x28(%rsp),%r11
    3350:	85 c0                	test   %eax,%eax
    3352:	44 8b 54 24 30       	mov    0x30(%rsp),%r10d
    3357:	0f 84 03 01 00 00    	je     3460 <parse_switches.constprop.0+0x550>
/home/tenebris/Disk/Racing-code/examples/23-libjpeg-divide-by-zero/libjpeg-turbo-2.0.90/cjpeg.c:312
      jpeg_set_colorspace(cinfo, JCS_GRAYSCALE);
    335d:	be 01 00 00 00       	mov    $0x1,%esi
    3362:	48 89 ef             	mov    %rbp,%rdi
    3365:	44 89 54 24 20       	mov    %r10d,0x20(%rsp)
    336a:	4c 89 5c 24 18       	mov    %r11,0x18(%rsp)
    336f:	e8 ec f0 ff ff       	call   2460 <jpeg_set_colorspace@plt>
    3374:	4c 8b 5c 24 18       	mov    0x18(%rsp),%r11
    3379:	44 8b 54 24 20       	mov    0x20(%rsp),%r10d
    337e:	e9 56 fd ff ff       	jmp    30d9 <parse_switches.constprop.0+0x1c9>
fprintf():
/usr/include/x86_64-linux-gnu/bits/stdio2.h:105
    3383:	48 8b 3d b6 bc 00 00 	mov    0xbcb6(%rip),%rdi        # f040 <stderr@GLIBC_2.2.5>
    338a:	4c 8d 0d 0b 7d 00 00 	lea    0x7d0b(%rip),%r9        # b09c <_IO_stdin_used+0x9c>
    3391:	31 c0                	xor    %eax,%eax
    3393:	4c 8d 05 0b 7d 00 00 	lea    0x7d0b(%rip),%r8        # b0a5 <_IO_stdin_used+0xa5>
    339a:	48 8d 0d 0b 7d 00 00 	lea    0x7d0b(%rip),%rcx        # b0ac <_IO_stdin_used+0xac>
    33a1:	be 01 00 00 00       	mov    $0x1,%esi
    33a6:	44 89 54 24 20       	mov    %r10d,0x20(%rsp)
    33ab:	48 8d 15 08 7d 00 00 	lea    0x7d08(%rip),%rdx        # b0ba <_IO_stdin_used+0xba>
    33b2:	4c 89 5c 24 18       	mov    %r11,0x18(%rsp)
    33b7:	e8 94 f0 ff ff       	call   2450 <__fprintf_chk@plt>
    33bc:	48 8b 3d 7d bc 00 00 	mov    0xbc7d(%rip),%rdi        # f040 <stderr@GLIBC_2.2.5>
    33c3:	be 01 00 00 00       	mov    $0x1,%esi
    33c8:	31 c0                	xor    %eax,%eax
    33ca:	48 8d 0d c7 85 00 00 	lea    0x85c7(%rip),%rcx        # b998 <_IO_stdin_used+0x998>
    33d1:	48 8d 15 fc 7c 00 00 	lea    0x7cfc(%rip),%rdx        # b0d4 <_IO_stdin_used+0xd4>
    33d8:	e8 73 f0 ff ff       	call   2450 <__fprintf_chk@plt>
    33dd:	48 8b 3d 5c bc 00 00 	mov    0xbc5c(%rip),%rdi        # f040 <stderr@GLIBC_2.2.5>
    33e4:	be 01 00 00 00       	mov    $0x1,%esi
    33e9:	31 c0                	xor    %eax,%eax
    33eb:	48 8d 0d e7 7c 00 00 	lea    0x7ce7(%rip),%rcx        # b0d9 <_IO_stdin_used+0xd9>
    33f2:	48 8d 15 c7 87 00 00 	lea    0x87c7(%rip),%rdx        # bbc0 <_IO_stdin_used+0xbc0>
    33f9:	e8 52 f0 ff ff       	call   2450 <__fprintf_chk@plt>
parse_switches():
/home/tenebris/Disk/Racing-code/examples/23-libjpeg-divide-by-zero/libjpeg-turbo-2.0.90/cjpeg.c:300
        printed_version = TRUE;
    33fe:	44 8b 54 24 20       	mov    0x20(%rsp),%r10d
    3403:	4c 8b 5c 24 18       	mov    0x18(%rsp),%r11
    3408:	c7 05 46 bc 00 00 01 	movl   $0x1,0xbc46(%rip)        # f058 <printed_version.0>
    340f:	00 00 00 
    3412:	e9 fa fd ff ff       	jmp    3211 <parse_switches.constprop.0+0x301>
/home/tenebris/Disk/Racing-code/examples/23-libjpeg-divide-by-zero/libjpeg-turbo-2.0.90/cjpeg.c:284
      } else if (keymatch(argv[argn], "float", 2)) {
    3417:	48 8b 44 24 28       	mov    0x28(%rsp),%rax
    341c:	ba 02 00 00 00       	mov    $0x2,%edx
    3421:	44 89 54 24 20       	mov    %r10d,0x20(%rsp)
    3426:	48 8d 35 5b 7c 00 00 	lea    0x7c5b(%rip),%rsi        # b088 <_IO_stdin_used+0x88>
    342d:	4c 89 5c 24 18       	mov    %r11,0x18(%rsp)
    3432:	48 8b 38             	mov    (%rax),%rdi
    3435:	e8 26 08 00 00       	call   3c60 <keymatch>
    343a:	85 c0                	test   %eax,%eax
    343c:	0f 84 f8 fc ff ff    	je     313a <parse_switches.constprop.0+0x22a>
/home/tenebris/Disk/Racing-code/examples/23-libjpeg-divide-by-zero/libjpeg-turbo-2.0.90/cjpeg.c:285
        cinfo->dct_method = JDCT_FLOAT;
    3442:	c7 85 14 01 00 00 02 	movl   $0x2,0x114(%rbp)
    3449:	00 00 00 
    344c:	4c 8b 5c 24 18       	mov    0x18(%rsp),%r11
    3451:	44 8b 54 24 20       	mov    0x20(%rsp),%r10d
    3456:	e9 7e fc ff ff       	jmp    30d9 <parse_switches.constprop.0+0x1c9>
/home/tenebris/Disk/Racing-code/examples/23-libjpeg-divide-by-zero/libjpeg-turbo-2.0.90/cjpeg.c:498
}
    345b:	e8 60 ee ff ff       	call   22c0 <__stack_chk_fail@plt>
/home/tenebris/Disk/Racing-code/examples/23-libjpeg-divide-by-zero/libjpeg-turbo-2.0.90/cjpeg.c:314
    } else if (keymatch(arg, "rgb", 3)) {
    3460:	ba 03 00 00 00       	mov    $0x3,%edx
    3465:	48 8d 35 99 7c 00 00 	lea    0x7c99(%rip),%rsi        # b105 <_IO_stdin_used+0x105>
    346c:	e8 ef 07 00 00       	call   3c60 <keymatch>
    3471:	48 8b 7c 24 18       	mov    0x18(%rsp),%rdi
    3476:	48 8b 4c 24 20       	mov    0x20(%rsp),%rcx
    347b:	85 c0                	test   %eax,%eax
    347d:	4c 8b 5c 24 28       	mov    0x28(%rsp),%r11
    3482:	44 8b 54 24 30       	mov    0x30(%rsp),%r10d
    3487:	74 26                	je     34af <parse_switches.constprop.0+0x59f>
/home/tenebris/Disk/Racing-code/examples/23-libjpeg-divide-by-zero/libjpeg-turbo-2.0.90/cjpeg.c:316
      jpeg_set_colorspace(cinfo, JCS_RGB);
    3489:	be 02 00 00 00       	mov    $0x2,%esi
    348e:	48 89 ef             	mov    %rbp,%rdi
    3491:	44 89 54 24 20       	mov    %r10d,0x20(%rsp)
    3496:	4c 89 5c 24 18       	mov    %r11,0x18(%rsp)
    349b:	e8 c0 ef ff ff       	call   2460 <jpeg_set_colorspace@plt>
    34a0:	4c 8b 5c 24 18       	mov    0x18(%rsp),%r11
    34a5:	44 8b 54 24 20       	mov    0x20(%rsp),%r10d
    34aa:	e9 2a fc ff ff       	jmp    30d9 <parse_switches.constprop.0+0x1c9>
/home/tenebris/Disk/Racing-code/examples/23-libjpeg-divide-by-zero/libjpeg-turbo-2.0.90/cjpeg.c:318
    } else if (keymatch(arg, "icc", 1)) {
    34af:	ba 01 00 00 00       	mov    $0x1,%edx
    34b4:	48 8d 35 4e 7c 00 00 	lea    0x7c4e(%rip),%rsi        # b109 <_IO_stdin_used+0x109>
    34bb:	44 89 54 24 30       	mov    %r10d,0x30(%rsp)
    34c0:	4c 89 5c 24 28       	mov    %r11,0x28(%rsp)
    34c5:	48 89 4c 24 20       	mov    %rcx,0x20(%rsp)
    34ca:	48 89 7c 24 18       	mov    %rdi,0x18(%rsp)
    34cf:	e8 8c 07 00 00       	call   3c60 <keymatch>
    34d4:	48 8b 7c 24 18       	mov    0x18(%rsp),%rdi
    34d9:	48 8b 4c 24 20       	mov    0x20(%rsp),%rcx
    34de:	85 c0                	test   %eax,%eax
    34e0:	4c 8b 5c 24 28       	mov    0x28(%rsp),%r11
    34e5:	44 8b 54 24 30       	mov    0x30(%rsp),%r10d
    34ea:	74 54                	je     3540 <parse_switches.constprop.0+0x630>
/home/tenebris/Disk/Racing-code/examples/23-libjpeg-divide-by-zero/libjpeg-turbo-2.0.90/cjpeg.c:320
      if (++argn >= argc)       /* advance to next argument */
    34ec:	41 83 c4 01          	add    $0x1,%r12d
    34f0:	45 39 e5             	cmp    %r12d,%r13d
    34f3:	0f 8e 41 fc ff ff    	jle    313a <parse_switches.constprop.0+0x22a>
/home/tenebris/Disk/Racing-code/examples/23-libjpeg-divide-by-zero/libjpeg-turbo-2.0.90/cjpeg.c:322
      icc_filename = argv[argn];
    34f9:	48 8b 44 0b 08       	mov    0x8(%rbx,%rcx,1),%rax
    34fe:	48 89 05 63 bb 00 00 	mov    %rax,0xbb63(%rip)        # f068 <icc_filename>
    3505:	e9 cf fb ff ff       	jmp    30d9 <parse_switches.constprop.0+0x1c9>
fprintf():
/usr/include/x86_64-linux-gnu/bits/stdio2.h:105
    350a:	48 8b 3d 2f bb 00 00 	mov    0xbb2f(%rip),%rdi        # f040 <stderr@GLIBC_2.2.5>
    3511:	4c 8d 0d 84 7b 00 00 	lea    0x7b84(%rip),%r9        # b09c <_IO_stdin_used+0x9c>
    3518:	31 c0                	xor    %eax,%eax
    351a:	4c 8d 05 84 7b 00 00 	lea    0x7b84(%rip),%r8        # b0a5 <_IO_stdin_used+0xa5>
    3521:	48 8d 0d 84 7b 00 00 	lea    0x7b84(%rip),%rcx        # b0ac <_IO_stdin_used+0xac>
    3528:	48 8d 15 8b 7b 00 00 	lea    0x7b8b(%rip),%rdx        # b0ba <_IO_stdin_used+0xba>
    352f:	be 01 00 00 00       	mov    $0x1,%esi
    3534:	e8 17 ef ff ff       	call   2450 <__fprintf_chk@plt>
parse_switches():
/home/tenebris/Disk/Racing-code/examples/23-libjpeg-divide-by-zero/libjpeg-turbo-2.0.90/cjpeg.c:307
      exit(EXIT_SUCCESS);
    3539:	31 ff                	xor    %edi,%edi
    353b:	e8 f0 ee ff ff       	call   2430 <exit@plt>
/home/tenebris/Disk/Racing-code/examples/23-libjpeg-divide-by-zero/libjpeg-turbo-2.0.90/cjpeg.c:324
    } else if (keymatch(arg, "maxmemory", 3)) {
    3540:	ba 03 00 00 00       	mov    $0x3,%edx
    3545:	48 8d 35 c1 7b 00 00 	lea    0x7bc1(%rip),%rsi        # b10d <_IO_stdin_used+0x10d>
    354c:	44 89 54 24 30       	mov    %r10d,0x30(%rsp)
    3551:	4c 89 5c 24 28       	mov    %r11,0x28(%rsp)
    3556:	48 89 4c 24 20       	mov    %rcx,0x20(%rsp)
    355b:	48 89 7c 24 18       	mov    %rdi,0x18(%rsp)
    3560:	e8 fb 06 00 00       	call   3c60 <keymatch>
    3565:	48 8b 7c 24 18       	mov    0x18(%rsp),%rdi
    356a:	48 8b 4c 24 20       	mov    0x20(%rsp),%rcx
    356f:	85 c0                	test   %eax,%eax
    3571:	4c 8b 5c 24 28       	mov    0x28(%rsp),%r11
    3576:	44 8b 54 24 30       	mov    0x30(%rsp),%r10d
    357b:	74 73                	je     35f0 <parse_switches.constprop.0+0x6e0>
/home/tenebris/Disk/Racing-code/examples/23-libjpeg-divide-by-zero/libjpeg-turbo-2.0.90/cjpeg.c:329
      if (++argn >= argc)       /* advance to next argument */
    357d:	41 83 c4 01          	add    $0x1,%r12d
    3581:	44 89 54 24 20       	mov    %r10d,0x20(%rsp)
    3586:	4c 89 5c 24 18       	mov    %r11,0x18(%rsp)
/home/tenebris/Disk/Racing-code/examples/23-libjpeg-divide-by-zero/libjpeg-turbo-2.0.90/cjpeg.c:327
      char ch = 'x';
    358b:	c6 44 24 42 78       	movb   $0x78,0x42(%rsp)
/home/tenebris/Disk/Racing-code/examples/23-libjpeg-divide-by-zero/libjpeg-turbo-2.0.90/cjpeg.c:329
      if (++argn >= argc)       /* advance to next argument */
    3590:	45 39 e5             	cmp    %r12d,%r13d
    3593:	0f 8e a1 fb ff ff    	jle    313a <parse_switches.constprop.0+0x22a>
/home/tenebris/Disk/Racing-code/examples/23-libjpeg-divide-by-zero/libjpeg-turbo-2.0.90/cjpeg.c:331
      if (sscanf(argv[argn], "%ld%c", &lval, &ch) < 1)
    3599:	48 8b 7c 0b 08       	mov    0x8(%rbx,%rcx,1),%rdi
    359e:	4c 8d 44 24 42       	lea    0x42(%rsp),%r8
    35a3:	31 c0                	xor    %eax,%eax
    35a5:	48 8d 54 24 48       	lea    0x48(%rsp),%rdx
    35aa:	4c 89 c1             	mov    %r8,%rcx
    35ad:	48 8d 35 63 7b 00 00 	lea    0x7b63(%rip),%rsi        # b117 <_IO_stdin_used+0x117>
    35b4:	e8 b7 ed ff ff       	call   2370 <__isoc99_sscanf@plt>
    35b9:	85 c0                	test   %eax,%eax
    35bb:	0f 8e 79 fb ff ff    	jle    313a <parse_switches.constprop.0+0x22a>
/home/tenebris/Disk/Racing-code/examples/23-libjpeg-divide-by-zero/libjpeg-turbo-2.0.90/cjpeg.c:333
      if (ch == 'm' || ch == 'M')
    35c1:	0f b6 44 24 42       	movzbl 0x42(%rsp),%eax
    35c6:	4c 8b 5c 24 18       	mov    0x18(%rsp),%r11
    35cb:	44 8b 54 24 20       	mov    0x20(%rsp),%r10d
    35d0:	83 e0 df             	and    $0xffffffdf,%eax
    35d3:	3c 4d                	cmp    $0x4d,%al
    35d5:	74 65                	je     363c <parse_switches.constprop.0+0x72c>
    35d7:	48 8b 44 24 48       	mov    0x48(%rsp),%rax
/home/tenebris/Disk/Racing-code/examples/23-libjpeg-divide-by-zero/libjpeg-turbo-2.0.90/cjpeg.c:335
      cinfo->mem->max_memory_to_use = lval * 1000L;
    35dc:	48 69 c0 e8 03 00 00 	imul   $0x3e8,%rax,%rax
    35e3:	48 8b 55 08          	mov    0x8(%rbp),%rdx
    35e7:	48 89 42 58          	mov    %rax,0x58(%rdx)
    35eb:	e9 e9 fa ff ff       	jmp    30d9 <parse_switches.constprop.0+0x1c9>
/home/tenebris/Disk/Racing-code/examples/23-libjpeg-divide-by-zero/libjpeg-turbo-2.0.90/cjpeg.c:337
    } else if (keymatch(arg, "optimize", 1) || keymatch(arg, "optimise", 1)) {
    35f0:	ba 01 00 00 00       	mov    $0x1,%edx
    35f5:	48 8d 35 21 7b 00 00 	lea    0x7b21(%rip),%rsi        # b11d <_IO_stdin_used+0x11d>
    35fc:	44 89 54 24 30       	mov    %r10d,0x30(%rsp)
    3601:	4c 89 5c 24 28       	mov    %r11,0x28(%rsp)
    3606:	48 89 4c 24 20       	mov    %rcx,0x20(%rsp)
    360b:	48 89 7c 24 18       	mov    %rdi,0x18(%rsp)
    3610:	e8 4b 06 00 00       	call   3c60 <keymatch>
    3615:	48 8b 7c 24 18       	mov    0x18(%rsp),%rdi
    361a:	48 8b 4c 24 20       	mov    0x20(%rsp),%rcx
    361f:	85 c0                	test   %eax,%eax
    3621:	4c 8b 5c 24 28       	mov    0x28(%rsp),%r11
    3626:	44 8b 54 24 30       	mov    0x30(%rsp),%r10d
    362b:	74 1f                	je     364c <parse_switches.constprop.0+0x73c>
/home/tenebris/Disk/Racing-code/examples/23-libjpeg-divide-by-zero/libjpeg-turbo-2.0.90/cjpeg.c:340
      cinfo->optimize_coding = TRUE;
    362d:	c7 85 08 01 00 00 01 	movl   $0x1,0x108(%rbp)
    3634:	00 00 00 
    3637:	e9 9d fa ff ff       	jmp    30d9 <parse_switches.constprop.0+0x1c9>
/home/tenebris/Disk/Racing-code/examples/23-libjpeg-divide-by-zero/libjpeg-turbo-2.0.90/cjpeg.c:334
        lval *= 1000L;
    363c:	48 69 44 24 48 e8 03 	imul   $0x3e8,0x48(%rsp),%rax
    3643:	00 00 
    3645:	48 89 44 24 48       	mov    %rax,0x48(%rsp)
    364a:	eb 90                	jmp    35dc <parse_switches.constprop.0+0x6cc>
/home/tenebris/Disk/Racing-code/examples/23-libjpeg-divide-by-zero/libjpeg-turbo-2.0.90/cjpeg.c:337
    } else if (keymatch(arg, "optimize", 1) || keymatch(arg, "optimise", 1)) {
    364c:	ba 01 00 00 00       	mov    $0x1,%edx
    3651:	48 8d 35 ce 7a 00 00 	lea    0x7ace(%rip),%rsi        # b126 <_IO_stdin_used+0x126>
    3658:	44 89 54 24 30       	mov    %r10d,0x30(%rsp)
    365d:	4c 89 5c 24 28       	mov    %r11,0x28(%rsp)
    3662:	48 89 7c 24 18       	mov    %rdi,0x18(%rsp)
    3667:	48 89 4c 24 20       	mov    %rcx,0x20(%rsp)
    366c:	e8 ef 05 00 00       	call   3c60 <keymatch>
    3671:	48 8b 7c 24 18       	mov    0x18(%rsp),%rdi
    3676:	4c 8b 5c 24 28       	mov    0x28(%rsp),%r11
    367b:	85 c0                	test   %eax,%eax
    367d:	44 8b 54 24 30       	mov    0x30(%rsp),%r10d
    3682:	75 a9                	jne    362d <parse_switches.constprop.0+0x71d>
/home/tenebris/Disk/Racing-code/examples/23-libjpeg-divide-by-zero/libjpeg-turbo-2.0.90/cjpeg.c:347
    } else if (keymatch(arg, "outfile", 4)) {
    3684:	ba 04 00 00 00       	mov    $0x4,%edx
    3689:	48 8d 35 9f 7a 00 00 	lea    0x7a9f(%rip),%rsi        # b12f <_IO_stdin_used+0x12f>
    3690:	e8 cb 05 00 00       	call   3c60 <keymatch>
    3695:	48 8b 7c 24 18       	mov    0x18(%rsp),%rdi
    369a:	48 8b 4c 24 20       	mov    0x20(%rsp),%rcx
    369f:	85 c0                	test   %eax,%eax
    36a1:	4c 8b 5c 24 28       	mov    0x28(%rsp),%r11
    36a6:	44 8b 54 24 30       	mov    0x30(%rsp),%r10d
    36ab:	74 1e                	je     36cb <parse_switches.constprop.0+0x7bb>
/home/tenebris/Disk/Racing-code/examples/23-libjpeg-divide-by-zero/libjpeg-turbo-2.0.90/cjpeg.c:349
      if (++argn >= argc)       /* advance to next argument */
    36ad:	41 83 c4 01          	add    $0x1,%r12d
    36b1:	45 39 e5             	cmp    %r12d,%r13d
    36b4:	0f 8e 80 fa ff ff    	jle    313a <parse_switches.constprop.0+0x22a>
/home/tenebris/Disk/Racing-code/examples/23-libjpeg-divide-by-zero/libjpeg-turbo-2.0.90/cjpeg.c:351
      outfilename = argv[argn]; /* save it away for later use */
    36ba:	48 8b 44 0b 08       	mov    0x8(%rbx,%rcx,1),%rax
    36bf:	48 89 05 9a b9 00 00 	mov    %rax,0xb99a(%rip)        # f060 <outfilename>
    36c6:	e9 0e fa ff ff       	jmp    30d9 <parse_switches.constprop.0+0x1c9>
/home/tenebris/Disk/Racing-code/examples/23-libjpeg-divide-by-zero/libjpeg-turbo-2.0.90/cjpeg.c:353
    } else if (keymatch(arg, "progressive", 1)) {
    36cb:	ba 01 00 00 00       	mov    $0x1,%edx
    36d0:	48 8d 35 60 7a 00 00 	lea    0x7a60(%rip),%rsi        # b137 <_IO_stdin_used+0x137>
    36d7:	44 89 54 24 30       	mov    %r10d,0x30(%rsp)
    36dc:	4c 89 5c 24 28       	mov    %r11,0x28(%rsp)
    36e1:	48 89 7c 24 18       	mov    %rdi,0x18(%rsp)
    36e6:	48 89 4c 24 20       	mov    %rcx,0x20(%rsp)
    36eb:	e8 70 05 00 00       	call   3c60 <keymatch>
    36f0:	48 8b 7c 24 18       	mov    0x18(%rsp),%rdi
    36f5:	4c 8b 5c 24 28       	mov    0x28(%rsp),%r11
    36fa:	85 c0                	test   %eax,%eax
    36fc:	44 8b 54 24 30       	mov    0x30(%rsp),%r10d
    3701:	74 0d                	je     3710 <parse_switches.constprop.0+0x800>
/home/tenebris/Disk/Racing-code/examples/23-libjpeg-divide-by-zero/libjpeg-turbo-2.0.90/cjpeg.c:356
      simple_progressive = TRUE;
    3703:	c7 44 24 38 01 00 00 	movl   $0x1,0x38(%rsp)
    370a:	00 
    370b:	e9 c9 f9 ff ff       	jmp    30d9 <parse_switches.constprop.0+0x1c9>
/home/tenebris/Disk/Racing-code/examples/23-libjpeg-divide-by-zero/libjpeg-turbo-2.0.90/cjpeg.c:364
    } else if (keymatch(arg, "memdst", 2)) {
    3710:	ba 02 00 00 00       	mov    $0x2,%edx
    3715:	48 8d 35 27 7a 00 00 	lea    0x7a27(%rip),%rsi        # b143 <_IO_stdin_used+0x143>
    371c:	e8 3f 05 00 00       	call   3c60 <keymatch>
    3721:	48 8b 7c 24 18       	mov    0x18(%rsp),%rdi
    3726:	48 8b 4c 24 20       	mov    0x20(%rsp),%rcx
    372b:	85 c0                	test   %eax,%eax
    372d:	4c 8b 5c 24 28       	mov    0x28(%rsp),%r11
    3732:	44 8b 54 24 30       	mov    0x30(%rsp),%r10d
    3737:	74 0f                	je     3748 <parse_switches.constprop.0+0x838>
/home/tenebris/Disk/Racing-code/examples/23-libjpeg-divide-by-zero/libjpeg-turbo-2.0.90/cjpeg.c:367
      memdst = TRUE;
    3739:	c7 05 11 b9 00 00 01 	movl   $0x1,0xb911(%rip)        # f054 <memdst>
    3740:	00 00 00 
    3743:	e9 91 f9 ff ff       	jmp    30d9 <parse_switches.constprop.0+0x1c9>
/home/tenebris/Disk/Racing-code/examples/23-libjpeg-divide-by-zero/libjpeg-turbo-2.0.90/cjpeg.c:374
    } else if (keymatch(arg, "quality", 1)) {
    3748:	ba 01 00 00 00       	mov    $0x1,%edx
    374d:	48 8d 35 f6 79 00 00 	lea    0x79f6(%rip),%rsi        # b14a <_IO_stdin_used+0x14a>
    3754:	44 89 54 24 30       	mov    %r10d,0x30(%rsp)
    3759:	4c 89 5c 24 28       	mov    %r11,0x28(%rsp)
    375e:	48 89 4c 24 20       	mov    %rcx,0x20(%rsp)
    3763:	48 89 7c 24 18       	mov    %rdi,0x18(%rsp)
    3768:	e8 f3 04 00 00       	call   3c60 <keymatch>
    376d:	48 8b 7c 24 18       	mov    0x18(%rsp),%rdi
    3772:	48 8b 4c 24 20       	mov    0x20(%rsp),%rcx
    3777:	85 c0                	test   %eax,%eax
    3779:	4c 8b 5c 24 28       	mov    0x28(%rsp),%r11
    377e:	44 8b 54 24 30       	mov    0x30(%rsp),%r10d
    3783:	74 17                	je     379c <parse_switches.constprop.0+0x88c>
/home/tenebris/Disk/Racing-code/examples/23-libjpeg-divide-by-zero/libjpeg-turbo-2.0.90/cjpeg.c:376
      if (++argn >= argc)       /* advance to next argument */
    3785:	41 83 c4 01          	add    $0x1,%r12d
    3789:	45 39 e5             	cmp    %r12d,%r13d
    378c:	0f 8e a8 f9 ff ff    	jle    313a <parse_switches.constprop.0+0x22a>
/home/tenebris/Disk/Racing-code/examples/23-libjpeg-divide-by-zero/libjpeg-turbo-2.0.90/cjpeg.c:378
      qualityarg = argv[argn];
    3792:	4c 8b 5c 0b 08       	mov    0x8(%rbx,%rcx,1),%r11
    3797:	e9 3d f9 ff ff       	jmp    30d9 <parse_switches.constprop.0+0x1c9>
/home/tenebris/Disk/Racing-code/examples/23-libjpeg-divide-by-zero/libjpeg-turbo-2.0.90/cjpeg.c:380
    } else if (keymatch(arg, "qslots", 2)) {
    379c:	ba 02 00 00 00       	mov    $0x2,%edx
    37a1:	48 8d 35 aa 79 00 00 	lea    0x79aa(%rip),%rsi        # b152 <_IO_stdin_used+0x152>
    37a8:	44 89 54 24 30       	mov    %r10d,0x30(%rsp)
    37ad:	4c 89 5c 24 28       	mov    %r11,0x28(%rsp)
    37b2:	48 89 4c 24 20       	mov    %rcx,0x20(%rsp)
    37b7:	48 89 7c 24 18       	mov    %rdi,0x18(%rsp)
    37bc:	e8 9f 04 00 00       	call   3c60 <keymatch>
    37c1:	48 8b 7c 24 18       	mov    0x18(%rsp),%rdi
    37c6:	48 8b 4c 24 20       	mov    0x20(%rsp),%rcx
    37cb:	85 c0                	test   %eax,%eax
    37cd:	4c 8b 5c 24 28       	mov    0x28(%rsp),%r11
    37d2:	44 8b 54 24 30       	mov    0x30(%rsp),%r10d
    37d7:	74 1c                	je     37f5 <parse_switches.constprop.0+0x8e5>
/home/tenebris/Disk/Racing-code/examples/23-libjpeg-divide-by-zero/libjpeg-turbo-2.0.90/cjpeg.c:382
      if (++argn >= argc)       /* advance to next argument */
    37d9:	41 83 c4 01          	add    $0x1,%r12d
    37dd:	45 39 e5             	cmp    %r12d,%r13d
    37e0:	0f 8e 54 f9 ff ff    	jle    313a <parse_switches.constprop.0+0x22a>
/home/tenebris/Disk/Racing-code/examples/23-libjpeg-divide-by-zero/libjpeg-turbo-2.0.90/cjpeg.c:384
      qslotsarg = argv[argn];
    37e6:	48 8b 44 0b 08       	mov    0x8(%rbx,%rcx,1),%rax
    37eb:	48 89 44 24 08       	mov    %rax,0x8(%rsp)
    37f0:	e9 e4 f8 ff ff       	jmp    30d9 <parse_switches.constprop.0+0x1c9>
/home/tenebris/Disk/Racing-code/examples/23-libjpeg-divide-by-zero/libjpeg-turbo-2.0.90/cjpeg.c:390
    } else if (keymatch(arg, "qtables", 2)) {
    37f5:	ba 02 00 00 00       	mov    $0x2,%edx
    37fa:	48 8d 35 58 79 00 00 	lea    0x7958(%rip),%rsi        # b159 <_IO_stdin_used+0x159>
    3801:	44 89 54 24 30       	mov    %r10d,0x30(%rsp)
    3806:	4c 89 5c 24 28       	mov    %r11,0x28(%rsp)
    380b:	48 89 4c 24 20       	mov    %rcx,0x20(%rsp)
    3810:	48 89 7c 24 18       	mov    %rdi,0x18(%rsp)
    3815:	e8 46 04 00 00       	call   3c60 <keymatch>
    381a:	48 8b 7c 24 18       	mov    0x18(%rsp),%rdi
    381f:	48 8b 4c 24 20       	mov    0x20(%rsp),%rcx
    3824:	85 c0                	test   %eax,%eax
    3826:	4c 8b 5c 24 28       	mov    0x28(%rsp),%r11
    382b:	44 8b 54 24 30       	mov    0x30(%rsp),%r10d
    3830:	74 1c                	je     384e <parse_switches.constprop.0+0x93e>
/home/tenebris/Disk/Racing-code/examples/23-libjpeg-divide-by-zero/libjpeg-turbo-2.0.90/cjpeg.c:392
      if (++argn >= argc)       /* advance to next argument */
    3832:	41 83 c4 01          	add    $0x1,%r12d
    3836:	45 39 e5             	cmp    %r12d,%r13d
    3839:	0f 8e fb f8 ff ff    	jle    313a <parse_switches.constprop.0+0x22a>
/home/tenebris/Disk/Racing-code/examples/23-libjpeg-divide-by-zero/libjpeg-turbo-2.0.90/cjpeg.c:394
      qtablefile = argv[argn];
    383f:	48 8b 44 0b 08       	mov    0x8(%rbx,%rcx,1),%rax
    3844:	48 89 44 24 10       	mov    %rax,0x10(%rsp)
    3849:	e9 8b f8 ff ff       	jmp    30d9 <parse_switches.constprop.0+0x1c9>
/home/tenebris/Disk/Racing-code/examples/23-libjpeg-divide-by-zero/libjpeg-turbo-2.0.90/cjpeg.c:397
    } else if (keymatch(arg, "report", 3)) {
    384e:	ba 03 00 00 00       	mov    $0x3,%edx
    3853:	48 8d 35 07 79 00 00 	lea    0x7907(%rip),%rsi        # b161 <_IO_stdin_used+0x161>
    385a:	44 89 54 24 30       	mov    %r10d,0x30(%rsp)
    385f:	4c 89 5c 24 28       	mov    %r11,0x28(%rsp)
    3864:	48 89 4c 24 20       	mov    %rcx,0x20(%rsp)
    3869:	48 89 7c 24 18       	mov    %rdi,0x18(%rsp)
    386e:	e8 ed 03 00 00       	call   3c60 <keymatch>
    3873:	48 8b 7c 24 18       	mov    0x18(%rsp),%rdi
    3878:	48 8b 4c 24 20       	mov    0x20(%rsp),%rcx
    387d:	85 c0                	test   %eax,%eax
    387f:	4c 8b 5c 24 28       	mov    0x28(%rsp),%r11
    3884:	44 8b 54 24 30       	mov    0x30(%rsp),%r10d
    3889:	74 0f                	je     389a <parse_switches.constprop.0+0x98a>
/home/tenebris/Disk/Racing-code/examples/23-libjpeg-divide-by-zero/libjpeg-turbo-2.0.90/cjpeg.c:398
      report = TRUE;
    388b:	c7 05 bb b7 00 00 01 	movl   $0x1,0xb7bb(%rip)        # f050 <report>
    3892:	00 00 00 
    3895:	e9 3f f8 ff ff       	jmp    30d9 <parse_switches.constprop.0+0x1c9>
/home/tenebris/Disk/Racing-code/examples/23-libjpeg-divide-by-zero/libjpeg-turbo-2.0.90/cjpeg.c:400
    } else if (keymatch(arg, "restart", 1)) {
    389a:	ba 01 00 00 00       	mov    $0x1,%edx
    389f:	48 8d 35 c2 78 00 00 	lea    0x78c2(%rip),%rsi        # b168 <_IO_stdin_used+0x168>
    38a6:	44 89 54 24 3c       	mov    %r10d,0x3c(%rsp)
    38ab:	4c 89 5c 24 30       	mov    %r11,0x30(%rsp)
    38b0:	48 89 4c 24 20       	mov    %rcx,0x20(%rsp)
    38b5:	48 89 7c 24 18       	mov    %rdi,0x18(%rsp)
    38ba:	89 44 24 28          	mov    %eax,0x28(%rsp)
    38be:	e8 9d 03 00 00       	call   3c60 <keymatch>
    38c3:	48 8b 7c 24 18       	mov    0x18(%rsp),%rdi
    38c8:	48 8b 4c 24 20       	mov    0x20(%rsp),%rcx
    38cd:	85 c0                	test   %eax,%eax
    38cf:	4c 8b 5c 24 30       	mov    0x30(%rsp),%r11
    38d4:	44 8b 54 24 3c       	mov    0x3c(%rsp),%r10d
    38d9:	0f 84 86 00 00 00    	je     3965 <parse_switches.constprop.0+0xa55>
/home/tenebris/Disk/Racing-code/examples/23-libjpeg-divide-by-zero/libjpeg-turbo-2.0.90/cjpeg.c:405
      if (++argn >= argc)       /* advance to next argument */
    38df:	41 83 c4 01          	add    $0x1,%r12d
    38e3:	44 89 54 24 20       	mov    %r10d,0x20(%rsp)
    38e8:	4c 89 5c 24 18       	mov    %r11,0x18(%rsp)
/home/tenebris/Disk/Racing-code/examples/23-libjpeg-divide-by-zero/libjpeg-turbo-2.0.90/cjpeg.c:403
      char ch = 'x';
    38ed:	c6 44 24 43 78       	movb   $0x78,0x43(%rsp)
/home/tenebris/Disk/Racing-code/examples/23-libjpeg-divide-by-zero/libjpeg-turbo-2.0.90/cjpeg.c:405
      if (++argn >= argc)       /* advance to next argument */
    38f2:	45 39 e5             	cmp    %r12d,%r13d
    38f5:	0f 8e 3f f8 ff ff    	jle    313a <parse_switches.constprop.0+0x22a>
/home/tenebris/Disk/Racing-code/examples/23-libjpeg-divide-by-zero/libjpeg-turbo-2.0.90/cjpeg.c:407
      if (sscanf(argv[argn], "%ld%c", &lval, &ch) < 1)
    38fb:	48 8b 7c 0b 08       	mov    0x8(%rbx,%rcx,1),%rdi
    3900:	4c 8d 4c 24 43       	lea    0x43(%rsp),%r9
    3905:	31 c0                	xor    %eax,%eax
    3907:	48 8d 54 24 50       	lea    0x50(%rsp),%rdx
    390c:	4c 89 c9             	mov    %r9,%rcx
    390f:	48 8d 35 01 78 00 00 	lea    0x7801(%rip),%rsi        # b117 <_IO_stdin_used+0x117>
    3916:	e8 55 ea ff ff       	call   2370 <__isoc99_sscanf@plt>
    391b:	85 c0                	test   %eax,%eax
    391d:	0f 8e 17 f8 ff ff    	jle    313a <parse_switches.constprop.0+0x22a>
/home/tenebris/Disk/Racing-code/examples/23-libjpeg-divide-by-zero/libjpeg-turbo-2.0.90/cjpeg.c:409
      if (lval < 0 || lval > 65535L)
    3923:	48 8b 44 24 50       	mov    0x50(%rsp),%rax
    3928:	48 3d ff ff 00 00    	cmp    $0xffff,%rax
    392e:	0f 87 06 f8 ff ff    	ja     313a <parse_switches.constprop.0+0x22a>
/home/tenebris/Disk/Racing-code/examples/23-libjpeg-divide-by-zero/libjpeg-turbo-2.0.90/cjpeg.c:411
      if (ch == 'b' || ch == 'B') {
    3934:	0f b6 54 24 43       	movzbl 0x43(%rsp),%edx
    3939:	4c 8b 5c 24 18       	mov    0x18(%rsp),%r11
/home/tenebris/Disk/Racing-code/examples/23-libjpeg-divide-by-zero/libjpeg-turbo-2.0.90/cjpeg.c:415
        cinfo->restart_in_rows = (int)lval;
    393e:	41 89 c0             	mov    %eax,%r8d
/home/tenebris/Disk/Racing-code/examples/23-libjpeg-divide-by-zero/libjpeg-turbo-2.0.90/cjpeg.c:411
      if (ch == 'b' || ch == 'B') {
    3941:	44 8b 54 24 20       	mov    0x20(%rsp),%r10d
    3946:	83 e2 df             	and    $0xffffffdf,%edx
    3949:	80 fa 42             	cmp    $0x42,%dl
    394c:	75 0b                	jne    3959 <parse_switches.constprop.0+0xa49>
/home/tenebris/Disk/Racing-code/examples/23-libjpeg-divide-by-zero/libjpeg-turbo-2.0.90/cjpeg.c:412
        cinfo->restart_interval = (unsigned int)lval;
    394e:	89 85 18 01 00 00    	mov    %eax,0x118(%rbp)
/home/tenebris/Disk/Racing-code/examples/23-libjpeg-divide-by-zero/libjpeg-turbo-2.0.90/cjpeg.c:413
        cinfo->restart_in_rows = 0; /* else prior '-restart n' overrides me */
    3954:	44 8b 44 24 28       	mov    0x28(%rsp),%r8d
    3959:	44 89 85 1c 01 00 00 	mov    %r8d,0x11c(%rbp)
    3960:	e9 74 f7 ff ff       	jmp    30d9 <parse_switches.constprop.0+0x1c9>
/home/tenebris/Disk/Racing-code/examples/23-libjpeg-divide-by-zero/libjpeg-turbo-2.0.90/cjpeg.c:419
    } else if (keymatch(arg, "sample", 2)) {
    3965:	ba 02 00 00 00       	mov    $0x2,%edx
    396a:	48 8d 35 ff 77 00 00 	lea    0x77ff(%rip),%rsi        # b170 <_IO_stdin_used+0x170>
    3971:	44 89 54 24 30       	mov    %r10d,0x30(%rsp)
    3976:	4c 89 5c 24 28       	mov    %r11,0x28(%rsp)
    397b:	48 89 4c 24 20       	mov    %rcx,0x20(%rsp)
    3980:	48 89 7c 24 18       	mov    %rdi,0x18(%rsp)
    3985:	e8 d6 02 00 00       	call   3c60 <keymatch>
    398a:	48 8b 7c 24 18       	mov    0x18(%rsp),%rdi
    398f:	48 8b 4c 24 20       	mov    0x20(%rsp),%rcx
    3994:	85 c0                	test   %eax,%eax
    3996:	4c 8b 5c 24 28       	mov    0x28(%rsp),%r11
    399b:	44 8b 54 24 30       	mov    0x30(%rsp),%r10d
    39a0:	74 17                	je     39b9 <parse_switches.constprop.0+0xaa9>
/home/tenebris/Disk/Racing-code/examples/23-libjpeg-divide-by-zero/libjpeg-turbo-2.0.90/cjpeg.c:421
      if (++argn >= argc)       /* advance to next argument */
    39a2:	41 83 c4 01          	add    $0x1,%r12d
    39a6:	45 39 e5             	cmp    %r12d,%r13d
    39a9:	0f 8e 8b f7 ff ff    	jle    313a <parse_switches.constprop.0+0x22a>
/home/tenebris/Disk/Racing-code/examples/23-libjpeg-divide-by-zero/libjpeg-turbo-2.0.90/cjpeg.c:423
      samplearg = argv[argn];
    39af:	4c 8b 74 0b 08       	mov    0x8(%rbx,%rcx,1),%r14
    39b4:	e9 20 f7 ff ff       	jmp    30d9 <parse_switches.constprop.0+0x1c9>
/home/tenebris/Disk/Racing-code/examples/23-libjpeg-divide-by-zero/libjpeg-turbo-2.0.90/cjpeg.c:429
    } else if (keymatch(arg, "scans", 4)) {
    39b9:	ba 04 00 00 00       	mov    $0x4,%edx
    39be:	48 8d 35 b2 77 00 00 	lea    0x77b2(%rip),%rsi        # b177 <_IO_stdin_used+0x177>
    39c5:	44 89 54 24 30       	mov    %r10d,0x30(%rsp)
    39ca:	4c 89 5c 24 28       	mov    %r11,0x28(%rsp)
    39cf:	48 89 4c 24 20       	mov    %rcx,0x20(%rsp)
    39d4:	48 89 7c 24 18       	mov    %rdi,0x18(%rsp)
    39d9:	e8 82 02 00 00       	call   3c60 <keymatch>
    39de:	48 8b 7c 24 18       	mov    0x18(%rsp),%rdi
    39e3:	48 8b 4c 24 20       	mov    0x20(%rsp),%rcx
    39e8:	85 c0                	test   %eax,%eax
    39ea:	4c 8b 5c 24 28       	mov    0x28(%rsp),%r11
    39ef:	44 8b 54 24 30       	mov    0x30(%rsp),%r10d
    39f4:	74 17                	je     3a0d <parse_switches.constprop.0+0xafd>
/home/tenebris/Disk/Racing-code/examples/23-libjpeg-divide-by-zero/libjpeg-turbo-2.0.90/cjpeg.c:432
      if (++argn >= argc)       /* advance to next argument */
    39f6:	41 83 c4 01          	add    $0x1,%r12d
    39fa:	45 39 e5             	cmp    %r12d,%r13d
    39fd:	0f 8e 37 f7 ff ff    	jle    313a <parse_switches.constprop.0+0x22a>
/home/tenebris/Disk/Racing-code/examples/23-libjpeg-divide-by-zero/libjpeg-turbo-2.0.90/cjpeg.c:434
      scansarg = argv[argn];
    3a03:	4c 8b 7c 0b 08       	mov    0x8(%rbx,%rcx,1),%r15
    3a08:	e9 cc f6 ff ff       	jmp    30d9 <parse_switches.constprop.0+0x1c9>
/home/tenebris/Disk/Racing-code/examples/23-libjpeg-divide-by-zero/libjpeg-turbo-2.0.90/cjpeg.c:442
    } else if (keymatch(arg, "smooth", 2)) {
    3a0d:	ba 02 00 00 00       	mov    $0x2,%edx
    3a12:	48 8d 35 64 77 00 00 	lea    0x7764(%rip),%rsi        # b17d <_IO_stdin_used+0x17d>
    3a19:	44 89 54 24 30       	mov    %r10d,0x30(%rsp)
    3a1e:	4c 89 5c 24 20       	mov    %r11,0x20(%rsp)
    3a23:	48 89 7c 24 18       	mov    %rdi,0x18(%rsp)
    3a28:	48 89 4c 24 28       	mov    %rcx,0x28(%rsp)
    3a2d:	e8 2e 02 00 00       	call   3c60 <keymatch>
    3a32:	4c 8b 5c 24 20       	mov    0x20(%rsp),%r11
    3a37:	44 8b 54 24 30       	mov    0x30(%rsp),%r10d
    3a3c:	85 c0                	test   %eax,%eax
    3a3e:	48 8b 7c 24 18       	mov    0x18(%rsp),%rdi
    3a43:	44 89 54 24 20       	mov    %r10d,0x20(%rsp)
    3a48:	4c 89 5c 24 18       	mov    %r11,0x18(%rsp)
    3a4d:	74 55                	je     3aa4 <parse_switches.constprop.0+0xb94>
/home/tenebris/Disk/Racing-code/examples/23-libjpeg-divide-by-zero/libjpeg-turbo-2.0.90/cjpeg.c:446
      if (++argn >= argc)       /* advance to next argument */
    3a4f:	41 83 c4 01          	add    $0x1,%r12d
    3a53:	45 39 e5             	cmp    %r12d,%r13d
    3a56:	0f 8e de f6 ff ff    	jle    313a <parse_switches.constprop.0+0x22a>
/home/tenebris/Disk/Racing-code/examples/23-libjpeg-divide-by-zero/libjpeg-turbo-2.0.90/cjpeg.c:448
      if (sscanf(argv[argn], "%d", &val) != 1)
    3a5c:	48 8b 4c 24 28       	mov    0x28(%rsp),%rcx
    3a61:	31 c0                	xor    %eax,%eax
    3a63:	48 8d 54 24 44       	lea    0x44(%rsp),%rdx
    3a68:	48 8d 35 dd 77 00 00 	lea    0x77dd(%rip),%rsi        # b24c <_IO_stdin_used+0x24c>
    3a6f:	48 8b 7c 0b 08       	mov    0x8(%rbx,%rcx,1),%rdi
    3a74:	e8 f7 e8 ff ff       	call   2370 <__isoc99_sscanf@plt>
    3a79:	83 e8 01             	sub    $0x1,%eax
    3a7c:	0f 85 b8 f6 ff ff    	jne    313a <parse_switches.constprop.0+0x22a>
/home/tenebris/Disk/Racing-code/examples/23-libjpeg-divide-by-zero/libjpeg-turbo-2.0.90/cjpeg.c:450
      if (val < 0 || val > 100)
    3a82:	8b 44 24 44          	mov    0x44(%rsp),%eax
    3a86:	83 f8 64             	cmp    $0x64,%eax
    3a89:	0f 87 ab f6 ff ff    	ja     313a <parse_switches.constprop.0+0x22a>
/home/tenebris/Disk/Racing-code/examples/23-libjpeg-divide-by-zero/libjpeg-turbo-2.0.90/cjpeg.c:452
      cinfo->smoothing_factor = val;
    3a8f:	4c 8b 5c 24 18       	mov    0x18(%rsp),%r11
    3a94:	44 8b 54 24 20       	mov    0x20(%rsp),%r10d
    3a99:	89 85 10 01 00 00    	mov    %eax,0x110(%rbp)
    3a9f:	e9 35 f6 ff ff       	jmp    30d9 <parse_switches.constprop.0+0x1c9>
/home/tenebris/Disk/Racing-code/examples/23-libjpeg-divide-by-zero/libjpeg-turbo-2.0.90/cjpeg.c:454
    } else if (keymatch(arg, "targa", 1)) {
    3aa4:	ba 01 00 00 00       	mov    $0x1,%edx
    3aa9:	48 8d 35 d4 76 00 00 	lea    0x76d4(%rip),%rsi        # b184 <_IO_stdin_used+0x184>
    3ab0:	e8 ab 01 00 00       	call   3c60 <keymatch>
    3ab5:	85 c0                	test   %eax,%eax
    3ab7:	0f 84 7d f6 ff ff    	je     313a <parse_switches.constprop.0+0x22a>
/home/tenebris/Disk/Racing-code/examples/23-libjpeg-divide-by-zero/libjpeg-turbo-2.0.90/cjpeg.c:456
      is_targa = TRUE;
    3abd:	c7 05 b1 b5 00 00 01 	movl   $0x1,0xb5b1(%rip)        # f078 <is_targa>
    3ac4:	00 00 00 
    3ac7:	4c 8b 5c 24 18       	mov    0x18(%rsp),%r11
    3acc:	44 8b 54 24 20       	mov    0x20(%rsp),%r10d
    3ad1:	e9 03 f6 ff ff       	jmp    30d9 <parse_switches.constprop.0+0x1c9>
parse_switches.constprop.0():
    3ad6:	66 2e 0f 1f 84 00 00 	cs nopw 0x0(%rax,%rax,1)
    3add:	00 00 00 

0000000000003ae0 <progress_monitor>:
progress_monitor():
/home/tenebris/Disk/Racing-code/examples/23-libjpeg-divide-by-zero/libjpeg-turbo-2.0.90/cdjpeg.c:30
 * Optional progress monitor: display a percent-done figure on stderr.
 */

METHODDEF(void)
progress_monitor(j_common_ptr cinfo)
{
    3ae0:	f3 0f 1e fa          	endbr64 
    3ae4:	48 83 ec 08          	sub    $0x8,%rsp
/home/tenebris/Disk/Racing-code/examples/23-libjpeg-divide-by-zero/libjpeg-turbo-2.0.90/cdjpeg.c:31
  cd_progress_ptr prog = (cd_progress_ptr)cinfo->progress;
    3ae8:	48 8b 77 10          	mov    0x10(%rdi),%rsi
/home/tenebris/Disk/Racing-code/examples/23-libjpeg-divide-by-zero/libjpeg-turbo-2.0.90/cdjpeg.c:33

  if (prog->max_scans != 0 && cinfo->is_decompressor) {
    3aec:	44 8b 46 28          	mov    0x28(%rsi),%r8d
    3af0:	45 85 c0             	test   %r8d,%r8d
    3af3:	74 16                	je     3b0b <progress_monitor+0x2b>
/home/tenebris/Disk/Racing-code/examples/23-libjpeg-divide-by-zero/libjpeg-turbo-2.0.90/cdjpeg.c:33 (discriminator 1)
    3af5:	8b 57 20             	mov    0x20(%rdi),%edx
    3af8:	85 d2                	test   %edx,%edx
    3afa:	74 0f                	je     3b0b <progress_monitor+0x2b>
/home/tenebris/Disk/Racing-code/examples/23-libjpeg-divide-by-zero/libjpeg-turbo-2.0.90/cdjpeg.c:34
    int scan_no = ((j_decompress_ptr)cinfo)->input_scan_number;
    3afc:	8b 8f ac 00 00 00    	mov    0xac(%rdi),%ecx
/home/tenebris/Disk/Racing-code/examples/23-libjpeg-divide-by-zero/libjpeg-turbo-2.0.90/cdjpeg.c:36

    if (scan_no > (int)prog->max_scans) {
    3b02:	41 39 c8             	cmp    %ecx,%r8d
    3b05:	0f 8c a0 00 00 00    	jl     3bab <progress_monitor+0xcb>
/home/tenebris/Disk/Racing-code/examples/23-libjpeg-divide-by-zero/libjpeg-turbo-2.0.90/cdjpeg.c:43
              prog->max_scans);
      exit(EXIT_FAILURE);
    }
  }

  if (prog->report) {
    3b0b:	8b 46 2c             	mov    0x2c(%rsi),%eax
    3b0e:	85 c0                	test   %eax,%eax
    3b10:	74 6e                	je     3b80 <progress_monitor+0xa0>
/home/tenebris/Disk/Racing-code/examples/23-libjpeg-divide-by-zero/libjpeg-turbo-2.0.90/cdjpeg.c:46
    int total_passes = prog->pub.total_passes + prog->total_extra_passes;
    int percent_done =
      (int)(prog->pub.pass_counter * 100L / prog->pub.pass_limit);
    3b12:	48 8b 46 08          	mov    0x8(%rsi),%rax
    3b16:	48 8d 04 80          	lea    (%rax,%rax,4),%rax
    3b1a:	48 8d 04 80          	lea    (%rax,%rax,4),%rax
    3b1e:	48 c1 e0 02          	shl    $0x2,%rax
    3b22:	48 99                	cqto   
    3b24:	48 f7 7e 10          	idivq  0x10(%rsi)
/home/tenebris/Disk/Racing-code/examples/23-libjpeg-divide-by-zero/libjpeg-turbo-2.0.90/cdjpeg.c:45
    int percent_done =
    3b28:	89 c1                	mov    %eax,%ecx
/home/tenebris/Disk/Racing-code/examples/23-libjpeg-divide-by-zero/libjpeg-turbo-2.0.90/cdjpeg.c:48

    if (percent_done != prog->percent_done) {
    3b2a:	39 46 30             	cmp    %eax,0x30(%rsi)
    3b2d:	74 51                	je     3b80 <progress_monitor+0xa0>
/home/tenebris/Disk/Racing-code/examples/23-libjpeg-divide-by-zero/libjpeg-turbo-2.0.90/cdjpeg.c:44
    int total_passes = prog->pub.total_passes + prog->total_extra_passes;
    3b2f:	44 8b 46 24          	mov    0x24(%rsi),%r8d
    3b33:	44 03 46 1c          	add    0x1c(%rsi),%r8d
/home/tenebris/Disk/Racing-code/examples/23-libjpeg-divide-by-zero/libjpeg-turbo-2.0.90/cdjpeg.c:49
      prog->percent_done = percent_done;
    3b37:	89 46 30             	mov    %eax,0x30(%rsi)
/home/tenebris/Disk/Racing-code/examples/23-libjpeg-divide-by-zero/libjpeg-turbo-2.0.90/cdjpeg.c:37
      fprintf(stderr, "Scan number %d exceeds maximum scans (%d)\n", scan_no,
    3b3a:	48 8b 3d ff b4 00 00 	mov    0xb4ff(%rip),%rdi        # f040 <stderr@GLIBC_2.2.5>
/home/tenebris/Disk/Racing-code/examples/23-libjpeg-divide-by-zero/libjpeg-turbo-2.0.90/cdjpeg.c:50
      if (total_passes > 1) {
    3b41:	41 83 f8 01          	cmp    $0x1,%r8d
    3b45:	7e 41                	jle    3b88 <progress_monitor+0xa8>
/home/tenebris/Disk/Racing-code/examples/23-libjpeg-divide-by-zero/libjpeg-turbo-2.0.90/cdjpeg.c:52
        fprintf(stderr, "\rPass %d/%d: %3d%% ",
                prog->pub.completed_passes + prog->completed_extra_passes + 1,
    3b47:	8b 4e 20             	mov    0x20(%rsi),%ecx
    3b4a:	03 4e 18             	add    0x18(%rsi),%ecx
fprintf():
/usr/include/x86_64-linux-gnu/bits/stdio2.h:105
    3b4d:	41 89 c1             	mov    %eax,%r9d
    3b50:	48 8d 15 6c 85 00 00 	lea    0x856c(%rip),%rdx        # c0c3 <_IO_stdin_used+0x10c3>
progress_monitor():
/home/tenebris/Disk/Racing-code/examples/23-libjpeg-divide-by-zero/libjpeg-turbo-2.0.90/cdjpeg.c:51
        fprintf(stderr, "\rPass %d/%d: %3d%% ",
    3b57:	83 c1 01             	add    $0x1,%ecx
fprintf():
/usr/include/x86_64-linux-gnu/bits/stdio2.h:105
    3b5a:	be 01 00 00 00       	mov    $0x1,%esi
    3b5f:	31 c0                	xor    %eax,%eax
    3b61:	e8 ea e8 ff ff       	call   2450 <__fprintf_chk@plt>
progress_monitor():
/home/tenebris/Disk/Racing-code/examples/23-libjpeg-divide-by-zero/libjpeg-turbo-2.0.90/cdjpeg.c:57
                total_passes, percent_done);
      } else {
        fprintf(stderr, "\r %3d%% ", percent_done);
      }
      fflush(stderr);
    3b66:	48 8b 3d d3 b4 00 00 	mov    0xb4d3(%rip),%rdi        # f040 <stderr@GLIBC_2.2.5>
/home/tenebris/Disk/Racing-code/examples/23-libjpeg-divide-by-zero/libjpeg-turbo-2.0.90/cdjpeg.c:60
    }
  }
}
    3b6d:	48 83 c4 08          	add    $0x8,%rsp
/home/tenebris/Disk/Racing-code/examples/23-libjpeg-divide-by-zero/libjpeg-turbo-2.0.90/cdjpeg.c:57
      fflush(stderr);
    3b71:	e9 ea e7 ff ff       	jmp    2360 <fflush@plt>
    3b76:	66 2e 0f 1f 84 00 00 	cs nopw 0x0(%rax,%rax,1)
    3b7d:	00 00 00 
/home/tenebris/Disk/Racing-code/examples/23-libjpeg-divide-by-zero/libjpeg-turbo-2.0.90/cdjpeg.c:60
}
    3b80:	48 83 c4 08          	add    $0x8,%rsp
    3b84:	c3                   	ret    
    3b85:	0f 1f 00             	nopl   (%rax)
fprintf():
/usr/include/x86_64-linux-gnu/bits/stdio2.h:105
    3b88:	48 8d 15 48 85 00 00 	lea    0x8548(%rip),%rdx        # c0d7 <_IO_stdin_used+0x10d7>
    3b8f:	be 01 00 00 00       	mov    $0x1,%esi
    3b94:	31 c0                	xor    %eax,%eax
    3b96:	e8 b5 e8 ff ff       	call   2450 <__fprintf_chk@plt>
progress_monitor():
/home/tenebris/Disk/Racing-code/examples/23-libjpeg-divide-by-zero/libjpeg-turbo-2.0.90/cdjpeg.c:57
      fflush(stderr);
    3b9b:	48 8b 3d 9e b4 00 00 	mov    0xb49e(%rip),%rdi        # f040 <stderr@GLIBC_2.2.5>
/home/tenebris/Disk/Racing-code/examples/23-libjpeg-divide-by-zero/libjpeg-turbo-2.0.90/cdjpeg.c:60
}
    3ba2:	48 83 c4 08          	add    $0x8,%rsp
/home/tenebris/Disk/Racing-code/examples/23-libjpeg-divide-by-zero/libjpeg-turbo-2.0.90/cdjpeg.c:57
      fflush(stderr);
    3ba6:	e9 b5 e7 ff ff       	jmp    2360 <fflush@plt>
fprintf():
/usr/include/x86_64-linux-gnu/bits/stdio2.h:105
    3bab:	48 8b 3d 8e b4 00 00 	mov    0xb48e(%rip),%rdi        # f040 <stderr@GLIBC_2.2.5>
    3bb2:	48 8d 15 df 84 00 00 	lea    0x84df(%rip),%rdx        # c098 <_IO_stdin_used+0x1098>
    3bb9:	be 01 00 00 00       	mov    $0x1,%esi
    3bbe:	31 c0                	xor    %eax,%eax
    3bc0:	e8 8b e8 ff ff       	call   2450 <__fprintf_chk@plt>
progress_monitor():
/home/tenebris/Disk/Racing-code/examples/23-libjpeg-divide-by-zero/libjpeg-turbo-2.0.90/cdjpeg.c:39
      exit(EXIT_FAILURE);
    3bc5:	bf 01 00 00 00       	mov    $0x1,%edi
    3bca:	e8 61 e8 ff ff       	call   2430 <exit@plt>
    3bcf:	90                   	nop

0000000000003bd0 <start_progress_monitor>:
start_progress_monitor():
/home/tenebris/Disk/Racing-code/examples/23-libjpeg-divide-by-zero/libjpeg-turbo-2.0.90/cdjpeg.c:65


GLOBAL(void)
start_progress_monitor(j_common_ptr cinfo, cd_progress_ptr progress)
{
    3bd0:	f3 0f 1e fa          	endbr64 
/home/tenebris/Disk/Racing-code/examples/23-libjpeg-divide-by-zero/libjpeg-turbo-2.0.90/cdjpeg.c:67
  /* Enable progress display, unless trace output is on */
  if (cinfo->err->trace_level == 0) {
    3bd4:	48 8b 07             	mov    (%rdi),%rax
    3bd7:	8b 40 7c             	mov    0x7c(%rax),%eax
    3bda:	85 c0                	test   %eax,%eax
    3bdc:	75 28                	jne    3c06 <start_progress_monitor+0x36>
/home/tenebris/Disk/Racing-code/examples/23-libjpeg-divide-by-zero/libjpeg-turbo-2.0.90/cdjpeg.c:68
    progress->pub.progress_monitor = progress_monitor;
    3bde:	48 8d 05 fb fe ff ff 	lea    -0x105(%rip),%rax        # 3ae0 <progress_monitor>
/home/tenebris/Disk/Racing-code/examples/23-libjpeg-divide-by-zero/libjpeg-turbo-2.0.90/cdjpeg.c:69
    progress->completed_extra_passes = 0;
    3be5:	48 c7 46 20 00 00 00 	movq   $0x0,0x20(%rsi)
    3bec:	00 
/home/tenebris/Disk/Racing-code/examples/23-libjpeg-divide-by-zero/libjpeg-turbo-2.0.90/cdjpeg.c:68
    progress->pub.progress_monitor = progress_monitor;
    3bed:	48 89 06             	mov    %rax,(%rsi)
/home/tenebris/Disk/Racing-code/examples/23-libjpeg-divide-by-zero/libjpeg-turbo-2.0.90/cdjpeg.c:72
    progress->total_extra_passes = 0;
    progress->max_scans = 0;
    progress->report = FALSE;
    3bf0:	48 8b 05 01 85 00 00 	mov    0x8501(%rip),%rax        # c0f8 <_IO_stdin_used+0x10f8>
/home/tenebris/Disk/Racing-code/examples/23-libjpeg-divide-by-zero/libjpeg-turbo-2.0.90/cdjpeg.c:71
    progress->max_scans = 0;
    3bf7:	c7 46 28 00 00 00 00 	movl   $0x0,0x28(%rsi)
/home/tenebris/Disk/Racing-code/examples/23-libjpeg-divide-by-zero/libjpeg-turbo-2.0.90/cdjpeg.c:72
    progress->report = FALSE;
    3bfe:	48 89 46 2c          	mov    %rax,0x2c(%rsi)
/home/tenebris/Disk/Racing-code/examples/23-libjpeg-divide-by-zero/libjpeg-turbo-2.0.90/cdjpeg.c:74
    progress->percent_done = -1;
    cinfo->progress = &progress->pub;
    3c02:	48 89 77 10          	mov    %rsi,0x10(%rdi)
/home/tenebris/Disk/Racing-code/examples/23-libjpeg-divide-by-zero/libjpeg-turbo-2.0.90/cdjpeg.c:76
  }
}
    3c06:	c3                   	ret    
    3c07:	66 0f 1f 84 00 00 00 	nopw   0x0(%rax,%rax,1)
    3c0e:	00 00 

0000000000003c10 <end_progress_monitor>:
end_progress_monitor():
/home/tenebris/Disk/Racing-code/examples/23-libjpeg-divide-by-zero/libjpeg-turbo-2.0.90/cdjpeg.c:81


GLOBAL(void)
end_progress_monitor(j_common_ptr cinfo)
{
    3c10:	f3 0f 1e fa          	endbr64 
/home/tenebris/Disk/Racing-code/examples/23-libjpeg-divide-by-zero/libjpeg-turbo-2.0.90/cdjpeg.c:83
  /* Clear away progress display */
  if (cinfo->err->trace_level == 0) {
    3c14:	48 8b 07             	mov    (%rdi),%rax
    3c17:	8b 40 7c             	mov    0x7c(%rax),%eax
    3c1a:	85 c0                	test   %eax,%eax
    3c1c:	74 02                	je     3c20 <end_progress_monitor+0x10>
    3c1e:	c3                   	ret    
    3c1f:	90                   	nop
/home/tenebris/Disk/Racing-code/examples/23-libjpeg-divide-by-zero/libjpeg-turbo-2.0.90/cdjpeg.c:81
{
    3c20:	48 83 ec 08          	sub    $0x8,%rsp
fprintf():
/usr/include/x86_64-linux-gnu/bits/stdio2.h:105
    3c24:	ba 12 00 00 00       	mov    $0x12,%edx
    3c29:	be 01 00 00 00       	mov    $0x1,%esi
    3c2e:	48 8b 0d 0b b4 00 00 	mov    0xb40b(%rip),%rcx        # f040 <stderr@GLIBC_2.2.5>
    3c35:	48 8d 3d a4 84 00 00 	lea    0x84a4(%rip),%rdi        # c0e0 <_IO_stdin_used+0x10e0>
    3c3c:	e8 ff e7 ff ff       	call   2440 <fwrite@plt>
end_progress_monitor():
/home/tenebris/Disk/Racing-code/examples/23-libjpeg-divide-by-zero/libjpeg-turbo-2.0.90/cdjpeg.c:85
    fprintf(stderr, "\r                \r");
    fflush(stderr);
    3c41:	48 8b 3d f8 b3 00 00 	mov    0xb3f8(%rip),%rdi        # f040 <stderr@GLIBC_2.2.5>
/home/tenebris/Disk/Racing-code/examples/23-libjpeg-divide-by-zero/libjpeg-turbo-2.0.90/cdjpeg.c:87
  }
}
    3c48:	48 83 c4 08          	add    $0x8,%rsp
/home/tenebris/Disk/Racing-code/examples/23-libjpeg-divide-by-zero/libjpeg-turbo-2.0.90/cdjpeg.c:85
    fflush(stderr);
    3c4c:	e9 0f e7 ff ff       	jmp    2360 <fflush@plt>
    3c51:	66 66 2e 0f 1f 84 00 	data16 cs nopw 0x0(%rax,%rax,1)
    3c58:	00 00 00 00 
    3c5c:	0f 1f 40 00          	nopl   0x0(%rax)

0000000000003c60 <keymatch>:
keymatch():
/home/tenebris/Disk/Racing-code/examples/23-libjpeg-divide-by-zero/libjpeg-turbo-2.0.90/cdjpeg.c:98
 * minchars is length of minimum legal abbreviation.
 */

GLOBAL(boolean)
keymatch(char *arg, const char *keyword, int minchars)
{
    3c60:	f3 0f 1e fa          	endbr64 
    3c64:	41 57                	push   %r15
    3c66:	41 56                	push   %r14
    3c68:	41 55                	push   %r13
    3c6a:	41 54                	push   %r12
    3c6c:	55                   	push   %rbp
    3c6d:	53                   	push   %rbx
    3c6e:	48 83 ec 18          	sub    $0x18,%rsp
/home/tenebris/Disk/Racing-code/examples/23-libjpeg-divide-by-zero/libjpeg-turbo-2.0.90/cdjpeg.c:102
  register int ca, ck;
  register int nmatched = 0;

  while ((ca = *arg++) != '\0') {
    3c72:	4c 0f be 3f          	movsbq (%rdi),%r15
/home/tenebris/Disk/Racing-code/examples/23-libjpeg-divide-by-zero/libjpeg-turbo-2.0.90/cdjpeg.c:98
{
    3c76:	89 54 24 0c          	mov    %edx,0xc(%rsp)
/home/tenebris/Disk/Racing-code/examples/23-libjpeg-divide-by-zero/libjpeg-turbo-2.0.90/cdjpeg.c:102
  while ((ca = *arg++) != '\0') {
    3c7a:	45 85 ff             	test   %r15d,%r15d
    3c7d:	74 64                	je     3ce3 <keymatch+0x83>
    3c7f:	49 89 fc             	mov    %rdi,%r12
    3c82:	49 89 f5             	mov    %rsi,%r13
    3c85:	4c 89 fb             	mov    %r15,%rbx
    3c88:	31 ed                	xor    %ebp,%ebp
    3c8a:	eb 3a                	jmp    3cc6 <keymatch+0x66>
    3c8c:	0f 1f 40 00          	nopl   0x0(%rax)
/home/tenebris/Disk/Racing-code/examples/23-libjpeg-divide-by-zero/libjpeg-turbo-2.0.90/cdjpeg.c:105
    if ((ck = *keyword++) == '\0')
      return FALSE;             /* arg longer than keyword, no good */
    if (isupper(ca))            /* force arg to lcase (assume ck is already) */
    3c90:	e8 fb e7 ff ff       	call   2490 <__ctype_b_loc@plt>
    3c95:	48 8b 00             	mov    (%rax),%rax
    3c98:	f6 44 58 01 01       	testb  $0x1,0x1(%rax,%rbx,2)
    3c9d:	74 0c                	je     3cab <keymatch+0x4b>
tolower():
/usr/include/ctype.h:209

# ifdef __USE_EXTERN_INLINES
__extern_inline int
__NTH (tolower (int __c))
{
  return __c >= -128 && __c < 256 ? (*__ctype_tolower_loc ())[__c] : __c;
    3c9f:	e8 dc e7 ff ff       	call   2480 <__ctype_tolower_loc@plt>
    3ca4:	48 8b 00             	mov    (%rax),%rax
    3ca7:	44 8b 3c 98          	mov    (%rax,%rbx,4),%r15d
keymatch():
/home/tenebris/Disk/Racing-code/examples/23-libjpeg-divide-by-zero/libjpeg-turbo-2.0.90/cdjpeg.c:107
      ca = tolower(ca);
    if (ca != ck)
    3cab:	45 39 f7             	cmp    %r14d,%r15d
    3cae:	75 48                	jne    3cf8 <keymatch+0x98>
/home/tenebris/Disk/Racing-code/examples/23-libjpeg-divide-by-zero/libjpeg-turbo-2.0.90/cdjpeg.c:102
  while ((ca = *arg++) != '\0') {
    3cb0:	49 0f be 5c 2c 01    	movsbq 0x1(%r12,%rbp,1),%rbx
    3cb6:	8d 45 01             	lea    0x1(%rbp),%eax
    3cb9:	48 83 c5 01          	add    $0x1,%rbp
    3cbd:	44 0f be fb          	movsbl %bl,%r15d
    3cc1:	45 85 ff             	test   %r15d,%r15d
    3cc4:	74 22                	je     3ce8 <keymatch+0x88>
/home/tenebris/Disk/Racing-code/examples/23-libjpeg-divide-by-zero/libjpeg-turbo-2.0.90/cdjpeg.c:103
    if ((ck = *keyword++) == '\0')
    3cc6:	45 0f be 74 2d 00    	movsbl 0x0(%r13,%rbp,1),%r14d
    3ccc:	45 85 f6             	test   %r14d,%r14d
    3ccf:	75 bf                	jne    3c90 <keymatch+0x30>
/home/tenebris/Disk/Racing-code/examples/23-libjpeg-divide-by-zero/libjpeg-turbo-2.0.90/cdjpeg.c:115
  }
  /* reached end of argument; fail if it's too short for unique abbrev */
  if (nmatched < minchars)
    return FALSE;
  return TRUE;                  /* A-OK */
}
    3cd1:	48 83 c4 18          	add    $0x18,%rsp
    3cd5:	44 89 f0             	mov    %r14d,%eax
    3cd8:	5b                   	pop    %rbx
    3cd9:	5d                   	pop    %rbp
    3cda:	41 5c                	pop    %r12
    3cdc:	41 5d                	pop    %r13
    3cde:	41 5e                	pop    %r14
    3ce0:	41 5f                	pop    %r15
    3ce2:	c3                   	ret    
/home/tenebris/Disk/Racing-code/examples/23-libjpeg-divide-by-zero/libjpeg-turbo-2.0.90/cdjpeg.c:100
  register int nmatched = 0;
    3ce3:	31 c0                	xor    %eax,%eax
    3ce5:	0f 1f 00             	nopl   (%rax)
/home/tenebris/Disk/Racing-code/examples/23-libjpeg-divide-by-zero/libjpeg-turbo-2.0.90/cdjpeg.c:112
  if (nmatched < minchars)
    3ce8:	45 31 f6             	xor    %r14d,%r14d
    3ceb:	39 44 24 0c          	cmp    %eax,0xc(%rsp)
    3cef:	41 0f 9e c6          	setle  %r14b
    3cf3:	eb dc                	jmp    3cd1 <keymatch+0x71>
    3cf5:	0f 1f 00             	nopl   (%rax)
/home/tenebris/Disk/Racing-code/examples/23-libjpeg-divide-by-zero/libjpeg-turbo-2.0.90/cdjpeg.c:104
      return FALSE;             /* arg longer than keyword, no good */
    3cf8:	45 31 f6             	xor    %r14d,%r14d
    3cfb:	eb d4                	jmp    3cd1 <keymatch+0x71>
    3cfd:	0f 1f 00             	nopl   (%rax)

0000000000003d00 <read_stdin>:
read_stdin():
/home/tenebris/Disk/Racing-code/examples/23-libjpeg-divide-by-zero/libjpeg-turbo-2.0.90/cdjpeg.c:125
 * Non-Unix systems often require some hacking to get out of text mode.
 */

GLOBAL(FILE *)
read_stdin(void)
{
    3d00:	f3 0f 1e fa          	endbr64 
/home/tenebris/Disk/Racing-code/examples/23-libjpeg-divide-by-zero/libjpeg-turbo-2.0.90/cdjpeg.c:138
    fprintf(stderr, "Cannot reopen stdin\n");
    exit(EXIT_FAILURE);
  }
#endif
  return input_file;
}
    3d04:	48 8b 05 25 b3 00 00 	mov    0xb325(%rip),%rax        # f030 <stdin@GLIBC_2.2.5>
    3d0b:	c3                   	ret    
    3d0c:	0f 1f 40 00          	nopl   0x0(%rax)

0000000000003d10 <write_stdout>:
write_stdout():
/home/tenebris/Disk/Racing-code/examples/23-libjpeg-divide-by-zero/libjpeg-turbo-2.0.90/cdjpeg.c:143


GLOBAL(FILE *)
write_stdout(void)
{
    3d10:	f3 0f 1e fa          	endbr64 
/home/tenebris/Disk/Racing-code/examples/23-libjpeg-divide-by-zero/libjpeg-turbo-2.0.90/cdjpeg.c:156
    fprintf(stderr, "Cannot reopen stdout\n");
    exit(EXIT_FAILURE);
  }
#endif
  return output_file;
}
    3d14:	48 8b 05 05 b3 00 00 	mov    0xb305(%rip),%rax        # f020 <stdout@GLIBC_2.2.5>
    3d1b:	c3                   	ret    
    3d1c:	0f 1f 40 00          	nopl   0x0(%rax)

0000000000003d20 <get_interlaced_row>:
get_interlaced_row():
/home/tenebris/Disk/Racing-code/examples/23-libjpeg-divide-by-zero/libjpeg-turbo-2.0.90/rdgif.c:605
 * we read from the virtual array.
 */

METHODDEF(JDIMENSION)
get_interlaced_row(j_compress_ptr cinfo, cjpeg_source_ptr sinfo)
{
    3d20:	f3 0f 1e fa          	endbr64 
    3d24:	41 54                	push   %r12
    3d26:	49 89 fc             	mov    %rdi,%r12
    3d29:	55                   	push   %rbp
    3d2a:	48 89 f5             	mov    %rsi,%rbp
    3d2d:	53                   	push   %rbx
/home/tenebris/Disk/Racing-code/examples/23-libjpeg-divide-by-zero/libjpeg-turbo-2.0.90/rdgif.c:614
  register JDIMENSION col;
  register JSAMPARRAY colormap = source->colormap;
  JDIMENSION irow;

  /* Figure out which row of interlaced image is needed, and access it. */
  switch ((int)(source->cur_row_number & 7)) {
    3d2e:	8b 86 a8 01 00 00    	mov    0x1a8(%rsi),%eax
/home/tenebris/Disk/Racing-code/examples/23-libjpeg-divide-by-zero/libjpeg-turbo-2.0.90/rdgif.c:610
  register JSAMPARRAY colormap = source->colormap;
    3d34:	48 8b 5e 38          	mov    0x38(%rsi),%rbx
/home/tenebris/Disk/Racing-code/examples/23-libjpeg-divide-by-zero/libjpeg-turbo-2.0.90/rdgif.c:614
  switch ((int)(source->cur_row_number & 7)) {
    3d38:	89 c2                	mov    %eax,%edx
    3d3a:	83 e2 07             	and    $0x7,%edx
    3d3d:	83 fa 04             	cmp    $0x4,%edx
    3d40:	0f 84 ca 00 00 00    	je     3e10 <get_interlaced_row+0xf0>
    3d46:	0f 8f a4 00 00 00    	jg     3df0 <get_interlaced_row+0xd0>
/home/tenebris/Disk/Racing-code/examples/23-libjpeg-divide-by-zero/libjpeg-turbo-2.0.90/rdgif.c:616
  case 0:                       /* first-pass row */
    irow = source->cur_row_number >> 3;
    3d4c:	41 89 c1             	mov    %eax,%r9d
    3d4f:	41 c1 e9 03          	shr    $0x3,%r9d
/home/tenebris/Disk/Racing-code/examples/23-libjpeg-divide-by-zero/libjpeg-turbo-2.0.90/rdgif.c:614
  switch ((int)(source->cur_row_number & 7)) {
    3d53:	85 d2                	test   %edx,%edx
    3d55:	74 15                	je     3d6c <get_interlaced_row+0x4c>
    3d57:	83 fa 02             	cmp    $0x2,%edx
    3d5a:	0f 85 99 00 00 00    	jne    3df9 <get_interlaced_row+0xd9>
/home/tenebris/Disk/Racing-code/examples/23-libjpeg-divide-by-zero/libjpeg-turbo-2.0.90/rdgif.c:623
  case 4:                       /* second-pass row */
    irow = (source->cur_row_number >> 3) + source->pass2_offset;
    break;
  case 2:                       /* third-pass row */
  case 6:
    irow = (source->cur_row_number >> 2) + source->pass3_offset;
    3d60:	c1 e8 02             	shr    $0x2,%eax
    3d63:	03 85 b0 01 00 00    	add    0x1b0(%rbp),%eax
    3d69:	41 89 c1             	mov    %eax,%r9d
/home/tenebris/Disk/Racing-code/examples/23-libjpeg-divide-by-zero/libjpeg-turbo-2.0.90/rdgif.c:628
    break;
  default:                      /* fourth-pass row */
    irow = (source->cur_row_number >> 1) + source->pass4_offset;
  }
  sptr = *(*cinfo->mem->access_virt_sarray)
    3d6c:	49 8b 44 24 08       	mov    0x8(%r12),%rax
    3d71:	b9 01 00 00 00       	mov    $0x1,%ecx
    3d76:	44 89 ca             	mov    %r9d,%edx
    3d79:	45 31 c0             	xor    %r8d,%r8d
    3d7c:	48 8b b5 a0 01 00 00 	mov    0x1a0(%rbp),%rsi
    3d83:	4c 89 e7             	mov    %r12,%rdi
    3d86:	ff 50 38             	call   *0x38(%rax)
/home/tenebris/Disk/Racing-code/examples/23-libjpeg-divide-by-zero/libjpeg-turbo-2.0.90/rdgif.c:633
    ((j_common_ptr)cinfo, source->interlaced_image, irow, (JDIMENSION)1,
     FALSE);
  /* Scan the row, expand colormap, and output */
  ptr = source->pub.buffer[0];
  for (col = cinfo->image_width; col > 0; col--) {
    3d89:	41 8b 54 24 30       	mov    0x30(%r12),%edx
/home/tenebris/Disk/Racing-code/examples/23-libjpeg-divide-by-zero/libjpeg-turbo-2.0.90/rdgif.c:628
  sptr = *(*cinfo->mem->access_virt_sarray)
    3d8e:	48 8b 08             	mov    (%rax),%rcx
/home/tenebris/Disk/Racing-code/examples/23-libjpeg-divide-by-zero/libjpeg-turbo-2.0.90/rdgif.c:632
  ptr = source->pub.buffer[0];
    3d91:	48 8b 45 20          	mov    0x20(%rbp),%rax
    3d95:	48 8b 00             	mov    (%rax),%rax
/home/tenebris/Disk/Racing-code/examples/23-libjpeg-divide-by-zero/libjpeg-turbo-2.0.90/rdgif.c:633
  for (col = cinfo->image_width; col > 0; col--) {
    3d98:	85 d2                	test   %edx,%edx
    3d9a:	74 3e                	je     3dda <get_interlaced_row+0xba>
    3d9c:	48 8d 3c 52          	lea    (%rdx,%rdx,2),%rdi
    3da0:	48 01 c7             	add    %rax,%rdi
    3da3:	0f 1f 44 00 00       	nopl   0x0(%rax,%rax,1)
/home/tenebris/Disk/Racing-code/examples/23-libjpeg-divide-by-zero/libjpeg-turbo-2.0.90/rdgif.c:635 (discriminator 3)
    c = *sptr++;
    *ptr++ = colormap[CM_RED][c];
    3da8:	0f b6 11             	movzbl (%rcx),%edx
    3dab:	48 8b 33             	mov    (%rbx),%rsi
    3dae:	48 83 c0 03          	add    $0x3,%rax
/home/tenebris/Disk/Racing-code/examples/23-libjpeg-divide-by-zero/libjpeg-turbo-2.0.90/rdgif.c:634 (discriminator 3)
    c = *sptr++;
    3db2:	48 83 c1 01          	add    $0x1,%rcx
/home/tenebris/Disk/Racing-code/examples/23-libjpeg-divide-by-zero/libjpeg-turbo-2.0.90/rdgif.c:635 (discriminator 3)
    *ptr++ = colormap[CM_RED][c];
    3db6:	0f b6 34 16          	movzbl (%rsi,%rdx,1),%esi
    3dba:	40 88 70 fd          	mov    %sil,-0x3(%rax)
/home/tenebris/Disk/Racing-code/examples/23-libjpeg-divide-by-zero/libjpeg-turbo-2.0.90/rdgif.c:636 (discriminator 3)
    *ptr++ = colormap[CM_GREEN][c];
    3dbe:	48 8b 73 08          	mov    0x8(%rbx),%rsi
    3dc2:	0f b6 34 16          	movzbl (%rsi,%rdx,1),%esi
    3dc6:	40 88 70 fe          	mov    %sil,-0x2(%rax)
/home/tenebris/Disk/Racing-code/examples/23-libjpeg-divide-by-zero/libjpeg-turbo-2.0.90/rdgif.c:637 (discriminator 3)
    *ptr++ = colormap[CM_BLUE][c];
    3dca:	48 8b 73 10          	mov    0x10(%rbx),%rsi
    3dce:	0f b6 14 16          	movzbl (%rsi,%rdx,1),%edx
    3dd2:	88 50 ff             	mov    %dl,-0x1(%rax)
/home/tenebris/Disk/Racing-code/examples/23-libjpeg-divide-by-zero/libjpeg-turbo-2.0.90/rdgif.c:633 (discriminator 3)
  for (col = cinfo->image_width; col > 0; col--) {
    3dd5:	48 39 f8             	cmp    %rdi,%rax
    3dd8:	75 ce                	jne    3da8 <get_interlaced_row+0x88>
/home/tenebris/Disk/Racing-code/examples/23-libjpeg-divide-by-zero/libjpeg-turbo-2.0.90/rdgif.c:641
  }
  source->cur_row_number++;     /* for next time */
  return 1;
}
    3dda:	5b                   	pop    %rbx
/home/tenebris/Disk/Racing-code/examples/23-libjpeg-divide-by-zero/libjpeg-turbo-2.0.90/rdgif.c:639
  source->cur_row_number++;     /* for next time */
    3ddb:	83 85 a8 01 00 00 01 	addl   $0x1,0x1a8(%rbp)
/home/tenebris/Disk/Racing-code/examples/23-libjpeg-divide-by-zero/libjpeg-turbo-2.0.90/rdgif.c:641
}
    3de2:	b8 01 00 00 00       	mov    $0x1,%eax
    3de7:	5d                   	pop    %rbp
    3de8:	41 5c                	pop    %r12
    3dea:	c3                   	ret    
    3deb:	0f 1f 44 00 00       	nopl   0x0(%rax,%rax,1)
/home/tenebris/Disk/Racing-code/examples/23-libjpeg-divide-by-zero/libjpeg-turbo-2.0.90/rdgif.c:614
  switch ((int)(source->cur_row_number & 7)) {
    3df0:	83 fa 06             	cmp    $0x6,%edx
    3df3:	0f 84 67 ff ff ff    	je     3d60 <get_interlaced_row+0x40>
/home/tenebris/Disk/Racing-code/examples/23-libjpeg-divide-by-zero/libjpeg-turbo-2.0.90/rdgif.c:626
    irow = (source->cur_row_number >> 1) + source->pass4_offset;
    3df9:	d1 e8                	shr    %eax
    3dfb:	03 85 b4 01 00 00    	add    0x1b4(%rbp),%eax
    3e01:	41 89 c1             	mov    %eax,%r9d
    3e04:	e9 63 ff ff ff       	jmp    3d6c <get_interlaced_row+0x4c>
    3e09:	0f 1f 80 00 00 00 00 	nopl   0x0(%rax)
/home/tenebris/Disk/Racing-code/examples/23-libjpeg-divide-by-zero/libjpeg-turbo-2.0.90/rdgif.c:619
    irow = (source->cur_row_number >> 3) + source->pass2_offset;
    3e10:	c1 e8 03             	shr    $0x3,%eax
    3e13:	03 86 ac 01 00 00    	add    0x1ac(%rsi),%eax
    3e19:	41 89 c1             	mov    %eax,%r9d
/home/tenebris/Disk/Racing-code/examples/23-libjpeg-divide-by-zero/libjpeg-turbo-2.0.90/rdgif.c:620
    break;
    3e1c:	e9 4b ff ff ff       	jmp    3d6c <get_interlaced_row+0x4c>
    3e21:	66 66 2e 0f 1f 84 00 	data16 cs nopw 0x0(%rax,%rax,1)
    3e28:	00 00 00 00 
    3e2c:	0f 1f 40 00          	nopl   0x0(%rax)

0000000000003e30 <finish_input_gif>:
finish_input_gif():
/home/tenebris/Disk/Racing-code/examples/23-libjpeg-divide-by-zero/libjpeg-turbo-2.0.90/rdgif.c:650
 * Finish up at the end of the file.
 */

METHODDEF(void)
finish_input_gif(j_compress_ptr cinfo, cjpeg_source_ptr sinfo)
{
    3e30:	f3 0f 1e fa          	endbr64 
/home/tenebris/Disk/Racing-code/examples/23-libjpeg-divide-by-zero/libjpeg-turbo-2.0.90/rdgif.c:652
  /* no work */
}
    3e34:	c3                   	ret    
    3e35:	66 66 2e 0f 1f 84 00 	data16 cs nopw 0x0(%rax,%rax,1)
    3e3c:	00 00 00 00 

0000000000003e40 <ReadColorMap>:
ReadColorMap():
/home/tenebris/Disk/Racing-code/examples/23-libjpeg-divide-by-zero/libjpeg-turbo-2.0.90/rdgif.c:345
{
    3e40:	41 56                	push   %r14
    3e42:	4c 63 f6             	movslq %esi,%r14
    3e45:	41 55                	push   %r13
    3e47:	49 89 d5             	mov    %rdx,%r13
    3e4a:	41 54                	push   %r12
    3e4c:	49 89 fc             	mov    %rdi,%r12
    3e4f:	55                   	push   %rbp
    3e50:	53                   	push   %rbx
    3e51:	31 db                	xor    %ebx,%ebx
    3e53:	0f 1f 44 00 00       	nopl   0x0(%rax,%rax,1)
ReadByte():
/home/tenebris/Disk/Racing-code/examples/23-libjpeg-divide-by-zero/libjpeg-turbo-2.0.90/rdgif.c:145
  if ((c = getc(infile)) == EOF)
    3e58:	49 8b 7c 24 18       	mov    0x18(%r12),%rdi
    3e5d:	e8 0e e6 ff ff       	call   2470 <getc@plt>
    3e62:	89 c5                	mov    %eax,%ebp
    3e64:	83 f8 ff             	cmp    $0xffffffff,%eax
    3e67:	75 11                	jne    3e7a <ReadColorMap+0x3a>
    3e69:	49 8b 7c 24 30       	mov    0x30(%r12),%rdi
/home/tenebris/Disk/Racing-code/examples/23-libjpeg-divide-by-zero/libjpeg-turbo-2.0.90/rdgif.c:146
    ERREXIT(sinfo->cinfo, JERR_INPUT_EOF);
    3e6e:	48 8b 07             	mov    (%rdi),%rax
    3e71:	c7 40 28 2b 00 00 00 	movl   $0x2b,0x28(%rax)
    3e78:	ff 10                	call   *(%rax)
ReadColorMap():
/home/tenebris/Disk/Racing-code/examples/23-libjpeg-divide-by-zero/libjpeg-turbo-2.0.90/rdgif.c:354
    cmap[CM_RED][i]   = (JSAMPLE)UPSCALE(ReadByte(sinfo));
    3e7a:	49 8b 45 00          	mov    0x0(%r13),%rax
    3e7e:	40 88 2c 18          	mov    %bpl,(%rax,%rbx,1)
ReadByte():
/home/tenebris/Disk/Racing-code/examples/23-libjpeg-divide-by-zero/libjpeg-turbo-2.0.90/rdgif.c:145
  if ((c = getc(infile)) == EOF)
    3e82:	49 8b 7c 24 18       	mov    0x18(%r12),%rdi
    3e87:	e8 e4 e5 ff ff       	call   2470 <getc@plt>
    3e8c:	89 c5                	mov    %eax,%ebp
    3e8e:	83 f8 ff             	cmp    $0xffffffff,%eax
    3e91:	75 11                	jne    3ea4 <ReadColorMap+0x64>
    3e93:	49 8b 7c 24 30       	mov    0x30(%r12),%rdi
/home/tenebris/Disk/Racing-code/examples/23-libjpeg-divide-by-zero/libjpeg-turbo-2.0.90/rdgif.c:146
    ERREXIT(sinfo->cinfo, JERR_INPUT_EOF);
    3e98:	48 8b 07             	mov    (%rdi),%rax
    3e9b:	c7 40 28 2b 00 00 00 	movl   $0x2b,0x28(%rax)
    3ea2:	ff 10                	call   *(%rax)
ReadColorMap():
/home/tenebris/Disk/Racing-code/examples/23-libjpeg-divide-by-zero/libjpeg-turbo-2.0.90/rdgif.c:355
    cmap[CM_GREEN][i] = (JSAMPLE)UPSCALE(ReadByte(sinfo));
    3ea4:	49 8b 45 08          	mov    0x8(%r13),%rax
    3ea8:	40 88 2c 18          	mov    %bpl,(%rax,%rbx,1)
ReadByte():
/home/tenebris/Disk/Racing-code/examples/23-libjpeg-divide-by-zero/libjpeg-turbo-2.0.90/rdgif.c:145
  if ((c = getc(infile)) == EOF)
    3eac:	49 8b 7c 24 18       	mov    0x18(%r12),%rdi
    3eb1:	e8 ba e5 ff ff       	call   2470 <getc@plt>
    3eb6:	83 f8 ff             	cmp    $0xffffffff,%eax
    3eb9:	74 1d                	je     3ed8 <ReadColorMap+0x98>
ReadColorMap():
/home/tenebris/Disk/Racing-code/examples/23-libjpeg-divide-by-zero/libjpeg-turbo-2.0.90/rdgif.c:356
    cmap[CM_BLUE][i]  = (JSAMPLE)UPSCALE(ReadByte(sinfo));
    3ebb:	49 8b 55 10          	mov    0x10(%r13),%rdx
    3ebf:	88 04 1a             	mov    %al,(%rdx,%rbx,1)
/home/tenebris/Disk/Racing-code/examples/23-libjpeg-divide-by-zero/libjpeg-turbo-2.0.90/rdgif.c:348
  for (i = 0; i < cmaplen; i++) {
    3ec2:	48 83 c3 01          	add    $0x1,%rbx
    3ec6:	49 39 de             	cmp    %rbx,%r14
    3ec9:	75 8d                	jne    3e58 <ReadColorMap+0x18>
/home/tenebris/Disk/Racing-code/examples/23-libjpeg-divide-by-zero/libjpeg-turbo-2.0.90/rdgif.c:358
}
    3ecb:	5b                   	pop    %rbx
    3ecc:	5d                   	pop    %rbp
    3ecd:	41 5c                	pop    %r12
    3ecf:	41 5d                	pop    %r13
    3ed1:	41 5e                	pop    %r14
    3ed3:	c3                   	ret    
    3ed4:	0f 1f 40 00          	nopl   0x0(%rax)
    3ed8:	49 8b 7c 24 30       	mov    0x30(%r12),%rdi
ReadByte():
/home/tenebris/Disk/Racing-code/examples/23-libjpeg-divide-by-zero/libjpeg-turbo-2.0.90/rdgif.c:146
    ERREXIT(sinfo->cinfo, JERR_INPUT_EOF);
    3edd:	48 8b 07             	mov    (%rdi),%rax
    3ee0:	c7 40 28 2b 00 00 00 	movl   $0x2b,0x28(%rax)
    3ee7:	ff 10                	call   *(%rax)
ReadColorMap():
/home/tenebris/Disk/Racing-code/examples/23-libjpeg-divide-by-zero/libjpeg-turbo-2.0.90/rdgif.c:356
    cmap[CM_BLUE][i]  = (JSAMPLE)UPSCALE(ReadByte(sinfo));
    3ee9:	49 8b 45 10          	mov    0x10(%r13),%rax
    3eed:	c6 04 18 ff          	movb   $0xff,(%rax,%rbx,1)
/home/tenebris/Disk/Racing-code/examples/23-libjpeg-divide-by-zero/libjpeg-turbo-2.0.90/rdgif.c:348
  for (i = 0; i < cmaplen; i++) {
    3ef1:	48 83 c3 01          	add    $0x1,%rbx
    3ef5:	49 39 de             	cmp    %rbx,%r14
    3ef8:	0f 85 5a ff ff ff    	jne    3e58 <ReadColorMap+0x18>
/home/tenebris/Disk/Racing-code/examples/23-libjpeg-divide-by-zero/libjpeg-turbo-2.0.90/rdgif.c:358
}
    3efe:	5b                   	pop    %rbx
    3eff:	5d                   	pop    %rbp
    3f00:	41 5c                	pop    %r12
    3f02:	41 5d                	pop    %r13
    3f04:	41 5e                	pop    %r14
    3f06:	c3                   	ret    
    3f07:	66 0f 1f 84 00 00 00 	nopw   0x0(%rax,%rax,1)
    3f0e:	00 00 

0000000000003f10 <GetDataBlock>:
GetDataBlock():
/home/tenebris/Disk/Racing-code/examples/23-libjpeg-divide-by-zero/libjpeg-turbo-2.0.90/rdgif.c:155
{
    3f10:	41 55                	push   %r13
    3f12:	49 89 f5             	mov    %rsi,%r13
    3f15:	41 54                	push   %r12
    3f17:	55                   	push   %rbp
    3f18:	53                   	push   %rbx
    3f19:	48 89 fb             	mov    %rdi,%rbx
    3f1c:	48 83 ec 08          	sub    $0x8,%rsp
ReadByte():
/home/tenebris/Disk/Racing-code/examples/23-libjpeg-divide-by-zero/libjpeg-turbo-2.0.90/rdgif.c:145
  if ((c = getc(infile)) == EOF)
    3f20:	48 8b 7f 18          	mov    0x18(%rdi),%rdi
    3f24:	e8 47 e5 ff ff       	call   2470 <getc@plt>
    3f29:	41 89 c4             	mov    %eax,%r12d
    3f2c:	83 f8 ff             	cmp    $0xffffffff,%eax
    3f2f:	74 20                	je     3f51 <GetDataBlock+0x41>
GetDataBlock():
/home/tenebris/Disk/Racing-code/examples/23-libjpeg-divide-by-zero/libjpeg-turbo-2.0.90/rdgif.c:159
  if (count > 0) {
    3f31:	85 c0                	test   %eax,%eax
    3f33:	7e 2c                	jle    3f61 <GetDataBlock+0x51>
/home/tenebris/Disk/Racing-code/examples/23-libjpeg-divide-by-zero/libjpeg-turbo-2.0.90/rdgif.c:160
    if (!ReadOK(sinfo->pub.input_file, buf, count))
    3f35:	48 63 e8             	movslq %eax,%rbp
fread():
/usr/include/x86_64-linux-gnu/bits/stdio2.h:293
    return __fread_alias (__ptr, __size, __n, __stream);
    3f38:	48 8b 4b 18          	mov    0x18(%rbx),%rcx
    3f3c:	be 01 00 00 00       	mov    $0x1,%esi
    3f41:	4c 89 ef             	mov    %r13,%rdi
    3f44:	48 89 ea             	mov    %rbp,%rdx
    3f47:	e8 44 e3 ff ff       	call   2290 <fread@plt>
GetDataBlock():
/home/tenebris/Disk/Racing-code/examples/23-libjpeg-divide-by-zero/libjpeg-turbo-2.0.90/rdgif.c:160
    3f4c:	48 39 c5             	cmp    %rax,%rbp
    3f4f:	74 10                	je     3f61 <GetDataBlock+0x51>
/home/tenebris/Disk/Racing-code/examples/23-libjpeg-divide-by-zero/libjpeg-turbo-2.0.90/rdgif.c:161
      ERREXIT(sinfo->cinfo, JERR_INPUT_EOF);
    3f51:	48 8b 7b 30          	mov    0x30(%rbx),%rdi
    3f55:	48 8b 07             	mov    (%rdi),%rax
    3f58:	c7 40 28 2b 00 00 00 	movl   $0x2b,0x28(%rax)
    3f5f:	ff 10                	call   *(%rax)
/home/tenebris/Disk/Racing-code/examples/23-libjpeg-divide-by-zero/libjpeg-turbo-2.0.90/rdgif.c:164
}
    3f61:	48 83 c4 08          	add    $0x8,%rsp
    3f65:	44 89 e0             	mov    %r12d,%eax
    3f68:	5b                   	pop    %rbx
    3f69:	5d                   	pop    %rbp
    3f6a:	41 5c                	pop    %r12
    3f6c:	41 5d                	pop    %r13
    3f6e:	c3                   	ret    
    3f6f:	90                   	nop

0000000000003f70 <DoExtension>:
DoExtension():
/home/tenebris/Disk/Racing-code/examples/23-libjpeg-divide-by-zero/libjpeg-turbo-2.0.90/rdgif.c:365
{
    3f70:	41 54                	push   %r12
    3f72:	55                   	push   %rbp
    3f73:	48 89 fd             	mov    %rdi,%rbp
    3f76:	53                   	push   %rbx
    3f77:	48 81 ec 10 01 00 00 	sub    $0x110,%rsp
ReadByte():
/home/tenebris/Disk/Racing-code/examples/23-libjpeg-divide-by-zero/libjpeg-turbo-2.0.90/rdgif.c:145
  if ((c = getc(infile)) == EOF)
    3f7e:	48 8b 7f 18          	mov    0x18(%rdi),%rdi
DoExtension():
/home/tenebris/Disk/Racing-code/examples/23-libjpeg-divide-by-zero/libjpeg-turbo-2.0.90/rdgif.c:365
{
    3f82:	64 48 8b 04 25 28 00 	mov    %fs:0x28,%rax
    3f89:	00 00 
    3f8b:	48 89 84 24 08 01 00 	mov    %rax,0x108(%rsp)
    3f92:	00 
    3f93:	31 c0                	xor    %eax,%eax
ReadByte():
/home/tenebris/Disk/Racing-code/examples/23-libjpeg-divide-by-zero/libjpeg-turbo-2.0.90/rdgif.c:145
  if ((c = getc(infile)) == EOF)
    3f95:	e8 d6 e4 ff ff       	call   2470 <getc@plt>
    3f9a:	89 c3                	mov    %eax,%ebx
    3f9c:	83 f8 ff             	cmp    $0xffffffff,%eax
    3f9f:	75 10                	jne    3fb1 <DoExtension+0x41>
    3fa1:	48 8b 7d 30          	mov    0x30(%rbp),%rdi
/home/tenebris/Disk/Racing-code/examples/23-libjpeg-divide-by-zero/libjpeg-turbo-2.0.90/rdgif.c:146
    ERREXIT(sinfo->cinfo, JERR_INPUT_EOF);
    3fa5:	48 8b 07             	mov    (%rdi),%rax
    3fa8:	c7 40 28 2b 00 00 00 	movl   $0x2b,0x28(%rax)
    3faf:	ff 10                	call   *(%rax)
DoExtension():
/home/tenebris/Disk/Racing-code/examples/23-libjpeg-divide-by-zero/libjpeg-turbo-2.0.90/rdgif.c:370
  TRACEMS1(sinfo->cinfo, 1, JTRC_GIF_EXTENSION, extlabel);
    3fb1:	48 8b 7d 30          	mov    0x30(%rbp),%rdi
    3fb5:	be 01 00 00 00       	mov    $0x1,%esi
fread():
/usr/include/x86_64-linux-gnu/bits/stdio2.h:296
  if (__glibc_unsafe_len (__n, __size, sz))
    return __fread_chk_warn (__ptr, sz, __size, __n, __stream);
  return __fread_chk (__ptr, sz, __size, __n, __stream);
    3fba:	49 89 e4             	mov    %rsp,%r12
DoExtension():
/home/tenebris/Disk/Racing-code/examples/23-libjpeg-divide-by-zero/libjpeg-turbo-2.0.90/rdgif.c:370
    3fbd:	48 8b 07             	mov    (%rdi),%rax
    3fc0:	c7 40 28 fd 03 00 00 	movl   $0x3fd,0x28(%rax)
    3fc7:	89 58 2c             	mov    %ebx,0x2c(%rax)
    3fca:	ff 50 08             	call   *0x8(%rax)
ReadByte():
/home/tenebris/Disk/Racing-code/examples/23-libjpeg-divide-by-zero/libjpeg-turbo-2.0.90/rdgif.c:145
  if ((c = getc(infile)) == EOF)
    3fcd:	48 8b 7d 18          	mov    0x18(%rbp),%rdi
    3fd1:	e8 9a e4 ff ff       	call   2470 <getc@plt>
    3fd6:	83 f8 ff             	cmp    $0xffffffff,%eax
    3fd9:	74 64                	je     403f <DoExtension+0xcf>
GetDataBlock():
/home/tenebris/Disk/Racing-code/examples/23-libjpeg-divide-by-zero/libjpeg-turbo-2.0.90/rdgif.c:159
  if (count > 0) {
    3fdb:	85 c0                	test   %eax,%eax
    3fdd:	7f 21                	jg     4000 <DoExtension+0x90>
DoExtension():
/home/tenebris/Disk/Racing-code/examples/23-libjpeg-divide-by-zero/libjpeg-turbo-2.0.90/rdgif.c:373
}
    3fdf:	48 8b 84 24 08 01 00 	mov    0x108(%rsp),%rax
    3fe6:	00 
    3fe7:	64 48 2b 04 25 28 00 	sub    %fs:0x28,%rax
    3fee:	00 00 
    3ff0:	75 5f                	jne    4051 <DoExtension+0xe1>
    3ff2:	48 81 c4 10 01 00 00 	add    $0x110,%rsp
    3ff9:	5b                   	pop    %rbx
    3ffa:	5d                   	pop    %rbp
    3ffb:	41 5c                	pop    %r12
    3ffd:	c3                   	ret    
    3ffe:	66 90                	xchg   %ax,%ax
GetDataBlock():
/home/tenebris/Disk/Racing-code/examples/23-libjpeg-divide-by-zero/libjpeg-turbo-2.0.90/rdgif.c:160
    if (!ReadOK(sinfo->pub.input_file, buf, count))
    4000:	48 63 d8             	movslq %eax,%rbx
fread():
/usr/include/x86_64-linux-gnu/bits/stdio2.h:296
    4003:	4c 8b 45 18          	mov    0x18(%rbp),%r8
    4007:	ba 01 00 00 00       	mov    $0x1,%edx
    400c:	4c 89 e7             	mov    %r12,%rdi
    400f:	48 89 d9             	mov    %rbx,%rcx
    4012:	be 00 01 00 00       	mov    $0x100,%esi
    4017:	e8 c4 e3 ff ff       	call   23e0 <__fread_chk@plt>
GetDataBlock():
/home/tenebris/Disk/Racing-code/examples/23-libjpeg-divide-by-zero/libjpeg-turbo-2.0.90/rdgif.c:160
    401c:	48 39 d8             	cmp    %rbx,%rax
    401f:	74 ac                	je     3fcd <DoExtension+0x5d>
/home/tenebris/Disk/Racing-code/examples/23-libjpeg-divide-by-zero/libjpeg-turbo-2.0.90/rdgif.c:161
      ERREXIT(sinfo->cinfo, JERR_INPUT_EOF);
    4021:	48 8b 7d 30          	mov    0x30(%rbp),%rdi
    4025:	48 8b 07             	mov    (%rdi),%rax
    4028:	c7 40 28 2b 00 00 00 	movl   $0x2b,0x28(%rax)
    402f:	ff 10                	call   *(%rax)
ReadByte():
/home/tenebris/Disk/Racing-code/examples/23-libjpeg-divide-by-zero/libjpeg-turbo-2.0.90/rdgif.c:145
  if ((c = getc(infile)) == EOF)
    4031:	48 8b 7d 18          	mov    0x18(%rbp),%rdi
    4035:	e8 36 e4 ff ff       	call   2470 <getc@plt>
    403a:	83 f8 ff             	cmp    $0xffffffff,%eax
    403d:	75 9c                	jne    3fdb <DoExtension+0x6b>
    403f:	48 8b 7d 30          	mov    0x30(%rbp),%rdi
/home/tenebris/Disk/Racing-code/examples/23-libjpeg-divide-by-zero/libjpeg-turbo-2.0.90/rdgif.c:146
    ERREXIT(sinfo->cinfo, JERR_INPUT_EOF);
    4043:	48 8b 07             	mov    (%rdi),%rax
    4046:	c7 40 28 2b 00 00 00 	movl   $0x2b,0x28(%rax)
    404d:	ff 10                	call   *(%rax)
DoExtension():
/home/tenebris/Disk/Racing-code/examples/23-libjpeg-divide-by-zero/libjpeg-turbo-2.0.90/rdgif.c:373
}
    404f:	eb 8e                	jmp    3fdf <DoExtension+0x6f>
    4051:	e8 6a e2 ff ff       	call   22c0 <__stack_chk_fail@plt>
    4056:	66 2e 0f 1f 84 00 00 	cs nopw 0x0(%rax,%rax,1)
    405d:	00 00 00 

0000000000004060 <start_input_gif>:
start_input_gif():
/home/tenebris/Disk/Racing-code/examples/23-libjpeg-divide-by-zero/libjpeg-turbo-2.0.90/rdgif.c:382
{
    4060:	f3 0f 1e fa          	endbr64 
    4064:	41 57                	push   %r15
fread():
/usr/include/x86_64-linux-gnu/bits/stdio2.h:293
    return __fread_alias (__ptr, __size, __n, __stream);
    4066:	ba 06 00 00 00       	mov    $0x6,%edx
start_input_gif():
/home/tenebris/Disk/Racing-code/examples/23-libjpeg-divide-by-zero/libjpeg-turbo-2.0.90/rdgif.c:382
    406b:	41 56                	push   %r14
    406d:	41 55                	push   %r13
    406f:	41 54                	push   %r12
    4071:	55                   	push   %rbp
    4072:	48 89 fd             	mov    %rdi,%rbp
    4075:	53                   	push   %rbx
    4076:	48 89 f3             	mov    %rsi,%rbx
    4079:	48 83 ec 28          	sub    $0x28,%rsp
fread():
/usr/include/x86_64-linux-gnu/bits/stdio2.h:293
    407d:	48 8b 4e 18          	mov    0x18(%rsi),%rcx
    4081:	be 01 00 00 00       	mov    $0x1,%esi
start_input_gif():
/home/tenebris/Disk/Racing-code/examples/23-libjpeg-divide-by-zero/libjpeg-turbo-2.0.90/rdgif.c:382
    4086:	64 48 8b 04 25 28 00 	mov    %fs:0x28,%rax
    408d:	00 00 
    408f:	48 89 44 24 18       	mov    %rax,0x18(%rsp)
    4094:	31 c0                	xor    %eax,%eax
fread():
/usr/include/x86_64-linux-gnu/bits/stdio2.h:293
    4096:	4c 8d 6c 24 0e       	lea    0xe(%rsp),%r13
    409b:	4c 89 ef             	mov    %r13,%rdi
    409e:	e8 ed e1 ff ff       	call   2290 <fread@plt>
start_input_gif():
/home/tenebris/Disk/Racing-code/examples/23-libjpeg-divide-by-zero/libjpeg-turbo-2.0.90/rdgif.c:390
  if (!ReadOK(source->pub.input_file, hdrbuf, 6))
    40a3:	48 83 f8 06          	cmp    $0x6,%rax
    40a7:	74 10                	je     40b9 <start_input_gif+0x59>
/home/tenebris/Disk/Racing-code/examples/23-libjpeg-divide-by-zero/libjpeg-turbo-2.0.90/rdgif.c:391
    ERREXIT(cinfo, JERR_GIF_NOT);
    40a9:	48 8b 45 00          	mov    0x0(%rbp),%rax
    40ad:	48 89 ef             	mov    %rbp,%rdi
    40b0:	c7 40 28 fa 03 00 00 	movl   $0x3fa,0x28(%rax)
    40b7:	ff 10                	call   *(%rax)
/home/tenebris/Disk/Racing-code/examples/23-libjpeg-divide-by-zero/libjpeg-turbo-2.0.90/rdgif.c:392
  if (hdrbuf[0] != 'G' || hdrbuf[1] != 'I' || hdrbuf[2] != 'F')
    40b9:	80 7c 24 0e 47       	cmpb   $0x47,0xe(%rsp)
    40be:	0f 84 0c 04 00 00    	je     44d0 <start_input_gif+0x470>
/home/tenebris/Disk/Racing-code/examples/23-libjpeg-divide-by-zero/libjpeg-turbo-2.0.90/rdgif.c:393
    ERREXIT(cinfo, JERR_GIF_NOT);
    40c4:	48 8b 45 00          	mov    0x0(%rbp),%rax
    40c8:	48 89 ef             	mov    %rbp,%rdi
    40cb:	c7 40 28 fa 03 00 00 	movl   $0x3fa,0x28(%rax)
    40d2:	ff 10                	call   *(%rax)
/home/tenebris/Disk/Racing-code/examples/23-libjpeg-divide-by-zero/libjpeg-turbo-2.0.90/rdgif.c:398
  if ((hdrbuf[3] != '8' || hdrbuf[4] != '7' || hdrbuf[5] != 'a') &&
    40d4:	0f b6 54 24 11       	movzbl 0x11(%rsp),%edx
    40d9:	0f b6 74 24 13       	movzbl 0x13(%rsp),%esi
    40de:	0f b6 4c 24 12       	movzbl 0x12(%rsp),%ecx
    40e3:	80 fa 38             	cmp    $0x38,%dl
    40e6:	0f 84 c4 03 00 00    	je     44b0 <start_input_gif+0x450>
/home/tenebris/Disk/Racing-code/examples/23-libjpeg-divide-by-zero/libjpeg-turbo-2.0.90/rdgif.c:400
    TRACEMS3(cinfo, 1, JTRC_GIF_BADVERSION, hdrbuf[3], hdrbuf[4], hdrbuf[5]);
    40ec:	48 8b 45 00          	mov    0x0(%rbp),%rax
    40f0:	48 89 ef             	mov    %rbp,%rdi
    40f3:	89 70 34             	mov    %esi,0x34(%rax)
    40f6:	be 01 00 00 00       	mov    $0x1,%esi
    40fb:	89 50 2c             	mov    %edx,0x2c(%rax)
    40fe:	89 48 30             	mov    %ecx,0x30(%rax)
    4101:	c7 40 28 fc 03 00 00 	movl   $0x3fc,0x28(%rax)
    4108:	ff 50 08             	call   *0x8(%rax)
fread():
/usr/include/x86_64-linux-gnu/bits/stdio2.h:293 (discriminator 1)
    410b:	48 8b 4b 18          	mov    0x18(%rbx),%rcx
    410f:	ba 07 00 00 00       	mov    $0x7,%edx
    4114:	be 01 00 00 00       	mov    $0x1,%esi
    4119:	4c 89 ef             	mov    %r13,%rdi
    411c:	e8 6f e1 ff ff       	call   2290 <fread@plt>
start_input_gif():
/home/tenebris/Disk/Racing-code/examples/23-libjpeg-divide-by-zero/libjpeg-turbo-2.0.90/rdgif.c:403 (discriminator 1)
  if (!ReadOK(source->pub.input_file, hdrbuf, 7))
    4121:	48 83 f8 07          	cmp    $0x7,%rax
    4125:	74 10                	je     4137 <start_input_gif+0xd7>
/home/tenebris/Disk/Racing-code/examples/23-libjpeg-divide-by-zero/libjpeg-turbo-2.0.90/rdgif.c:404
    ERREXIT(cinfo, JERR_INPUT_EOF);
    4127:	48 8b 45 00          	mov    0x0(%rbp),%rax
    412b:	48 89 ef             	mov    %rbp,%rdi
    412e:	c7 40 28 2b 00 00 00 	movl   $0x2b,0x28(%rax)
    4135:	ff 10                	call   *(%rax)
/home/tenebris/Disk/Racing-code/examples/23-libjpeg-divide-by-zero/libjpeg-turbo-2.0.90/rdgif.c:408
  aspectRatio = UCH(hdrbuf[6]);
    4137:	0f b6 44 24 14       	movzbl 0x14(%rsp),%eax
/home/tenebris/Disk/Racing-code/examples/23-libjpeg-divide-by-zero/libjpeg-turbo-2.0.90/rdgif.c:409
  if (aspectRatio != 0 && aspectRatio != 49)
    413c:	85 c0                	test   %eax,%eax
    413e:	74 1b                	je     415b <start_input_gif+0xfb>
    4140:	83 f8 31             	cmp    $0x31,%eax
    4143:	74 16                	je     415b <start_input_gif+0xfb>
/home/tenebris/Disk/Racing-code/examples/23-libjpeg-divide-by-zero/libjpeg-turbo-2.0.90/rdgif.c:410
    TRACEMS(cinfo, 1, JTRC_GIF_NONSQUARE);
    4145:	48 8b 45 00          	mov    0x0(%rbp),%rax
    4149:	be 01 00 00 00       	mov    $0x1,%esi
    414e:	48 89 ef             	mov    %rbp,%rdi
    4151:	c7 40 28 fe 03 00 00 	movl   $0x3fe,0x28(%rax)
    4158:	ff 50 08             	call   *0x8(%rax)
/home/tenebris/Disk/Racing-code/examples/23-libjpeg-divide-by-zero/libjpeg-turbo-2.0.90/rdgif.c:413
  source->colormap = (*cinfo->mem->alloc_sarray)
    415b:	48 8b 45 08          	mov    0x8(%rbp),%rax
    415f:	b9 03 00 00 00       	mov    $0x3,%ecx
    4164:	48 89 ef             	mov    %rbp,%rdi
/home/tenebris/Disk/Racing-code/examples/23-libjpeg-divide-by-zero/libjpeg-turbo-2.0.90/rdgif.c:416
  colormaplen = 0;              /* indicate initialization */
    4167:	45 31 f6             	xor    %r14d,%r14d
/home/tenebris/Disk/Racing-code/examples/23-libjpeg-divide-by-zero/libjpeg-turbo-2.0.90/rdgif.c:413
  source->colormap = (*cinfo->mem->alloc_sarray)
    416a:	ba 00 01 00 00       	mov    $0x100,%edx
    416f:	be 01 00 00 00       	mov    $0x1,%esi
    4174:	ff 50 10             	call   *0x10(%rax)
/home/tenebris/Disk/Racing-code/examples/23-libjpeg-divide-by-zero/libjpeg-turbo-2.0.90/rdgif.c:419
  if (BitSet(hdrbuf[4], COLORMAPFLAG)) {
    4177:	0f b6 4c 24 12       	movzbl 0x12(%rsp),%ecx
/home/tenebris/Disk/Racing-code/examples/23-libjpeg-divide-by-zero/libjpeg-turbo-2.0.90/rdgif.c:413
  source->colormap = (*cinfo->mem->alloc_sarray)
    417c:	48 89 43 38          	mov    %rax,0x38(%rbx)
/home/tenebris/Disk/Racing-code/examples/23-libjpeg-divide-by-zero/libjpeg-turbo-2.0.90/rdgif.c:419
  if (BitSet(hdrbuf[4], COLORMAPFLAG)) {
    4180:	84 c9                	test   %cl,%cl
    4182:	0f 88 88 03 00 00    	js     4510 <start_input_gif+0x4b0>
ReadByte():
/home/tenebris/Disk/Racing-code/examples/23-libjpeg-divide-by-zero/libjpeg-turbo-2.0.90/rdgif.c:145
  if ((c = getc(infile)) == EOF)
    4188:	48 8b 7b 18          	mov    0x18(%rbx),%rdi
    418c:	e8 df e2 ff ff       	call   2470 <getc@plt>
    4191:	41 89 c4             	mov    %eax,%r12d
    4194:	83 f8 ff             	cmp    $0xffffffff,%eax
    4197:	0f 84 83 02 00 00    	je     4420 <start_input_gif+0x3c0>
start_input_gif():
/home/tenebris/Disk/Racing-code/examples/23-libjpeg-divide-by-zero/libjpeg-turbo-2.0.90/rdgif.c:430
    if (c == ';')               /* GIF terminator?? */
    419d:	83 f8 3b             	cmp    $0x3b,%eax
    41a0:	0f 84 aa 02 00 00    	je     4450 <start_input_gif+0x3f0>
/home/tenebris/Disk/Racing-code/examples/23-libjpeg-divide-by-zero/libjpeg-turbo-2.0.90/rdgif.c:433
    if (c == '!') {             /* Extension */
    41a6:	83 f8 21             	cmp    $0x21,%eax
    41a9:	0f 84 f1 02 00 00    	je     44a0 <start_input_gif+0x440>
/home/tenebris/Disk/Racing-code/examples/23-libjpeg-divide-by-zero/libjpeg-turbo-2.0.90/rdgif.c:438
    if (c != ',') {             /* Not an image separator? */
    41af:	83 f8 2c             	cmp    $0x2c,%eax
    41b2:	0f 85 78 02 00 00    	jne    4430 <start_input_gif+0x3d0>
fread():
/usr/include/x86_64-linux-gnu/bits/stdio2.h:293
    41b8:	48 8b 4b 18          	mov    0x18(%rbx),%rcx
    41bc:	ba 09 00 00 00       	mov    $0x9,%edx
    41c1:	be 01 00 00 00       	mov    $0x1,%esi
    41c6:	4c 89 ef             	mov    %r13,%rdi
    41c9:	e8 c2 e0 ff ff       	call   2290 <fread@plt>
start_input_gif():
/home/tenebris/Disk/Racing-code/examples/23-libjpeg-divide-by-zero/libjpeg-turbo-2.0.90/rdgif.c:444
    if (!ReadOK(source->pub.input_file, hdrbuf, 9))
    41ce:	48 83 f8 09          	cmp    $0x9,%rax
    41d2:	74 10                	je     41e4 <start_input_gif+0x184>
/home/tenebris/Disk/Racing-code/examples/23-libjpeg-divide-by-zero/libjpeg-turbo-2.0.90/rdgif.c:445
      ERREXIT(cinfo, JERR_INPUT_EOF);
    41d4:	48 8b 45 00          	mov    0x0(%rbp),%rax
    41d8:	48 89 ef             	mov    %rbp,%rdi
    41db:	c7 40 28 2b 00 00 00 	movl   $0x2b,0x28(%rax)
    41e2:	ff 10                	call   *(%rax)
/home/tenebris/Disk/Racing-code/examples/23-libjpeg-divide-by-zero/libjpeg-turbo-2.0.90/rdgif.c:447
    width = LM_to_uint(hdrbuf, 4);
    41e4:	44 0f b6 64 24 13    	movzbl 0x13(%rsp),%r12d
    41ea:	0f b6 44 24 12       	movzbl 0x12(%rsp),%eax
/home/tenebris/Disk/Racing-code/examples/23-libjpeg-divide-by-zero/libjpeg-turbo-2.0.90/rdgif.c:448
    height = LM_to_uint(hdrbuf, 6);
    41ef:	44 0f b6 6c 24 15    	movzbl 0x15(%rsp),%r13d
/home/tenebris/Disk/Racing-code/examples/23-libjpeg-divide-by-zero/libjpeg-turbo-2.0.90/rdgif.c:449
    source->is_interlaced = (BitSet(hdrbuf[8], INTERLACE) != 0);
    41f5:	0f b6 4c 24 16       	movzbl 0x16(%rsp),%ecx
/home/tenebris/Disk/Racing-code/examples/23-libjpeg-divide-by-zero/libjpeg-turbo-2.0.90/rdgif.c:447
    width = LM_to_uint(hdrbuf, 4);
    41fa:	41 c1 e4 08          	shl    $0x8,%r12d
    41fe:	41 01 c4             	add    %eax,%r12d
/home/tenebris/Disk/Racing-code/examples/23-libjpeg-divide-by-zero/libjpeg-turbo-2.0.90/rdgif.c:448
    height = LM_to_uint(hdrbuf, 6);
    4201:	0f b6 44 24 14       	movzbl 0x14(%rsp),%eax
    4206:	41 c1 e5 08          	shl    $0x8,%r13d
    420a:	41 01 c5             	add    %eax,%r13d
/home/tenebris/Disk/Racing-code/examples/23-libjpeg-divide-by-zero/libjpeg-turbo-2.0.90/rdgif.c:449
    source->is_interlaced = (BitSet(hdrbuf[8], INTERLACE) != 0);
    420d:	89 c8                	mov    %ecx,%eax
    420f:	c0 e8 06             	shr    $0x6,%al
    4212:	83 e0 01             	and    $0x1,%eax
    4215:	89 83 98 01 00 00    	mov    %eax,0x198(%rbx)
/home/tenebris/Disk/Racing-code/examples/23-libjpeg-divide-by-zero/libjpeg-turbo-2.0.90/rdgif.c:454
    if (BitSet(hdrbuf[8], COLORMAPFLAG)) {
    421b:	84 c9                	test   %cl,%cl
    421d:	0f 88 cd 02 00 00    	js     44f0 <start_input_gif+0x490>
ReadByte():
/home/tenebris/Disk/Racing-code/examples/23-libjpeg-divide-by-zero/libjpeg-turbo-2.0.90/rdgif.c:145
  if ((c = getc(infile)) == EOF)
    4223:	48 8b 7b 18          	mov    0x18(%rbx),%rdi
    4227:	e8 44 e2 ff ff       	call   2470 <getc@plt>
    422c:	41 89 c7             	mov    %eax,%r15d
    422f:	83 f8 ff             	cmp    $0xffffffff,%eax
    4232:	0f 84 30 02 00 00    	je     4468 <start_input_gif+0x408>
start_input_gif():
/home/tenebris/Disk/Racing-code/examples/23-libjpeg-divide-by-zero/libjpeg-turbo-2.0.90/rdgif.c:459
    source->input_code_size = ReadByte(source); /* get min-code-size byte */
    4238:	89 83 58 01 00 00    	mov    %eax,0x158(%rbx)
/home/tenebris/Disk/Racing-code/examples/23-libjpeg-divide-by-zero/libjpeg-turbo-2.0.90/rdgif.c:460
    if (source->input_code_size < 2 || source->input_code_size > 8)
    423e:	8d 40 fe             	lea    -0x2(%rax),%eax
    4241:	83 f8 06             	cmp    $0x6,%eax
    4244:	0f 87 38 02 00 00    	ja     4482 <start_input_gif+0x422>
/home/tenebris/Disk/Racing-code/examples/23-libjpeg-divide-by-zero/libjpeg-turbo-2.0.90/rdgif.c:471
    (*cinfo->mem->alloc_large) ((j_common_ptr)cinfo, JPOOL_IMAGE,
    424a:	48 8b 45 08          	mov    0x8(%rbp),%rax
    424e:	ba 00 20 00 00       	mov    $0x2000,%edx
    4253:	be 01 00 00 00       	mov    $0x1,%esi
    4258:	48 89 ef             	mov    %rbp,%rdi
    425b:	ff 50 08             	call   *0x8(%rax)
/home/tenebris/Disk/Racing-code/examples/23-libjpeg-divide-by-zero/libjpeg-turbo-2.0.90/rdgif.c:474
    (*cinfo->mem->alloc_large) ((j_common_ptr)cinfo, JPOOL_IMAGE,
    425e:	ba 00 10 00 00       	mov    $0x1000,%edx
    4263:	be 01 00 00 00       	mov    $0x1,%esi
    4268:	48 89 ef             	mov    %rbp,%rdi
/home/tenebris/Disk/Racing-code/examples/23-libjpeg-divide-by-zero/libjpeg-turbo-2.0.90/rdgif.c:470
  source->symbol_head = (UINT16 *)
    426b:	48 89 83 78 01 00 00 	mov    %rax,0x178(%rbx)
/home/tenebris/Disk/Racing-code/examples/23-libjpeg-divide-by-zero/libjpeg-turbo-2.0.90/rdgif.c:474
    (*cinfo->mem->alloc_large) ((j_common_ptr)cinfo, JPOOL_IMAGE,
    4272:	48 8b 45 08          	mov    0x8(%rbp),%rax
    4276:	ff 50 08             	call   *0x8(%rax)
/home/tenebris/Disk/Racing-code/examples/23-libjpeg-divide-by-zero/libjpeg-turbo-2.0.90/rdgif.c:477
    (*cinfo->mem->alloc_large) ((j_common_ptr)cinfo, JPOOL_IMAGE,
    4279:	ba 00 10 00 00       	mov    $0x1000,%edx
    427e:	be 01 00 00 00       	mov    $0x1,%esi
    4283:	48 89 ef             	mov    %rbp,%rdi
/home/tenebris/Disk/Racing-code/examples/23-libjpeg-divide-by-zero/libjpeg-turbo-2.0.90/rdgif.c:473
  source->symbol_tail = (UINT8 *)
    4286:	48 89 83 80 01 00 00 	mov    %rax,0x180(%rbx)
/home/tenebris/Disk/Racing-code/examples/23-libjpeg-divide-by-zero/libjpeg-turbo-2.0.90/rdgif.c:477
    (*cinfo->mem->alloc_large) ((j_common_ptr)cinfo, JPOOL_IMAGE,
    428d:	48 8b 45 08          	mov    0x8(%rbp),%rax
    4291:	ff 50 08             	call   *0x8(%rax)
InitLZWCode():
/home/tenebris/Disk/Racing-code/examples/23-libjpeg-divide-by-zero/libjpeg-turbo-2.0.90/rdgif.c:204
  sinfo->clear_code = 1 << sinfo->input_code_size;
    4294:	8b 8b 58 01 00 00    	mov    0x158(%rbx),%ecx
/home/tenebris/Disk/Racing-code/examples/23-libjpeg-divide-by-zero/libjpeg-turbo-2.0.90/rdgif.c:194
  sinfo->last_byte = 2;         /* make safe to "recopy last two bytes" */
    429a:	66 0f 6f 05 5e 7e 00 	movdqa 0x7e5e(%rip),%xmm0        # c100 <_IO_stdin_used+0x1100>
    42a1:	00 
/home/tenebris/Disk/Racing-code/examples/23-libjpeg-divide-by-zero/libjpeg-turbo-2.0.90/rdgif.c:200
  sinfo->out_of_blocks = FALSE;
    42a2:	c7 83 54 01 00 00 00 	movl   $0x0,0x154(%rbx)
    42a9:	00 00 00 
start_input_gif():
/home/tenebris/Disk/Racing-code/examples/23-libjpeg-divide-by-zero/libjpeg-turbo-2.0.90/rdgif.c:477
    (*cinfo->mem->alloc_large) ((j_common_ptr)cinfo, JPOOL_IMAGE,
    42ac:	49 89 c0             	mov    %rax,%r8
InitLZWCode():
/home/tenebris/Disk/Racing-code/examples/23-libjpeg-divide-by-zero/libjpeg-turbo-2.0.90/rdgif.c:195
  sinfo->code_buf[0] = 0;
    42af:	31 c0                	xor    %eax,%eax
    42b1:	66 89 43 40          	mov    %ax,0x40(%rbx)
/home/tenebris/Disk/Racing-code/examples/23-libjpeg-divide-by-zero/libjpeg-turbo-2.0.90/rdgif.c:204
  sinfo->clear_code = 1 << sinfo->input_code_size;
    42b5:	b8 01 00 00 00       	mov    $0x1,%eax
ReInitLZW():
/home/tenebris/Disk/Racing-code/examples/23-libjpeg-divide-by-zero/libjpeg-turbo-2.0.90/rdgif.c:182
  sinfo->code_size = sinfo->input_code_size + 1;
    42ba:	8d 71 01             	lea    0x1(%rcx),%esi
InitLZWCode():
/home/tenebris/Disk/Racing-code/examples/23-libjpeg-divide-by-zero/libjpeg-turbo-2.0.90/rdgif.c:204
  sinfo->clear_code = 1 << sinfo->input_code_size;
    42bd:	d3 e0                	shl    %cl,%eax
/home/tenebris/Disk/Racing-code/examples/23-libjpeg-divide-by-zero/libjpeg-turbo-2.0.90/rdgif.c:194
  sinfo->last_byte = 2;         /* make safe to "recopy last two bytes" */
    42bf:	0f 11 83 44 01 00 00 	movups %xmm0,0x144(%rbx)
ReInitLZW():
/home/tenebris/Disk/Racing-code/examples/23-libjpeg-divide-by-zero/libjpeg-turbo-2.0.90/rdgif.c:182
  sinfo->code_size = sinfo->input_code_size + 1;
    42c6:	66 0f 6e c6          	movd   %esi,%xmm0
InitLZWCode():
/home/tenebris/Disk/Racing-code/examples/23-libjpeg-divide-by-zero/libjpeg-turbo-2.0.90/rdgif.c:205
  sinfo->end_code = sinfo->clear_code + 1;
    42ca:	8d 50 01             	lea    0x1(%rax),%edx
ReInitLZW():
/home/tenebris/Disk/Racing-code/examples/23-libjpeg-divide-by-zero/libjpeg-turbo-2.0.90/rdgif.c:183
  sinfo->limit_code = sinfo->clear_code << 1;   /* 2^code_size */
    42cd:	8d 0c 00             	lea    (%rax,%rax,1),%ecx
InitLZWCode():
/home/tenebris/Disk/Racing-code/examples/23-libjpeg-divide-by-zero/libjpeg-turbo-2.0.90/rdgif.c:204
  sinfo->clear_code = 1 << sinfo->input_code_size;
    42d0:	66 0f 6e c8          	movd   %eax,%xmm1
ReInitLZW():
/home/tenebris/Disk/Racing-code/examples/23-libjpeg-divide-by-zero/libjpeg-turbo-2.0.90/rdgif.c:184
  sinfo->max_code = sinfo->clear_code + 2;      /* first unused code value */
    42d4:	83 c0 02             	add    $0x2,%eax
InitLZWCode():
/home/tenebris/Disk/Racing-code/examples/23-libjpeg-divide-by-zero/libjpeg-turbo-2.0.90/rdgif.c:204
  sinfo->clear_code = 1 << sinfo->input_code_size;
    42d7:	66 0f 6e da          	movd   %edx,%xmm3
    42db:	66 0f 6e d1          	movd   %ecx,%xmm2
start_input_gif():
/home/tenebris/Disk/Racing-code/examples/23-libjpeg-divide-by-zero/libjpeg-turbo-2.0.90/rdgif.c:486
  if (source->is_interlaced) {
    42df:	8b 93 98 01 00 00    	mov    0x198(%rbx),%edx
ReInitLZW():
/home/tenebris/Disk/Racing-code/examples/23-libjpeg-divide-by-zero/libjpeg-turbo-2.0.90/rdgif.c:184
  sinfo->max_code = sinfo->clear_code + 2;      /* first unused code value */
    42e5:	89 83 6c 01 00 00    	mov    %eax,0x16c(%rbx)
InitLZWCode():
/home/tenebris/Disk/Racing-code/examples/23-libjpeg-divide-by-zero/libjpeg-turbo-2.0.90/rdgif.c:204
  sinfo->clear_code = 1 << sinfo->input_code_size;
    42eb:	66 0f 62 c2          	punpckldq %xmm2,%xmm0
    42ef:	66 0f 62 cb          	punpckldq %xmm3,%xmm1
start_input_gif():
/home/tenebris/Disk/Racing-code/examples/23-libjpeg-divide-by-zero/libjpeg-turbo-2.0.90/rdgif.c:204
    42f3:	48 8d 05 f6 03 00 00 	lea    0x3f6(%rip),%rax        # 46f0 <get_pixel_rows>
InitLZWCode():
/home/tenebris/Disk/Racing-code/examples/23-libjpeg-divide-by-zero/libjpeg-turbo-2.0.90/rdgif.c:204
    42fa:	66 0f 6c c8          	punpcklqdq %xmm0,%xmm1
start_input_gif():
/home/tenebris/Disk/Racing-code/examples/23-libjpeg-divide-by-zero/libjpeg-turbo-2.0.90/rdgif.c:476
  source->symbol_stack = (UINT8 *)
    42fe:	66 49 0f 6e c0       	movq   %r8,%xmm0
    4303:	66 0f 6c c0          	punpcklqdq %xmm0,%xmm0
InitLZWCode():
/home/tenebris/Disk/Racing-code/examples/23-libjpeg-divide-by-zero/libjpeg-turbo-2.0.90/rdgif.c:204
  sinfo->clear_code = 1 << sinfo->input_code_size;
    4307:	0f 11 8b 5c 01 00 00 	movups %xmm1,0x15c(%rbx)
start_input_gif():
/home/tenebris/Disk/Racing-code/examples/23-libjpeg-divide-by-zero/libjpeg-turbo-2.0.90/rdgif.c:476
  source->symbol_stack = (UINT8 *)
    430e:	0f 11 83 88 01 00 00 	movups %xmm0,0x188(%rbx)
/home/tenebris/Disk/Racing-code/examples/23-libjpeg-divide-by-zero/libjpeg-turbo-2.0.90/rdgif.c:486
  if (source->is_interlaced) {
    4315:	85 d2                	test   %edx,%edx
    4317:	74 38                	je     4351 <start_input_gif+0x2f1>
/home/tenebris/Disk/Racing-code/examples/23-libjpeg-divide-by-zero/libjpeg-turbo-2.0.90/rdgif.c:491
    source->interlaced_image = (*cinfo->mem->request_virt_sarray)
    4319:	48 8b 45 08          	mov    0x8(%rbp),%rax
    431d:	41 b9 01 00 00 00    	mov    $0x1,%r9d
    4323:	45 89 e8             	mov    %r13d,%r8d
    4326:	44 89 e1             	mov    %r12d,%ecx
    4329:	31 d2                	xor    %edx,%edx
    432b:	be 01 00 00 00       	mov    $0x1,%esi
    4330:	48 89 ef             	mov    %rbp,%rdi
    4333:	ff 50 20             	call   *0x20(%rax)
    4336:	48 89 83 a0 01 00 00 	mov    %rax,0x1a0(%rbx)
/home/tenebris/Disk/Racing-code/examples/23-libjpeg-divide-by-zero/libjpeg-turbo-2.0.90/rdgif.c:494
    if (cinfo->progress != NULL) {
    433d:	48 8b 45 10          	mov    0x10(%rbp),%rax
    4341:	48 85 c0             	test   %rax,%rax
    4344:	74 04                	je     434a <start_input_gif+0x2ea>
/home/tenebris/Disk/Racing-code/examples/23-libjpeg-divide-by-zero/libjpeg-turbo-2.0.90/rdgif.c:496
      progress->total_extra_passes++; /* count file input as separate pass */
    4346:	83 40 24 01          	addl   $0x1,0x24(%rax)
/home/tenebris/Disk/Racing-code/examples/23-libjpeg-divide-by-zero/libjpeg-turbo-2.0.90/rdgif.c:498
    source->pub.get_pixel_rows = load_interlaced_image;
    434a:	48 8d 05 1f 08 00 00 	lea    0x81f(%rip),%rax        # 4b70 <load_interlaced_image>
    4351:	48 89 43 08          	mov    %rax,0x8(%rbx)
/home/tenebris/Disk/Racing-code/examples/23-libjpeg-divide-by-zero/libjpeg-turbo-2.0.90/rdgif.c:504
  source->pub.buffer = (*cinfo->mem->alloc_sarray)
    4355:	48 8b 45 08          	mov    0x8(%rbp),%rax
    4359:	43 8d 14 64          	lea    (%r12,%r12,2),%edx
    435d:	48 89 ef             	mov    %rbp,%rdi
    4360:	b9 01 00 00 00       	mov    $0x1,%ecx
    4365:	be 01 00 00 00       	mov    $0x1,%esi
    436a:	ff 50 10             	call   *0x10(%rax)
/home/tenebris/Disk/Racing-code/examples/23-libjpeg-divide-by-zero/libjpeg-turbo-2.0.90/rdgif.c:507
  source->pub.buffer_height = 1;
    436d:	c7 43 28 01 00 00 00 	movl   $0x1,0x28(%rbx)
/home/tenebris/Disk/Racing-code/examples/23-libjpeg-divide-by-zero/libjpeg-turbo-2.0.90/rdgif.c:504
  source->pub.buffer = (*cinfo->mem->alloc_sarray)
    4374:	48 89 43 20          	mov    %rax,0x20(%rbx)
/home/tenebris/Disk/Racing-code/examples/23-libjpeg-divide-by-zero/libjpeg-turbo-2.0.90/rdgif.c:510
  for (c = colormaplen; c < source->clear_code; c++) {
    4378:	49 63 c6             	movslq %r14d,%rax
    437b:	44 3b b3 5c 01 00 00 	cmp    0x15c(%rbx),%r14d
    4382:	7d 33                	jge    43b7 <start_input_gif+0x357>
    4384:	0f 1f 40 00          	nopl   0x0(%rax)
/home/tenebris/Disk/Racing-code/examples/23-libjpeg-divide-by-zero/libjpeg-turbo-2.0.90/rdgif.c:513 (discriminator 3)
    source->colormap[CM_BLUE][c]  = CENTERJSAMPLE;
    4388:	48 8b 53 38          	mov    0x38(%rbx),%rdx
    438c:	48 8b 52 10          	mov    0x10(%rdx),%rdx
    4390:	c6 04 02 80          	movb   $0x80,(%rdx,%rax,1)
/home/tenebris/Disk/Racing-code/examples/23-libjpeg-divide-by-zero/libjpeg-turbo-2.0.90/rdgif.c:512 (discriminator 3)
    source->colormap[CM_GREEN][c] =
    4394:	48 8b 53 38          	mov    0x38(%rbx),%rdx
    4398:	48 8b 52 08          	mov    0x8(%rdx),%rdx
    439c:	c6 04 02 80          	movb   $0x80,(%rdx,%rax,1)
/home/tenebris/Disk/Racing-code/examples/23-libjpeg-divide-by-zero/libjpeg-turbo-2.0.90/rdgif.c:511 (discriminator 3)
    source->colormap[CM_RED][c]   =
    43a0:	48 8b 53 38          	mov    0x38(%rbx),%rdx
    43a4:	48 8b 12             	mov    (%rdx),%rdx
    43a7:	c6 04 02 80          	movb   $0x80,(%rdx,%rax,1)
/home/tenebris/Disk/Racing-code/examples/23-libjpeg-divide-by-zero/libjpeg-turbo-2.0.90/rdgif.c:510 (discriminator 3)
  for (c = colormaplen; c < source->clear_code; c++) {
    43ab:	48 83 c0 01          	add    $0x1,%rax
    43af:	39 83 5c 01 00 00    	cmp    %eax,0x15c(%rbx)
    43b5:	7f d1                	jg     4388 <start_input_gif+0x328>
/home/tenebris/Disk/Racing-code/examples/23-libjpeg-divide-by-zero/libjpeg-turbo-2.0.90/rdgif.c:519
  cinfo->data_precision = BITS_IN_JSAMPLE; /* we always rescale data to this */
    43b7:	c7 45 48 08 00 00 00 	movl   $0x8,0x48(%rbp)
/home/tenebris/Disk/Racing-code/examples/23-libjpeg-divide-by-zero/libjpeg-turbo-2.0.90/rdgif.c:523
  TRACEMS3(cinfo, 1, JTRC_GIF, width, height, colormaplen);
    43be:	be 01 00 00 00       	mov    $0x1,%esi
    43c3:	48 89 ef             	mov    %rbp,%rdi
/home/tenebris/Disk/Racing-code/examples/23-libjpeg-divide-by-zero/libjpeg-turbo-2.0.90/rdgif.c:518
  cinfo->input_components = NUMCOLORS;
    43c6:	48 b8 03 00 00 00 02 	movabs $0x200000003,%rax
    43cd:	00 00 00 
    43d0:	48 89 45 38          	mov    %rax,0x38(%rbp)
/home/tenebris/Disk/Racing-code/examples/23-libjpeg-divide-by-zero/libjpeg-turbo-2.0.90/rdgif.c:523
  TRACEMS3(cinfo, 1, JTRC_GIF, width, height, colormaplen);
    43d4:	48 8b 45 00          	mov    0x0(%rbp),%rax
/home/tenebris/Disk/Racing-code/examples/23-libjpeg-divide-by-zero/libjpeg-turbo-2.0.90/rdgif.c:520
  cinfo->image_width = width;
    43d8:	44 89 65 30          	mov    %r12d,0x30(%rbp)
/home/tenebris/Disk/Racing-code/examples/23-libjpeg-divide-by-zero/libjpeg-turbo-2.0.90/rdgif.c:521
  cinfo->image_height = height;
    43dc:	44 89 6d 34          	mov    %r13d,0x34(%rbp)
/home/tenebris/Disk/Racing-code/examples/23-libjpeg-divide-by-zero/libjpeg-turbo-2.0.90/rdgif.c:523
  TRACEMS3(cinfo, 1, JTRC_GIF, width, height, colormaplen);
    43e0:	44 89 60 2c          	mov    %r12d,0x2c(%rax)
    43e4:	44 89 68 30          	mov    %r13d,0x30(%rax)
    43e8:	44 89 70 34          	mov    %r14d,0x34(%rax)
    43ec:	c7 40 28 fb 03 00 00 	movl   $0x3fb,0x28(%rax)
    43f3:	ff 50 08             	call   *0x8(%rax)
/home/tenebris/Disk/Racing-code/examples/23-libjpeg-divide-by-zero/libjpeg-turbo-2.0.90/rdgif.c:524
}
    43f6:	48 8b 44 24 18       	mov    0x18(%rsp),%rax
    43fb:	64 48 2b 04 25 28 00 	sub    %fs:0x28,%rax
    4402:	00 00 
    4404:	0f 85 25 01 00 00    	jne    452f <start_input_gif+0x4cf>
    440a:	48 83 c4 28          	add    $0x28,%rsp
    440e:	5b                   	pop    %rbx
    440f:	5d                   	pop    %rbp
    4410:	41 5c                	pop    %r12
    4412:	41 5d                	pop    %r13
    4414:	41 5e                	pop    %r14
    4416:	41 5f                	pop    %r15
    4418:	c3                   	ret    
    4419:	0f 1f 80 00 00 00 00 	nopl   0x0(%rax)
    4420:	48 8b 7b 30          	mov    0x30(%rbx),%rdi
ReadByte():
/home/tenebris/Disk/Racing-code/examples/23-libjpeg-divide-by-zero/libjpeg-turbo-2.0.90/rdgif.c:146
    ERREXIT(sinfo->cinfo, JERR_INPUT_EOF);
    4424:	48 8b 07             	mov    (%rdi),%rax
    4427:	c7 40 28 2b 00 00 00 	movl   $0x2b,0x28(%rax)
    442e:	ff 10                	call   *(%rax)
start_input_gif():
/home/tenebris/Disk/Racing-code/examples/23-libjpeg-divide-by-zero/libjpeg-turbo-2.0.90/rdgif.c:439 (discriminator 1)
      WARNMS1(cinfo, JWRN_GIF_CHAR, c);
    4430:	48 8b 45 00          	mov    0x0(%rbp),%rax
    4434:	be ff ff ff ff       	mov    $0xffffffff,%esi
    4439:	48 89 ef             	mov    %rbp,%rdi
    443c:	c7 40 28 00 04 00 00 	movl   $0x400,0x28(%rax)
    4443:	44 89 60 2c          	mov    %r12d,0x2c(%rax)
    4447:	ff 50 08             	call   *0x8(%rax)
/home/tenebris/Disk/Racing-code/examples/23-libjpeg-divide-by-zero/libjpeg-turbo-2.0.90/rdgif.c:440 (discriminator 1)
      continue;
    444a:	e9 39 fd ff ff       	jmp    4188 <start_input_gif+0x128>
    444f:	90                   	nop
/home/tenebris/Disk/Racing-code/examples/23-libjpeg-divide-by-zero/libjpeg-turbo-2.0.90/rdgif.c:431
      ERREXIT(cinfo, JERR_GIF_IMAGENOTFOUND);
    4450:	48 8b 45 00          	mov    0x0(%rbp),%rax
    4454:	48 89 ef             	mov    %rbp,%rdi
    4457:	c7 40 28 f9 03 00 00 	movl   $0x3f9,0x28(%rax)
    445e:	ff 10                	call   *(%rax)
/home/tenebris/Disk/Racing-code/examples/23-libjpeg-divide-by-zero/libjpeg-turbo-2.0.90/rdgif.c:438
    if (c != ',') {             /* Not an image separator? */
    4460:	eb ce                	jmp    4430 <start_input_gif+0x3d0>
    4462:	66 0f 1f 44 00 00    	nopw   0x0(%rax,%rax,1)
    4468:	48 8b 7b 30          	mov    0x30(%rbx),%rdi
ReadByte():
/home/tenebris/Disk/Racing-code/examples/23-libjpeg-divide-by-zero/libjpeg-turbo-2.0.90/rdgif.c:146
    ERREXIT(sinfo->cinfo, JERR_INPUT_EOF);
    446c:	48 8b 07             	mov    (%rdi),%rax
    446f:	c7 40 28 2b 00 00 00 	movl   $0x2b,0x28(%rax)
    4476:	ff 10                	call   *(%rax)
start_input_gif():
/home/tenebris/Disk/Racing-code/examples/23-libjpeg-divide-by-zero/libjpeg-turbo-2.0.90/rdgif.c:459
    source->input_code_size = ReadByte(source); /* get min-code-size byte */
    4478:	c7 83 58 01 00 00 ff 	movl   $0xffffffff,0x158(%rbx)
    447f:	ff ff ff 
/home/tenebris/Disk/Racing-code/examples/23-libjpeg-divide-by-zero/libjpeg-turbo-2.0.90/rdgif.c:461
      ERREXIT1(cinfo, JERR_GIF_CODESIZE, source->input_code_size);
    4482:	48 8b 45 00          	mov    0x0(%rbp),%rax
    4486:	48 89 ef             	mov    %rbp,%rdi
    4489:	c7 40 28 f7 03 00 00 	movl   $0x3f7,0x28(%rax)
    4490:	44 89 78 2c          	mov    %r15d,0x2c(%rax)
    4494:	ff 10                	call   *(%rax)
    4496:	e9 af fd ff ff       	jmp    424a <start_input_gif+0x1ea>
    449b:	0f 1f 44 00 00       	nopl   0x0(%rax,%rax,1)
/home/tenebris/Disk/Racing-code/examples/23-libjpeg-divide-by-zero/libjpeg-turbo-2.0.90/rdgif.c:434 (discriminator 1)
      DoExtension(source);
    44a0:	48 89 df             	mov    %rbx,%rdi
    44a3:	e8 c8 fa ff ff       	call   3f70 <DoExtension>
/home/tenebris/Disk/Racing-code/examples/23-libjpeg-divide-by-zero/libjpeg-turbo-2.0.90/rdgif.c:435 (discriminator 1)
      continue;
    44a8:	e9 db fc ff ff       	jmp    4188 <start_input_gif+0x128>
    44ad:	0f 1f 00             	nopl   (%rax)
/home/tenebris/Disk/Racing-code/examples/23-libjpeg-divide-by-zero/libjpeg-turbo-2.0.90/rdgif.c:398 (discriminator 1)
  if ((hdrbuf[3] != '8' || hdrbuf[4] != '7' || hdrbuf[5] != 'a') &&
    44b0:	8d 41 c9             	lea    -0x37(%rcx),%eax
    44b3:	a8 fd                	test   $0xfd,%al
    44b5:	0f 85 31 fc ff ff    	jne    40ec <start_input_gif+0x8c>
/home/tenebris/Disk/Racing-code/examples/23-libjpeg-divide-by-zero/libjpeg-turbo-2.0.90/rdgif.c:398 (discriminator 2)
    44bb:	40 80 fe 61          	cmp    $0x61,%sil
    44bf:	0f 85 27 fc ff ff    	jne    40ec <start_input_gif+0x8c>
    44c5:	e9 41 fc ff ff       	jmp    410b <start_input_gif+0xab>
    44ca:	66 0f 1f 44 00 00    	nopw   0x0(%rax,%rax,1)
/home/tenebris/Disk/Racing-code/examples/23-libjpeg-divide-by-zero/libjpeg-turbo-2.0.90/rdgif.c:392 (discriminator 1)
  if (hdrbuf[0] != 'G' || hdrbuf[1] != 'I' || hdrbuf[2] != 'F')
    44d0:	80 7c 24 0f 49       	cmpb   $0x49,0xf(%rsp)
    44d5:	0f 85 e9 fb ff ff    	jne    40c4 <start_input_gif+0x64>
/home/tenebris/Disk/Racing-code/examples/23-libjpeg-divide-by-zero/libjpeg-turbo-2.0.90/rdgif.c:392 (discriminator 2)
    44db:	80 7c 24 10 46       	cmpb   $0x46,0x10(%rsp)
    44e0:	0f 85 de fb ff ff    	jne    40c4 <start_input_gif+0x64>
    44e6:	e9 e9 fb ff ff       	jmp    40d4 <start_input_gif+0x74>
    44eb:	0f 1f 44 00 00       	nopl   0x0(%rax,%rax,1)
/home/tenebris/Disk/Racing-code/examples/23-libjpeg-divide-by-zero/libjpeg-turbo-2.0.90/rdgif.c:455
      colormaplen = 2 << (hdrbuf[8] & 0x07);
    44f0:	83 e1 07             	and    $0x7,%ecx
    44f3:	41 be 02 00 00 00    	mov    $0x2,%r14d
/home/tenebris/Disk/Racing-code/examples/23-libjpeg-divide-by-zero/libjpeg-turbo-2.0.90/rdgif.c:456
      ReadColorMap(source, colormaplen, source->colormap);
    44f9:	48 8b 53 38          	mov    0x38(%rbx),%rdx
    44fd:	48 89 df             	mov    %rbx,%rdi
/home/tenebris/Disk/Racing-code/examples/23-libjpeg-divide-by-zero/libjpeg-turbo-2.0.90/rdgif.c:455
      colormaplen = 2 << (hdrbuf[8] & 0x07);
    4500:	41 d3 e6             	shl    %cl,%r14d
/home/tenebris/Disk/Racing-code/examples/23-libjpeg-divide-by-zero/libjpeg-turbo-2.0.90/rdgif.c:456
      ReadColorMap(source, colormaplen, source->colormap);
    4503:	44 89 f6             	mov    %r14d,%esi
    4506:	e8 35 f9 ff ff       	call   3e40 <ReadColorMap>
    450b:	e9 13 fd ff ff       	jmp    4223 <start_input_gif+0x1c3>
/home/tenebris/Disk/Racing-code/examples/23-libjpeg-divide-by-zero/libjpeg-turbo-2.0.90/rdgif.c:420
    colormaplen = 2 << (hdrbuf[4] & 0x07);
    4510:	83 e1 07             	and    $0x7,%ecx
    4513:	41 be 02 00 00 00    	mov    $0x2,%r14d
/home/tenebris/Disk/Racing-code/examples/23-libjpeg-divide-by-zero/libjpeg-turbo-2.0.90/rdgif.c:421
    ReadColorMap(source, colormaplen, source->colormap);
    4519:	48 89 c2             	mov    %rax,%rdx
    451c:	48 89 df             	mov    %rbx,%rdi
/home/tenebris/Disk/Racing-code/examples/23-libjpeg-divide-by-zero/libjpeg-turbo-2.0.90/rdgif.c:420
    colormaplen = 2 << (hdrbuf[4] & 0x07);
    451f:	41 d3 e6             	shl    %cl,%r14d
/home/tenebris/Disk/Racing-code/examples/23-libjpeg-divide-by-zero/libjpeg-turbo-2.0.90/rdgif.c:421
    ReadColorMap(source, colormaplen, source->colormap);
    4522:	44 89 f6             	mov    %r14d,%esi
    4525:	e8 16 f9 ff ff       	call   3e40 <ReadColorMap>
    452a:	e9 59 fc ff ff       	jmp    4188 <start_input_gif+0x128>
/home/tenebris/Disk/Racing-code/examples/23-libjpeg-divide-by-zero/libjpeg-turbo-2.0.90/rdgif.c:524
}
    452f:	e8 8c dd ff ff       	call   22c0 <__stack_chk_fail@plt>
    4534:	66 66 2e 0f 1f 84 00 	data16 cs nopw 0x0(%rax,%rax,1)
    453b:	00 00 00 00 
    453f:	90                   	nop

0000000000004540 <GetCode>:
GetCode():
/home/tenebris/Disk/Racing-code/examples/23-libjpeg-divide-by-zero/libjpeg-turbo-2.0.90/rdgif.c:214
{
    4540:	41 55                	push   %r13
    4542:	41 54                	push   %r12
    4544:	55                   	push   %rbp
    4545:	53                   	push   %rbx
    4546:	48 89 fb             	mov    %rdi,%rbx
    4549:	48 83 ec 08          	sub    $0x8,%rsp
/home/tenebris/Disk/Racing-code/examples/23-libjpeg-divide-by-zero/libjpeg-turbo-2.0.90/rdgif.c:218
  while (sinfo->cur_bit + sinfo->code_size > sinfo->last_bit) {
    454d:	8b 97 4c 01 00 00    	mov    0x14c(%rdi),%edx
    4553:	8b 8f 64 01 00 00    	mov    0x164(%rdi),%ecx
    4559:	8d 34 11             	lea    (%rcx,%rdx,1),%esi
    455c:	3b b7 48 01 00 00    	cmp    0x148(%rdi),%esi
    4562:	0f 8e 08 01 00 00    	jle    4670 <GetCode+0x130>
/home/tenebris/Disk/Racing-code/examples/23-libjpeg-divide-by-zero/libjpeg-turbo-2.0.90/rdgif.c:233
    if ((count = GetDataBlock(sinfo, &sinfo->code_buf[2])) == 0) {
    4568:	4c 8d 67 42          	lea    0x42(%rdi),%r12
    456c:	eb 72                	jmp    45e0 <GetCode+0xa0>
    456e:	66 90                	xchg   %ax,%ax
GetDataBlock():
/home/tenebris/Disk/Racing-code/examples/23-libjpeg-divide-by-zero/libjpeg-turbo-2.0.90/rdgif.c:160
    if (!ReadOK(sinfo->pub.input_file, buf, count))
    4570:	4c 63 e8             	movslq %eax,%r13
fread():
/usr/include/x86_64-linux-gnu/bits/stdio2.h:293
    4573:	48 8b 4b 18          	mov    0x18(%rbx),%rcx
    4577:	be 01 00 00 00       	mov    $0x1,%esi
    457c:	4c 89 e7             	mov    %r12,%rdi
    457f:	4c 89 ea             	mov    %r13,%rdx
    4582:	e8 09 dd ff ff       	call   2290 <fread@plt>
GetDataBlock():
/home/tenebris/Disk/Racing-code/examples/23-libjpeg-divide-by-zero/libjpeg-turbo-2.0.90/rdgif.c:160
    4587:	49 39 c5             	cmp    %rax,%r13
    458a:	74 10                	je     459c <GetCode+0x5c>
/home/tenebris/Disk/Racing-code/examples/23-libjpeg-divide-by-zero/libjpeg-turbo-2.0.90/rdgif.c:161
      ERREXIT(sinfo->cinfo, JERR_INPUT_EOF);
    458c:	48 8b 7b 30          	mov    0x30(%rbx),%rdi
    4590:	48 8b 07             	mov    (%rdi),%rax
    4593:	c7 40 28 2b 00 00 00 	movl   $0x2b,0x28(%rax)
    459a:	ff 10                	call   *(%rax)
GetCode():
/home/tenebris/Disk/Racing-code/examples/23-libjpeg-divide-by-zero/libjpeg-turbo-2.0.90/rdgif.c:240
    sinfo->last_byte = 2 + count;
    459c:	83 c5 02             	add    $0x2,%ebp
/home/tenebris/Disk/Racing-code/examples/23-libjpeg-divide-by-zero/libjpeg-turbo-2.0.90/rdgif.c:239
    sinfo->cur_bit = (sinfo->cur_bit - sinfo->last_bit) + 16;
    459f:	8b 93 4c 01 00 00    	mov    0x14c(%rbx),%edx
/home/tenebris/Disk/Racing-code/examples/23-libjpeg-divide-by-zero/libjpeg-turbo-2.0.90/rdgif.c:218
  while (sinfo->cur_bit + sinfo->code_size > sinfo->last_bit) {
    45a5:	8b 8b 64 01 00 00    	mov    0x164(%rbx),%ecx
/home/tenebris/Disk/Racing-code/examples/23-libjpeg-divide-by-zero/libjpeg-turbo-2.0.90/rdgif.c:239
    sinfo->cur_bit = (sinfo->cur_bit - sinfo->last_bit) + 16;
    45ab:	2b 93 48 01 00 00    	sub    0x148(%rbx),%edx
/home/tenebris/Disk/Racing-code/examples/23-libjpeg-divide-by-zero/libjpeg-turbo-2.0.90/rdgif.c:241
    sinfo->last_bit = sinfo->last_byte * 8;
    45b1:	8d 04 ed 00 00 00 00 	lea    0x0(,%rbp,8),%eax
/home/tenebris/Disk/Racing-code/examples/23-libjpeg-divide-by-zero/libjpeg-turbo-2.0.90/rdgif.c:240
    sinfo->last_byte = 2 + count;
    45b8:	66 0f 6e c5          	movd   %ebp,%xmm0
/home/tenebris/Disk/Racing-code/examples/23-libjpeg-divide-by-zero/libjpeg-turbo-2.0.90/rdgif.c:239
    sinfo->cur_bit = (sinfo->cur_bit - sinfo->last_bit) + 16;
    45bc:	83 c2 10             	add    $0x10,%edx
/home/tenebris/Disk/Racing-code/examples/23-libjpeg-divide-by-zero/libjpeg-turbo-2.0.90/rdgif.c:240
    sinfo->last_byte = 2 + count;
    45bf:	66 0f 6e c8          	movd   %eax,%xmm1
    45c3:	66 0f 62 c1          	punpckldq %xmm1,%xmm0
/home/tenebris/Disk/Racing-code/examples/23-libjpeg-divide-by-zero/libjpeg-turbo-2.0.90/rdgif.c:218
  while (sinfo->cur_bit + sinfo->code_size > sinfo->last_bit) {
    45c7:	8d 34 0a             	lea    (%rdx,%rcx,1),%esi
/home/tenebris/Disk/Racing-code/examples/23-libjpeg-divide-by-zero/libjpeg-turbo-2.0.90/rdgif.c:239
    sinfo->cur_bit = (sinfo->cur_bit - sinfo->last_bit) + 16;
    45ca:	89 93 4c 01 00 00    	mov    %edx,0x14c(%rbx)
/home/tenebris/Disk/Racing-code/examples/23-libjpeg-divide-by-zero/libjpeg-turbo-2.0.90/rdgif.c:240
    sinfo->last_byte = 2 + count;
    45d0:	66 0f d6 83 44 01 00 	movq   %xmm0,0x144(%rbx)
    45d7:	00 
/home/tenebris/Disk/Racing-code/examples/23-libjpeg-divide-by-zero/libjpeg-turbo-2.0.90/rdgif.c:218
  while (sinfo->cur_bit + sinfo->code_size > sinfo->last_bit) {
    45d8:	39 f0                	cmp    %esi,%eax
    45da:	0f 8d 90 00 00 00    	jge    4670 <GetCode+0x130>
/home/tenebris/Disk/Racing-code/examples/23-libjpeg-divide-by-zero/libjpeg-turbo-2.0.90/rdgif.c:221
    if (sinfo->first_time) {
    45e0:	8b 93 50 01 00 00    	mov    0x150(%rbx),%edx
    45e6:	85 d2                	test   %edx,%edx
    45e8:	0f 85 da 00 00 00    	jne    46c8 <GetCode+0x188>
/home/tenebris/Disk/Racing-code/examples/23-libjpeg-divide-by-zero/libjpeg-turbo-2.0.90/rdgif.c:225
    if (sinfo->out_of_blocks) {
    45ee:	8b 83 54 01 00 00    	mov    0x154(%rbx),%eax
    45f4:	85 c0                	test   %eax,%eax
    45f6:	75 4d                	jne    4645 <GetCode+0x105>
/home/tenebris/Disk/Racing-code/examples/23-libjpeg-divide-by-zero/libjpeg-turbo-2.0.90/rdgif.c:230
    sinfo->code_buf[0] = sinfo->code_buf[sinfo->last_byte-2];
    45f8:	8b 83 44 01 00 00    	mov    0x144(%rbx),%eax
ReadByte():
/home/tenebris/Disk/Racing-code/examples/23-libjpeg-divide-by-zero/libjpeg-turbo-2.0.90/rdgif.c:145
  if ((c = getc(infile)) == EOF)
    45fe:	48 8b 7b 18          	mov    0x18(%rbx),%rdi
GetCode():
/home/tenebris/Disk/Racing-code/examples/23-libjpeg-divide-by-zero/libjpeg-turbo-2.0.90/rdgif.c:230
    sinfo->code_buf[0] = sinfo->code_buf[sinfo->last_byte-2];
    4602:	8d 50 fe             	lea    -0x2(%rax),%edx
/home/tenebris/Disk/Racing-code/examples/23-libjpeg-divide-by-zero/libjpeg-turbo-2.0.90/rdgif.c:231
    sinfo->code_buf[1] = sinfo->code_buf[sinfo->last_byte-1];
    4605:	83 e8 01             	sub    $0x1,%eax
/home/tenebris/Disk/Racing-code/examples/23-libjpeg-divide-by-zero/libjpeg-turbo-2.0.90/rdgif.c:230
    sinfo->code_buf[0] = sinfo->code_buf[sinfo->last_byte-2];
    4608:	48 63 d2             	movslq %edx,%rdx
/home/tenebris/Disk/Racing-code/examples/23-libjpeg-divide-by-zero/libjpeg-turbo-2.0.90/rdgif.c:231
    sinfo->code_buf[1] = sinfo->code_buf[sinfo->last_byte-1];
    460b:	48 98                	cltq   
/home/tenebris/Disk/Racing-code/examples/23-libjpeg-divide-by-zero/libjpeg-turbo-2.0.90/rdgif.c:230
    sinfo->code_buf[0] = sinfo->code_buf[sinfo->last_byte-2];
    460d:	0f b6 54 13 40       	movzbl 0x40(%rbx,%rdx,1),%edx
    4612:	88 53 40             	mov    %dl,0x40(%rbx)
/home/tenebris/Disk/Racing-code/examples/23-libjpeg-divide-by-zero/libjpeg-turbo-2.0.90/rdgif.c:231
    sinfo->code_buf[1] = sinfo->code_buf[sinfo->last_byte-1];
    4615:	0f b6 44 03 40       	movzbl 0x40(%rbx,%rax,1),%eax
    461a:	88 43 41             	mov    %al,0x41(%rbx)
ReadByte():
/home/tenebris/Disk/Racing-code/examples/23-libjpeg-divide-by-zero/libjpeg-turbo-2.0.90/rdgif.c:145
  if ((c = getc(infile)) == EOF)
    461d:	e8 4e de ff ff       	call   2470 <getc@plt>
    4622:	89 c5                	mov    %eax,%ebp
    4624:	83 f8 ff             	cmp    $0xffffffff,%eax
    4627:	0f 84 5f ff ff ff    	je     458c <GetCode+0x4c>
GetDataBlock():
/home/tenebris/Disk/Racing-code/examples/23-libjpeg-divide-by-zero/libjpeg-turbo-2.0.90/rdgif.c:159
  if (count > 0) {
    462d:	85 c0                	test   %eax,%eax
    462f:	0f 8f 3b ff ff ff    	jg     4570 <GetCode+0x30>
GetCode():
/home/tenebris/Disk/Racing-code/examples/23-libjpeg-divide-by-zero/libjpeg-turbo-2.0.90/rdgif.c:233
    if ((count = GetDataBlock(sinfo, &sinfo->code_buf[2])) == 0) {
    4635:	0f 85 61 ff ff ff    	jne    459c <GetCode+0x5c>
/home/tenebris/Disk/Racing-code/examples/23-libjpeg-divide-by-zero/libjpeg-turbo-2.0.90/rdgif.c:234
      sinfo->out_of_blocks = TRUE;
    463b:	c7 83 54 01 00 00 01 	movl   $0x1,0x154(%rbx)
    4642:	00 00 00 
/home/tenebris/Disk/Racing-code/examples/23-libjpeg-divide-by-zero/libjpeg-turbo-2.0.90/rdgif.c:235
      WARNMS(sinfo->cinfo, JWRN_GIF_NOMOREDATA);
    4645:	48 8b 7b 30          	mov    0x30(%rbx),%rdi
    4649:	be ff ff ff ff       	mov    $0xffffffff,%esi
    464e:	48 8b 07             	mov    (%rdi),%rax
    4651:	c7 40 28 02 04 00 00 	movl   $0x402,0x28(%rax)
    4658:	ff 50 08             	call   *0x8(%rax)
/home/tenebris/Disk/Racing-code/examples/23-libjpeg-divide-by-zero/libjpeg-turbo-2.0.90/rdgif.c:236
      return sinfo->end_code;   /* fake something useful */
    465b:	8b 83 60 01 00 00    	mov    0x160(%rbx),%eax
/home/tenebris/Disk/Racing-code/examples/23-libjpeg-divide-by-zero/libjpeg-turbo-2.0.90/rdgif.c:256
}
    4661:	48 83 c4 08          	add    $0x8,%rsp
    4665:	5b                   	pop    %rbx
    4666:	5d                   	pop    %rbp
    4667:	41 5c                	pop    %r12
    4669:	41 5d                	pop    %r13
    466b:	c3                   	ret    
    466c:	0f 1f 40 00          	nopl   0x0(%rax)
/home/tenebris/Disk/Racing-code/examples/23-libjpeg-divide-by-zero/libjpeg-turbo-2.0.90/rdgif.c:245
  offs = sinfo->cur_bit >> 3;   /* byte containing cur_bit */
    4670:	89 d7                	mov    %edx,%edi
    4672:	c1 ff 03             	sar    $0x3,%edi
/home/tenebris/Disk/Racing-code/examples/23-libjpeg-divide-by-zero/libjpeg-turbo-2.0.90/rdgif.c:246
  accum = UCH(sinfo->code_buf[offs + 2]);
    4675:	8d 47 02             	lea    0x2(%rdi),%eax
    4678:	48 98                	cltq   
    467a:	44 0f b6 44 03 40    	movzbl 0x40(%rbx,%rax,1),%r8d
/home/tenebris/Disk/Racing-code/examples/23-libjpeg-divide-by-zero/libjpeg-turbo-2.0.90/rdgif.c:248
  accum |= UCH(sinfo->code_buf[offs + 1]);
    4680:	8d 47 01             	lea    0x1(%rdi),%eax
/home/tenebris/Disk/Racing-code/examples/23-libjpeg-divide-by-zero/libjpeg-turbo-2.0.90/rdgif.c:250
  accum |= UCH(sinfo->code_buf[offs]);
    4683:	48 63 ff             	movslq %edi,%rdi
/home/tenebris/Disk/Racing-code/examples/23-libjpeg-divide-by-zero/libjpeg-turbo-2.0.90/rdgif.c:248
  accum |= UCH(sinfo->code_buf[offs + 1]);
    4686:	48 98                	cltq   
/home/tenebris/Disk/Racing-code/examples/23-libjpeg-divide-by-zero/libjpeg-turbo-2.0.90/rdgif.c:250
  accum |= UCH(sinfo->code_buf[offs]);
    4688:	0f b6 7c 3b 40       	movzbl 0x40(%rbx,%rdi,1),%edi
/home/tenebris/Disk/Racing-code/examples/23-libjpeg-divide-by-zero/libjpeg-turbo-2.0.90/rdgif.c:248
  accum |= UCH(sinfo->code_buf[offs + 1]);
    468d:	0f b6 44 03 40       	movzbl 0x40(%rbx,%rax,1),%eax
/home/tenebris/Disk/Racing-code/examples/23-libjpeg-divide-by-zero/libjpeg-turbo-2.0.90/rdgif.c:247
  accum <<= 8;
    4692:	41 c1 e0 08          	shl    $0x8,%r8d
/home/tenebris/Disk/Racing-code/examples/23-libjpeg-divide-by-zero/libjpeg-turbo-2.0.90/rdgif.c:254
  sinfo->cur_bit += sinfo->code_size;
    4696:	89 b3 4c 01 00 00    	mov    %esi,0x14c(%rbx)
/home/tenebris/Disk/Racing-code/examples/23-libjpeg-divide-by-zero/libjpeg-turbo-2.0.90/rdgif.c:256
}
    469c:	48 83 c4 08          	add    $0x8,%rsp
    46a0:	5b                   	pop    %rbx
    46a1:	5d                   	pop    %rbp
/home/tenebris/Disk/Racing-code/examples/23-libjpeg-divide-by-zero/libjpeg-turbo-2.0.90/rdgif.c:248
  accum |= UCH(sinfo->code_buf[offs + 1]);
    46a2:	44 09 c0             	or     %r8d,%eax
/home/tenebris/Disk/Racing-code/examples/23-libjpeg-divide-by-zero/libjpeg-turbo-2.0.90/rdgif.c:256
}
    46a5:	41 5c                	pop    %r12
    46a7:	41 5d                	pop    %r13
/home/tenebris/Disk/Racing-code/examples/23-libjpeg-divide-by-zero/libjpeg-turbo-2.0.90/rdgif.c:249
  accum <<= 8;
    46a9:	c1 e0 08             	shl    $0x8,%eax
/home/tenebris/Disk/Racing-code/examples/23-libjpeg-divide-by-zero/libjpeg-turbo-2.0.90/rdgif.c:250
  accum |= UCH(sinfo->code_buf[offs]);
    46ac:	09 c7                	or     %eax,%edi
/home/tenebris/Disk/Racing-code/examples/23-libjpeg-divide-by-zero/libjpeg-turbo-2.0.90/rdgif.c:255
  return accum & ((1 << sinfo->code_size) - 1);
    46ae:	b8 01 00 00 00       	mov    $0x1,%eax
    46b3:	d3 e0                	shl    %cl,%eax
/home/tenebris/Disk/Racing-code/examples/23-libjpeg-divide-by-zero/libjpeg-turbo-2.0.90/rdgif.c:253
  accum >>= (sinfo->cur_bit & 7);
    46b5:	89 d1                	mov    %edx,%ecx
    46b7:	83 e1 07             	and    $0x7,%ecx
/home/tenebris/Disk/Racing-code/examples/23-libjpeg-divide-by-zero/libjpeg-turbo-2.0.90/rdgif.c:255
  return accum & ((1 << sinfo->code_size) - 1);
    46ba:	83 e8 01             	sub    $0x1,%eax
/home/tenebris/Disk/Racing-code/examples/23-libjpeg-divide-by-zero/libjpeg-turbo-2.0.90/rdgif.c:253
  accum >>= (sinfo->cur_bit & 7);
    46bd:	d3 ff                	sar    %cl,%edi
/home/tenebris/Disk/Racing-code/examples/23-libjpeg-divide-by-zero/libjpeg-turbo-2.0.90/rdgif.c:255
  return accum & ((1 << sinfo->code_size) - 1);
    46bf:	21 f8                	and    %edi,%eax
/home/tenebris/Disk/Racing-code/examples/23-libjpeg-divide-by-zero/libjpeg-turbo-2.0.90/rdgif.c:256
}
    46c1:	c3                   	ret    
    46c2:	66 0f 1f 44 00 00    	nopw   0x0(%rax,%rax,1)
/home/tenebris/Disk/Racing-code/examples/23-libjpeg-divide-by-zero/libjpeg-turbo-2.0.90/rdgif.c:222
      sinfo->first_time = FALSE;
    46c8:	c7 83 50 01 00 00 00 	movl   $0x0,0x150(%rbx)
    46cf:	00 00 00 
/home/tenebris/Disk/Racing-code/examples/23-libjpeg-divide-by-zero/libjpeg-turbo-2.0.90/rdgif.c:223
      return sinfo->clear_code;
    46d2:	8b 83 5c 01 00 00    	mov    0x15c(%rbx),%eax
/home/tenebris/Disk/Racing-code/examples/23-libjpeg-divide-by-zero/libjpeg-turbo-2.0.90/rdgif.c:256
}
    46d8:	48 83 c4 08          	add    $0x8,%rsp
    46dc:	5b                   	pop    %rbx
    46dd:	5d                   	pop    %rbp
    46de:	41 5c                	pop    %r12
    46e0:	41 5d                	pop    %r13
    46e2:	c3                   	ret    
    46e3:	66 66 2e 0f 1f 84 00 	data16 cs nopw 0x0(%rax,%rax,1)
    46ea:	00 00 00 00 
    46ee:	66 90                	xchg   %ax,%ax

00000000000046f0 <get_pixel_rows>:
get_pixel_rows():
/home/tenebris/Disk/Racing-code/examples/23-libjpeg-divide-by-zero/libjpeg-turbo-2.0.90/rdgif.c:535
{
    46f0:	f3 0f 1e fa          	endbr64 
    46f4:	41 57                	push   %r15
    46f6:	41 56                	push   %r14
    46f8:	41 55                	push   %r13
    46fa:	41 54                	push   %r12
    46fc:	55                   	push   %rbp
    46fd:	53                   	push   %rbx
    46fe:	48 81 ec 28 01 00 00 	sub    $0x128,%rsp
/home/tenebris/Disk/Racing-code/examples/23-libjpeg-divide-by-zero/libjpeg-turbo-2.0.90/rdgif.c:540
  register JSAMPARRAY colormap = source->colormap;
    4705:	4c 8b 76 38          	mov    0x38(%rsi),%r14
/home/tenebris/Disk/Racing-code/examples/23-libjpeg-divide-by-zero/libjpeg-turbo-2.0.90/rdgif.c:535
{
    4709:	64 48 8b 04 25 28 00 	mov    %fs:0x28,%rax
    4710:	00 00 
    4712:	48 89 84 24 18 01 00 	mov    %rax,0x118(%rsp)
    4719:	00 
    471a:	31 c0                	xor    %eax,%eax
/home/tenebris/Disk/Racing-code/examples/23-libjpeg-divide-by-zero/libjpeg-turbo-2.0.90/rdgif.c:542
  ptr = source->pub.buffer[0];
    471c:	48 8b 46 20          	mov    0x20(%rsi),%rax
    4720:	4c 8b 20             	mov    (%rax),%r12
/home/tenebris/Disk/Racing-code/examples/23-libjpeg-divide-by-zero/libjpeg-turbo-2.0.90/rdgif.c:543
  for (col = cinfo->image_width; col > 0; col--) {
    4723:	8b 47 30             	mov    0x30(%rdi),%eax
    4726:	85 c0                	test   %eax,%eax
    4728:	0f 84 8a 01 00 00    	je     48b8 <get_pixel_rows+0x1c8>
    472e:	4c 8d 3c 40          	lea    (%rax,%rax,2),%r15
    4732:	48 89 f3             	mov    %rsi,%rbx
GetCode():
/home/tenebris/Disk/Racing-code/examples/23-libjpeg-divide-by-zero/libjpeg-turbo-2.0.90/rdgif.c:233
    if ((count = GetDataBlock(sinfo, &sinfo->code_buf[2])) == 0) {
    4735:	4c 8d 6e 42          	lea    0x42(%rsi),%r13
    4739:	4b 8d 04 3c          	lea    (%r12,%r15,1),%rax
    473d:	48 89 44 24 08       	mov    %rax,0x8(%rsp)
    4742:	eb 48                	jmp    478c <get_pixel_rows+0x9c>
    4744:	0f 1f 40 00          	nopl   0x0(%rax)
LZWReadByte():
/home/tenebris/Disk/Racing-code/examples/23-libjpeg-divide-by-zero/libjpeg-turbo-2.0.90/rdgif.c:268
    return (int)(*(--sinfo->sp));
    4748:	48 8d 50 ff          	lea    -0x1(%rax),%rdx
    474c:	48 89 93 90 01 00 00 	mov    %rdx,0x190(%rbx)
get_pixel_rows():
/home/tenebris/Disk/Racing-code/examples/23-libjpeg-divide-by-zero/libjpeg-turbo-2.0.90/rdgif.c:545
    *ptr++ = colormap[CM_RED][c];
    4753:	0f b6 40 ff          	movzbl -0x1(%rax),%eax
    4757:	49 8b 16             	mov    (%r14),%rdx
    475a:	49 83 c4 03          	add    $0x3,%r12
    475e:	0f b6 14 02          	movzbl (%rdx,%rax,1),%edx
    4762:	41 88 54 24 fd       	mov    %dl,-0x3(%r12)
/home/tenebris/Disk/Racing-code/examples/23-libjpeg-divide-by-zero/libjpeg-turbo-2.0.90/rdgif.c:546
    *ptr++ = colormap[CM_GREEN][c];
    4767:	49 8b 56 08          	mov    0x8(%r14),%rdx
    476b:	0f b6 14 02          	movzbl (%rdx,%rax,1),%edx
    476f:	41 88 54 24 fe       	mov    %dl,-0x2(%r12)
/home/tenebris/Disk/Racing-code/examples/23-libjpeg-divide-by-zero/libjpeg-turbo-2.0.90/rdgif.c:547
    *ptr++ = colormap[CM_BLUE][c];
    4774:	49 8b 56 10          	mov    0x10(%r14),%rdx
    4778:	0f b6 04 02          	movzbl (%rdx,%rax,1),%eax
    477c:	41 88 44 24 ff       	mov    %al,-0x1(%r12)
/home/tenebris/Disk/Racing-code/examples/23-libjpeg-divide-by-zero/libjpeg-turbo-2.0.90/rdgif.c:543
  for (col = cinfo->image_width; col > 0; col--) {
    4781:	4c 39 64 24 08       	cmp    %r12,0x8(%rsp)
    4786:	0f 84 2c 01 00 00    	je     48b8 <get_pixel_rows+0x1c8>
LZWReadByte():
/home/tenebris/Disk/Racing-code/examples/23-libjpeg-divide-by-zero/libjpeg-turbo-2.0.90/rdgif.c:267
  if (sinfo->sp > sinfo->symbol_stack)
    478c:	48 8b 83 90 01 00 00 	mov    0x190(%rbx),%rax
    4793:	48 3b 83 88 01 00 00 	cmp    0x188(%rbx),%rax
    479a:	77 ac                	ja     4748 <get_pixel_rows+0x58>
/home/tenebris/Disk/Racing-code/examples/23-libjpeg-divide-by-zero/libjpeg-turbo-2.0.90/rdgif.c:271
  code = GetCode(sinfo);
    479c:	48 89 df             	mov    %rbx,%rdi
    479f:	e8 9c fd ff ff       	call   4540 <GetCode>
/home/tenebris/Disk/Racing-code/examples/23-libjpeg-divide-by-zero/libjpeg-turbo-2.0.90/rdgif.c:273
  if (code == sinfo->clear_code) {
    47a4:	8b 93 5c 01 00 00    	mov    0x15c(%rbx),%edx
    47aa:	39 d0                	cmp    %edx,%eax
    47ac:	0f 84 3e 01 00 00    	je     48f0 <get_pixel_rows+0x200>
/home/tenebris/Disk/Racing-code/examples/23-libjpeg-divide-by-zero/libjpeg-turbo-2.0.90/rdgif.c:289
  if (code == sinfo->end_code) {
    47b2:	3b 83 60 01 00 00    	cmp    0x160(%rbx),%eax
    47b8:	0f 84 19 03 00 00    	je     4ad7 <get_pixel_rows+0x3e7>
/home/tenebris/Disk/Racing-code/examples/23-libjpeg-divide-by-zero/libjpeg-turbo-2.0.90/rdgif.c:304
  if (code >= sinfo->max_code) { /* special case for not-yet-defined symbol */
    47be:	89 c7                	mov    %eax,%edi
    47c0:	3b 83 6c 01 00 00    	cmp    0x16c(%rbx),%eax
    47c6:	7c 40                	jl     4808 <get_pixel_rows+0x118>
/home/tenebris/Disk/Racing-code/examples/23-libjpeg-divide-by-zero/libjpeg-turbo-2.0.90/rdgif.c:306
    if (code > sinfo->max_code) {
    47c8:	7e 18                	jle    47e2 <get_pixel_rows+0xf2>
/home/tenebris/Disk/Racing-code/examples/23-libjpeg-divide-by-zero/libjpeg-turbo-2.0.90/rdgif.c:307
      WARNMS(sinfo->cinfo, JWRN_GIF_BADDATA);
    47ca:	48 8b 7b 30          	mov    0x30(%rbx),%rdi
    47ce:	be ff ff ff ff       	mov    $0xffffffff,%esi
    47d3:	48 8b 07             	mov    (%rdi),%rax
    47d6:	c7 40 28 ff 03 00 00 	movl   $0x3ff,0x28(%rax)
    47dd:	ff 50 08             	call   *0x8(%rax)
/home/tenebris/Disk/Racing-code/examples/23-libjpeg-divide-by-zero/libjpeg-turbo-2.0.90/rdgif.c:308
      incode = 0;               /* prevent creation of loops in symbol table */
    47e0:	31 ff                	xor    %edi,%edi
/home/tenebris/Disk/Racing-code/examples/23-libjpeg-divide-by-zero/libjpeg-turbo-2.0.90/rdgif.c:311
    *(sinfo->sp++) = (UINT8)sinfo->firstcode;
    47e2:	48 8b 83 90 01 00 00 	mov    0x190(%rbx),%rax
    47e9:	8b 93 74 01 00 00    	mov    0x174(%rbx),%edx
    47ef:	48 8d 48 01          	lea    0x1(%rax),%rcx
    47f3:	48 89 8b 90 01 00 00 	mov    %rcx,0x190(%rbx)
    47fa:	88 10                	mov    %dl,(%rax)
/home/tenebris/Disk/Racing-code/examples/23-libjpeg-divide-by-zero/libjpeg-turbo-2.0.90/rdgif.c:312
    code = sinfo->oldcode;
    47fc:	8b 83 70 01 00 00    	mov    0x170(%rbx),%eax
/home/tenebris/Disk/Racing-code/examples/23-libjpeg-divide-by-zero/libjpeg-turbo-2.0.90/rdgif.c:316
  while (code >= sinfo->clear_code) {
    4802:	8b 93 5c 01 00 00    	mov    0x15c(%rbx),%edx
    4808:	39 d0                	cmp    %edx,%eax
    480a:	7c 3a                	jl     4846 <get_pixel_rows+0x156>
    480c:	0f 1f 40 00          	nopl   0x0(%rax)
/home/tenebris/Disk/Racing-code/examples/23-libjpeg-divide-by-zero/libjpeg-turbo-2.0.90/rdgif.c:317
    *(sinfo->sp++) = sinfo->symbol_tail[code]; /* tail is a byte value */
    4810:	48 8b 93 90 01 00 00 	mov    0x190(%rbx),%rdx
    4817:	48 8b 8b 80 01 00 00 	mov    0x180(%rbx),%rcx
    481e:	48 98                	cltq   
    4820:	48 01 c1             	add    %rax,%rcx
    4823:	48 8d 72 01          	lea    0x1(%rdx),%rsi
    4827:	48 89 b3 90 01 00 00 	mov    %rsi,0x190(%rbx)
    482e:	0f b6 09             	movzbl (%rcx),%ecx
    4831:	88 0a                	mov    %cl,(%rdx)
/home/tenebris/Disk/Racing-code/examples/23-libjpeg-divide-by-zero/libjpeg-turbo-2.0.90/rdgif.c:318
    code = sinfo->symbol_head[code]; /* head is another LZW symbol */
    4833:	48 8b 93 78 01 00 00 	mov    0x178(%rbx),%rdx
    483a:	0f b7 04 42          	movzwl (%rdx,%rax,2),%eax
/home/tenebris/Disk/Racing-code/examples/23-libjpeg-divide-by-zero/libjpeg-turbo-2.0.90/rdgif.c:316
  while (code >= sinfo->clear_code) {
    483e:	3b 83 5c 01 00 00    	cmp    0x15c(%rbx),%eax
    4844:	7d ca                	jge    4810 <get_pixel_rows+0x120>
/home/tenebris/Disk/Racing-code/examples/23-libjpeg-divide-by-zero/libjpeg-turbo-2.0.90/rdgif.c:324
  if ((code = sinfo->max_code) < LZW_TABLE_SIZE) {
    4846:	48 63 93 6c 01 00 00 	movslq 0x16c(%rbx),%rdx
/home/tenebris/Disk/Racing-code/examples/23-libjpeg-divide-by-zero/libjpeg-turbo-2.0.90/rdgif.c:321
  sinfo->firstcode = code;      /* save for possible future use */
    484d:	89 83 74 01 00 00    	mov    %eax,0x174(%rbx)
/home/tenebris/Disk/Racing-code/examples/23-libjpeg-divide-by-zero/libjpeg-turbo-2.0.90/rdgif.c:324
  if ((code = sinfo->max_code) < LZW_TABLE_SIZE) {
    4853:	81 fa ff 0f 00 00    	cmp    $0xfff,%edx
    4859:	7f 49                	jg     48a4 <get_pixel_rows+0x1b4>
/home/tenebris/Disk/Racing-code/examples/23-libjpeg-divide-by-zero/libjpeg-turbo-2.0.90/rdgif.c:326
    sinfo->symbol_head[code] = (UINT16)sinfo->oldcode;
    485b:	48 8b 8b 78 01 00 00 	mov    0x178(%rbx),%rcx
    4862:	8b b3 70 01 00 00    	mov    0x170(%rbx),%esi
    4868:	66 89 34 51          	mov    %si,(%rcx,%rdx,2)
/home/tenebris/Disk/Racing-code/examples/23-libjpeg-divide-by-zero/libjpeg-turbo-2.0.90/rdgif.c:327
    sinfo->symbol_tail[code] = (UINT8)sinfo->firstcode;
    486c:	48 8b 8b 80 01 00 00 	mov    0x180(%rbx),%rcx
    4873:	88 04 11             	mov    %al,(%rcx,%rdx,1)
/home/tenebris/Disk/Racing-code/examples/23-libjpeg-divide-by-zero/libjpeg-turbo-2.0.90/rdgif.c:328
    sinfo->max_code++;
    4876:	8b 83 6c 01 00 00    	mov    0x16c(%rbx),%eax
/home/tenebris/Disk/Racing-code/examples/23-libjpeg-divide-by-zero/libjpeg-turbo-2.0.90/rdgif.c:330
    if (sinfo->max_code >= sinfo->limit_code &&
    487c:	8b 93 68 01 00 00    	mov    0x168(%rbx),%edx
/home/tenebris/Disk/Racing-code/examples/23-libjpeg-divide-by-zero/libjpeg-turbo-2.0.90/rdgif.c:328
    sinfo->max_code++;
    4882:	83 c0 01             	add    $0x1,%eax
    4885:	89 83 6c 01 00 00    	mov    %eax,0x16c(%rbx)
/home/tenebris/Disk/Racing-code/examples/23-libjpeg-divide-by-zero/libjpeg-turbo-2.0.90/rdgif.c:330
    if (sinfo->max_code >= sinfo->limit_code &&
    488b:	39 d0                	cmp    %edx,%eax
    488d:	7c 0f                	jl     489e <get_pixel_rows+0x1ae>
/home/tenebris/Disk/Racing-code/examples/23-libjpeg-divide-by-zero/libjpeg-turbo-2.0.90/rdgif.c:331
        sinfo->code_size < MAX_LZW_BITS) {
    488f:	8b 83 64 01 00 00    	mov    0x164(%rbx),%eax
/home/tenebris/Disk/Racing-code/examples/23-libjpeg-divide-by-zero/libjpeg-turbo-2.0.90/rdgif.c:330
    if (sinfo->max_code >= sinfo->limit_code &&
    4895:	83 f8 0b             	cmp    $0xb,%eax
    4898:	0f 8e a7 02 00 00    	jle    4b45 <get_pixel_rows+0x455>
/home/tenebris/Disk/Racing-code/examples/23-libjpeg-divide-by-zero/libjpeg-turbo-2.0.90/rdgif.c:338
  return sinfo->firstcode;      /* return first byte of symbol's expansion */
    489e:	8b 83 74 01 00 00    	mov    0x174(%rbx),%eax
/home/tenebris/Disk/Racing-code/examples/23-libjpeg-divide-by-zero/libjpeg-turbo-2.0.90/rdgif.c:337
  sinfo->oldcode = incode;      /* save last input symbol for future use */
    48a4:	89 bb 70 01 00 00    	mov    %edi,0x170(%rbx)
get_pixel_rows():
/home/tenebris/Disk/Racing-code/examples/23-libjpeg-divide-by-zero/libjpeg-turbo-2.0.90/rdgif.c:545
    *ptr++ = colormap[CM_RED][c];
    48aa:	48 98                	cltq   
LZWReadByte():
/home/tenebris/Disk/Racing-code/examples/23-libjpeg-divide-by-zero/libjpeg-turbo-2.0.90/rdgif.c:338
  return sinfo->firstcode;      /* return first byte of symbol's expansion */
    48ac:	e9 a6 fe ff ff       	jmp    4757 <get_pixel_rows+0x67>
    48b1:	0f 1f 80 00 00 00 00 	nopl   0x0(%rax)
get_pixel_rows():
/home/tenebris/Disk/Racing-code/examples/23-libjpeg-divide-by-zero/libjpeg-turbo-2.0.90/rdgif.c:550
}
    48b8:	48 8b 84 24 18 01 00 	mov    0x118(%rsp),%rax
    48bf:	00 
    48c0:	64 48 2b 04 25 28 00 	sub    %fs:0x28,%rax
    48c7:	00 00 
    48c9:	0f 85 94 02 00 00    	jne    4b63 <get_pixel_rows+0x473>
    48cf:	48 81 c4 28 01 00 00 	add    $0x128,%rsp
    48d6:	b8 01 00 00 00       	mov    $0x1,%eax
    48db:	5b                   	pop    %rbx
    48dc:	5d                   	pop    %rbp
    48dd:	41 5c                	pop    %r12
    48df:	41 5d                	pop    %r13
    48e1:	41 5e                	pop    %r14
    48e3:	41 5f                	pop    %r15
    48e5:	c3                   	ret    
    48e6:	66 2e 0f 1f 84 00 00 	cs nopw 0x0(%rax,%rax,1)
    48ed:	00 00 00 
ReInitLZW():
/home/tenebris/Disk/Racing-code/examples/23-libjpeg-divide-by-zero/libjpeg-turbo-2.0.90/rdgif.c:183
  sinfo->limit_code = sinfo->clear_code << 1;   /* 2^code_size */
    48f0:	8d 0c 00             	lea    (%rax,%rax,1),%ecx
/home/tenebris/Disk/Racing-code/examples/23-libjpeg-divide-by-zero/libjpeg-turbo-2.0.90/rdgif.c:182
  sinfo->code_size = sinfo->input_code_size + 1;
    48f3:	8b b3 58 01 00 00    	mov    0x158(%rbx),%esi
/home/tenebris/Disk/Racing-code/examples/23-libjpeg-divide-by-zero/libjpeg-turbo-2.0.90/rdgif.c:184
  sinfo->max_code = sinfo->clear_code + 2;      /* first unused code value */
    48f9:	83 c0 02             	add    $0x2,%eax
    48fc:	89 83 6c 01 00 00    	mov    %eax,0x16c(%rbx)
/home/tenebris/Disk/Racing-code/examples/23-libjpeg-divide-by-zero/libjpeg-turbo-2.0.90/rdgif.c:185
  sinfo->sp = sinfo->symbol_stack;              /* init stack to empty */
    4902:	48 8b 83 88 01 00 00 	mov    0x188(%rbx),%rax
/home/tenebris/Disk/Racing-code/examples/23-libjpeg-divide-by-zero/libjpeg-turbo-2.0.90/rdgif.c:182
  sinfo->code_size = sinfo->input_code_size + 1;
    4909:	66 0f 6e d1          	movd   %ecx,%xmm2
    490d:	8d 56 01             	lea    0x1(%rsi),%edx
    4910:	66 0f 6e c2          	movd   %edx,%xmm0
/home/tenebris/Disk/Racing-code/examples/23-libjpeg-divide-by-zero/libjpeg-turbo-2.0.90/rdgif.c:185
  sinfo->sp = sinfo->symbol_stack;              /* init stack to empty */
    4914:	48 89 83 90 01 00 00 	mov    %rax,0x190(%rbx)
/home/tenebris/Disk/Racing-code/examples/23-libjpeg-divide-by-zero/libjpeg-turbo-2.0.90/rdgif.c:182
  sinfo->code_size = sinfo->input_code_size + 1;
    491b:	66 0f 62 c2          	punpckldq %xmm2,%xmm0
    491f:	66 0f d6 83 64 01 00 	movq   %xmm0,0x164(%rbx)
    4926:	00 
/home/tenebris/Disk/Racing-code/examples/23-libjpeg-divide-by-zero/libjpeg-turbo-2.0.90/rdgif.c:185
  sinfo->sp = sinfo->symbol_stack;              /* init stack to empty */
    4927:	66 0f 1f 84 00 00 00 	nopw   0x0(%rax,%rax,1)
    492e:	00 00 
GetCode():
/home/tenebris/Disk/Racing-code/examples/23-libjpeg-divide-by-zero/libjpeg-turbo-2.0.90/rdgif.c:218
  while (sinfo->cur_bit + sinfo->code_size > sinfo->last_bit) {
    4930:	8b 8b 4c 01 00 00    	mov    0x14c(%rbx),%ecx
    4936:	8d 3c 11             	lea    (%rcx,%rdx,1),%edi
    4939:	39 bb 48 01 00 00    	cmp    %edi,0x148(%rbx)
    493f:	7c 7f                	jl     49c0 <get_pixel_rows+0x2d0>
    4941:	e9 12 01 00 00       	jmp    4a58 <get_pixel_rows+0x368>
    4946:	66 2e 0f 1f 84 00 00 	cs nopw 0x0(%rax,%rax,1)
    494d:	00 00 00 
fread():
/usr/include/x86_64-linux-gnu/bits/stdio2.h:293
    4950:	48 8b 4b 18          	mov    0x18(%rbx),%rcx
GetDataBlock():
/home/tenebris/Disk/Racing-code/examples/23-libjpeg-divide-by-zero/libjpeg-turbo-2.0.90/rdgif.c:160
    if (!ReadOK(sinfo->pub.input_file, buf, count))
    4954:	48 63 d0             	movslq %eax,%rdx
fread():
/usr/include/x86_64-linux-gnu/bits/stdio2.h:293
    4957:	be 01 00 00 00       	mov    $0x1,%esi
    495c:	4c 89 ef             	mov    %r13,%rdi
    495f:	49 89 d7             	mov    %rdx,%r15
    4962:	e8 29 d9 ff ff       	call   2290 <fread@plt>
GetDataBlock():
/home/tenebris/Disk/Racing-code/examples/23-libjpeg-divide-by-zero/libjpeg-turbo-2.0.90/rdgif.c:160
    4967:	49 39 c7             	cmp    %rax,%r15
    496a:	74 10                	je     497c <get_pixel_rows+0x28c>
/home/tenebris/Disk/Racing-code/examples/23-libjpeg-divide-by-zero/libjpeg-turbo-2.0.90/rdgif.c:161
      ERREXIT(sinfo->cinfo, JERR_INPUT_EOF);
    496c:	48 8b 7b 30          	mov    0x30(%rbx),%rdi
    4970:	48 8b 07             	mov    (%rdi),%rax
    4973:	c7 40 28 2b 00 00 00 	movl   $0x2b,0x28(%rax)
    497a:	ff 10                	call   *(%rax)
GetCode():
/home/tenebris/Disk/Racing-code/examples/23-libjpeg-divide-by-zero/libjpeg-turbo-2.0.90/rdgif.c:240
    sinfo->last_byte = 2 + count;
    497c:	83 c5 02             	add    $0x2,%ebp
/home/tenebris/Disk/Racing-code/examples/23-libjpeg-divide-by-zero/libjpeg-turbo-2.0.90/rdgif.c:239
    sinfo->cur_bit = (sinfo->cur_bit - sinfo->last_bit) + 16;
    497f:	8b 8b 4c 01 00 00    	mov    0x14c(%rbx),%ecx
/home/tenebris/Disk/Racing-code/examples/23-libjpeg-divide-by-zero/libjpeg-turbo-2.0.90/rdgif.c:218
  while (sinfo->cur_bit + sinfo->code_size > sinfo->last_bit) {
    4985:	8b 93 64 01 00 00    	mov    0x164(%rbx),%edx
/home/tenebris/Disk/Racing-code/examples/23-libjpeg-divide-by-zero/libjpeg-turbo-2.0.90/rdgif.c:239
    sinfo->cur_bit = (sinfo->cur_bit - sinfo->last_bit) + 16;
    498b:	2b 8b 48 01 00 00    	sub    0x148(%rbx),%ecx
/home/tenebris/Disk/Racing-code/examples/23-libjpeg-divide-by-zero/libjpeg-turbo-2.0.90/rdgif.c:241
    sinfo->last_bit = sinfo->last_byte * 8;
    4991:	8d 04 ed 00 00 00 00 	lea    0x0(,%rbp,8),%eax
/home/tenebris/Disk/Racing-code/examples/23-libjpeg-divide-by-zero/libjpeg-turbo-2.0.90/rdgif.c:240
    sinfo->last_byte = 2 + count;
    4998:	66 0f 6e c5          	movd   %ebp,%xmm0
/home/tenebris/Disk/Racing-code/examples/23-libjpeg-divide-by-zero/libjpeg-turbo-2.0.90/rdgif.c:239
    sinfo->cur_bit = (sinfo->cur_bit - sinfo->last_bit) + 16;
    499c:	83 c1 10             	add    $0x10,%ecx
/home/tenebris/Disk/Racing-code/examples/23-libjpeg-divide-by-zero/libjpeg-turbo-2.0.90/rdgif.c:240
    sinfo->last_byte = 2 + count;
    499f:	66 0f 6e c8          	movd   %eax,%xmm1
    49a3:	66 0f 62 c1          	punpckldq %xmm1,%xmm0
/home/tenebris/Disk/Racing-code/examples/23-libjpeg-divide-by-zero/libjpeg-turbo-2.0.90/rdgif.c:218
  while (sinfo->cur_bit + sinfo->code_size > sinfo->last_bit) {
    49a7:	8d 3c 11             	lea    (%rcx,%rdx,1),%edi
/home/tenebris/Disk/Racing-code/examples/23-libjpeg-divide-by-zero/libjpeg-turbo-2.0.90/rdgif.c:239
    sinfo->cur_bit = (sinfo->cur_bit - sinfo->last_bit) + 16;
    49aa:	89 8b 4c 01 00 00    	mov    %ecx,0x14c(%rbx)
/home/tenebris/Disk/Racing-code/examples/23-libjpeg-divide-by-zero/libjpeg-turbo-2.0.90/rdgif.c:240
    sinfo->last_byte = 2 + count;
    49b0:	66 0f d6 83 44 01 00 	movq   %xmm0,0x144(%rbx)
    49b7:	00 
/home/tenebris/Disk/Racing-code/examples/23-libjpeg-divide-by-zero/libjpeg-turbo-2.0.90/rdgif.c:218
  while (sinfo->cur_bit + sinfo->code_size > sinfo->last_bit) {
    49b8:	39 f8                	cmp    %edi,%eax
    49ba:	0f 8d 98 00 00 00    	jge    4a58 <get_pixel_rows+0x368>
/home/tenebris/Disk/Racing-code/examples/23-libjpeg-divide-by-zero/libjpeg-turbo-2.0.90/rdgif.c:221
    if (sinfo->first_time) {
    49c0:	8b 8b 50 01 00 00    	mov    0x150(%rbx),%ecx
    49c6:	85 c9                	test   %ecx,%ecx
    49c8:	0f 85 fa 00 00 00    	jne    4ac8 <get_pixel_rows+0x3d8>
/home/tenebris/Disk/Racing-code/examples/23-libjpeg-divide-by-zero/libjpeg-turbo-2.0.90/rdgif.c:225
    if (sinfo->out_of_blocks) {
    49ce:	8b 93 54 01 00 00    	mov    0x154(%rbx),%edx
    49d4:	85 d2                	test   %edx,%edx
    49d6:	75 4d                	jne    4a25 <get_pixel_rows+0x335>
/home/tenebris/Disk/Racing-code/examples/23-libjpeg-divide-by-zero/libjpeg-turbo-2.0.90/rdgif.c:230
    sinfo->code_buf[0] = sinfo->code_buf[sinfo->last_byte-2];
    49d8:	8b 83 44 01 00 00    	mov    0x144(%rbx),%eax
ReadByte():
/home/tenebris/Disk/Racing-code/examples/23-libjpeg-divide-by-zero/libjpeg-turbo-2.0.90/rdgif.c:145
  if ((c = getc(infile)) == EOF)
    49de:	48 8b 7b 18          	mov    0x18(%rbx),%rdi
GetCode():
/home/tenebris/Disk/Racing-code/examples/23-libjpeg-divide-by-zero/libjpeg-turbo-2.0.90/rdgif.c:230
    sinfo->code_buf[0] = sinfo->code_buf[sinfo->last_byte-2];
    49e2:	8d 50 fe             	lea    -0x2(%rax),%edx
/home/tenebris/Disk/Racing-code/examples/23-libjpeg-divide-by-zero/libjpeg-turbo-2.0.90/rdgif.c:231
    sinfo->code_buf[1] = sinfo->code_buf[sinfo->last_byte-1];
    49e5:	83 e8 01             	sub    $0x1,%eax
/home/tenebris/Disk/Racing-code/examples/23-libjpeg-divide-by-zero/libjpeg-turbo-2.0.90/rdgif.c:230
    sinfo->code_buf[0] = sinfo->code_buf[sinfo->last_byte-2];
    49e8:	48 63 d2             	movslq %edx,%rdx
/home/tenebris/Disk/Racing-code/examples/23-libjpeg-divide-by-zero/libjpeg-turbo-2.0.90/rdgif.c:231
    sinfo->code_buf[1] = sinfo->code_buf[sinfo->last_byte-1];
    49eb:	48 98                	cltq   
/home/tenebris/Disk/Racing-code/examples/23-libjpeg-divide-by-zero/libjpeg-turbo-2.0.90/rdgif.c:230
    sinfo->code_buf[0] = sinfo->code_buf[sinfo->last_byte-2];
    49ed:	0f b6 54 13 40       	movzbl 0x40(%rbx,%rdx,1),%edx
    49f2:	88 53 40             	mov    %dl,0x40(%rbx)
/home/tenebris/Disk/Racing-code/examples/23-libjpeg-divide-by-zero/libjpeg-turbo-2.0.90/rdgif.c:231
    sinfo->code_buf[1] = sinfo->code_buf[sinfo->last_byte-1];
    49f5:	0f b6 44 03 40       	movzbl 0x40(%rbx,%rax,1),%eax
    49fa:	88 43 41             	mov    %al,0x41(%rbx)
ReadByte():
/home/tenebris/Disk/Racing-code/examples/23-libjpeg-divide-by-zero/libjpeg-turbo-2.0.90/rdgif.c:145
  if ((c = getc(infile)) == EOF)
    49fd:	e8 6e da ff ff       	call   2470 <getc@plt>
    4a02:	89 c5                	mov    %eax,%ebp
    4a04:	83 f8 ff             	cmp    $0xffffffff,%eax
    4a07:	0f 84 5f ff ff ff    	je     496c <get_pixel_rows+0x27c>
GetDataBlock():
/home/tenebris/Disk/Racing-code/examples/23-libjpeg-divide-by-zero/libjpeg-turbo-2.0.90/rdgif.c:159
  if (count > 0) {
    4a0d:	85 c0                	test   %eax,%eax
    4a0f:	0f 8f 3b ff ff ff    	jg     4950 <get_pixel_rows+0x260>
GetCode():
/home/tenebris/Disk/Racing-code/examples/23-libjpeg-divide-by-zero/libjpeg-turbo-2.0.90/rdgif.c:233
    if ((count = GetDataBlock(sinfo, &sinfo->code_buf[2])) == 0) {
    4a15:	0f 85 61 ff ff ff    	jne    497c <get_pixel_rows+0x28c>
/home/tenebris/Disk/Racing-code/examples/23-libjpeg-divide-by-zero/libjpeg-turbo-2.0.90/rdgif.c:234
      sinfo->out_of_blocks = TRUE;
    4a1b:	c7 83 54 01 00 00 01 	movl   $0x1,0x154(%rbx)
    4a22:	00 00 00 
/home/tenebris/Disk/Racing-code/examples/23-libjpeg-divide-by-zero/libjpeg-turbo-2.0.90/rdgif.c:235
      WARNMS(sinfo->cinfo, JWRN_GIF_NOMOREDATA);
    4a25:	48 8b 7b 30          	mov    0x30(%rbx),%rdi
    4a29:	be ff ff ff ff       	mov    $0xffffffff,%esi
    4a2e:	48 8b 07             	mov    (%rdi),%rax
    4a31:	c7 40 28 02 04 00 00 	movl   $0x402,0x28(%rax)
    4a38:	ff 50 08             	call   *0x8(%rax)
/home/tenebris/Disk/Racing-code/examples/23-libjpeg-divide-by-zero/libjpeg-turbo-2.0.90/rdgif.c:236
      return sinfo->end_code;   /* fake something useful */
    4a3b:	8b 93 60 01 00 00    	mov    0x160(%rbx),%edx
LZWReadByte():
/home/tenebris/Disk/Racing-code/examples/23-libjpeg-divide-by-zero/libjpeg-turbo-2.0.90/rdgif.c:279
    } while (code == sinfo->clear_code);
    4a41:	39 93 5c 01 00 00    	cmp    %edx,0x15c(%rbx)
    4a47:	75 61                	jne    4aaa <get_pixel_rows+0x3ba>
GetCode():
/home/tenebris/Disk/Racing-code/examples/23-libjpeg-divide-by-zero/libjpeg-turbo-2.0.90/rdgif.c:218
  while (sinfo->cur_bit + sinfo->code_size > sinfo->last_bit) {
    4a49:	8b 93 64 01 00 00    	mov    0x164(%rbx),%edx
    4a4f:	e9 dc fe ff ff       	jmp    4930 <get_pixel_rows+0x240>
    4a54:	0f 1f 40 00          	nopl   0x0(%rax)
/home/tenebris/Disk/Racing-code/examples/23-libjpeg-divide-by-zero/libjpeg-turbo-2.0.90/rdgif.c:245
  offs = sinfo->cur_bit >> 3;   /* byte containing cur_bit */
    4a58:	89 c8                	mov    %ecx,%eax
/home/tenebris/Disk/Racing-code/examples/23-libjpeg-divide-by-zero/libjpeg-turbo-2.0.90/rdgif.c:253
  accum >>= (sinfo->cur_bit & 7);
    4a5a:	83 e1 07             	and    $0x7,%ecx
/home/tenebris/Disk/Racing-code/examples/23-libjpeg-divide-by-zero/libjpeg-turbo-2.0.90/rdgif.c:245
  offs = sinfo->cur_bit >> 3;   /* byte containing cur_bit */
    4a5d:	c1 f8 03             	sar    $0x3,%eax
/home/tenebris/Disk/Racing-code/examples/23-libjpeg-divide-by-zero/libjpeg-turbo-2.0.90/rdgif.c:246
  accum = UCH(sinfo->code_buf[offs + 2]);
    4a60:	8d 70 02             	lea    0x2(%rax),%esi
    4a63:	48 63 f6             	movslq %esi,%rsi
    4a66:	44 0f b6 44 33 40    	movzbl 0x40(%rbx,%rsi,1),%r8d
/home/tenebris/Disk/Racing-code/examples/23-libjpeg-divide-by-zero/libjpeg-turbo-2.0.90/rdgif.c:248
  accum |= UCH(sinfo->code_buf[offs + 1]);
    4a6c:	8d 70 01             	lea    0x1(%rax),%esi
/home/tenebris/Disk/Racing-code/examples/23-libjpeg-divide-by-zero/libjpeg-turbo-2.0.90/rdgif.c:250
  accum |= UCH(sinfo->code_buf[offs]);
    4a6f:	48 98                	cltq   
/home/tenebris/Disk/Racing-code/examples/23-libjpeg-divide-by-zero/libjpeg-turbo-2.0.90/rdgif.c:248
  accum |= UCH(sinfo->code_buf[offs + 1]);
    4a71:	48 63 f6             	movslq %esi,%rsi
/home/tenebris/Disk/Racing-code/examples/23-libjpeg-divide-by-zero/libjpeg-turbo-2.0.90/rdgif.c:250
  accum |= UCH(sinfo->code_buf[offs]);
    4a74:	0f b6 44 03 40       	movzbl 0x40(%rbx,%rax,1),%eax
/home/tenebris/Disk/Racing-code/examples/23-libjpeg-divide-by-zero/libjpeg-turbo-2.0.90/rdgif.c:248
  accum |= UCH(sinfo->code_buf[offs + 1]);
    4a79:	0f b6 74 33 40       	movzbl 0x40(%rbx,%rsi,1),%esi
/home/tenebris/Disk/Racing-code/examples/23-libjpeg-divide-by-zero/libjpeg-turbo-2.0.90/rdgif.c:247
  accum <<= 8;
    4a7e:	41 c1 e0 08          	shl    $0x8,%r8d
/home/tenebris/Disk/Racing-code/examples/23-libjpeg-divide-by-zero/libjpeg-turbo-2.0.90/rdgif.c:254
  sinfo->cur_bit += sinfo->code_size;
    4a82:	89 bb 4c 01 00 00    	mov    %edi,0x14c(%rbx)
/home/tenebris/Disk/Racing-code/examples/23-libjpeg-divide-by-zero/libjpeg-turbo-2.0.90/rdgif.c:248
  accum |= UCH(sinfo->code_buf[offs + 1]);
    4a88:	44 09 c6             	or     %r8d,%esi
/home/tenebris/Disk/Racing-code/examples/23-libjpeg-divide-by-zero/libjpeg-turbo-2.0.90/rdgif.c:249
  accum <<= 8;
    4a8b:	c1 e6 08             	shl    $0x8,%esi
/home/tenebris/Disk/Racing-code/examples/23-libjpeg-divide-by-zero/libjpeg-turbo-2.0.90/rdgif.c:250
  accum |= UCH(sinfo->code_buf[offs]);
    4a8e:	09 f0                	or     %esi,%eax
/home/tenebris/Disk/Racing-code/examples/23-libjpeg-divide-by-zero/libjpeg-turbo-2.0.90/rdgif.c:255
  return accum & ((1 << sinfo->code_size) - 1);
    4a90:	be 01 00 00 00       	mov    $0x1,%esi
/home/tenebris/Disk/Racing-code/examples/23-libjpeg-divide-by-zero/libjpeg-turbo-2.0.90/rdgif.c:253
  accum >>= (sinfo->cur_bit & 7);
    4a95:	d3 f8                	sar    %cl,%eax
/home/tenebris/Disk/Racing-code/examples/23-libjpeg-divide-by-zero/libjpeg-turbo-2.0.90/rdgif.c:255
  return accum & ((1 << sinfo->code_size) - 1);
    4a97:	89 d1                	mov    %edx,%ecx
    4a99:	d3 e6                	shl    %cl,%esi
    4a9b:	83 ee 01             	sub    $0x1,%esi
    4a9e:	21 f0                	and    %esi,%eax
    4aa0:	89 c2                	mov    %eax,%edx
LZWReadByte():
/home/tenebris/Disk/Racing-code/examples/23-libjpeg-divide-by-zero/libjpeg-turbo-2.0.90/rdgif.c:279
    } while (code == sinfo->clear_code);
    4aa2:	39 93 5c 01 00 00    	cmp    %edx,0x15c(%rbx)
    4aa8:	74 9f                	je     4a49 <get_pixel_rows+0x359>
get_pixel_rows():
/home/tenebris/Disk/Racing-code/examples/23-libjpeg-divide-by-zero/libjpeg-turbo-2.0.90/rdgif.c:545
    *ptr++ = colormap[CM_RED][c];
    4aaa:	48 63 c2             	movslq %edx,%rax
LZWReadByte():
/home/tenebris/Disk/Racing-code/examples/23-libjpeg-divide-by-zero/libjpeg-turbo-2.0.90/rdgif.c:280
    if (code > sinfo->clear_code) { /* make sure it is a raw byte */
    4aad:	7c 77                	jl     4b26 <get_pixel_rows+0x436>
/home/tenebris/Disk/Racing-code/examples/23-libjpeg-divide-by-zero/libjpeg-turbo-2.0.90/rdgif.c:285
    sinfo->firstcode = sinfo->oldcode = code;
    4aaf:	66 0f 6e da          	movd   %edx,%xmm3
    4ab3:	66 0f 70 c3 e0       	pshufd $0xe0,%xmm3,%xmm0
    4ab8:	66 0f d6 83 70 01 00 	movq   %xmm0,0x170(%rbx)
    4abf:	00 
/home/tenebris/Disk/Racing-code/examples/23-libjpeg-divide-by-zero/libjpeg-turbo-2.0.90/rdgif.c:286
    return code;
    4ac0:	e9 92 fc ff ff       	jmp    4757 <get_pixel_rows+0x67>
    4ac5:	0f 1f 00             	nopl   (%rax)
GetCode():
/home/tenebris/Disk/Racing-code/examples/23-libjpeg-divide-by-zero/libjpeg-turbo-2.0.90/rdgif.c:222
      sinfo->first_time = FALSE;
    4ac8:	c7 83 50 01 00 00 00 	movl   $0x0,0x150(%rbx)
    4acf:	00 00 00 
LZWReadByte():
/home/tenebris/Disk/Racing-code/examples/23-libjpeg-divide-by-zero/libjpeg-turbo-2.0.90/rdgif.c:279
    } while (code == sinfo->clear_code);
    4ad2:	e9 72 ff ff ff       	jmp    4a49 <get_pixel_rows+0x359>
/home/tenebris/Disk/Racing-code/examples/23-libjpeg-divide-by-zero/libjpeg-turbo-2.0.90/rdgif.c:291
    if (!sinfo->out_of_blocks) {
    4ad7:	8b 83 54 01 00 00    	mov    0x154(%rbx),%eax
    4add:	85 c0                	test   %eax,%eax
    4adf:	75 28                	jne    4b09 <get_pixel_rows+0x419>
    4ae1:	48 8d 6c 24 10       	lea    0x10(%rsp),%rbp
    4ae6:	66 2e 0f 1f 84 00 00 	cs nopw 0x0(%rax,%rax,1)
    4aed:	00 00 00 
SkipDataBlocks():
/home/tenebris/Disk/Racing-code/examples/23-libjpeg-divide-by-zero/libjpeg-turbo-2.0.90/rdgif.c:173
  while (GetDataBlock(sinfo, buf) > 0)
    4af0:	48 89 ee             	mov    %rbp,%rsi
    4af3:	48 89 df             	mov    %rbx,%rdi
    4af6:	e8 15 f4 ff ff       	call   3f10 <GetDataBlock>
    4afb:	85 c0                	test   %eax,%eax
    4afd:	7f f1                	jg     4af0 <get_pixel_rows+0x400>
LZWReadByte():
/home/tenebris/Disk/Racing-code/examples/23-libjpeg-divide-by-zero/libjpeg-turbo-2.0.90/rdgif.c:293
      sinfo->out_of_blocks = TRUE;
    4aff:	c7 83 54 01 00 00 01 	movl   $0x1,0x154(%rbx)
    4b06:	00 00 00 
/home/tenebris/Disk/Racing-code/examples/23-libjpeg-divide-by-zero/libjpeg-turbo-2.0.90/rdgif.c:296
    WARNMS(sinfo->cinfo, JWRN_GIF_ENDCODE);
    4b09:	48 8b 7b 30          	mov    0x30(%rbx),%rdi
    4b0d:	be ff ff ff ff       	mov    $0xffffffff,%esi
    4b12:	48 8b 07             	mov    (%rdi),%rax
    4b15:	c7 40 28 01 04 00 00 	movl   $0x401,0x28(%rax)
    4b1c:	ff 50 08             	call   *0x8(%rax)
/home/tenebris/Disk/Racing-code/examples/23-libjpeg-divide-by-zero/libjpeg-turbo-2.0.90/rdgif.c:298
    return 0;                   /* fake something usable */
    4b1f:	31 c0                	xor    %eax,%eax
    4b21:	e9 31 fc ff ff       	jmp    4757 <get_pixel_rows+0x67>
/home/tenebris/Disk/Racing-code/examples/23-libjpeg-divide-by-zero/libjpeg-turbo-2.0.90/rdgif.c:281
      WARNMS(sinfo->cinfo, JWRN_GIF_BADDATA);
    4b26:	48 8b 7b 30          	mov    0x30(%rbx),%rdi
    4b2a:	be ff ff ff ff       	mov    $0xffffffff,%esi
    4b2f:	48 8b 07             	mov    (%rdi),%rax
    4b32:	c7 40 28 ff 03 00 00 	movl   $0x3ff,0x28(%rax)
    4b39:	ff 50 08             	call   *0x8(%rax)
    4b3c:	31 c0                	xor    %eax,%eax
/home/tenebris/Disk/Racing-code/examples/23-libjpeg-divide-by-zero/libjpeg-turbo-2.0.90/rdgif.c:282
      code = 0;                 /* use something valid */
    4b3e:	31 d2                	xor    %edx,%edx
    4b40:	e9 6a ff ff ff       	jmp    4aaf <get_pixel_rows+0x3bf>
/home/tenebris/Disk/Racing-code/examples/23-libjpeg-divide-by-zero/libjpeg-turbo-2.0.90/rdgif.c:332
      sinfo->code_size++;
    4b45:	83 c0 01             	add    $0x1,%eax
/home/tenebris/Disk/Racing-code/examples/23-libjpeg-divide-by-zero/libjpeg-turbo-2.0.90/rdgif.c:333
      sinfo->limit_code <<= 1;  /* keep equal to 2^code_size */
    4b48:	01 d2                	add    %edx,%edx
/home/tenebris/Disk/Racing-code/examples/23-libjpeg-divide-by-zero/libjpeg-turbo-2.0.90/rdgif.c:332
      sinfo->code_size++;
    4b4a:	66 0f 6e c0          	movd   %eax,%xmm0
    4b4e:	66 0f 6e e2          	movd   %edx,%xmm4
    4b52:	66 0f 62 c4          	punpckldq %xmm4,%xmm0
    4b56:	66 0f d6 83 64 01 00 	movq   %xmm0,0x164(%rbx)
    4b5d:	00 
    4b5e:	e9 3b fd ff ff       	jmp    489e <get_pixel_rows+0x1ae>
get_pixel_rows():
/home/tenebris/Disk/Racing-code/examples/23-libjpeg-divide-by-zero/libjpeg-turbo-2.0.90/rdgif.c:550
}
    4b63:	e8 58 d7 ff ff       	call   22c0 <__stack_chk_fail@plt>
    4b68:	0f 1f 84 00 00 00 00 	nopl   0x0(%rax,%rax,1)
    4b6f:	00 

0000000000004b70 <load_interlaced_image>:
load_interlaced_image():
/home/tenebris/Disk/Racing-code/examples/23-libjpeg-divide-by-zero/libjpeg-turbo-2.0.90/rdgif.c:561
{
    4b70:	f3 0f 1e fa          	endbr64 
    4b74:	41 57                	push   %r15
    4b76:	41 56                	push   %r14
    4b78:	49 89 f6             	mov    %rsi,%r14
    4b7b:	41 55                	push   %r13
    4b7d:	49 89 fd             	mov    %rdi,%r13
    4b80:	41 54                	push   %r12
    4b82:	55                   	push   %rbp
    4b83:	53                   	push   %rbx
    4b84:	48 81 ec 38 01 00 00 	sub    $0x138,%rsp
/home/tenebris/Disk/Racing-code/examples/23-libjpeg-divide-by-zero/libjpeg-turbo-2.0.90/rdgif.c:566
  cd_progress_ptr progress = (cd_progress_ptr)cinfo->progress;
    4b8b:	64 48 8b 04 25 28 00 	mov    %fs:0x28,%rax
    4b92:	00 00 
    4b94:	48 89 84 24 28 01 00 	mov    %rax,0x128(%rsp)
    4b9b:	00 
    4b9c:	48 8b 47 10          	mov    0x10(%rdi),%rax
    4ba0:	48 89 44 24 18       	mov    %rax,0x18(%rsp)
/home/tenebris/Disk/Racing-code/examples/23-libjpeg-divide-by-zero/libjpeg-turbo-2.0.90/rdgif.c:569
  for (row = 0; row < cinfo->image_height; row++) {
    4ba5:	8b 47 34             	mov    0x34(%rdi),%eax
    4ba8:	85 c0                	test   %eax,%eax
    4baa:	0f 84 e7 04 00 00    	je     5097 <load_interlaced_image+0x527>
    4bb0:	c7 44 24 14 00 00 00 	movl   $0x0,0x14(%rsp)
    4bb7:	00 
GetCode():
/home/tenebris/Disk/Racing-code/examples/23-libjpeg-divide-by-zero/libjpeg-turbo-2.0.90/rdgif.c:233
    if ((count = GetDataBlock(sinfo, &sinfo->code_buf[2])) == 0) {
    4bb8:	48 8d 5e 42          	lea    0x42(%rsi),%rbx
    4bbc:	0f 1f 40 00          	nopl   0x0(%rax)
load_interlaced_image():
/home/tenebris/Disk/Racing-code/examples/23-libjpeg-divide-by-zero/libjpeg-turbo-2.0.90/rdgif.c:570
    if (progress != NULL) {
    4bc0:	48 8b 74 24 18       	mov    0x18(%rsp),%rsi
    4bc5:	48 85 f6             	test   %rsi,%rsi
    4bc8:	74 1a                	je     4be4 <load_interlaced_image+0x74>
/home/tenebris/Disk/Racing-code/examples/23-libjpeg-divide-by-zero/libjpeg-turbo-2.0.90/rdgif.c:571
      progress->pub.pass_counter = (long)row;
    4bca:	8b 54 24 14          	mov    0x14(%rsp),%edx
/home/tenebris/Disk/Racing-code/examples/23-libjpeg-divide-by-zero/libjpeg-turbo-2.0.90/rdgif.c:572
      progress->pub.pass_limit = (long)cinfo->image_height;
    4bce:	66 0f 6e c0          	movd   %eax,%xmm0
/home/tenebris/Disk/Racing-code/examples/23-libjpeg-divide-by-zero/libjpeg-turbo-2.0.90/rdgif.c:573
      (*progress->pub.progress_monitor) ((j_common_ptr)cinfo);
    4bd2:	4c 89 ef             	mov    %r13,%rdi
/home/tenebris/Disk/Racing-code/examples/23-libjpeg-divide-by-zero/libjpeg-turbo-2.0.90/rdgif.c:571
      progress->pub.pass_counter = (long)row;
    4bd5:	66 48 0f 6e ca       	movq   %rdx,%xmm1
    4bda:	66 0f 6c c8          	punpcklqdq %xmm0,%xmm1
    4bde:	0f 11 4e 08          	movups %xmm1,0x8(%rsi)
/home/tenebris/Disk/Racing-code/examples/23-libjpeg-divide-by-zero/libjpeg-turbo-2.0.90/rdgif.c:573
      (*progress->pub.progress_monitor) ((j_common_ptr)cinfo);
    4be2:	ff 16                	call   *(%rsi)
/home/tenebris/Disk/Racing-code/examples/23-libjpeg-divide-by-zero/libjpeg-turbo-2.0.90/rdgif.c:575
    sptr = *(*cinfo->mem->access_virt_sarray)
    4be4:	49 8b 45 08          	mov    0x8(%r13),%rax
    4be8:	8b 54 24 14          	mov    0x14(%rsp),%edx
    4bec:	b9 01 00 00 00       	mov    $0x1,%ecx
    4bf1:	4c 89 ef             	mov    %r13,%rdi
    4bf4:	49 8b b6 a0 01 00 00 	mov    0x1a0(%r14),%rsi
    4bfb:	41 b8 01 00 00 00    	mov    $0x1,%r8d
    4c01:	ff 50 38             	call   *0x38(%rax)
/home/tenebris/Disk/Racing-code/examples/23-libjpeg-divide-by-zero/libjpeg-turbo-2.0.90/rdgif.c:578
    for (col = cinfo->image_width; col > 0; col--) {
    4c04:	45 8b 65 30          	mov    0x30(%r13),%r12d
/home/tenebris/Disk/Racing-code/examples/23-libjpeg-divide-by-zero/libjpeg-turbo-2.0.90/rdgif.c:575
    sptr = *(*cinfo->mem->access_virt_sarray)
    4c08:	48 8b 28             	mov    (%rax),%rbp
/home/tenebris/Disk/Racing-code/examples/23-libjpeg-divide-by-zero/libjpeg-turbo-2.0.90/rdgif.c:578
    for (col = cinfo->image_width; col > 0; col--) {
    4c0b:	4a 8d 74 25 00       	lea    0x0(%rbp,%r12,1),%rsi
    4c10:	48 89 74 24 08       	mov    %rsi,0x8(%rsp)
    4c15:	45 85 e4             	test   %r12d,%r12d
    4c18:	75 27                	jne    4c41 <load_interlaced_image+0xd1>
    4c1a:	e9 7c 01 00 00       	jmp    4d9b <load_interlaced_image+0x22b>
    4c1f:	90                   	nop
LZWReadByte():
/home/tenebris/Disk/Racing-code/examples/23-libjpeg-divide-by-zero/libjpeg-turbo-2.0.90/rdgif.c:268
    return (int)(*(--sinfo->sp));
    4c20:	48 8d 50 ff          	lea    -0x1(%rax),%rdx
    4c24:	49 89 96 90 01 00 00 	mov    %rdx,0x190(%r14)
    4c2b:	0f b6 40 ff          	movzbl -0x1(%rax),%eax
load_interlaced_image():
/home/tenebris/Disk/Racing-code/examples/23-libjpeg-divide-by-zero/libjpeg-turbo-2.0.90/rdgif.c:579
      *sptr++ = (JSAMPLE)LZWReadByte(source);
    4c2f:	48 83 c5 01          	add    $0x1,%rbp
    4c33:	88 45 ff             	mov    %al,-0x1(%rbp)
/home/tenebris/Disk/Racing-code/examples/23-libjpeg-divide-by-zero/libjpeg-turbo-2.0.90/rdgif.c:578
    for (col = cinfo->image_width; col > 0; col--) {
    4c36:	48 3b 6c 24 08       	cmp    0x8(%rsp),%rbp
    4c3b:	0f 84 5a 01 00 00    	je     4d9b <load_interlaced_image+0x22b>
LZWReadByte():
/home/tenebris/Disk/Racing-code/examples/23-libjpeg-divide-by-zero/libjpeg-turbo-2.0.90/rdgif.c:267
  if (sinfo->sp > sinfo->symbol_stack)
    4c41:	49 8b 86 90 01 00 00 	mov    0x190(%r14),%rax
    4c48:	49 3b 86 88 01 00 00 	cmp    0x188(%r14),%rax
    4c4f:	77 cf                	ja     4c20 <load_interlaced_image+0xb0>
/home/tenebris/Disk/Racing-code/examples/23-libjpeg-divide-by-zero/libjpeg-turbo-2.0.90/rdgif.c:271
  code = GetCode(sinfo);
    4c51:	4c 89 f7             	mov    %r14,%rdi
    4c54:	e8 e7 f8 ff ff       	call   4540 <GetCode>
/home/tenebris/Disk/Racing-code/examples/23-libjpeg-divide-by-zero/libjpeg-turbo-2.0.90/rdgif.c:273
  if (code == sinfo->clear_code) {
    4c59:	41 8b 96 5c 01 00 00 	mov    0x15c(%r14),%edx
    4c60:	39 d0                	cmp    %edx,%eax
    4c62:	0f 84 d0 01 00 00    	je     4e38 <load_interlaced_image+0x2c8>
/home/tenebris/Disk/Racing-code/examples/23-libjpeg-divide-by-zero/libjpeg-turbo-2.0.90/rdgif.c:289
  if (code == sinfo->end_code) {
    4c68:	41 3b 86 60 01 00 00 	cmp    0x160(%r14),%eax
    4c6f:	0f 84 db 03 00 00    	je     5050 <load_interlaced_image+0x4e0>
/home/tenebris/Disk/Racing-code/examples/23-libjpeg-divide-by-zero/libjpeg-turbo-2.0.90/rdgif.c:304
  if (code >= sinfo->max_code) { /* special case for not-yet-defined symbol */
    4c75:	89 c7                	mov    %eax,%edi
    4c77:	41 3b 86 6c 01 00 00 	cmp    0x16c(%r14),%eax
    4c7e:	7c 43                	jl     4cc3 <load_interlaced_image+0x153>
/home/tenebris/Disk/Racing-code/examples/23-libjpeg-divide-by-zero/libjpeg-turbo-2.0.90/rdgif.c:306
    if (code > sinfo->max_code) {
    4c80:	7e 18                	jle    4c9a <load_interlaced_image+0x12a>
/home/tenebris/Disk/Racing-code/examples/23-libjpeg-divide-by-zero/libjpeg-turbo-2.0.90/rdgif.c:307
      WARNMS(sinfo->cinfo, JWRN_GIF_BADDATA);
    4c82:	49 8b 7e 30          	mov    0x30(%r14),%rdi
    4c86:	be ff ff ff ff       	mov    $0xffffffff,%esi
    4c8b:	48 8b 07             	mov    (%rdi),%rax
    4c8e:	c7 40 28 ff 03 00 00 	movl   $0x3ff,0x28(%rax)
    4c95:	ff 50 08             	call   *0x8(%rax)
/home/tenebris/Disk/Racing-code/examples/23-libjpeg-divide-by-zero/libjpeg-turbo-2.0.90/rdgif.c:308
      incode = 0;               /* prevent creation of loops in symbol table */
    4c98:	31 ff                	xor    %edi,%edi
/home/tenebris/Disk/Racing-code/examples/23-libjpeg-divide-by-zero/libjpeg-turbo-2.0.90/rdgif.c:311
    *(sinfo->sp++) = (UINT8)sinfo->firstcode;
    4c9a:	49 8b 86 90 01 00 00 	mov    0x190(%r14),%rax
    4ca1:	41 8b 96 74 01 00 00 	mov    0x174(%r14),%edx
    4ca8:	48 8d 48 01          	lea    0x1(%rax),%rcx
    4cac:	49 89 8e 90 01 00 00 	mov    %rcx,0x190(%r14)
    4cb3:	88 10                	mov    %dl,(%rax)
/home/tenebris/Disk/Racing-code/examples/23-libjpeg-divide-by-zero/libjpeg-turbo-2.0.90/rdgif.c:312
    code = sinfo->oldcode;
    4cb5:	41 8b 86 70 01 00 00 	mov    0x170(%r14),%eax
/home/tenebris/Disk/Racing-code/examples/23-libjpeg-divide-by-zero/libjpeg-turbo-2.0.90/rdgif.c:316
  while (code >= sinfo->clear_code) {
    4cbc:	41 8b 96 5c 01 00 00 	mov    0x15c(%r14),%edx
    4cc3:	39 d0                	cmp    %edx,%eax
    4cc5:	7c 40                	jl     4d07 <load_interlaced_image+0x197>
    4cc7:	66 0f 1f 84 00 00 00 	nopw   0x0(%rax,%rax,1)
    4cce:	00 00 
/home/tenebris/Disk/Racing-code/examples/23-libjpeg-divide-by-zero/libjpeg-turbo-2.0.90/rdgif.c:317
    *(sinfo->sp++) = sinfo->symbol_tail[code]; /* tail is a byte value */
    4cd0:	49 8b 96 90 01 00 00 	mov    0x190(%r14),%rdx
    4cd7:	49 8b 8e 80 01 00 00 	mov    0x180(%r14),%rcx
    4cde:	48 98                	cltq   
    4ce0:	48 01 c1             	add    %rax,%rcx
    4ce3:	48 8d 72 01          	lea    0x1(%rdx),%rsi
    4ce7:	49 89 b6 90 01 00 00 	mov    %rsi,0x190(%r14)
    4cee:	0f b6 09             	movzbl (%rcx),%ecx
    4cf1:	88 0a                	mov    %cl,(%rdx)
/home/tenebris/Disk/Racing-code/examples/23-libjpeg-divide-by-zero/libjpeg-turbo-2.0.90/rdgif.c:318
    code = sinfo->symbol_head[code]; /* head is another LZW symbol */
    4cf3:	49 8b 96 78 01 00 00 	mov    0x178(%r14),%rdx
    4cfa:	0f b7 04 42          	movzwl (%rdx,%rax,2),%eax
/home/tenebris/Disk/Racing-code/examples/23-libjpeg-divide-by-zero/libjpeg-turbo-2.0.90/rdgif.c:316
  while (code >= sinfo->clear_code) {
    4cfe:	41 3b 86 5c 01 00 00 	cmp    0x15c(%r14),%eax
    4d05:	7d c9                	jge    4cd0 <load_interlaced_image+0x160>
/home/tenebris/Disk/Racing-code/examples/23-libjpeg-divide-by-zero/libjpeg-turbo-2.0.90/rdgif.c:324
  if ((code = sinfo->max_code) < LZW_TABLE_SIZE) {
    4d07:	49 63 96 6c 01 00 00 	movslq 0x16c(%r14),%rdx
/home/tenebris/Disk/Racing-code/examples/23-libjpeg-divide-by-zero/libjpeg-turbo-2.0.90/rdgif.c:321
  sinfo->firstcode = code;      /* save for possible future use */
    4d0e:	41 89 86 74 01 00 00 	mov    %eax,0x174(%r14)
/home/tenebris/Disk/Racing-code/examples/23-libjpeg-divide-by-zero/libjpeg-turbo-2.0.90/rdgif.c:324
  if ((code = sinfo->max_code) < LZW_TABLE_SIZE) {
    4d15:	81 fa ff 0f 00 00    	cmp    $0xfff,%edx
    4d1b:	7f 65                	jg     4d82 <load_interlaced_image+0x212>
/home/tenebris/Disk/Racing-code/examples/23-libjpeg-divide-by-zero/libjpeg-turbo-2.0.90/rdgif.c:326
    sinfo->symbol_head[code] = (UINT16)sinfo->oldcode;
    4d1d:	49 8b 8e 78 01 00 00 	mov    0x178(%r14),%rcx
    4d24:	41 8b b6 70 01 00 00 	mov    0x170(%r14),%esi
    4d2b:	66 89 34 51          	mov    %si,(%rcx,%rdx,2)
/home/tenebris/Disk/Racing-code/examples/23-libjpeg-divide-by-zero/libjpeg-turbo-2.0.90/rdgif.c:327
    sinfo->symbol_tail[code] = (UINT8)sinfo->firstcode;
    4d2f:	49 8b 8e 80 01 00 00 	mov    0x180(%r14),%rcx
    4d36:	88 04 11             	mov    %al,(%rcx,%rdx,1)
/home/tenebris/Disk/Racing-code/examples/23-libjpeg-divide-by-zero/libjpeg-turbo-2.0.90/rdgif.c:328
    sinfo->max_code++;
    4d39:	41 8b 86 6c 01 00 00 	mov    0x16c(%r14),%eax
/home/tenebris/Disk/Racing-code/examples/23-libjpeg-divide-by-zero/libjpeg-turbo-2.0.90/rdgif.c:330
    if (sinfo->max_code >= sinfo->limit_code &&
    4d40:	41 8b 96 68 01 00 00 	mov    0x168(%r14),%edx
/home/tenebris/Disk/Racing-code/examples/23-libjpeg-divide-by-zero/libjpeg-turbo-2.0.90/rdgif.c:328
    sinfo->max_code++;
    4d47:	83 c0 01             	add    $0x1,%eax
    4d4a:	41 89 86 6c 01 00 00 	mov    %eax,0x16c(%r14)
/home/tenebris/Disk/Racing-code/examples/23-libjpeg-divide-by-zero/libjpeg-turbo-2.0.90/rdgif.c:330
    if (sinfo->max_code >= sinfo->limit_code &&
    4d51:	39 d0                	cmp    %edx,%eax
    4d53:	7c 26                	jl     4d7b <load_interlaced_image+0x20b>
/home/tenebris/Disk/Racing-code/examples/23-libjpeg-divide-by-zero/libjpeg-turbo-2.0.90/rdgif.c:331
        sinfo->code_size < MAX_LZW_BITS) {
    4d55:	41 8b 86 64 01 00 00 	mov    0x164(%r14),%eax
/home/tenebris/Disk/Racing-code/examples/23-libjpeg-divide-by-zero/libjpeg-turbo-2.0.90/rdgif.c:330
    if (sinfo->max_code >= sinfo->limit_code &&
    4d5c:	83 f8 0b             	cmp    $0xb,%eax
    4d5f:	7f 1a                	jg     4d7b <load_interlaced_image+0x20b>
/home/tenebris/Disk/Racing-code/examples/23-libjpeg-divide-by-zero/libjpeg-turbo-2.0.90/rdgif.c:332
      sinfo->code_size++;
    4d61:	83 c0 01             	add    $0x1,%eax
/home/tenebris/Disk/Racing-code/examples/23-libjpeg-divide-by-zero/libjpeg-turbo-2.0.90/rdgif.c:333
      sinfo->limit_code <<= 1;  /* keep equal to 2^code_size */
    4d64:	01 d2                	add    %edx,%edx
/home/tenebris/Disk/Racing-code/examples/23-libjpeg-divide-by-zero/libjpeg-turbo-2.0.90/rdgif.c:332
      sinfo->code_size++;
    4d66:	66 0f 6e c0          	movd   %eax,%xmm0
    4d6a:	66 0f 6e ea          	movd   %edx,%xmm5
    4d6e:	66 0f 62 c5          	punpckldq %xmm5,%xmm0
    4d72:	66 41 0f d6 86 64 01 	movq   %xmm0,0x164(%r14)
    4d79:	00 00 
/home/tenebris/Disk/Racing-code/examples/23-libjpeg-divide-by-zero/libjpeg-turbo-2.0.90/rdgif.c:338
  return sinfo->firstcode;      /* return first byte of symbol's expansion */
    4d7b:	41 8b 86 74 01 00 00 	mov    0x174(%r14),%eax
load_interlaced_image():
/home/tenebris/Disk/Racing-code/examples/23-libjpeg-divide-by-zero/libjpeg-turbo-2.0.90/rdgif.c:579
      *sptr++ = (JSAMPLE)LZWReadByte(source);
    4d82:	48 83 c5 01          	add    $0x1,%rbp
LZWReadByte():
/home/tenebris/Disk/Racing-code/examples/23-libjpeg-divide-by-zero/libjpeg-turbo-2.0.90/rdgif.c:337
  sinfo->oldcode = incode;      /* save last input symbol for future use */
    4d86:	41 89 be 70 01 00 00 	mov    %edi,0x170(%r14)
load_interlaced_image():
/home/tenebris/Disk/Racing-code/examples/23-libjpeg-divide-by-zero/libjpeg-turbo-2.0.90/rdgif.c:579
      *sptr++ = (JSAMPLE)LZWReadByte(source);
    4d8d:	88 45 ff             	mov    %al,-0x1(%rbp)
/home/tenebris/Disk/Racing-code/examples/23-libjpeg-divide-by-zero/libjpeg-turbo-2.0.90/rdgif.c:578
    for (col = cinfo->image_width; col > 0; col--) {
    4d90:	48 3b 6c 24 08       	cmp    0x8(%rsp),%rbp
    4d95:	0f 85 a6 fe ff ff    	jne    4c41 <load_interlaced_image+0xd1>
/home/tenebris/Disk/Racing-code/examples/23-libjpeg-divide-by-zero/libjpeg-turbo-2.0.90/rdgif.c:569
  for (row = 0; row < cinfo->image_height; row++) {
    4d9b:	83 44 24 14 01       	addl   $0x1,0x14(%rsp)
    4da0:	41 8b 45 34          	mov    0x34(%r13),%eax
    4da4:	8b 74 24 14          	mov    0x14(%rsp),%esi
    4da8:	39 f0                	cmp    %esi,%eax
    4daa:	0f 87 10 fe ff ff    	ja     4bc0 <load_interlaced_image+0x50>
/home/tenebris/Disk/Racing-code/examples/23-libjpeg-divide-by-zero/libjpeg-turbo-2.0.90/rdgif.c:589
  source->pass2_offset = (cinfo->image_height + 7) / 8;
    4db0:	8d 48 07             	lea    0x7(%rax),%ecx
/home/tenebris/Disk/Racing-code/examples/23-libjpeg-divide-by-zero/libjpeg-turbo-2.0.90/rdgif.c:590
  source->pass3_offset = source->pass2_offset + (cinfo->image_height + 3) / 8;
    4db3:	8d 50 03             	lea    0x3(%rax),%edx
/home/tenebris/Disk/Racing-code/examples/23-libjpeg-divide-by-zero/libjpeg-turbo-2.0.90/rdgif.c:591
  source->pass4_offset = source->pass3_offset + (cinfo->image_height + 1) / 4;
    4db6:	83 c0 01             	add    $0x1,%eax
/home/tenebris/Disk/Racing-code/examples/23-libjpeg-divide-by-zero/libjpeg-turbo-2.0.90/rdgif.c:589
  source->pass2_offset = (cinfo->image_height + 7) / 8;
    4db9:	c1 e9 03             	shr    $0x3,%ecx
/home/tenebris/Disk/Racing-code/examples/23-libjpeg-divide-by-zero/libjpeg-turbo-2.0.90/rdgif.c:590
  source->pass3_offset = source->pass2_offset + (cinfo->image_height + 3) / 8;
    4dbc:	c1 ea 03             	shr    $0x3,%edx
    4dbf:	01 ca                	add    %ecx,%edx
/home/tenebris/Disk/Racing-code/examples/23-libjpeg-divide-by-zero/libjpeg-turbo-2.0.90/rdgif.c:591
  source->pass4_offset = source->pass3_offset + (cinfo->image_height + 1) / 4;
    4dc1:	c1 e8 02             	shr    $0x2,%eax
    4dc4:	01 d0                	add    %edx,%eax
/home/tenebris/Disk/Racing-code/examples/23-libjpeg-divide-by-zero/libjpeg-turbo-2.0.90/rdgif.c:582
  if (progress != NULL)
    4dc6:	48 8b 5c 24 18       	mov    0x18(%rsp),%rbx
    4dcb:	48 85 db             	test   %rbx,%rbx
    4dce:	74 04                	je     4dd4 <load_interlaced_image+0x264>
/home/tenebris/Disk/Racing-code/examples/23-libjpeg-divide-by-zero/libjpeg-turbo-2.0.90/rdgif.c:583
    progress->completed_extra_passes++;
    4dd0:	83 43 20 01          	addl   $0x1,0x20(%rbx)
/home/tenebris/Disk/Racing-code/examples/23-libjpeg-divide-by-zero/libjpeg-turbo-2.0.90/rdgif.c:586
  source->pub.get_pixel_rows = get_interlaced_row;
    4dd4:	48 8d 1d 45 ef ff ff 	lea    -0x10bb(%rip),%rbx        # 3d20 <get_interlaced_row>
/home/tenebris/Disk/Racing-code/examples/23-libjpeg-divide-by-zero/libjpeg-turbo-2.0.90/rdgif.c:589
  source->pass2_offset = (cinfo->image_height + 7) / 8;
    4ddb:	41 89 8e ac 01 00 00 	mov    %ecx,0x1ac(%r14)
/home/tenebris/Disk/Racing-code/examples/23-libjpeg-divide-by-zero/libjpeg-turbo-2.0.90/rdgif.c:586
  source->pub.get_pixel_rows = get_interlaced_row;
    4de2:	49 89 5e 08          	mov    %rbx,0x8(%r14)
/home/tenebris/Disk/Racing-code/examples/23-libjpeg-divide-by-zero/libjpeg-turbo-2.0.90/rdgif.c:588
  source->cur_row_number = 0;
    4de6:	41 c7 86 a8 01 00 00 	movl   $0x0,0x1a8(%r14)
    4ded:	00 00 00 00 
/home/tenebris/Disk/Racing-code/examples/23-libjpeg-divide-by-zero/libjpeg-turbo-2.0.90/rdgif.c:590
  source->pass3_offset = source->pass2_offset + (cinfo->image_height + 3) / 8;
    4df1:	41 89 96 b0 01 00 00 	mov    %edx,0x1b0(%r14)
/home/tenebris/Disk/Racing-code/examples/23-libjpeg-divide-by-zero/libjpeg-turbo-2.0.90/rdgif.c:591
  source->pass4_offset = source->pass3_offset + (cinfo->image_height + 1) / 4;
    4df8:	41 89 86 b4 01 00 00 	mov    %eax,0x1b4(%r14)
/home/tenebris/Disk/Racing-code/examples/23-libjpeg-divide-by-zero/libjpeg-turbo-2.0.90/rdgif.c:593
  return get_interlaced_row(cinfo, sinfo);
    4dff:	48 8b 84 24 28 01 00 	mov    0x128(%rsp),%rax
    4e06:	00 
    4e07:	64 48 2b 04 25 28 00 	sub    %fs:0x28,%rax
    4e0e:	00 00 
    4e10:	0f 85 8a 02 00 00    	jne    50a0 <load_interlaced_image+0x530>
/home/tenebris/Disk/Racing-code/examples/23-libjpeg-divide-by-zero/libjpeg-turbo-2.0.90/rdgif.c:594
}
    4e16:	48 81 c4 38 01 00 00 	add    $0x138,%rsp
/home/tenebris/Disk/Racing-code/examples/23-libjpeg-divide-by-zero/libjpeg-turbo-2.0.90/rdgif.c:593
  return get_interlaced_row(cinfo, sinfo);
    4e1d:	4c 89 f6             	mov    %r14,%rsi
    4e20:	4c 89 ef             	mov    %r13,%rdi
/home/tenebris/Disk/Racing-code/examples/23-libjpeg-divide-by-zero/libjpeg-turbo-2.0.90/rdgif.c:594
}
    4e23:	5b                   	pop    %rbx
    4e24:	5d                   	pop    %rbp
    4e25:	41 5c                	pop    %r12
    4e27:	41 5d                	pop    %r13
    4e29:	41 5e                	pop    %r14
    4e2b:	41 5f                	pop    %r15
/home/tenebris/Disk/Racing-code/examples/23-libjpeg-divide-by-zero/libjpeg-turbo-2.0.90/rdgif.c:593
  return get_interlaced_row(cinfo, sinfo);
    4e2d:	e9 ee ee ff ff       	jmp    3d20 <get_interlaced_row>
    4e32:	66 0f 1f 44 00 00    	nopw   0x0(%rax,%rax,1)
ReInitLZW():
/home/tenebris/Disk/Racing-code/examples/23-libjpeg-divide-by-zero/libjpeg-turbo-2.0.90/rdgif.c:183
  sinfo->limit_code = sinfo->clear_code << 1;   /* 2^code_size */
    4e38:	8d 0c 00             	lea    (%rax,%rax,1),%ecx
/home/tenebris/Disk/Racing-code/examples/23-libjpeg-divide-by-zero/libjpeg-turbo-2.0.90/rdgif.c:182
  sinfo->code_size = sinfo->input_code_size + 1;
    4e3b:	41 8b b6 58 01 00 00 	mov    0x158(%r14),%esi
/home/tenebris/Disk/Racing-code/examples/23-libjpeg-divide-by-zero/libjpeg-turbo-2.0.90/rdgif.c:184
  sinfo->max_code = sinfo->clear_code + 2;      /* first unused code value */
    4e42:	83 c0 02             	add    $0x2,%eax
    4e45:	41 89 86 6c 01 00 00 	mov    %eax,0x16c(%r14)
/home/tenebris/Disk/Racing-code/examples/23-libjpeg-divide-by-zero/libjpeg-turbo-2.0.90/rdgif.c:185
  sinfo->sp = sinfo->symbol_stack;              /* init stack to empty */
    4e4c:	49 8b 86 88 01 00 00 	mov    0x188(%r14),%rax
/home/tenebris/Disk/Racing-code/examples/23-libjpeg-divide-by-zero/libjpeg-turbo-2.0.90/rdgif.c:182
  sinfo->code_size = sinfo->input_code_size + 1;
    4e53:	66 0f 6e d9          	movd   %ecx,%xmm3
    4e57:	8d 56 01             	lea    0x1(%rsi),%edx
    4e5a:	66 0f 6e c2          	movd   %edx,%xmm0
/home/tenebris/Disk/Racing-code/examples/23-libjpeg-divide-by-zero/libjpeg-turbo-2.0.90/rdgif.c:185
  sinfo->sp = sinfo->symbol_stack;              /* init stack to empty */
    4e5e:	49 89 86 90 01 00 00 	mov    %rax,0x190(%r14)
/home/tenebris/Disk/Racing-code/examples/23-libjpeg-divide-by-zero/libjpeg-turbo-2.0.90/rdgif.c:182
  sinfo->code_size = sinfo->input_code_size + 1;
    4e65:	66 0f 62 c3          	punpckldq %xmm3,%xmm0
    4e69:	66 41 0f d6 86 64 01 	movq   %xmm0,0x164(%r14)
    4e70:	00 00 
/home/tenebris/Disk/Racing-code/examples/23-libjpeg-divide-by-zero/libjpeg-turbo-2.0.90/rdgif.c:185
  sinfo->sp = sinfo->symbol_stack;              /* init stack to empty */
    4e72:	66 0f 1f 44 00 00    	nopw   0x0(%rax,%rax,1)
GetCode():
/home/tenebris/Disk/Racing-code/examples/23-libjpeg-divide-by-zero/libjpeg-turbo-2.0.90/rdgif.c:218
  while (sinfo->cur_bit + sinfo->code_size > sinfo->last_bit) {
    4e78:	41 8b 8e 4c 01 00 00 	mov    0x14c(%r14),%ecx
    4e7f:	8d 34 11             	lea    (%rcx,%rdx,1),%esi
    4e82:	41 3b b6 48 01 00 00 	cmp    0x148(%r14),%esi
    4e89:	7f 7d                	jg     4f08 <load_interlaced_image+0x398>
    4e8b:	e9 20 01 00 00       	jmp    4fb0 <load_interlaced_image+0x440>
fread():
/usr/include/x86_64-linux-gnu/bits/stdio2.h:293
    4e90:	49 8b 4e 18          	mov    0x18(%r14),%rcx
GetDataBlock():
/home/tenebris/Disk/Racing-code/examples/23-libjpeg-divide-by-zero/libjpeg-turbo-2.0.90/rdgif.c:160
    if (!ReadOK(sinfo->pub.input_file, buf, count))
    4e94:	48 63 d0             	movslq %eax,%rdx
fread():
/usr/include/x86_64-linux-gnu/bits/stdio2.h:293
    4e97:	be 01 00 00 00       	mov    $0x1,%esi
    4e9c:	48 89 df             	mov    %rbx,%rdi
    4e9f:	49 89 d4             	mov    %rdx,%r12
    4ea2:	e8 e9 d3 ff ff       	call   2290 <fread@plt>
GetDataBlock():
/home/tenebris/Disk/Racing-code/examples/23-libjpeg-divide-by-zero/libjpeg-turbo-2.0.90/rdgif.c:160
    4ea7:	49 39 c4             	cmp    %rax,%r12
    4eaa:	74 10                	je     4ebc <load_interlaced_image+0x34c>
/home/tenebris/Disk/Racing-code/examples/23-libjpeg-divide-by-zero/libjpeg-turbo-2.0.90/rdgif.c:161
      ERREXIT(sinfo->cinfo, JERR_INPUT_EOF);
    4eac:	49 8b 7e 30          	mov    0x30(%r14),%rdi
    4eb0:	48 8b 07             	mov    (%rdi),%rax
    4eb3:	c7 40 28 2b 00 00 00 	movl   $0x2b,0x28(%rax)
    4eba:	ff 10                	call   *(%rax)
GetCode():
/home/tenebris/Disk/Racing-code/examples/23-libjpeg-divide-by-zero/libjpeg-turbo-2.0.90/rdgif.c:240
    sinfo->last_byte = 2 + count;
    4ebc:	41 83 c7 02          	add    $0x2,%r15d
/home/tenebris/Disk/Racing-code/examples/23-libjpeg-divide-by-zero/libjpeg-turbo-2.0.90/rdgif.c:239
    sinfo->cur_bit = (sinfo->cur_bit - sinfo->last_bit) + 16;
    4ec0:	41 8b 8e 4c 01 00 00 	mov    0x14c(%r14),%ecx
/home/tenebris/Disk/Racing-code/examples/23-libjpeg-divide-by-zero/libjpeg-turbo-2.0.90/rdgif.c:218
  while (sinfo->cur_bit + sinfo->code_size > sinfo->last_bit) {
    4ec7:	41 8b 96 64 01 00 00 	mov    0x164(%r14),%edx
/home/tenebris/Disk/Racing-code/examples/23-libjpeg-divide-by-zero/libjpeg-turbo-2.0.90/rdgif.c:239
    sinfo->cur_bit = (sinfo->cur_bit - sinfo->last_bit) + 16;
    4ece:	41 2b 8e 48 01 00 00 	sub    0x148(%r14),%ecx
/home/tenebris/Disk/Racing-code/examples/23-libjpeg-divide-by-zero/libjpeg-turbo-2.0.90/rdgif.c:241
    sinfo->last_bit = sinfo->last_byte * 8;
    4ed5:	42 8d 04 fd 00 00 00 	lea    0x0(,%r15,8),%eax
    4edc:	00 
/home/tenebris/Disk/Racing-code/examples/23-libjpeg-divide-by-zero/libjpeg-turbo-2.0.90/rdgif.c:240
    sinfo->last_byte = 2 + count;
    4edd:	66 41 0f 6e c7       	movd   %r15d,%xmm0
/home/tenebris/Disk/Racing-code/examples/23-libjpeg-divide-by-zero/libjpeg-turbo-2.0.90/rdgif.c:239
    sinfo->cur_bit = (sinfo->cur_bit - sinfo->last_bit) + 16;
    4ee2:	83 c1 10             	add    $0x10,%ecx
/home/tenebris/Disk/Racing-code/examples/23-libjpeg-divide-by-zero/libjpeg-turbo-2.0.90/rdgif.c:240
    sinfo->last_byte = 2 + count;
    4ee5:	66 0f 6e d0          	movd   %eax,%xmm2
    4ee9:	66 0f 62 c2          	punpckldq %xmm2,%xmm0
/home/tenebris/Disk/Racing-code/examples/23-libjpeg-divide-by-zero/libjpeg-turbo-2.0.90/rdgif.c:218
  while (sinfo->cur_bit + sinfo->code_size > sinfo->last_bit) {
    4eed:	8d 34 11             	lea    (%rcx,%rdx,1),%esi
/home/tenebris/Disk/Racing-code/examples/23-libjpeg-divide-by-zero/libjpeg-turbo-2.0.90/rdgif.c:239
    sinfo->cur_bit = (sinfo->cur_bit - sinfo->last_bit) + 16;
    4ef0:	41 89 8e 4c 01 00 00 	mov    %ecx,0x14c(%r14)
/home/tenebris/Disk/Racing-code/examples/23-libjpeg-divide-by-zero/libjpeg-turbo-2.0.90/rdgif.c:240
    sinfo->last_byte = 2 + count;
    4ef7:	66 41 0f d6 86 44 01 	movq   %xmm0,0x144(%r14)
    4efe:	00 00 
/home/tenebris/Disk/Racing-code/examples/23-libjpeg-divide-by-zero/libjpeg-turbo-2.0.90/rdgif.c:218
  while (sinfo->cur_bit + sinfo->code_size > sinfo->last_bit) {
    4f00:	39 f0                	cmp    %esi,%eax
    4f02:	0f 8d a8 00 00 00    	jge    4fb0 <load_interlaced_image+0x440>
/home/tenebris/Disk/Racing-code/examples/23-libjpeg-divide-by-zero/libjpeg-turbo-2.0.90/rdgif.c:221
    if (sinfo->first_time) {
    4f08:	41 8b 8e 50 01 00 00 	mov    0x150(%r14),%ecx
    4f0f:	85 c9                	test   %ecx,%ecx
    4f11:	0f 85 29 01 00 00    	jne    5040 <load_interlaced_image+0x4d0>
/home/tenebris/Disk/Racing-code/examples/23-libjpeg-divide-by-zero/libjpeg-turbo-2.0.90/rdgif.c:225
    if (sinfo->out_of_blocks) {
    4f17:	41 8b 96 54 01 00 00 	mov    0x154(%r14),%edx
    4f1e:	85 d2                	test   %edx,%edx
    4f20:	75 54                	jne    4f76 <load_interlaced_image+0x406>
/home/tenebris/Disk/Racing-code/examples/23-libjpeg-divide-by-zero/libjpeg-turbo-2.0.90/rdgif.c:230
    sinfo->code_buf[0] = sinfo->code_buf[sinfo->last_byte-2];
    4f22:	41 8b 86 44 01 00 00 	mov    0x144(%r14),%eax
ReadByte():
/home/tenebris/Disk/Racing-code/examples/23-libjpeg-divide-by-zero/libjpeg-turbo-2.0.90/rdgif.c:145
  if ((c = getc(infile)) == EOF)
    4f29:	49 8b 7e 18          	mov    0x18(%r14),%rdi
GetCode():
/home/tenebris/Disk/Racing-code/examples/23-libjpeg-divide-by-zero/libjpeg-turbo-2.0.90/rdgif.c:230
    sinfo->code_buf[0] = sinfo->code_buf[sinfo->last_byte-2];
    4f2d:	8d 50 fe             	lea    -0x2(%rax),%edx
/home/tenebris/Disk/Racing-code/examples/23-libjpeg-divide-by-zero/libjpeg-turbo-2.0.90/rdgif.c:231
    sinfo->code_buf[1] = sinfo->code_buf[sinfo->last_byte-1];
    4f30:	83 e8 01             	sub    $0x1,%eax
/home/tenebris/Disk/Racing-code/examples/23-libjpeg-divide-by-zero/libjpeg-turbo-2.0.90/rdgif.c:230
    sinfo->code_buf[0] = sinfo->code_buf[sinfo->last_byte-2];
    4f33:	48 63 d2             	movslq %edx,%rdx
/home/tenebris/Disk/Racing-code/examples/23-libjpeg-divide-by-zero/libjpeg-turbo-2.0.90/rdgif.c:231
    sinfo->code_buf[1] = sinfo->code_buf[sinfo->last_byte-1];
    4f36:	48 98                	cltq   
/home/tenebris/Disk/Racing-code/examples/23-libjpeg-divide-by-zero/libjpeg-turbo-2.0.90/rdgif.c:230
    sinfo->code_buf[0] = sinfo->code_buf[sinfo->last_byte-2];
    4f38:	41 0f b6 54 16 40    	movzbl 0x40(%r14,%rdx,1),%edx
    4f3e:	41 88 56 40          	mov    %dl,0x40(%r14)
/home/tenebris/Disk/Racing-code/examples/23-libjpeg-divide-by-zero/libjpeg-turbo-2.0.90/rdgif.c:231
    sinfo->code_buf[1] = sinfo->code_buf[sinfo->last_byte-1];
    4f42:	41 0f b6 44 06 40    	movzbl 0x40(%r14,%rax,1),%eax
    4f48:	41 88 46 41          	mov    %al,0x41(%r14)
ReadByte():
/home/tenebris/Disk/Racing-code/examples/23-libjpeg-divide-by-zero/libjpeg-turbo-2.0.90/rdgif.c:145
  if ((c = getc(infile)) == EOF)
    4f4c:	e8 1f d5 ff ff       	call   2470 <getc@plt>
    4f51:	41 89 c7             	mov    %eax,%r15d
    4f54:	83 f8 ff             	cmp    $0xffffffff,%eax
    4f57:	0f 84 4f ff ff ff    	je     4eac <load_interlaced_image+0x33c>
GetDataBlock():
/home/tenebris/Disk/Racing-code/examples/23-libjpeg-divide-by-zero/libjpeg-turbo-2.0.90/rdgif.c:159
  if (count > 0) {
    4f5d:	85 c0                	test   %eax,%eax
    4f5f:	0f 8f 2b ff ff ff    	jg     4e90 <load_interlaced_image+0x320>
GetCode():
/home/tenebris/Disk/Racing-code/examples/23-libjpeg-divide-by-zero/libjpeg-turbo-2.0.90/rdgif.c:233
    if ((count = GetDataBlock(sinfo, &sinfo->code_buf[2])) == 0) {
    4f65:	0f 85 51 ff ff ff    	jne    4ebc <load_interlaced_image+0x34c>
/home/tenebris/Disk/Racing-code/examples/23-libjpeg-divide-by-zero/libjpeg-turbo-2.0.90/rdgif.c:234
      sinfo->out_of_blocks = TRUE;
    4f6b:	41 c7 86 54 01 00 00 	movl   $0x1,0x154(%r14)
    4f72:	01 00 00 00 
/home/tenebris/Disk/Racing-code/examples/23-libjpeg-divide-by-zero/libjpeg-turbo-2.0.90/rdgif.c:235
      WARNMS(sinfo->cinfo, JWRN_GIF_NOMOREDATA);
    4f76:	49 8b 7e 30          	mov    0x30(%r14),%rdi
    4f7a:	be ff ff ff ff       	mov    $0xffffffff,%esi
    4f7f:	48 8b 07             	mov    (%rdi),%rax
    4f82:	c7 40 28 02 04 00 00 	movl   $0x402,0x28(%rax)
    4f89:	ff 50 08             	call   *0x8(%rax)
/home/tenebris/Disk/Racing-code/examples/23-libjpeg-divide-by-zero/libjpeg-turbo-2.0.90/rdgif.c:236
      return sinfo->end_code;   /* fake something useful */
    4f8c:	41 8b 96 60 01 00 00 	mov    0x160(%r14),%edx
LZWReadByte():
/home/tenebris/Disk/Racing-code/examples/23-libjpeg-divide-by-zero/libjpeg-turbo-2.0.90/rdgif.c:279
    } while (code == sinfo->clear_code);
    4f93:	41 39 96 5c 01 00 00 	cmp    %edx,0x15c(%r14)
    4f9a:	75 6a                	jne    5006 <load_interlaced_image+0x496>
GetCode():
/home/tenebris/Disk/Racing-code/examples/23-libjpeg-divide-by-zero/libjpeg-turbo-2.0.90/rdgif.c:218
  while (sinfo->cur_bit + sinfo->code_size > sinfo->last_bit) {
    4f9c:	41 8b 96 64 01 00 00 	mov    0x164(%r14),%edx
    4fa3:	e9 d0 fe ff ff       	jmp    4e78 <load_interlaced_image+0x308>
    4fa8:	0f 1f 84 00 00 00 00 	nopl   0x0(%rax,%rax,1)
    4faf:	00 
/home/tenebris/Disk/Racing-code/examples/23-libjpeg-divide-by-zero/libjpeg-turbo-2.0.90/rdgif.c:245
  offs = sinfo->cur_bit >> 3;   /* byte containing cur_bit */
    4fb0:	89 c8                	mov    %ecx,%eax
/home/tenebris/Disk/Racing-code/examples/23-libjpeg-divide-by-zero/libjpeg-turbo-2.0.90/rdgif.c:253
  accum >>= (sinfo->cur_bit & 7);
    4fb2:	83 e1 07             	and    $0x7,%ecx
/home/tenebris/Disk/Racing-code/examples/23-libjpeg-divide-by-zero/libjpeg-turbo-2.0.90/rdgif.c:245
  offs = sinfo->cur_bit >> 3;   /* byte containing cur_bit */
    4fb5:	c1 f8 03             	sar    $0x3,%eax
/home/tenebris/Disk/Racing-code/examples/23-libjpeg-divide-by-zero/libjpeg-turbo-2.0.90/rdgif.c:246
  accum = UCH(sinfo->code_buf[offs + 2]);
    4fb8:	8d 78 02             	lea    0x2(%rax),%edi
    4fbb:	48 63 ff             	movslq %edi,%rdi
    4fbe:	45 0f b6 44 3e 40    	movzbl 0x40(%r14,%rdi,1),%r8d
/home/tenebris/Disk/Racing-code/examples/23-libjpeg-divide-by-zero/libjpeg-turbo-2.0.90/rdgif.c:248
  accum |= UCH(sinfo->code_buf[offs + 1]);
    4fc4:	8d 78 01             	lea    0x1(%rax),%edi
/home/tenebris/Disk/Racing-code/examples/23-libjpeg-divide-by-zero/libjpeg-turbo-2.0.90/rdgif.c:250
  accum |= UCH(sinfo->code_buf[offs]);
    4fc7:	48 98                	cltq   
/home/tenebris/Disk/Racing-code/examples/23-libjpeg-divide-by-zero/libjpeg-turbo-2.0.90/rdgif.c:248
  accum |= UCH(sinfo->code_buf[offs + 1]);
    4fc9:	48 63 ff             	movslq %edi,%rdi
/home/tenebris/Disk/Racing-code/examples/23-libjpeg-divide-by-zero/libjpeg-turbo-2.0.90/rdgif.c:250
  accum |= UCH(sinfo->code_buf[offs]);
    4fcc:	41 0f b6 44 06 40    	movzbl 0x40(%r14,%rax,1),%eax
/home/tenebris/Disk/Racing-code/examples/23-libjpeg-divide-by-zero/libjpeg-turbo-2.0.90/rdgif.c:248
  accum |= UCH(sinfo->code_buf[offs + 1]);
    4fd2:	41 0f b6 7c 3e 40    	movzbl 0x40(%r14,%rdi,1),%edi
/home/tenebris/Disk/Racing-code/examples/23-libjpeg-divide-by-zero/libjpeg-turbo-2.0.90/rdgif.c:247
  accum <<= 8;
    4fd8:	41 c1 e0 08          	shl    $0x8,%r8d
/home/tenebris/Disk/Racing-code/examples/23-libjpeg-divide-by-zero/libjpeg-turbo-2.0.90/rdgif.c:254
  sinfo->cur_bit += sinfo->code_size;
    4fdc:	41 89 b6 4c 01 00 00 	mov    %esi,0x14c(%r14)
/home/tenebris/Disk/Racing-code/examples/23-libjpeg-divide-by-zero/libjpeg-turbo-2.0.90/rdgif.c:255
  return accum & ((1 << sinfo->code_size) - 1);
    4fe3:	be 01 00 00 00       	mov    $0x1,%esi
/home/tenebris/Disk/Racing-code/examples/23-libjpeg-divide-by-zero/libjpeg-turbo-2.0.90/rdgif.c:248
  accum |= UCH(sinfo->code_buf[offs + 1]);
    4fe8:	44 09 c7             	or     %r8d,%edi
/home/tenebris/Disk/Racing-code/examples/23-libjpeg-divide-by-zero/libjpeg-turbo-2.0.90/rdgif.c:249
  accum <<= 8;
    4feb:	c1 e7 08             	shl    $0x8,%edi
/home/tenebris/Disk/Racing-code/examples/23-libjpeg-divide-by-zero/libjpeg-turbo-2.0.90/rdgif.c:250
  accum |= UCH(sinfo->code_buf[offs]);
    4fee:	09 f8                	or     %edi,%eax
/home/tenebris/Disk/Racing-code/examples/23-libjpeg-divide-by-zero/libjpeg-turbo-2.0.90/rdgif.c:253
  accum >>= (sinfo->cur_bit & 7);
    4ff0:	d3 f8                	sar    %cl,%eax
/home/tenebris/Disk/Racing-code/examples/23-libjpeg-divide-by-zero/libjpeg-turbo-2.0.90/rdgif.c:255
  return accum & ((1 << sinfo->code_size) - 1);
    4ff2:	89 d1                	mov    %edx,%ecx
    4ff4:	d3 e6                	shl    %cl,%esi
    4ff6:	83 ee 01             	sub    $0x1,%esi
    4ff9:	21 f0                	and    %esi,%eax
    4ffb:	89 c2                	mov    %eax,%edx
LZWReadByte():
/home/tenebris/Disk/Racing-code/examples/23-libjpeg-divide-by-zero/libjpeg-turbo-2.0.90/rdgif.c:279
    } while (code == sinfo->clear_code);
    4ffd:	41 39 96 5c 01 00 00 	cmp    %edx,0x15c(%r14)
    5004:	74 96                	je     4f9c <load_interlaced_image+0x42c>
load_interlaced_image():
/home/tenebris/Disk/Racing-code/examples/23-libjpeg-divide-by-zero/libjpeg-turbo-2.0.90/rdgif.c:579
      *sptr++ = (JSAMPLE)LZWReadByte(source);
    5006:	89 d0                	mov    %edx,%eax
LZWReadByte():
/home/tenebris/Disk/Racing-code/examples/23-libjpeg-divide-by-zero/libjpeg-turbo-2.0.90/rdgif.c:280
    if (code > sinfo->clear_code) { /* make sure it is a raw byte */
    5008:	7d 1a                	jge    5024 <load_interlaced_image+0x4b4>
/home/tenebris/Disk/Racing-code/examples/23-libjpeg-divide-by-zero/libjpeg-turbo-2.0.90/rdgif.c:281
      WARNMS(sinfo->cinfo, JWRN_GIF_BADDATA);
    500a:	49 8b 7e 30          	mov    0x30(%r14),%rdi
    500e:	be ff ff ff ff       	mov    $0xffffffff,%esi
    5013:	48 8b 07             	mov    (%rdi),%rax
    5016:	c7 40 28 ff 03 00 00 	movl   $0x3ff,0x28(%rax)
    501d:	ff 50 08             	call   *0x8(%rax)
    5020:	31 c0                	xor    %eax,%eax
/home/tenebris/Disk/Racing-code/examples/23-libjpeg-divide-by-zero/libjpeg-turbo-2.0.90/rdgif.c:282
      code = 0;                 /* use something valid */
    5022:	31 d2                	xor    %edx,%edx
/home/tenebris/Disk/Racing-code/examples/23-libjpeg-divide-by-zero/libjpeg-turbo-2.0.90/rdgif.c:285
    sinfo->firstcode = sinfo->oldcode = code;
    5024:	66 0f 6e e2          	movd   %edx,%xmm4
    5028:	66 0f 70 c4 e0       	pshufd $0xe0,%xmm4,%xmm0
    502d:	66 41 0f d6 86 70 01 	movq   %xmm0,0x170(%r14)
    5034:	00 00 
/home/tenebris/Disk/Racing-code/examples/23-libjpeg-divide-by-zero/libjpeg-turbo-2.0.90/rdgif.c:286
    return code;
    5036:	e9 f4 fb ff ff       	jmp    4c2f <load_interlaced_image+0xbf>
    503b:	0f 1f 44 00 00       	nopl   0x0(%rax,%rax,1)
GetCode():
/home/tenebris/Disk/Racing-code/examples/23-libjpeg-divide-by-zero/libjpeg-turbo-2.0.90/rdgif.c:222
      sinfo->first_time = FALSE;
    5040:	41 c7 86 50 01 00 00 	movl   $0x0,0x150(%r14)
    5047:	00 00 00 00 
LZWReadByte():
/home/tenebris/Disk/Racing-code/examples/23-libjpeg-divide-by-zero/libjpeg-turbo-2.0.90/rdgif.c:279
    } while (code == sinfo->clear_code);
    504b:	e9 4c ff ff ff       	jmp    4f9c <load_interlaced_image+0x42c>
/home/tenebris/Disk/Racing-code/examples/23-libjpeg-divide-by-zero/libjpeg-turbo-2.0.90/rdgif.c:291
    if (!sinfo->out_of_blocks) {
    5050:	41 8b 86 54 01 00 00 	mov    0x154(%r14),%eax
    5057:	85 c0                	test   %eax,%eax
    5059:	75 1f                	jne    507a <load_interlaced_image+0x50a>
    505b:	4c 8d 7c 24 20       	lea    0x20(%rsp),%r15
SkipDataBlocks():
/home/tenebris/Disk/Racing-code/examples/23-libjpeg-divide-by-zero/libjpeg-turbo-2.0.90/rdgif.c:173
  while (GetDataBlock(sinfo, buf) > 0)
    5060:	4c 89 fe             	mov    %r15,%rsi
    5063:	4c 89 f7             	mov    %r14,%rdi
    5066:	e8 a5 ee ff ff       	call   3f10 <GetDataBlock>
    506b:	85 c0                	test   %eax,%eax
    506d:	7f f1                	jg     5060 <load_interlaced_image+0x4f0>
LZWReadByte():
/home/tenebris/Disk/Racing-code/examples/23-libjpeg-divide-by-zero/libjpeg-turbo-2.0.90/rdgif.c:293
      sinfo->out_of_blocks = TRUE;
    506f:	41 c7 86 54 01 00 00 	movl   $0x1,0x154(%r14)
    5076:	01 00 00 00 
/home/tenebris/Disk/Racing-code/examples/23-libjpeg-divide-by-zero/libjpeg-turbo-2.0.90/rdgif.c:296
    WARNMS(sinfo->cinfo, JWRN_GIF_ENDCODE);
    507a:	49 8b 7e 30          	mov    0x30(%r14),%rdi
    507e:	be ff ff ff ff       	mov    $0xffffffff,%esi
    5083:	48 8b 07             	mov    (%rdi),%rax
    5086:	c7 40 28 01 04 00 00 	movl   $0x401,0x28(%rax)
    508d:	ff 50 08             	call   *0x8(%rax)
/home/tenebris/Disk/Racing-code/examples/23-libjpeg-divide-by-zero/libjpeg-turbo-2.0.90/rdgif.c:298
    return 0;                   /* fake something usable */
    5090:	31 c0                	xor    %eax,%eax
    5092:	e9 98 fb ff ff       	jmp    4c2f <load_interlaced_image+0xbf>
load_interlaced_image():
/home/tenebris/Disk/Racing-code/examples/23-libjpeg-divide-by-zero/libjpeg-turbo-2.0.90/rdgif.c:569
  for (row = 0; row < cinfo->image_height; row++) {
    5097:	31 d2                	xor    %edx,%edx
    5099:	31 c9                	xor    %ecx,%ecx
    509b:	e9 26 fd ff ff       	jmp    4dc6 <load_interlaced_image+0x256>
/home/tenebris/Disk/Racing-code/examples/23-libjpeg-divide-by-zero/libjpeg-turbo-2.0.90/rdgif.c:593
  return get_interlaced_row(cinfo, sinfo);
    50a0:	e8 1b d2 ff ff       	call   22c0 <__stack_chk_fail@plt>
    50a5:	66 66 2e 0f 1f 84 00 	data16 cs nopw 0x0(%rax,%rax,1)
    50ac:	00 00 00 00 

00000000000050b0 <jinit_read_gif>:
jinit_read_gif():
/home/tenebris/Disk/Racing-code/examples/23-libjpeg-divide-by-zero/libjpeg-turbo-2.0.90/rdgif.c:661
 * The module selection routine for GIF format input.
 */

GLOBAL(cjpeg_source_ptr)
jinit_read_gif(j_compress_ptr cinfo)
{
    50b0:	f3 0f 1e fa          	endbr64 
/home/tenebris/Disk/Racing-code/examples/23-libjpeg-divide-by-zero/libjpeg-turbo-2.0.90/rdgif.c:666
  gif_source_ptr source;

  /* Create module interface object */
  source = (gif_source_ptr)
    (*cinfo->mem->alloc_small) ((j_common_ptr)cinfo, JPOOL_IMAGE,
    50b4:	48 8b 47 08          	mov    0x8(%rdi),%rax
/home/tenebris/Disk/Racing-code/examples/23-libjpeg-divide-by-zero/libjpeg-turbo-2.0.90/rdgif.c:661
{
    50b8:	53                   	push   %rbx
/home/tenebris/Disk/Racing-code/examples/23-libjpeg-divide-by-zero/libjpeg-turbo-2.0.90/rdgif.c:666
    (*cinfo->mem->alloc_small) ((j_common_ptr)cinfo, JPOOL_IMAGE,
    50b9:	ba b8 01 00 00       	mov    $0x1b8,%edx
/home/tenebris/Disk/Racing-code/examples/23-libjpeg-divide-by-zero/libjpeg-turbo-2.0.90/rdgif.c:661
{
    50be:	48 89 fb             	mov    %rdi,%rbx
/home/tenebris/Disk/Racing-code/examples/23-libjpeg-divide-by-zero/libjpeg-turbo-2.0.90/rdgif.c:666
    (*cinfo->mem->alloc_small) ((j_common_ptr)cinfo, JPOOL_IMAGE,
    50c1:	be 01 00 00 00       	mov    $0x1,%esi
    50c6:	ff 10                	call   *(%rax)
/home/tenebris/Disk/Racing-code/examples/23-libjpeg-divide-by-zero/libjpeg-turbo-2.0.90/rdgif.c:670
                                sizeof(gif_source_struct));
  source->cinfo = cinfo;        /* make back link for subroutines */
  /* Fill in method ptrs, except get_pixel_rows which start_input sets */
  source->pub.start_input = start_input_gif;
    50c8:	48 8d 0d 91 ef ff ff 	lea    -0x106f(%rip),%rcx        # 4060 <start_input_gif>
/home/tenebris/Disk/Racing-code/examples/23-libjpeg-divide-by-zero/libjpeg-turbo-2.0.90/rdgif.c:671
  source->pub.finish_input = finish_input_gif;
    50cf:	48 8d 15 5a ed ff ff 	lea    -0x12a6(%rip),%rdx        # 3e30 <finish_input_gif>
/home/tenebris/Disk/Racing-code/examples/23-libjpeg-divide-by-zero/libjpeg-turbo-2.0.90/rdgif.c:668
  source->cinfo = cinfo;        /* make back link for subroutines */
    50d6:	48 89 58 30          	mov    %rbx,0x30(%rax)
/home/tenebris/Disk/Racing-code/examples/23-libjpeg-divide-by-zero/libjpeg-turbo-2.0.90/rdgif.c:670
  source->pub.start_input = start_input_gif;
    50da:	48 89 08             	mov    %rcx,(%rax)
/home/tenebris/Disk/Racing-code/examples/23-libjpeg-divide-by-zero/libjpeg-turbo-2.0.90/rdgif.c:671
  source->pub.finish_input = finish_input_gif;
    50dd:	48 89 50 10          	mov    %rdx,0x10(%rax)
/home/tenebris/Disk/Racing-code/examples/23-libjpeg-divide-by-zero/libjpeg-turbo-2.0.90/rdgif.c:674

  return (cjpeg_source_ptr)source;
}
    50e1:	5b                   	pop    %rbx
    50e2:	c3                   	ret    
    50e3:	66 2e 0f 1f 84 00 00 	cs nopw 0x0(%rax,%rax,1)
    50ea:	00 00 00 
    50ed:	0f 1f 00             	nopl   (%rax)

00000000000050f0 <finish_input_ppm>:
finish_input_ppm():
/home/tenebris/Disk/Racing-code/examples/23-libjpeg-divide-by-zero/libjpeg-turbo-2.0.90/rdppm.c:732
 * Finish up at the end of the file.
 */

METHODDEF(void)
finish_input_ppm(j_compress_ptr cinfo, cjpeg_source_ptr sinfo)
{
    50f0:	f3 0f 1e fa          	endbr64 
/home/tenebris/Disk/Racing-code/examples/23-libjpeg-divide-by-zero/libjpeg-turbo-2.0.90/rdppm.c:734
  /* no work */
}
    50f4:	c3                   	ret    
    50f5:	66 66 2e 0f 1f 84 00 	data16 cs nopw 0x0(%rax,%rax,1)
    50fc:	00 00 00 00 

0000000000005100 <get_scaled_gray_row>:
get_scaled_gray_row():
/home/tenebris/Disk/Racing-code/examples/23-libjpeg-divide-by-zero/libjpeg-turbo-2.0.90/rdppm.c:308
{
    5100:	f3 0f 1e fa          	endbr64 
    5104:	41 54                	push   %r12
    5106:	49 89 fc             	mov    %rdi,%r12
    5109:	55                   	push   %rbp
    510a:	53                   	push   %rbx
fread():
/usr/include/x86_64-linux-gnu/bits/stdio2.h:293
    510b:	48 8b 4e 18          	mov    0x18(%rsi),%rcx
get_scaled_gray_row():
/home/tenebris/Disk/Racing-code/examples/23-libjpeg-divide-by-zero/libjpeg-turbo-2.0.90/rdppm.c:308
    510f:	48 89 f3             	mov    %rsi,%rbx
fread():
/usr/include/x86_64-linux-gnu/bits/stdio2.h:293
    5112:	48 8b 56 40          	mov    0x40(%rsi),%rdx
    5116:	48 8b 7e 30          	mov    0x30(%rsi),%rdi
get_scaled_gray_row():
/home/tenebris/Disk/Racing-code/examples/23-libjpeg-divide-by-zero/libjpeg-turbo-2.0.90/rdppm.c:312
  register JSAMPLE *rescale = source->rescale;
    511a:	48 8b 6e 48          	mov    0x48(%rsi),%rbp
fread():
/usr/include/x86_64-linux-gnu/bits/stdio2.h:293
    511e:	be 01 00 00 00       	mov    $0x1,%esi
    5123:	e8 68 d1 ff ff       	call   2290 <fread@plt>
get_scaled_gray_row():
/home/tenebris/Disk/Racing-code/examples/23-libjpeg-divide-by-zero/libjpeg-turbo-2.0.90/rdppm.c:315
  if (!ReadOK(source->pub.input_file, source->iobuffer, source->buffer_width))
    5128:	48 39 43 40          	cmp    %rax,0x40(%rbx)
    512c:	74 10                	je     513e <get_scaled_gray_row+0x3e>
/home/tenebris/Disk/Racing-code/examples/23-libjpeg-divide-by-zero/libjpeg-turbo-2.0.90/rdppm.c:316
    ERREXIT(cinfo, JERR_INPUT_EOF);
    512e:	49 8b 04 24          	mov    (%r12),%rax
    5132:	4c 89 e7             	mov    %r12,%rdi
    5135:	c7 40 28 2b 00 00 00 	movl   $0x2b,0x28(%rax)
    513c:	ff 10                	call   *(%rax)
/home/tenebris/Disk/Racing-code/examples/23-libjpeg-divide-by-zero/libjpeg-turbo-2.0.90/rdppm.c:317
  ptr = source->pub.buffer[0];
    513e:	48 8b 43 20          	mov    0x20(%rbx),%rax
/home/tenebris/Disk/Racing-code/examples/23-libjpeg-divide-by-zero/libjpeg-turbo-2.0.90/rdppm.c:319
  for (col = cinfo->image_width; col > 0; col--) {
    5142:	41 8b 4c 24 30       	mov    0x30(%r12),%ecx
/home/tenebris/Disk/Racing-code/examples/23-libjpeg-divide-by-zero/libjpeg-turbo-2.0.90/rdppm.c:318
  bufferptr = source->iobuffer;
    5147:	48 8b 7b 30          	mov    0x30(%rbx),%rdi
/home/tenebris/Disk/Racing-code/examples/23-libjpeg-divide-by-zero/libjpeg-turbo-2.0.90/rdppm.c:317
  ptr = source->pub.buffer[0];
    514b:	48 8b 30             	mov    (%rax),%rsi
/home/tenebris/Disk/Racing-code/examples/23-libjpeg-divide-by-zero/libjpeg-turbo-2.0.90/rdppm.c:319
  for (col = cinfo->image_width; col > 0; col--) {
    514e:	85 c9                	test   %ecx,%ecx
    5150:	74 1b                	je     516d <get_scaled_gray_row+0x6d>
    5152:	31 c0                	xor    %eax,%eax
    5154:	0f 1f 40 00          	nopl   0x0(%rax)
/home/tenebris/Disk/Racing-code/examples/23-libjpeg-divide-by-zero/libjpeg-turbo-2.0.90/rdppm.c:320 (discriminator 3)
    *ptr++ = rescale[UCH(*bufferptr++)];
    5158:	0f b6 14 07          	movzbl (%rdi,%rax,1),%edx
    515c:	0f b6 54 15 00       	movzbl 0x0(%rbp,%rdx,1),%edx
    5161:	88 14 06             	mov    %dl,(%rsi,%rax,1)
/home/tenebris/Disk/Racing-code/examples/23-libjpeg-divide-by-zero/libjpeg-turbo-2.0.90/rdppm.c:319 (discriminator 3)
  for (col = cinfo->image_width; col > 0; col--) {
    5164:	48 83 c0 01          	add    $0x1,%rax
    5168:	48 39 c1             	cmp    %rax,%rcx
    516b:	75 eb                	jne    5158 <get_scaled_gray_row+0x58>
/home/tenebris/Disk/Racing-code/examples/23-libjpeg-divide-by-zero/libjpeg-turbo-2.0.90/rdppm.c:323
}
    516d:	5b                   	pop    %rbx
    516e:	b8 01 00 00 00       	mov    $0x1,%eax
    5173:	5d                   	pop    %rbp
    5174:	41 5c                	pop    %r12
    5176:	c3                   	ret    
    5177:	66 0f 1f 84 00 00 00 	nopw   0x0(%rax,%rax,1)
    517e:	00 00 

0000000000005180 <get_gray_rgb_row>:
get_gray_rgb_row():
/home/tenebris/Disk/Racing-code/examples/23-libjpeg-divide-by-zero/libjpeg-turbo-2.0.90/rdppm.c:330
{
    5180:	f3 0f 1e fa          	endbr64 
    5184:	41 57                	push   %r15
/home/tenebris/Disk/Racing-code/examples/23-libjpeg-divide-by-zero/libjpeg-turbo-2.0.90/rdppm.c:337
  register int rindex = rgb_red[cinfo->in_color_space];
    5186:	48 8d 15 13 71 00 00 	lea    0x7113(%rip),%rdx        # c2a0 <rgb_red>
/home/tenebris/Disk/Racing-code/examples/23-libjpeg-divide-by-zero/libjpeg-turbo-2.0.90/rdppm.c:330
{
    518d:	41 56                	push   %r14
    518f:	41 55                	push   %r13
    5191:	41 54                	push   %r12
    5193:	49 89 f4             	mov    %rsi,%r12
    5196:	55                   	push   %rbp
    5197:	48 89 fd             	mov    %rdi,%rbp
    519a:	53                   	push   %rbx
    519b:	48 83 ec 18          	sub    $0x18,%rsp
/home/tenebris/Disk/Racing-code/examples/23-libjpeg-divide-by-zero/libjpeg-turbo-2.0.90/rdppm.c:337
  register int rindex = rgb_red[cinfo->in_color_space];
    519f:	8b 47 3c             	mov    0x3c(%rdi),%eax
/home/tenebris/Disk/Racing-code/examples/23-libjpeg-divide-by-zero/libjpeg-turbo-2.0.90/rdppm.c:334
  register JSAMPLE *rescale = source->rescale;
    51a2:	4c 8b 7e 48          	mov    0x48(%rsi),%r15
/home/tenebris/Disk/Racing-code/examples/23-libjpeg-divide-by-zero/libjpeg-turbo-2.0.90/rdppm.c:336
  unsigned int maxval = source->maxval;
    51a6:	8b 5e 50             	mov    0x50(%rsi),%ebx
fread():
/usr/include/x86_64-linux-gnu/bits/stdio2.h:293
    51a9:	49 8b 4c 24 18       	mov    0x18(%r12),%rcx
get_gray_rgb_row():
/home/tenebris/Disk/Racing-code/examples/23-libjpeg-divide-by-zero/libjpeg-turbo-2.0.90/rdppm.c:337
  register int rindex = rgb_red[cinfo->in_color_space];
    51ae:	8b 3c 82             	mov    (%rdx,%rax,4),%edi
/home/tenebris/Disk/Racing-code/examples/23-libjpeg-divide-by-zero/libjpeg-turbo-2.0.90/rdppm.c:338
  register int gindex = rgb_green[cinfo->in_color_space];
    51b1:	48 8d 15 88 70 00 00 	lea    0x7088(%rip),%rdx        # c240 <rgb_green>
    51b8:	8b 34 82             	mov    (%rdx,%rax,4),%esi
/home/tenebris/Disk/Racing-code/examples/23-libjpeg-divide-by-zero/libjpeg-turbo-2.0.90/rdppm.c:339
  register int bindex = rgb_blue[cinfo->in_color_space];
    51bb:	48 8d 15 1e 70 00 00 	lea    0x701e(%rip),%rdx        # c1e0 <rgb_blue>
/home/tenebris/Disk/Racing-code/examples/23-libjpeg-divide-by-zero/libjpeg-turbo-2.0.90/rdppm.c:337
  register int rindex = rgb_red[cinfo->in_color_space];
    51c2:	89 7c 24 04          	mov    %edi,0x4(%rsp)
/home/tenebris/Disk/Racing-code/examples/23-libjpeg-divide-by-zero/libjpeg-turbo-2.0.90/rdppm.c:339
  register int bindex = rgb_blue[cinfo->in_color_space];
    51c6:	8b 3c 82             	mov    (%rdx,%rax,4),%edi
/home/tenebris/Disk/Racing-code/examples/23-libjpeg-divide-by-zero/libjpeg-turbo-2.0.90/rdppm.c:340
  register int aindex = alpha_index[cinfo->in_color_space];
    51c9:	48 8d 15 50 6f 00 00 	lea    0x6f50(%rip),%rdx        # c120 <alpha_index>
    51d0:	4c 63 34 82          	movslq (%rdx,%rax,4),%r14
/home/tenebris/Disk/Racing-code/examples/23-libjpeg-divide-by-zero/libjpeg-turbo-2.0.90/rdppm.c:341
  register int ps = rgb_pixelsize[cinfo->in_color_space];
    51d4:	48 8d 15 a5 6f 00 00 	lea    0x6fa5(%rip),%rdx        # c180 <rgb_pixelsize>
/home/tenebris/Disk/Racing-code/examples/23-libjpeg-divide-by-zero/libjpeg-turbo-2.0.90/rdppm.c:338
  register int gindex = rgb_green[cinfo->in_color_space];
    51db:	89 74 24 08          	mov    %esi,0x8(%rsp)
fread():
/usr/include/x86_64-linux-gnu/bits/stdio2.h:293
    51df:	be 01 00 00 00       	mov    $0x1,%esi
get_gray_rgb_row():
/home/tenebris/Disk/Racing-code/examples/23-libjpeg-divide-by-zero/libjpeg-turbo-2.0.90/rdppm.c:339
  register int bindex = rgb_blue[cinfo->in_color_space];
    51e4:	89 7c 24 0c          	mov    %edi,0xc(%rsp)
/home/tenebris/Disk/Racing-code/examples/23-libjpeg-divide-by-zero/libjpeg-turbo-2.0.90/rdppm.c:341
  register int ps = rgb_pixelsize[cinfo->in_color_space];
    51e8:	44 8b 2c 82          	mov    (%rdx,%rax,4),%r13d
fread():
/usr/include/x86_64-linux-gnu/bits/stdio2.h:293
    51ec:	49 8b 7c 24 30       	mov    0x30(%r12),%rdi
    51f1:	49 8b 54 24 40       	mov    0x40(%r12),%rdx
    51f6:	e8 95 d0 ff ff       	call   2290 <fread@plt>
get_gray_rgb_row():
/home/tenebris/Disk/Racing-code/examples/23-libjpeg-divide-by-zero/libjpeg-turbo-2.0.90/rdppm.c:343
  if (!ReadOK(source->pub.input_file, source->iobuffer, source->buffer_width))
    51fb:	49 39 44 24 40       	cmp    %rax,0x40(%r12)
    5200:	74 10                	je     5212 <get_gray_rgb_row+0x92>
/home/tenebris/Disk/Racing-code/examples/23-libjpeg-divide-by-zero/libjpeg-turbo-2.0.90/rdppm.c:344
    ERREXIT(cinfo, JERR_INPUT_EOF);
    5202:	48 8b 45 00          	mov    0x0(%rbp),%rax
    5206:	48 89 ef             	mov    %rbp,%rdi
    5209:	c7 40 28 2b 00 00 00 	movl   $0x2b,0x28(%rax)
    5210:	ff 10                	call   *(%rax)
/home/tenebris/Disk/Racing-code/examples/23-libjpeg-divide-by-zero/libjpeg-turbo-2.0.90/rdppm.c:345
  ptr = source->pub.buffer[0];
    5212:	49 8b 44 24 20       	mov    0x20(%r12),%rax
/home/tenebris/Disk/Racing-code/examples/23-libjpeg-divide-by-zero/libjpeg-turbo-2.0.90/rdppm.c:346
  bufferptr = source->iobuffer;
    5217:	49 8b 54 24 30       	mov    0x30(%r12),%rdx
/home/tenebris/Disk/Racing-code/examples/23-libjpeg-divide-by-zero/libjpeg-turbo-2.0.90/rdppm.c:349
      GRAY_RGB_READ_LOOP(*bufferptr++, ptr[aindex] = 0xFF;)
    521c:	8b 75 30             	mov    0x30(%rbp),%esi
/home/tenebris/Disk/Racing-code/examples/23-libjpeg-divide-by-zero/libjpeg-turbo-2.0.90/rdppm.c:345
  ptr = source->pub.buffer[0];
    521f:	48 8b 00             	mov    (%rax),%rax
/home/tenebris/Disk/Racing-code/examples/23-libjpeg-divide-by-zero/libjpeg-turbo-2.0.90/rdppm.c:347
  if (maxval == MAXJSAMPLE) {
    5222:	81 fb ff 00 00 00    	cmp    $0xff,%ebx
    5228:	0f 84 22 01 00 00    	je     5350 <get_gray_rgb_row+0x1d0>
/home/tenebris/Disk/Racing-code/examples/23-libjpeg-divide-by-zero/libjpeg-turbo-2.0.90/rdppm.c:353
    if (aindex >= 0)
    522e:	45 85 f6             	test   %r14d,%r14d
    5231:	0f 88 99 00 00 00    	js     52d0 <get_gray_rgb_row+0x150>
/home/tenebris/Disk/Racing-code/examples/23-libjpeg-divide-by-zero/libjpeg-turbo-2.0.90/rdppm.c:354
      GRAY_RGB_READ_LOOP(rescale[UCH(*bufferptr++)], ptr[aindex] = 0xFF;)
    5237:	85 f6                	test   %esi,%esi
    5239:	74 51                	je     528c <get_gray_rgb_row+0x10c>
/home/tenebris/Disk/Racing-code/examples/23-libjpeg-divide-by-zero/libjpeg-turbo-2.0.90/rdppm.c:349
      GRAY_RGB_READ_LOOP(*bufferptr++, ptr[aindex] = 0xFF;)
    523b:	48 63 5c 24 0c       	movslq 0xc(%rsp),%rbx
    5240:	4c 63 64 24 08       	movslq 0x8(%rsp),%r12
    5245:	4d 63 cd             	movslq %r13d,%r9
    5248:	48 8d 3c 32          	lea    (%rdx,%rsi,1),%rdi
    524c:	48 63 6c 24 04       	movslq 0x4(%rsp),%rbp
    5251:	48 01 d8             	add    %rbx,%rax
    5254:	41 83 fd 01          	cmp    $0x1,%r13d
    5258:	75 46                	jne    52a0 <get_gray_rgb_row+0x120>
    525a:	66 0f 1f 44 00 00    	nopw   0x0(%rax,%rax,1)
/home/tenebris/Disk/Racing-code/examples/23-libjpeg-divide-by-zero/libjpeg-turbo-2.0.90/rdppm.c:354
      GRAY_RGB_READ_LOOP(rescale[UCH(*bufferptr++)], ptr[aindex] = 0xFF;)
    5260:	0f b6 0a             	movzbl (%rdx),%ecx
    5263:	48 83 c2 01          	add    $0x1,%rdx
    5267:	41 0f b6 34 0f       	movzbl (%r15,%rcx,1),%esi
    526c:	48 89 c1             	mov    %rax,%rcx
    526f:	48 83 c0 01          	add    $0x1,%rax
    5273:	48 29 d9             	sub    %rbx,%rcx
    5276:	40 88 70 ff          	mov    %sil,-0x1(%rax)
    527a:	42 88 34 21          	mov    %sil,(%rcx,%r12,1)
    527e:	40 88 34 29          	mov    %sil,(%rcx,%rbp,1)
    5282:	42 c6 04 31 ff       	movb   $0xff,(%rcx,%r14,1)
    5287:	48 39 fa             	cmp    %rdi,%rdx
    528a:	75 d4                	jne    5260 <get_gray_rgb_row+0xe0>
/home/tenebris/Disk/Racing-code/examples/23-libjpeg-divide-by-zero/libjpeg-turbo-2.0.90/rdppm.c:359
}
    528c:	48 83 c4 18          	add    $0x18,%rsp
    5290:	b8 01 00 00 00       	mov    $0x1,%eax
    5295:	5b                   	pop    %rbx
    5296:	5d                   	pop    %rbp
    5297:	41 5c                	pop    %r12
    5299:	41 5d                	pop    %r13
    529b:	41 5e                	pop    %r14
    529d:	41 5f                	pop    %r15
    529f:	c3                   	ret    
/home/tenebris/Disk/Racing-code/examples/23-libjpeg-divide-by-zero/libjpeg-turbo-2.0.90/rdppm.c:354 (discriminator 3)
      GRAY_RGB_READ_LOOP(rescale[UCH(*bufferptr++)], ptr[aindex] = 0xFF;)
    52a0:	0f b6 0a             	movzbl (%rdx),%ecx
    52a3:	48 83 c2 01          	add    $0x1,%rdx
    52a7:	41 0f b6 34 0f       	movzbl (%r15,%rcx,1),%esi
    52ac:	48 89 c1             	mov    %rax,%rcx
    52af:	48 29 d9             	sub    %rbx,%rcx
    52b2:	40 88 30             	mov    %sil,(%rax)
    52b5:	4c 01 c8             	add    %r9,%rax
    52b8:	42 88 34 21          	mov    %sil,(%rcx,%r12,1)
    52bc:	40 88 34 29          	mov    %sil,(%rcx,%rbp,1)
    52c0:	42 c6 04 31 ff       	movb   $0xff,(%rcx,%r14,1)
    52c5:	48 39 fa             	cmp    %rdi,%rdx
    52c8:	75 d6                	jne    52a0 <get_gray_rgb_row+0x120>
    52ca:	eb c0                	jmp    528c <get_gray_rgb_row+0x10c>
    52cc:	0f 1f 40 00          	nopl   0x0(%rax)
/home/tenebris/Disk/Racing-code/examples/23-libjpeg-divide-by-zero/libjpeg-turbo-2.0.90/rdppm.c:356
      GRAY_RGB_READ_LOOP(rescale[UCH(*bufferptr++)],)
    52d0:	85 f6                	test   %esi,%esi
    52d2:	74 b8                	je     528c <get_gray_rgb_row+0x10c>
/home/tenebris/Disk/Racing-code/examples/23-libjpeg-divide-by-zero/libjpeg-turbo-2.0.90/rdppm.c:349
      GRAY_RGB_READ_LOOP(*bufferptr++, ptr[aindex] = 0xFF;)
    52d4:	48 63 5c 24 0c       	movslq 0xc(%rsp),%rbx
    52d9:	4c 63 64 24 08       	movslq 0x8(%rsp),%r12
    52de:	4d 63 cd             	movslq %r13d,%r9
    52e1:	48 01 d6             	add    %rdx,%rsi
    52e4:	48 63 6c 24 04       	movslq 0x4(%rsp),%rbp
    52e9:	48 01 d8             	add    %rbx,%rax
    52ec:	41 83 fd 01          	cmp    $0x1,%r13d
    52f0:	75 36                	jne    5328 <get_gray_rgb_row+0x1a8>
    52f2:	66 0f 1f 44 00 00    	nopw   0x0(%rax,%rax,1)
/home/tenebris/Disk/Racing-code/examples/23-libjpeg-divide-by-zero/libjpeg-turbo-2.0.90/rdppm.c:356
      GRAY_RGB_READ_LOOP(rescale[UCH(*bufferptr++)],)
    52f8:	0f b6 0a             	movzbl (%rdx),%ecx
    52fb:	48 89 c7             	mov    %rax,%rdi
    52fe:	48 83 c2 01          	add    $0x1,%rdx
    5302:	48 83 c0 01          	add    $0x1,%rax
    5306:	48 29 df             	sub    %rbx,%rdi
    5309:	41 0f b6 0c 0f       	movzbl (%r15,%rcx,1),%ecx
    530e:	88 48 ff             	mov    %cl,-0x1(%rax)
    5311:	42 88 0c 27          	mov    %cl,(%rdi,%r12,1)
    5315:	88 0c 2f             	mov    %cl,(%rdi,%rbp,1)
    5318:	48 39 f2             	cmp    %rsi,%rdx
    531b:	75 db                	jne    52f8 <get_gray_rgb_row+0x178>
    531d:	e9 6a ff ff ff       	jmp    528c <get_gray_rgb_row+0x10c>
    5322:	66 0f 1f 44 00 00    	nopw   0x0(%rax,%rax,1)
/home/tenebris/Disk/Racing-code/examples/23-libjpeg-divide-by-zero/libjpeg-turbo-2.0.90/rdppm.c:356 (discriminator 3)
    5328:	0f b6 0a             	movzbl (%rdx),%ecx
    532b:	48 89 c7             	mov    %rax,%rdi
    532e:	48 83 c2 01          	add    $0x1,%rdx
    5332:	48 29 df             	sub    %rbx,%rdi
    5335:	41 0f b6 0c 0f       	movzbl (%r15,%rcx,1),%ecx
    533a:	88 08                	mov    %cl,(%rax)
    533c:	4c 01 c8             	add    %r9,%rax
    533f:	42 88 0c 27          	mov    %cl,(%rdi,%r12,1)
    5343:	88 0c 2f             	mov    %cl,(%rdi,%rbp,1)
    5346:	48 39 f2             	cmp    %rsi,%rdx
    5349:	75 dd                	jne    5328 <get_gray_rgb_row+0x1a8>
    534b:	e9 3c ff ff ff       	jmp    528c <get_gray_rgb_row+0x10c>
/home/tenebris/Disk/Racing-code/examples/23-libjpeg-divide-by-zero/libjpeg-turbo-2.0.90/rdppm.c:348
    if (aindex >= 0)
    5350:	45 85 f6             	test   %r14d,%r14d
    5353:	0f 88 87 00 00 00    	js     53e0 <get_gray_rgb_row+0x260>
/home/tenebris/Disk/Racing-code/examples/23-libjpeg-divide-by-zero/libjpeg-turbo-2.0.90/rdppm.c:349
      GRAY_RGB_READ_LOOP(*bufferptr++, ptr[aindex] = 0xFF;)
    5359:	85 f6                	test   %esi,%esi
    535b:	0f 84 2b ff ff ff    	je     528c <get_gray_rgb_row+0x10c>
    5361:	48 63 5c 24 0c       	movslq 0xc(%rsp),%rbx
    5366:	4c 63 64 24 08       	movslq 0x8(%rsp),%r12
    536b:	4d 63 c5             	movslq %r13d,%r8
    536e:	48 8d 3c 32          	lea    (%rdx,%rsi,1),%rdi
    5372:	48 63 6c 24 04       	movslq 0x4(%rsp),%rbp
    5377:	48 01 d8             	add    %rbx,%rax
    537a:	41 83 fd 01          	cmp    $0x1,%r13d
    537e:	75 30                	jne    53b0 <get_gray_rgb_row+0x230>
    5380:	0f b6 32             	movzbl (%rdx),%esi
    5383:	48 89 c1             	mov    %rax,%rcx
    5386:	48 83 c2 01          	add    $0x1,%rdx
    538a:	48 83 c0 01          	add    $0x1,%rax
    538e:	48 29 d9             	sub    %rbx,%rcx
    5391:	40 88 70 ff          	mov    %sil,-0x1(%rax)
    5395:	42 88 34 21          	mov    %sil,(%rcx,%r12,1)
    5399:	40 88 34 29          	mov    %sil,(%rcx,%rbp,1)
    539d:	42 c6 04 31 ff       	movb   $0xff,(%rcx,%r14,1)
    53a2:	48 39 fa             	cmp    %rdi,%rdx
    53a5:	75 d9                	jne    5380 <get_gray_rgb_row+0x200>
    53a7:	e9 e0 fe ff ff       	jmp    528c <get_gray_rgb_row+0x10c>
    53ac:	0f 1f 40 00          	nopl   0x0(%rax)
/home/tenebris/Disk/Racing-code/examples/23-libjpeg-divide-by-zero/libjpeg-turbo-2.0.90/rdppm.c:349 (discriminator 3)
    53b0:	0f b6 32             	movzbl (%rdx),%esi
    53b3:	48 89 c1             	mov    %rax,%rcx
    53b6:	48 83 c2 01          	add    $0x1,%rdx
    53ba:	48 29 d9             	sub    %rbx,%rcx
    53bd:	40 88 30             	mov    %sil,(%rax)
    53c0:	4c 01 c0             	add    %r8,%rax
    53c3:	42 88 34 21          	mov    %sil,(%rcx,%r12,1)
    53c7:	40 88 34 29          	mov    %sil,(%rcx,%rbp,1)
    53cb:	42 c6 04 31 ff       	movb   $0xff,(%rcx,%r14,1)
    53d0:	48 39 fa             	cmp    %rdi,%rdx
    53d3:	75 db                	jne    53b0 <get_gray_rgb_row+0x230>
    53d5:	e9 b2 fe ff ff       	jmp    528c <get_gray_rgb_row+0x10c>
    53da:	66 0f 1f 44 00 00    	nopw   0x0(%rax,%rax,1)
/home/tenebris/Disk/Racing-code/examples/23-libjpeg-divide-by-zero/libjpeg-turbo-2.0.90/rdppm.c:351
      GRAY_RGB_READ_LOOP(*bufferptr++,)
    53e0:	85 f6                	test   %esi,%esi
    53e2:	0f 84 a4 fe ff ff    	je     528c <get_gray_rgb_row+0x10c>
/home/tenebris/Disk/Racing-code/examples/23-libjpeg-divide-by-zero/libjpeg-turbo-2.0.90/rdppm.c:349
      GRAY_RGB_READ_LOOP(*bufferptr++, ptr[aindex] = 0xFF;)
    53e8:	48 63 5c 24 0c       	movslq 0xc(%rsp),%rbx
    53ed:	4c 63 64 24 08       	movslq 0x8(%rsp),%r12
    53f2:	4d 63 c5             	movslq %r13d,%r8
    53f5:	48 01 d6             	add    %rdx,%rsi
    53f8:	48 63 6c 24 04       	movslq 0x4(%rsp),%rbp
    53fd:	48 01 d8             	add    %rbx,%rax
    5400:	41 83 fd 01          	cmp    $0x1,%r13d
    5404:	75 32                	jne    5438 <get_gray_rgb_row+0x2b8>
    5406:	66 2e 0f 1f 84 00 00 	cs nopw 0x0(%rax,%rax,1)
    540d:	00 00 00 
/home/tenebris/Disk/Racing-code/examples/23-libjpeg-divide-by-zero/libjpeg-turbo-2.0.90/rdppm.c:351
      GRAY_RGB_READ_LOOP(*bufferptr++,)
    5410:	0f b6 0a             	movzbl (%rdx),%ecx
    5413:	48 89 c7             	mov    %rax,%rdi
    5416:	48 83 c2 01          	add    $0x1,%rdx
    541a:	48 83 c0 01          	add    $0x1,%rax
    541e:	48 29 df             	sub    %rbx,%rdi
    5421:	88 48 ff             	mov    %cl,-0x1(%rax)
    5424:	42 88 0c 27          	mov    %cl,(%rdi,%r12,1)
    5428:	88 0c 2f             	mov    %cl,(%rdi,%rbp,1)
    542b:	48 39 f2             	cmp    %rsi,%rdx
    542e:	75 e0                	jne    5410 <get_gray_rgb_row+0x290>
    5430:	e9 57 fe ff ff       	jmp    528c <get_gray_rgb_row+0x10c>
    5435:	0f 1f 00             	nopl   (%rax)
/home/tenebris/Disk/Racing-code/examples/23-libjpeg-divide-by-zero/libjpeg-turbo-2.0.90/rdppm.c:351 (discriminator 3)
    5438:	0f b6 0a             	movzbl (%rdx),%ecx
    543b:	48 89 c7             	mov    %rax,%rdi
    543e:	48 83 c2 01          	add    $0x1,%rdx
    5442:	48 29 df             	sub    %rbx,%rdi
    5445:	88 08                	mov    %cl,(%rax)
    5447:	4c 01 c0             	add    %r8,%rax
    544a:	42 88 0c 27          	mov    %cl,(%rdi,%r12,1)
    544e:	88 0c 2f             	mov    %cl,(%rdi,%rbp,1)
    5451:	48 39 f2             	cmp    %rsi,%rdx
    5454:	75 e2                	jne    5438 <get_gray_rgb_row+0x2b8>
    5456:	e9 31 fe ff ff       	jmp    528c <get_gray_rgb_row+0x10c>
    545b:	0f 1f 44 00 00       	nopl   0x0(%rax,%rax,1)

0000000000005460 <get_gray_cmyk_row>:
get_gray_cmyk_row():
/home/tenebris/Disk/Racing-code/examples/23-libjpeg-divide-by-zero/libjpeg-turbo-2.0.90/rdppm.c:366
{
    5460:	f3 0f 1e fa          	endbr64 
    5464:	41 55                	push   %r13
    5466:	41 54                	push   %r12
    5468:	49 89 fc             	mov    %rdi,%r12
    546b:	55                   	push   %rbp
    546c:	53                   	push   %rbx
    546d:	48 89 f3             	mov    %rsi,%rbx
    5470:	48 83 ec 08          	sub    $0x8,%rsp
fread():
/usr/include/x86_64-linux-gnu/bits/stdio2.h:293
    5474:	48 8b 4e 18          	mov    0x18(%rsi),%rcx
    5478:	48 8b 56 40          	mov    0x40(%rsi),%rdx
    547c:	48 8b 7e 30          	mov    0x30(%rsi),%rdi
get_gray_cmyk_row():
/home/tenebris/Disk/Racing-code/examples/23-libjpeg-divide-by-zero/libjpeg-turbo-2.0.90/rdppm.c:370
  register JSAMPLE *rescale = source->rescale;
    5480:	48 8b 6e 48          	mov    0x48(%rsi),%rbp
/home/tenebris/Disk/Racing-code/examples/23-libjpeg-divide-by-zero/libjpeg-turbo-2.0.90/rdppm.c:372
  unsigned int maxval = source->maxval;
    5484:	44 8b 6e 50          	mov    0x50(%rsi),%r13d
fread():
/usr/include/x86_64-linux-gnu/bits/stdio2.h:293
    5488:	be 01 00 00 00       	mov    $0x1,%esi
    548d:	e8 fe cd ff ff       	call   2290 <fread@plt>
get_gray_cmyk_row():
/home/tenebris/Disk/Racing-code/examples/23-libjpeg-divide-by-zero/libjpeg-turbo-2.0.90/rdppm.c:374
  if (!ReadOK(source->pub.input_file, source->iobuffer, source->buffer_width))
    5492:	48 39 43 40          	cmp    %rax,0x40(%rbx)
    5496:	74 10                	je     54a8 <get_gray_cmyk_row+0x48>
/home/tenebris/Disk/Racing-code/examples/23-libjpeg-divide-by-zero/libjpeg-turbo-2.0.90/rdppm.c:375
    ERREXIT(cinfo, JERR_INPUT_EOF);
    5498:	49 8b 04 24          	mov    (%r12),%rax
    549c:	4c 89 e7             	mov    %r12,%rdi
    549f:	c7 40 28 2b 00 00 00 	movl   $0x2b,0x28(%rax)
    54a6:	ff 10                	call   *(%rax)
/home/tenebris/Disk/Racing-code/examples/23-libjpeg-divide-by-zero/libjpeg-turbo-2.0.90/rdppm.c:376
  ptr = source->pub.buffer[0];
    54a8:	48 8b 43 20          	mov    0x20(%rbx),%rax
/home/tenebris/Disk/Racing-code/examples/23-libjpeg-divide-by-zero/libjpeg-turbo-2.0.90/rdppm.c:377
  bufferptr = source->iobuffer;
    54ac:	48 8b 53 30          	mov    0x30(%rbx),%rdx
/home/tenebris/Disk/Racing-code/examples/23-libjpeg-divide-by-zero/libjpeg-turbo-2.0.90/rdppm.c:379
    for (col = cinfo->image_width; col > 0; col--) {
    54b0:	41 8b 4c 24 30       	mov    0x30(%r12),%ecx
/home/tenebris/Disk/Racing-code/examples/23-libjpeg-divide-by-zero/libjpeg-turbo-2.0.90/rdppm.c:376
  ptr = source->pub.buffer[0];
    54b5:	48 8b 00             	mov    (%rax),%rax
/home/tenebris/Disk/Racing-code/examples/23-libjpeg-divide-by-zero/libjpeg-turbo-2.0.90/rdppm.c:378
  if (maxval == MAXJSAMPLE) {
    54b8:	41 81 fd ff 00 00 00 	cmp    $0xff,%r13d
    54bf:	0f 84 eb 00 00 00    	je     55b0 <get_gray_cmyk_row+0x150>
/home/tenebris/Disk/Racing-code/examples/23-libjpeg-divide-by-zero/libjpeg-turbo-2.0.90/rdppm.c:385
    for (col = cinfo->image_width; col > 0; col--) {
    54c5:	85 c9                	test   %ecx,%ecx
    54c7:	0f 84 9c 00 00 00    	je     5569 <get_gray_cmyk_row+0x109>
    54cd:	f2 0f 10 0d 13 6e 00 	movsd  0x6e13(%rip),%xmm1        # c2e8 <rgb_red+0x48>
    54d4:	00 
    54d5:	f2 0f 10 1d 13 6e 00 	movsd  0x6e13(%rip),%xmm3        # c2f0 <rgb_red+0x50>
    54dc:	00 
    54dd:	48 8d 34 88          	lea    (%rax,%rcx,4),%rsi
rgb_to_cmyk():
/home/tenebris/Disk/Racing-code/examples/23-libjpeg-divide-by-zero/libjpeg-turbo-2.0.90/cmyk.h:41
  else {
    ctmp = (ctmp - ktmp) / (1.0 - ktmp);
    mtmp = (mtmp - ktmp) / (1.0 - ktmp);
    ytmp = (ytmp - ktmp) / (1.0 - ktmp);
  }
  *c = (JSAMPLE)(255.0 - ctmp * 255.0 + 0.5);
    54e1:	f2 0f 10 2d 0f 6e 00 	movsd  0x6e0f(%rip),%xmm5        # c2f8 <rgb_red+0x58>
    54e8:	00 
    54e9:	0f 1f 80 00 00 00 00 	nopl   0x0(%rax)
get_gray_cmyk_row():
/home/tenebris/Disk/Racing-code/examples/23-libjpeg-divide-by-zero/libjpeg-turbo-2.0.90/rdppm.c:386 (discriminator 3)
      JSAMPLE gray = rescale[UCH(*bufferptr++)];
    54f0:	0f b6 0a             	movzbl (%rdx),%ecx
rgb_to_cmyk():
/home/tenebris/Disk/Racing-code/examples/23-libjpeg-divide-by-zero/libjpeg-turbo-2.0.90/cmyk.h:30 (discriminator 3)
  double ctmp = 1.0 - ((double)r / 255.0);
    54f3:	66 0f ef d2          	pxor   %xmm2,%xmm2
    54f7:	66 0f 28 c3          	movapd %xmm3,%xmm0
get_gray_cmyk_row():
/home/tenebris/Disk/Racing-code/examples/23-libjpeg-divide-by-zero/libjpeg-turbo-2.0.90/rdppm.c:386 (discriminator 3)
    54fb:	48 83 c2 01          	add    $0x1,%rdx
rgb_to_cmyk():
/home/tenebris/Disk/Racing-code/examples/23-libjpeg-divide-by-zero/libjpeg-turbo-2.0.90/cmyk.h:30 (discriminator 3)
    54ff:	0f b6 4c 0d 00       	movzbl 0x0(%rbp,%rcx,1),%ecx
    5504:	f2 0f 2a d1          	cvtsi2sd %ecx,%xmm2
    5508:	f2 0f 5e d1          	divsd  %xmm1,%xmm2
    550c:	f2 0f 5c c2          	subsd  %xmm2,%xmm0
/home/tenebris/Disk/Racing-code/examples/23-libjpeg-divide-by-zero/libjpeg-turbo-2.0.90/cmyk.h:35 (discriminator 3)
  if (ktmp == 1.0) ctmp = mtmp = ytmp = 0.0;
    5510:	66 0f 2e c3          	ucomisd %xmm3,%xmm0
    5514:	7a 02                	jp     5518 <get_gray_cmyk_row+0xb8>
    5516:	74 68                	je     5580 <get_gray_cmyk_row+0x120>
/home/tenebris/Disk/Racing-code/examples/23-libjpeg-divide-by-zero/libjpeg-turbo-2.0.90/cmyk.h:37
    ctmp = (ctmp - ktmp) / (1.0 - ktmp);
    5518:	66 0f 28 d0          	movapd %xmm0,%xmm2
    551c:	66 0f 28 e3          	movapd %xmm3,%xmm4
get_gray_cmyk_row():
/home/tenebris/Disk/Racing-code/examples/23-libjpeg-divide-by-zero/libjpeg-turbo-2.0.90/rdppm.c:388
      ptr += 4;
    5520:	48 83 c0 04          	add    $0x4,%rax
rgb_to_cmyk():
/home/tenebris/Disk/Racing-code/examples/23-libjpeg-divide-by-zero/libjpeg-turbo-2.0.90/cmyk.h:37
    5524:	f2 0f 5c e0          	subsd  %xmm0,%xmm4
    5528:	f2 0f 5c d0          	subsd  %xmm0,%xmm2
/home/tenebris/Disk/Racing-code/examples/23-libjpeg-divide-by-zero/libjpeg-turbo-2.0.90/cmyk.h:44
  *m = (JSAMPLE)(255.0 - mtmp * 255.0 + 0.5);
  *y = (JSAMPLE)(255.0 - ytmp * 255.0 + 0.5);
  *k = (JSAMPLE)(255.0 - ktmp * 255.0 + 0.5);
    552c:	f2 0f 59 c1          	mulsd  %xmm1,%xmm0
/home/tenebris/Disk/Racing-code/examples/23-libjpeg-divide-by-zero/libjpeg-turbo-2.0.90/cmyk.h:37
    ctmp = (ctmp - ktmp) / (1.0 - ktmp);
    5530:	f2 0f 5e d4          	divsd  %xmm4,%xmm2
/home/tenebris/Disk/Racing-code/examples/23-libjpeg-divide-by-zero/libjpeg-turbo-2.0.90/cmyk.h:41
  *c = (JSAMPLE)(255.0 - ctmp * 255.0 + 0.5);
    5534:	66 0f 28 e1          	movapd %xmm1,%xmm4
    5538:	f2 0f 59 d1          	mulsd  %xmm1,%xmm2
    553c:	f2 0f 5c e2          	subsd  %xmm2,%xmm4
/home/tenebris/Disk/Racing-code/examples/23-libjpeg-divide-by-zero/libjpeg-turbo-2.0.90/cmyk.h:44
  *k = (JSAMPLE)(255.0 - ktmp * 255.0 + 0.5);
    5540:	66 0f 28 d1          	movapd %xmm1,%xmm2
    5544:	f2 0f 5c d0          	subsd  %xmm0,%xmm2
/home/tenebris/Disk/Racing-code/examples/23-libjpeg-divide-by-zero/libjpeg-turbo-2.0.90/cmyk.h:41
  *c = (JSAMPLE)(255.0 - ctmp * 255.0 + 0.5);
    5548:	f2 0f 58 e5          	addsd  %xmm5,%xmm4
/home/tenebris/Disk/Racing-code/examples/23-libjpeg-divide-by-zero/libjpeg-turbo-2.0.90/cmyk.h:44
  *k = (JSAMPLE)(255.0 - ktmp * 255.0 + 0.5);
    554c:	f2 0f 58 d5          	addsd  %xmm5,%xmm2
/home/tenebris/Disk/Racing-code/examples/23-libjpeg-divide-by-zero/libjpeg-turbo-2.0.90/cmyk.h:41
  *c = (JSAMPLE)(255.0 - ctmp * 255.0 + 0.5);
    5550:	f2 0f 2c cc          	cvttsd2si %xmm4,%ecx
    5554:	88 48 fc             	mov    %cl,-0x4(%rax)
/home/tenebris/Disk/Racing-code/examples/23-libjpeg-divide-by-zero/libjpeg-turbo-2.0.90/cmyk.h:42
  *m = (JSAMPLE)(255.0 - mtmp * 255.0 + 0.5);
    5557:	88 48 fd             	mov    %cl,-0x3(%rax)
/home/tenebris/Disk/Racing-code/examples/23-libjpeg-divide-by-zero/libjpeg-turbo-2.0.90/cmyk.h:43
  *y = (JSAMPLE)(255.0 - ytmp * 255.0 + 0.5);
    555a:	88 48 fe             	mov    %cl,-0x2(%rax)
/home/tenebris/Disk/Racing-code/examples/23-libjpeg-divide-by-zero/libjpeg-turbo-2.0.90/cmyk.h:44
  *k = (JSAMPLE)(255.0 - ktmp * 255.0 + 0.5);
    555d:	f2 0f 2c ca          	cvttsd2si %xmm2,%ecx
    5561:	88 48 ff             	mov    %cl,-0x1(%rax)
get_gray_cmyk_row():
/home/tenebris/Disk/Racing-code/examples/23-libjpeg-divide-by-zero/libjpeg-turbo-2.0.90/rdppm.c:385
    for (col = cinfo->image_width; col > 0; col--) {
    5564:	48 39 f0             	cmp    %rsi,%rax
    5567:	75 87                	jne    54f0 <get_gray_cmyk_row+0x90>
/home/tenebris/Disk/Racing-code/examples/23-libjpeg-divide-by-zero/libjpeg-turbo-2.0.90/rdppm.c:392
}
    5569:	48 83 c4 08          	add    $0x8,%rsp
    556d:	b8 01 00 00 00       	mov    $0x1,%eax
    5572:	5b                   	pop    %rbx
    5573:	5d                   	pop    %rbp
    5574:	41 5c                	pop    %r12
    5576:	41 5d                	pop    %r13
    5578:	c3                   	ret    
    5579:	0f 1f 80 00 00 00 00 	nopl   0x0(%rax)
rgb_to_cmyk():
/home/tenebris/Disk/Racing-code/examples/23-libjpeg-divide-by-zero/libjpeg-turbo-2.0.90/cmyk.h:41
  *c = (JSAMPLE)(255.0 - ctmp * 255.0 + 0.5);
    5580:	c6 00 ff             	movb   $0xff,(%rax)
get_gray_cmyk_row():
/home/tenebris/Disk/Racing-code/examples/23-libjpeg-divide-by-zero/libjpeg-turbo-2.0.90/rdppm.c:388
      ptr += 4;
    5583:	48 83 c0 04          	add    $0x4,%rax
rgb_to_cmyk():
/home/tenebris/Disk/Racing-code/examples/23-libjpeg-divide-by-zero/libjpeg-turbo-2.0.90/cmyk.h:42
  *m = (JSAMPLE)(255.0 - mtmp * 255.0 + 0.5);
    5587:	c6 40 fd ff          	movb   $0xff,-0x3(%rax)
/home/tenebris/Disk/Racing-code/examples/23-libjpeg-divide-by-zero/libjpeg-turbo-2.0.90/cmyk.h:43
  *y = (JSAMPLE)(255.0 - ytmp * 255.0 + 0.5);
    558b:	c6 40 fe ff          	movb   $0xff,-0x2(%rax)
/home/tenebris/Disk/Racing-code/examples/23-libjpeg-divide-by-zero/libjpeg-turbo-2.0.90/cmyk.h:44
  *k = (JSAMPLE)(255.0 - ktmp * 255.0 + 0.5);
    558f:	c6 40 ff 00          	movb   $0x0,-0x1(%rax)
get_gray_cmyk_row():
/home/tenebris/Disk/Racing-code/examples/23-libjpeg-divide-by-zero/libjpeg-turbo-2.0.90/rdppm.c:385
    for (col = cinfo->image_width; col > 0; col--) {
    5593:	48 39 f0             	cmp    %rsi,%rax
    5596:	0f 85 54 ff ff ff    	jne    54f0 <get_gray_cmyk_row+0x90>
/home/tenebris/Disk/Racing-code/examples/23-libjpeg-divide-by-zero/libjpeg-turbo-2.0.90/rdppm.c:392
}
    559c:	48 83 c4 08          	add    $0x8,%rsp
    55a0:	b8 01 00 00 00       	mov    $0x1,%eax
    55a5:	5b                   	pop    %rbx
    55a6:	5d                   	pop    %rbp
    55a7:	41 5c                	pop    %r12
    55a9:	41 5d                	pop    %r13
    55ab:	c3                   	ret    
    55ac:	0f 1f 40 00          	nopl   0x0(%rax)
/home/tenebris/Disk/Racing-code/examples/23-libjpeg-divide-by-zero/libjpeg-turbo-2.0.90/rdppm.c:379
    for (col = cinfo->image_width; col > 0; col--) {
    55b0:	85 c9                	test   %ecx,%ecx
    55b2:	74 b5                	je     5569 <get_gray_cmyk_row+0x109>
    55b4:	f2 0f 10 0d 2c 6d 00 	movsd  0x6d2c(%rip),%xmm1        # c2e8 <rgb_red+0x48>
    55bb:	00 
    55bc:	f2 0f 10 1d 2c 6d 00 	movsd  0x6d2c(%rip),%xmm3        # c2f0 <rgb_red+0x50>
    55c3:	00 
    55c4:	48 8d 34 88          	lea    (%rax,%rcx,4),%rsi
rgb_to_cmyk():
/home/tenebris/Disk/Racing-code/examples/23-libjpeg-divide-by-zero/libjpeg-turbo-2.0.90/cmyk.h:41
  *c = (JSAMPLE)(255.0 - ctmp * 255.0 + 0.5);
    55c8:	f2 0f 10 2d 28 6d 00 	movsd  0x6d28(%rip),%xmm5        # c2f8 <rgb_red+0x58>
    55cf:	00 
/home/tenebris/Disk/Racing-code/examples/23-libjpeg-divide-by-zero/libjpeg-turbo-2.0.90/cmyk.h:30 (discriminator 3)
  double ctmp = 1.0 - ((double)r / 255.0);
    55d0:	0f b6 0a             	movzbl (%rdx),%ecx
    55d3:	66 0f ef d2          	pxor   %xmm2,%xmm2
    55d7:	66 0f 28 c3          	movapd %xmm3,%xmm0
get_gray_cmyk_row():
/home/tenebris/Disk/Racing-code/examples/23-libjpeg-divide-by-zero/libjpeg-turbo-2.0.90/rdppm.c:380 (discriminator 3)
      JSAMPLE gray = *bufferptr++;
    55db:	48 83 c2 01          	add    $0x1,%rdx
rgb_to_cmyk():
/home/tenebris/Disk/Racing-code/examples/23-libjpeg-divide-by-zero/libjpeg-turbo-2.0.90/cmyk.h:30 (discriminator 3)
    55df:	f2 0f 2a d1          	cvtsi2sd %ecx,%xmm2
    55e3:	f2 0f 5e d1          	divsd  %xmm1,%xmm2
    55e7:	f2 0f 5c c2          	subsd  %xmm2,%xmm0
/home/tenebris/Disk/Racing-code/examples/23-libjpeg-divide-by-zero/libjpeg-turbo-2.0.90/cmyk.h:35 (discriminator 3)
  if (ktmp == 1.0) ctmp = mtmp = ytmp = 0.0;
    55eb:	66 0f 2e c3          	ucomisd %xmm3,%xmm0
    55ef:	7a 02                	jp     55f3 <get_gray_cmyk_row+0x193>
    55f1:	74 65                	je     5658 <get_gray_cmyk_row+0x1f8>
/home/tenebris/Disk/Racing-code/examples/23-libjpeg-divide-by-zero/libjpeg-turbo-2.0.90/cmyk.h:37
    ctmp = (ctmp - ktmp) / (1.0 - ktmp);
    55f3:	66 0f 28 d0          	movapd %xmm0,%xmm2
    55f7:	66 0f 28 e3          	movapd %xmm3,%xmm4
get_gray_cmyk_row():
/home/tenebris/Disk/Racing-code/examples/23-libjpeg-divide-by-zero/libjpeg-turbo-2.0.90/rdppm.c:382
      ptr += 4;
    55fb:	48 83 c0 04          	add    $0x4,%rax
rgb_to_cmyk():
/home/tenebris/Disk/Racing-code/examples/23-libjpeg-divide-by-zero/libjpeg-turbo-2.0.90/cmyk.h:37
    55ff:	f2 0f 5c e0          	subsd  %xmm0,%xmm4
    5603:	f2 0f 5c d0          	subsd  %xmm0,%xmm2
/home/tenebris/Disk/Racing-code/examples/23-libjpeg-divide-by-zero/libjpeg-turbo-2.0.90/cmyk.h:44
  *k = (JSAMPLE)(255.0 - ktmp * 255.0 + 0.5);
    5607:	f2 0f 59 c1          	mulsd  %xmm1,%xmm0
/home/tenebris/Disk/Racing-code/examples/23-libjpeg-divide-by-zero/libjpeg-turbo-2.0.90/cmyk.h:37
    ctmp = (ctmp - ktmp) / (1.0 - ktmp);
    560b:	f2 0f 5e d4          	divsd  %xmm4,%xmm2
/home/tenebris/Disk/Racing-code/examples/23-libjpeg-divide-by-zero/libjpeg-turbo-2.0.90/cmyk.h:41
  *c = (JSAMPLE)(255.0 - ctmp * 255.0 + 0.5);
    560f:	66 0f 28 e1          	movapd %xmm1,%xmm4
    5613:	f2 0f 59 d1          	mulsd  %xmm1,%xmm2
    5617:	f2 0f 5c e2          	subsd  %xmm2,%xmm4
/home/tenebris/Disk/Racing-code/examples/23-libjpeg-divide-by-zero/libjpeg-turbo-2.0.90/cmyk.h:44
  *k = (JSAMPLE)(255.0 - ktmp * 255.0 + 0.5);
    561b:	66 0f 28 d1          	movapd %xmm1,%xmm2
    561f:	f2 0f 5c d0          	subsd  %xmm0,%xmm2
/home/tenebris/Disk/Racing-code/examples/23-libjpeg-divide-by-zero/libjpeg-turbo-2.0.90/cmyk.h:41
  *c = (JSAMPLE)(255.0 - ctmp * 255.0 + 0.5);
    5623:	f2 0f 58 e5          	addsd  %xmm5,%xmm4
/home/tenebris/Disk/Racing-code/examples/23-libjpeg-divide-by-zero/libjpeg-turbo-2.0.90/cmyk.h:44
  *k = (JSAMPLE)(255.0 - ktmp * 255.0 + 0.5);
    5627:	f2 0f 58 d5          	addsd  %xmm5,%xmm2
/home/tenebris/Disk/Racing-code/examples/23-libjpeg-divide-by-zero/libjpeg-turbo-2.0.90/cmyk.h:41
  *c = (JSAMPLE)(255.0 - ctmp * 255.0 + 0.5);
    562b:	f2 0f 2c cc          	cvttsd2si %xmm4,%ecx
    562f:	88 48 fc             	mov    %cl,-0x4(%rax)
/home/tenebris/Disk/Racing-code/examples/23-libjpeg-divide-by-zero/libjpeg-turbo-2.0.90/cmyk.h:42
  *m = (JSAMPLE)(255.0 - mtmp * 255.0 + 0.5);
    5632:	88 48 fd             	mov    %cl,-0x3(%rax)
/home/tenebris/Disk/Racing-code/examples/23-libjpeg-divide-by-zero/libjpeg-turbo-2.0.90/cmyk.h:43
  *y = (JSAMPLE)(255.0 - ytmp * 255.0 + 0.5);
    5635:	88 48 fe             	mov    %cl,-0x2(%rax)
/home/tenebris/Disk/Racing-code/examples/23-libjpeg-divide-by-zero/libjpeg-turbo-2.0.90/cmyk.h:44
  *k = (JSAMPLE)(255.0 - ktmp * 255.0 + 0.5);
    5638:	f2 0f 2c ca          	cvttsd2si %xmm2,%ecx
    563c:	88 48 ff             	mov    %cl,-0x1(%rax)
get_gray_cmyk_row():
/home/tenebris/Disk/Racing-code/examples/23-libjpeg-divide-by-zero/libjpeg-turbo-2.0.90/rdppm.c:379
    for (col = cinfo->image_width; col > 0; col--) {
    563f:	48 39 f0             	cmp    %rsi,%rax
    5642:	75 8c                	jne    55d0 <get_gray_cmyk_row+0x170>
/home/tenebris/Disk/Racing-code/examples/23-libjpeg-divide-by-zero/libjpeg-turbo-2.0.90/rdppm.c:392
}
    5644:	48 83 c4 08          	add    $0x8,%rsp
    5648:	b8 01 00 00 00       	mov    $0x1,%eax
    564d:	5b                   	pop    %rbx
    564e:	5d                   	pop    %rbp
    564f:	41 5c                	pop    %r12
    5651:	41 5d                	pop    %r13
    5653:	c3                   	ret    
    5654:	0f 1f 40 00          	nopl   0x0(%rax)
rgb_to_cmyk():
/home/tenebris/Disk/Racing-code/examples/23-libjpeg-divide-by-zero/libjpeg-turbo-2.0.90/cmyk.h:41
  *c = (JSAMPLE)(255.0 - ctmp * 255.0 + 0.5);
    5658:	c6 00 ff             	movb   $0xff,(%rax)
get_gray_cmyk_row():
/home/tenebris/Disk/Racing-code/examples/23-libjpeg-divide-by-zero/libjpeg-turbo-2.0.90/rdppm.c:382
      ptr += 4;
    565b:	48 83 c0 04          	add    $0x4,%rax
rgb_to_cmyk():
/home/tenebris/Disk/Racing-code/examples/23-libjpeg-divide-by-zero/libjpeg-turbo-2.0.90/cmyk.h:42
  *m = (JSAMPLE)(255.0 - mtmp * 255.0 + 0.5);
    565f:	c6 40 fd ff          	movb   $0xff,-0x3(%rax)
/home/tenebris/Disk/Racing-code/examples/23-libjpeg-divide-by-zero/libjpeg-turbo-2.0.90/cmyk.h:43
  *y = (JSAMPLE)(255.0 - ytmp * 255.0 + 0.5);
    5663:	c6 40 fe ff          	movb   $0xff,-0x2(%rax)
/home/tenebris/Disk/Racing-code/examples/23-libjpeg-divide-by-zero/libjpeg-turbo-2.0.90/cmyk.h:44
  *k = (JSAMPLE)(255.0 - ktmp * 255.0 + 0.5);
    5667:	c6 40 ff 00          	movb   $0x0,-0x1(%rax)
get_gray_cmyk_row():
/home/tenebris/Disk/Racing-code/examples/23-libjpeg-divide-by-zero/libjpeg-turbo-2.0.90/rdppm.c:379
    for (col = cinfo->image_width; col > 0; col--) {
    566b:	48 39 f0             	cmp    %rsi,%rax
    566e:	0f 85 5c ff ff ff    	jne    55d0 <get_gray_cmyk_row+0x170>
/home/tenebris/Disk/Racing-code/examples/23-libjpeg-divide-by-zero/libjpeg-turbo-2.0.90/rdppm.c:392
}
    5674:	48 83 c4 08          	add    $0x8,%rsp
    5678:	b8 01 00 00 00       	mov    $0x1,%eax
    567d:	5b                   	pop    %rbx
    567e:	5d                   	pop    %rbp
    567f:	41 5c                	pop    %r12
    5681:	41 5d                	pop    %r13
    5683:	c3                   	ret    
    5684:	66 66 2e 0f 1f 84 00 	data16 cs nopw 0x0(%rax,%rax,1)
    568b:	00 00 00 00 
    568f:	90                   	nop

0000000000005690 <get_rgb_row>:
get_rgb_row():
/home/tenebris/Disk/Racing-code/examples/23-libjpeg-divide-by-zero/libjpeg-turbo-2.0.90/rdppm.c:398
{
    5690:	f3 0f 1e fa          	endbr64 
    5694:	41 57                	push   %r15
/home/tenebris/Disk/Racing-code/examples/23-libjpeg-divide-by-zero/libjpeg-turbo-2.0.90/rdppm.c:405
  register int rindex = rgb_red[cinfo->in_color_space];
    5696:	48 8d 15 03 6c 00 00 	lea    0x6c03(%rip),%rdx        # c2a0 <rgb_red>
/home/tenebris/Disk/Racing-code/examples/23-libjpeg-divide-by-zero/libjpeg-turbo-2.0.90/rdppm.c:398
{
    569d:	41 56                	push   %r14
    569f:	41 55                	push   %r13
    56a1:	41 54                	push   %r12
    56a3:	49 89 f4             	mov    %rsi,%r12
    56a6:	55                   	push   %rbp
    56a7:	48 89 fd             	mov    %rdi,%rbp
    56aa:	53                   	push   %rbx
    56ab:	48 83 ec 18          	sub    $0x18,%rsp
/home/tenebris/Disk/Racing-code/examples/23-libjpeg-divide-by-zero/libjpeg-turbo-2.0.90/rdppm.c:405
  register int rindex = rgb_red[cinfo->in_color_space];
    56af:	8b 47 3c             	mov    0x3c(%rdi),%eax
fread():
/usr/include/x86_64-linux-gnu/bits/stdio2.h:293
    56b2:	48 8b 4e 18          	mov    0x18(%rsi),%rcx
get_rgb_row():
/home/tenebris/Disk/Racing-code/examples/23-libjpeg-divide-by-zero/libjpeg-turbo-2.0.90/rdppm.c:402
  register JSAMPLE *rescale = source->rescale;
    56b6:	4c 8b 7e 48          	mov    0x48(%rsi),%r15
/home/tenebris/Disk/Racing-code/examples/23-libjpeg-divide-by-zero/libjpeg-turbo-2.0.90/rdppm.c:404
  unsigned int maxval = source->maxval;
    56ba:	8b 5e 50             	mov    0x50(%rsi),%ebx
/home/tenebris/Disk/Racing-code/examples/23-libjpeg-divide-by-zero/libjpeg-turbo-2.0.90/rdppm.c:405
  register int rindex = rgb_red[cinfo->in_color_space];
    56bd:	8b 3c 82             	mov    (%rdx,%rax,4),%edi
/home/tenebris/Disk/Racing-code/examples/23-libjpeg-divide-by-zero/libjpeg-turbo-2.0.90/rdppm.c:406
  register int gindex = rgb_green[cinfo->in_color_space];
    56c0:	48 8d 15 79 6b 00 00 	lea    0x6b79(%rip),%rdx        # c240 <rgb_green>
/home/tenebris/Disk/Racing-code/examples/23-libjpeg-divide-by-zero/libjpeg-turbo-2.0.90/rdppm.c:405
  register int rindex = rgb_red[cinfo->in_color_space];
    56c7:	89 7c 24 04          	mov    %edi,0x4(%rsp)
/home/tenebris/Disk/Racing-code/examples/23-libjpeg-divide-by-zero/libjpeg-turbo-2.0.90/rdppm.c:406
  register int gindex = rgb_green[cinfo->in_color_space];
    56cb:	8b 3c 82             	mov    (%rdx,%rax,4),%edi
/home/tenebris/Disk/Racing-code/examples/23-libjpeg-divide-by-zero/libjpeg-turbo-2.0.90/rdppm.c:407
  register int bindex = rgb_blue[cinfo->in_color_space];
    56ce:	48 8d 15 0b 6b 00 00 	lea    0x6b0b(%rip),%rdx        # c1e0 <rgb_blue>
/home/tenebris/Disk/Racing-code/examples/23-libjpeg-divide-by-zero/libjpeg-turbo-2.0.90/rdppm.c:406
  register int gindex = rgb_green[cinfo->in_color_space];
    56d5:	89 7c 24 08          	mov    %edi,0x8(%rsp)
/home/tenebris/Disk/Racing-code/examples/23-libjpeg-divide-by-zero/libjpeg-turbo-2.0.90/rdppm.c:407
  register int bindex = rgb_blue[cinfo->in_color_space];
    56d9:	8b 3c 82             	mov    (%rdx,%rax,4),%edi
/home/tenebris/Disk/Racing-code/examples/23-libjpeg-divide-by-zero/libjpeg-turbo-2.0.90/rdppm.c:408
  register int aindex = alpha_index[cinfo->in_color_space];
    56dc:	48 8d 15 3d 6a 00 00 	lea    0x6a3d(%rip),%rdx        # c120 <alpha_index>
    56e3:	4c 63 2c 82          	movslq (%rdx,%rax,4),%r13
/home/tenebris/Disk/Racing-code/examples/23-libjpeg-divide-by-zero/libjpeg-turbo-2.0.90/rdppm.c:409
  register int ps = rgb_pixelsize[cinfo->in_color_space];
    56e7:	48 8d 15 92 6a 00 00 	lea    0x6a92(%rip),%rdx        # c180 <rgb_pixelsize>
/home/tenebris/Disk/Racing-code/examples/23-libjpeg-divide-by-zero/libjpeg-turbo-2.0.90/rdppm.c:407
  register int bindex = rgb_blue[cinfo->in_color_space];
    56ee:	89 7c 24 0c          	mov    %edi,0xc(%rsp)
/home/tenebris/Disk/Racing-code/examples/23-libjpeg-divide-by-zero/libjpeg-turbo-2.0.90/rdppm.c:409
  register int ps = rgb_pixelsize[cinfo->in_color_space];
    56f2:	44 8b 34 82          	mov    (%rdx,%rax,4),%r14d
fread():
/usr/include/x86_64-linux-gnu/bits/stdio2.h:293
    56f6:	48 8b 7e 30          	mov    0x30(%rsi),%rdi
    56fa:	48 8b 56 40          	mov    0x40(%rsi),%rdx
    56fe:	be 01 00 00 00       	mov    $0x1,%esi
    5703:	e8 88 cb ff ff       	call   2290 <fread@plt>
get_rgb_row():
/home/tenebris/Disk/Racing-code/examples/23-libjpeg-divide-by-zero/libjpeg-turbo-2.0.90/rdppm.c:411
  if (!ReadOK(source->pub.input_file, source->iobuffer, source->buffer_width))
    5708:	49 39 44 24 40       	cmp    %rax,0x40(%r12)
    570d:	74 10                	je     571f <get_rgb_row+0x8f>
/home/tenebris/Disk/Racing-code/examples/23-libjpeg-divide-by-zero/libjpeg-turbo-2.0.90/rdppm.c:412
    ERREXIT(cinfo, JERR_INPUT_EOF);
    570f:	48 8b 45 00          	mov    0x0(%rbp),%rax
    5713:	48 89 ef             	mov    %rbp,%rdi
    5716:	c7 40 28 2b 00 00 00 	movl   $0x2b,0x28(%rax)
    571d:	ff 10                	call   *(%rax)
/home/tenebris/Disk/Racing-code/examples/23-libjpeg-divide-by-zero/libjpeg-turbo-2.0.90/rdppm.c:413
  ptr = source->pub.buffer[0];
    571f:	49 8b 44 24 20       	mov    0x20(%r12),%rax
/home/tenebris/Disk/Racing-code/examples/23-libjpeg-divide-by-zero/libjpeg-turbo-2.0.90/rdppm.c:417
      RGB_READ_LOOP(*bufferptr++, ptr[aindex] = 0xFF;)
    5724:	8b 4d 30             	mov    0x30(%rbp),%ecx
/home/tenebris/Disk/Racing-code/examples/23-libjpeg-divide-by-zero/libjpeg-turbo-2.0.90/rdppm.c:413
  ptr = source->pub.buffer[0];
    5727:	48 8b 10             	mov    (%rax),%rdx
/home/tenebris/Disk/Racing-code/examples/23-libjpeg-divide-by-zero/libjpeg-turbo-2.0.90/rdppm.c:414
  bufferptr = source->iobuffer;
    572a:	49 8b 44 24 30       	mov    0x30(%r12),%rax
/home/tenebris/Disk/Racing-code/examples/23-libjpeg-divide-by-zero/libjpeg-turbo-2.0.90/rdppm.c:415
  if (maxval == MAXJSAMPLE) {
    572f:	81 fb ff 00 00 00    	cmp    $0xff,%ebx
    5735:	0f 84 f5 00 00 00    	je     5830 <get_rgb_row+0x1a0>
/home/tenebris/Disk/Racing-code/examples/23-libjpeg-divide-by-zero/libjpeg-turbo-2.0.90/rdppm.c:421
    if (aindex >= 0)
    573b:	45 85 ed             	test   %r13d,%r13d
    573e:	0f 88 7c 00 00 00    	js     57c0 <get_rgb_row+0x130>
/home/tenebris/Disk/Racing-code/examples/23-libjpeg-divide-by-zero/libjpeg-turbo-2.0.90/rdppm.c:422
      RGB_READ_LOOP(rescale[UCH(*bufferptr++)], ptr[aindex] = 0xFF;)
    5744:	85 c9                	test   %ecx,%ecx
    5746:	74 64                	je     57ac <get_rgb_row+0x11c>
/home/tenebris/Disk/Racing-code/examples/23-libjpeg-divide-by-zero/libjpeg-turbo-2.0.90/rdppm.c:417
      RGB_READ_LOOP(*bufferptr++, ptr[aindex] = 0xFF;)
    5748:	48 63 5c 24 04       	movslq 0x4(%rsp),%rbx
    574d:	4c 63 64 24 08       	movslq 0x8(%rsp),%r12
    5752:	49 63 fe             	movslq %r14d,%rdi
    5755:	48 63 6c 24 0c       	movslq 0xc(%rsp),%rbp
    575a:	48 01 da             	add    %rbx,%rdx
    575d:	41 83 fe 01          	cmp    $0x1,%r14d
    5761:	0f 85 99 01 00 00    	jne    5900 <get_rgb_row+0x270>
    5767:	48 8d 3c 49          	lea    (%rcx,%rcx,2),%rdi
    576b:	48 01 c7             	add    %rax,%rdi
    576e:	66 90                	xchg   %ax,%ax
/home/tenebris/Disk/Racing-code/examples/23-libjpeg-divide-by-zero/libjpeg-turbo-2.0.90/rdppm.c:422
      RGB_READ_LOOP(rescale[UCH(*bufferptr++)], ptr[aindex] = 0xFF;)
    5770:	0f b6 08             	movzbl (%rax),%ecx
    5773:	48 83 c0 03          	add    $0x3,%rax
    5777:	41 0f b6 0c 0f       	movzbl (%r15,%rcx,1),%ecx
    577c:	88 0a                	mov    %cl,(%rdx)
    577e:	0f b6 48 fe          	movzbl -0x2(%rax),%ecx
    5782:	41 0f b6 34 0f       	movzbl (%r15,%rcx,1),%esi
    5787:	48 89 d1             	mov    %rdx,%rcx
    578a:	48 83 c2 01          	add    $0x1,%rdx
    578e:	48 29 d9             	sub    %rbx,%rcx
    5791:	42 88 34 21          	mov    %sil,(%rcx,%r12,1)
    5795:	0f b6 70 ff          	movzbl -0x1(%rax),%esi
    5799:	41 0f b6 34 37       	movzbl (%r15,%rsi,1),%esi
    579e:	40 88 34 29          	mov    %sil,(%rcx,%rbp,1)
    57a2:	42 c6 04 29 ff       	movb   $0xff,(%rcx,%r13,1)
    57a7:	48 39 c7             	cmp    %rax,%rdi
    57aa:	75 c4                	jne    5770 <get_rgb_row+0xe0>
/home/tenebris/Disk/Racing-code/examples/23-libjpeg-divide-by-zero/libjpeg-turbo-2.0.90/rdppm.c:427
}
    57ac:	48 83 c4 18          	add    $0x18,%rsp
    57b0:	b8 01 00 00 00       	mov    $0x1,%eax
    57b5:	5b                   	pop    %rbx
    57b6:	5d                   	pop    %rbp
    57b7:	41 5c                	pop    %r12
    57b9:	41 5d                	pop    %r13
    57bb:	41 5e                	pop    %r14
    57bd:	41 5f                	pop    %r15
    57bf:	c3                   	ret    
/home/tenebris/Disk/Racing-code/examples/23-libjpeg-divide-by-zero/libjpeg-turbo-2.0.90/rdppm.c:424
      RGB_READ_LOOP(rescale[UCH(*bufferptr++)],)
    57c0:	85 c9                	test   %ecx,%ecx
    57c2:	74 e8                	je     57ac <get_rgb_row+0x11c>
/home/tenebris/Disk/Racing-code/examples/23-libjpeg-divide-by-zero/libjpeg-turbo-2.0.90/rdppm.c:417
      RGB_READ_LOOP(*bufferptr++, ptr[aindex] = 0xFF;)
    57c4:	48 63 5c 24 04       	movslq 0x4(%rsp),%rbx
    57c9:	4c 63 64 24 08       	movslq 0x8(%rsp),%r12
    57ce:	49 63 fe             	movslq %r14d,%rdi
    57d1:	48 63 6c 24 0c       	movslq 0xc(%rsp),%rbp
    57d6:	48 01 da             	add    %rbx,%rdx
    57d9:	41 83 fe 01          	cmp    $0x1,%r14d
    57dd:	0f 85 6d 01 00 00    	jne    5950 <get_rgb_row+0x2c0>
    57e3:	48 8d 3c 49          	lea    (%rcx,%rcx,2),%rdi
    57e7:	48 01 c7             	add    %rax,%rdi
    57ea:	66 0f 1f 44 00 00    	nopw   0x0(%rax,%rax,1)
/home/tenebris/Disk/Racing-code/examples/23-libjpeg-divide-by-zero/libjpeg-turbo-2.0.90/rdppm.c:424
      RGB_READ_LOOP(rescale[UCH(*bufferptr++)],)
    57f0:	0f b6 08             	movzbl (%rax),%ecx
    57f3:	48 83 c0 03          	add    $0x3,%rax
    57f7:	41 0f b6 0c 0f       	movzbl (%r15,%rcx,1),%ecx
    57fc:	88 0a                	mov    %cl,(%rdx)
    57fe:	0f b6 48 fe          	movzbl -0x2(%rax),%ecx
    5802:	41 0f b6 34 0f       	movzbl (%r15,%rcx,1),%esi
    5807:	48 89 d1             	mov    %rdx,%rcx
    580a:	48 83 c2 01          	add    $0x1,%rdx
    580e:	48 29 d9             	sub    %rbx,%rcx
    5811:	42 88 34 21          	mov    %sil,(%rcx,%r12,1)
    5815:	0f b6 70 ff          	movzbl -0x1(%rax),%esi
    5819:	41 0f b6 34 37       	movzbl (%r15,%rsi,1),%esi
    581e:	40 88 34 29          	mov    %sil,(%rcx,%rbp,1)
    5822:	48 39 c7             	cmp    %rax,%rdi
    5825:	75 c9                	jne    57f0 <get_rgb_row+0x160>
    5827:	eb 83                	jmp    57ac <get_rgb_row+0x11c>
    5829:	0f 1f 80 00 00 00 00 	nopl   0x0(%rax)
/home/tenebris/Disk/Racing-code/examples/23-libjpeg-divide-by-zero/libjpeg-turbo-2.0.90/rdppm.c:416
    if (aindex >= 0)
    5830:	45 85 ed             	test   %r13d,%r13d
    5833:	78 6b                	js     58a0 <get_rgb_row+0x210>
/home/tenebris/Disk/Racing-code/examples/23-libjpeg-divide-by-zero/libjpeg-turbo-2.0.90/rdppm.c:417
      RGB_READ_LOOP(*bufferptr++, ptr[aindex] = 0xFF;)
    5835:	85 c9                	test   %ecx,%ecx
    5837:	0f 84 6f ff ff ff    	je     57ac <get_rgb_row+0x11c>
    583d:	48 63 5c 24 04       	movslq 0x4(%rsp),%rbx
    5842:	4c 63 64 24 08       	movslq 0x8(%rsp),%r12
    5847:	49 63 fe             	movslq %r14d,%rdi
    584a:	48 63 6c 24 0c       	movslq 0xc(%rsp),%rbp
    584f:	48 01 da             	add    %rbx,%rdx
    5852:	41 83 fe 01          	cmp    $0x1,%r14d
    5856:	0f 85 44 01 00 00    	jne    59a0 <get_rgb_row+0x310>
    585c:	48 8d 3c 49          	lea    (%rcx,%rcx,2),%rdi
    5860:	48 01 c7             	add    %rax,%rdi
    5863:	0f 1f 44 00 00       	nopl   0x0(%rax,%rax,1)
    5868:	0f b6 08             	movzbl (%rax),%ecx
    586b:	48 83 c0 03          	add    $0x3,%rax
    586f:	88 0a                	mov    %cl,(%rdx)
    5871:	48 89 d1             	mov    %rdx,%rcx
    5874:	0f b6 70 fe          	movzbl -0x2(%rax),%esi
    5878:	48 83 c2 01          	add    $0x1,%rdx
    587c:	48 29 d9             	sub    %rbx,%rcx
    587f:	42 88 34 21          	mov    %sil,(%rcx,%r12,1)
    5883:	0f b6 70 ff          	movzbl -0x1(%rax),%esi
    5887:	40 88 34 29          	mov    %sil,(%rcx,%rbp,1)
    588b:	42 c6 04 29 ff       	movb   $0xff,(%rcx,%r13,1)
    5890:	48 39 c7             	cmp    %rax,%rdi
    5893:	75 d3                	jne    5868 <get_rgb_row+0x1d8>
    5895:	e9 12 ff ff ff       	jmp    57ac <get_rgb_row+0x11c>
    589a:	66 0f 1f 44 00 00    	nopw   0x0(%rax,%rax,1)
/home/tenebris/Disk/Racing-code/examples/23-libjpeg-divide-by-zero/libjpeg-turbo-2.0.90/rdppm.c:419
      RGB_READ_LOOP(*bufferptr++,)
    58a0:	85 c9                	test   %ecx,%ecx
    58a2:	0f 84 04 ff ff ff    	je     57ac <get_rgb_row+0x11c>
/home/tenebris/Disk/Racing-code/examples/23-libjpeg-divide-by-zero/libjpeg-turbo-2.0.90/rdppm.c:417
      RGB_READ_LOOP(*bufferptr++, ptr[aindex] = 0xFF;)
    58a8:	48 63 5c 24 04       	movslq 0x4(%rsp),%rbx
    58ad:	4c 63 64 24 08       	movslq 0x8(%rsp),%r12
    58b2:	49 63 fe             	movslq %r14d,%rdi
    58b5:	48 63 6c 24 0c       	movslq 0xc(%rsp),%rbp
    58ba:	48 01 da             	add    %rbx,%rdx
    58bd:	41 83 fe 01          	cmp    $0x1,%r14d
    58c1:	0f 85 1a 01 00 00    	jne    59e1 <get_rgb_row+0x351>
    58c7:	48 8d 3c 49          	lea    (%rcx,%rcx,2),%rdi
    58cb:	48 01 c7             	add    %rax,%rdi
    58ce:	66 90                	xchg   %ax,%ax
/home/tenebris/Disk/Racing-code/examples/23-libjpeg-divide-by-zero/libjpeg-turbo-2.0.90/rdppm.c:419
      RGB_READ_LOOP(*bufferptr++,)
    58d0:	0f b6 08             	movzbl (%rax),%ecx
    58d3:	48 83 c0 03          	add    $0x3,%rax
    58d7:	88 0a                	mov    %cl,(%rdx)
    58d9:	48 89 d1             	mov    %rdx,%rcx
    58dc:	0f b6 70 fe          	movzbl -0x2(%rax),%esi
    58e0:	48 83 c2 01          	add    $0x1,%rdx
    58e4:	48 29 d9             	sub    %rbx,%rcx
    58e7:	42 88 34 21          	mov    %sil,(%rcx,%r12,1)
    58eb:	0f b6 70 ff          	movzbl -0x1(%rax),%esi
    58ef:	40 88 34 29          	mov    %sil,(%rcx,%rbp,1)
    58f3:	48 39 c7             	cmp    %rax,%rdi
    58f6:	75 d8                	jne    58d0 <get_rgb_row+0x240>
    58f8:	e9 af fe ff ff       	jmp    57ac <get_rgb_row+0x11c>
    58fd:	0f 1f 00             	nopl   (%rax)
    5900:	4c 8d 0c 49          	lea    (%rcx,%rcx,2),%r9
    5904:	49 01 c1             	add    %rax,%r9
    5907:	66 0f 1f 84 00 00 00 	nopw   0x0(%rax,%rax,1)
    590e:	00 00 
/home/tenebris/Disk/Racing-code/examples/23-libjpeg-divide-by-zero/libjpeg-turbo-2.0.90/rdppm.c:422 (discriminator 3)
      RGB_READ_LOOP(rescale[UCH(*bufferptr++)], ptr[aindex] = 0xFF;)
    5910:	0f b6 08             	movzbl (%rax),%ecx
    5913:	48 83 c0 03          	add    $0x3,%rax
    5917:	41 0f b6 0c 0f       	movzbl (%r15,%rcx,1),%ecx
    591c:	88 0a                	mov    %cl,(%rdx)
    591e:	0f b6 48 fe          	movzbl -0x2(%rax),%ecx
    5922:	41 0f b6 34 0f       	movzbl (%r15,%rcx,1),%esi
    5927:	48 89 d1             	mov    %rdx,%rcx
    592a:	48 01 fa             	add    %rdi,%rdx
    592d:	48 29 d9             	sub    %rbx,%rcx
    5930:	42 88 34 21          	mov    %sil,(%rcx,%r12,1)
    5934:	0f b6 70 ff          	movzbl -0x1(%rax),%esi
    5938:	41 0f b6 34 37       	movzbl (%r15,%rsi,1),%esi
    593d:	40 88 34 29          	mov    %sil,(%rcx,%rbp,1)
    5941:	42 c6 04 29 ff       	movb   $0xff,(%rcx,%r13,1)
    5946:	49 39 c1             	cmp    %rax,%r9
    5949:	75 c5                	jne    5910 <get_rgb_row+0x280>
    594b:	e9 5c fe ff ff       	jmp    57ac <get_rgb_row+0x11c>
    5950:	4c 8d 0c 49          	lea    (%rcx,%rcx,2),%r9
    5954:	49 01 c1             	add    %rax,%r9
    5957:	66 0f 1f 84 00 00 00 	nopw   0x0(%rax,%rax,1)
    595e:	00 00 
/home/tenebris/Disk/Racing-code/examples/23-libjpeg-divide-by-zero/libjpeg-turbo-2.0.90/rdppm.c:424 (discriminator 3)
      RGB_READ_LOOP(rescale[UCH(*bufferptr++)],)
    5960:	0f b6 08             	movzbl (%rax),%ecx
    5963:	48 83 c0 03          	add    $0x3,%rax
    5967:	41 0f b6 0c 0f       	movzbl (%r15,%rcx,1),%ecx
    596c:	88 0a                	mov    %cl,(%rdx)
    596e:	0f b6 48 fe          	movzbl -0x2(%rax),%ecx
    5972:	41 0f b6 34 0f       	movzbl (%r15,%rcx,1),%esi
    5977:	48 89 d1             	mov    %rdx,%rcx
    597a:	48 01 fa             	add    %rdi,%rdx
    597d:	48 29 d9             	sub    %rbx,%rcx
    5980:	42 88 34 21          	mov    %sil,(%rcx,%r12,1)
    5984:	0f b6 70 ff          	movzbl -0x1(%rax),%esi
    5988:	41 0f b6 34 37       	movzbl (%r15,%rsi,1),%esi
    598d:	40 88 34 29          	mov    %sil,(%rcx,%rbp,1)
    5991:	49 39 c1             	cmp    %rax,%r9
    5994:	75 ca                	jne    5960 <get_rgb_row+0x2d0>
    5996:	e9 11 fe ff ff       	jmp    57ac <get_rgb_row+0x11c>
    599b:	0f 1f 44 00 00       	nopl   0x0(%rax,%rax,1)
    59a0:	4c 8d 04 49          	lea    (%rcx,%rcx,2),%r8
    59a4:	49 01 c0             	add    %rax,%r8
    59a7:	66 0f 1f 84 00 00 00 	nopw   0x0(%rax,%rax,1)
    59ae:	00 00 
/home/tenebris/Disk/Racing-code/examples/23-libjpeg-divide-by-zero/libjpeg-turbo-2.0.90/rdppm.c:417 (discriminator 3)
      RGB_READ_LOOP(*bufferptr++, ptr[aindex] = 0xFF;)
    59b0:	0f b6 08             	movzbl (%rax),%ecx
    59b3:	48 83 c0 03          	add    $0x3,%rax
    59b7:	88 0a                	mov    %cl,(%rdx)
    59b9:	48 89 d1             	mov    %rdx,%rcx
    59bc:	0f b6 70 fe          	movzbl -0x2(%rax),%esi
    59c0:	48 01 fa             	add    %rdi,%rdx
    59c3:	48 29 d9             	sub    %rbx,%rcx
    59c6:	42 88 34 21          	mov    %sil,(%rcx,%r12,1)
    59ca:	0f b6 70 ff          	movzbl -0x1(%rax),%esi
    59ce:	40 88 34 29          	mov    %sil,(%rcx,%rbp,1)
    59d2:	42 c6 04 29 ff       	movb   $0xff,(%rcx,%r13,1)
    59d7:	49 39 c0             	cmp    %rax,%r8
    59da:	75 d4                	jne    59b0 <get_rgb_row+0x320>
    59dc:	e9 cb fd ff ff       	jmp    57ac <get_rgb_row+0x11c>
    59e1:	4c 8d 04 49          	lea    (%rcx,%rcx,2),%r8
    59e5:	49 01 c0             	add    %rax,%r8
    59e8:	0f 1f 84 00 00 00 00 	nopl   0x0(%rax,%rax,1)
    59ef:	00 
/home/tenebris/Disk/Racing-code/examples/23-libjpeg-divide-by-zero/libjpeg-turbo-2.0.90/rdppm.c:419 (discriminator 3)
      RGB_READ_LOOP(*bufferptr++,)
    59f0:	0f b6 08             	movzbl (%rax),%ecx
    59f3:	48 83 c0 03          	add    $0x3,%rax
    59f7:	88 0a                	mov    %cl,(%rdx)
    59f9:	48 89 d1             	mov    %rdx,%rcx
    59fc:	0f b6 70 fe          	movzbl -0x2(%rax),%esi
    5a00:	48 01 fa             	add    %rdi,%rdx
    5a03:	48 29 d9             	sub    %rbx,%rcx
    5a06:	42 88 34 21          	mov    %sil,(%rcx,%r12,1)
    5a0a:	0f b6 70 ff          	movzbl -0x1(%rax),%esi
    5a0e:	40 88 34 29          	mov    %sil,(%rcx,%rbp,1)
    5a12:	49 39 c0             	cmp    %rax,%r8
    5a15:	75 d9                	jne    59f0 <get_rgb_row+0x360>
    5a17:	e9 90 fd ff ff       	jmp    57ac <get_rgb_row+0x11c>
    5a1c:	0f 1f 40 00          	nopl   0x0(%rax)

0000000000005a20 <get_rgb_cmyk_row>:
get_rgb_cmyk_row():
/home/tenebris/Disk/Racing-code/examples/23-libjpeg-divide-by-zero/libjpeg-turbo-2.0.90/rdppm.c:434
{
    5a20:	f3 0f 1e fa          	endbr64 
    5a24:	41 55                	push   %r13
    5a26:	41 54                	push   %r12
    5a28:	49 89 fc             	mov    %rdi,%r12
    5a2b:	55                   	push   %rbp
    5a2c:	48 89 f5             	mov    %rsi,%rbp
    5a2f:	53                   	push   %rbx
    5a30:	48 83 ec 08          	sub    $0x8,%rsp
fread():
/usr/include/x86_64-linux-gnu/bits/stdio2.h:293
    5a34:	48 8b 4e 18          	mov    0x18(%rsi),%rcx
    5a38:	48 8b 56 40          	mov    0x40(%rsi),%rdx
    5a3c:	48 8b 7e 30          	mov    0x30(%rsi),%rdi
get_rgb_cmyk_row():
/home/tenebris/Disk/Racing-code/examples/23-libjpeg-divide-by-zero/libjpeg-turbo-2.0.90/rdppm.c:438
  register JSAMPLE *rescale = source->rescale;
    5a40:	48 8b 5e 48          	mov    0x48(%rsi),%rbx
/home/tenebris/Disk/Racing-code/examples/23-libjpeg-divide-by-zero/libjpeg-turbo-2.0.90/rdppm.c:440
  unsigned int maxval = source->maxval;
    5a44:	44 8b 6e 50          	mov    0x50(%rsi),%r13d
fread():
/usr/include/x86_64-linux-gnu/bits/stdio2.h:293
    5a48:	be 01 00 00 00       	mov    $0x1,%esi
    5a4d:	e8 3e c8 ff ff       	call   2290 <fread@plt>
get_rgb_cmyk_row():
/home/tenebris/Disk/Racing-code/examples/23-libjpeg-divide-by-zero/libjpeg-turbo-2.0.90/rdppm.c:442
  if (!ReadOK(source->pub.input_file, source->iobuffer, source->buffer_width))
    5a52:	48 39 45 40          	cmp    %rax,0x40(%rbp)
    5a56:	74 10                	je     5a68 <get_rgb_cmyk_row+0x48>
/home/tenebris/Disk/Racing-code/examples/23-libjpeg-divide-by-zero/libjpeg-turbo-2.0.90/rdppm.c:443
    ERREXIT(cinfo, JERR_INPUT_EOF);
    5a58:	49 8b 04 24          	mov    (%r12),%rax
    5a5c:	4c 89 e7             	mov    %r12,%rdi
    5a5f:	c7 40 28 2b 00 00 00 	movl   $0x2b,0x28(%rax)
    5a66:	ff 10                	call   *(%rax)
/home/tenebris/Disk/Racing-code/examples/23-libjpeg-divide-by-zero/libjpeg-turbo-2.0.90/rdppm.c:444
  ptr = source->pub.buffer[0];
    5a68:	48 8b 45 20          	mov    0x20(%rbp),%rax
/home/tenebris/Disk/Racing-code/examples/23-libjpeg-divide-by-zero/libjpeg-turbo-2.0.90/rdppm.c:445
  bufferptr = source->iobuffer;
    5a6c:	48 8b 55 30          	mov    0x30(%rbp),%rdx
/home/tenebris/Disk/Racing-code/examples/23-libjpeg-divide-by-zero/libjpeg-turbo-2.0.90/rdppm.c:447
    for (col = cinfo->image_width; col > 0; col--) {
    5a70:	41 8b 4c 24 30       	mov    0x30(%r12),%ecx
/home/tenebris/Disk/Racing-code/examples/23-libjpeg-divide-by-zero/libjpeg-turbo-2.0.90/rdppm.c:444
  ptr = source->pub.buffer[0];
    5a75:	48 8b 00             	mov    (%rax),%rax
/home/tenebris/Disk/Racing-code/examples/23-libjpeg-divide-by-zero/libjpeg-turbo-2.0.90/rdppm.c:446
  if (maxval == MAXJSAMPLE) {
    5a78:	41 81 fd ff 00 00 00 	cmp    $0xff,%r13d
    5a7f:	0f 84 6b 01 00 00    	je     5bf0 <get_rgb_cmyk_row+0x1d0>
/home/tenebris/Disk/Racing-code/examples/23-libjpeg-divide-by-zero/libjpeg-turbo-2.0.90/rdppm.c:455
    for (col = cinfo->image_width; col > 0; col--) {
    5a85:	85 c9                	test   %ecx,%ecx
    5a87:	0f 84 23 01 00 00    	je     5bb0 <get_rgb_cmyk_row+0x190>
    5a8d:	f2 0f 10 05 53 68 00 	movsd  0x6853(%rip),%xmm0        # c2e8 <rgb_red+0x48>
    5a94:	00 
    5a95:	f2 0f 10 15 53 68 00 	movsd  0x6853(%rip),%xmm2        # c2f0 <rgb_red+0x50>
    5a9c:	00 
    5a9d:	48 8d 0c 88          	lea    (%rax,%rcx,4),%rcx
rgb_to_cmyk():
/home/tenebris/Disk/Racing-code/examples/23-libjpeg-divide-by-zero/libjpeg-turbo-2.0.90/cmyk.h:41
  *c = (JSAMPLE)(255.0 - ctmp * 255.0 + 0.5);
    5aa1:	f2 0f 10 35 4f 68 00 	movsd  0x684f(%rip),%xmm6        # c2f8 <rgb_red+0x58>
    5aa8:	00 
    5aa9:	0f 1f 80 00 00 00 00 	nopl   0x0(%rax)
get_rgb_cmyk_row():
/home/tenebris/Disk/Racing-code/examples/23-libjpeg-divide-by-zero/libjpeg-turbo-2.0.90/rdppm.c:456 (discriminator 3)
      JSAMPLE r = rescale[UCH(*bufferptr++)];
    5ab0:	0f b6 3a             	movzbl (%rdx),%edi
rgb_to_cmyk():
/home/tenebris/Disk/Racing-code/examples/23-libjpeg-divide-by-zero/libjpeg-turbo-2.0.90/cmyk.h:30 (discriminator 3)
  double ctmp = 1.0 - ((double)r / 255.0);
    5ab3:	66 0f ef c9          	pxor   %xmm1,%xmm1
get_rgb_cmyk_row():
/home/tenebris/Disk/Racing-code/examples/23-libjpeg-divide-by-zero/libjpeg-turbo-2.0.90/rdppm.c:457 (discriminator 3)
      JSAMPLE g = rescale[UCH(*bufferptr++)];
    5ab7:	0f b6 72 01          	movzbl 0x1(%rdx),%esi
rgb_to_cmyk():
/home/tenebris/Disk/Racing-code/examples/23-libjpeg-divide-by-zero/libjpeg-turbo-2.0.90/cmyk.h:30 (discriminator 3)
    5abb:	66 0f 28 ea          	movapd %xmm2,%xmm5
    5abf:	48 83 c2 03          	add    $0x3,%rdx
/home/tenebris/Disk/Racing-code/examples/23-libjpeg-divide-by-zero/libjpeg-turbo-2.0.90/cmyk.h:31 (discriminator 3)
  double mtmp = 1.0 - ((double)g / 255.0);
    5ac3:	66 0f 28 e2          	movapd %xmm2,%xmm4
/home/tenebris/Disk/Racing-code/examples/23-libjpeg-divide-by-zero/libjpeg-turbo-2.0.90/cmyk.h:32 (discriminator 3)
  double ytmp = 1.0 - ((double)b / 255.0);
    5ac7:	66 0f 28 da          	movapd %xmm2,%xmm3
/home/tenebris/Disk/Racing-code/examples/23-libjpeg-divide-by-zero/libjpeg-turbo-2.0.90/cmyk.h:30 (discriminator 3)
  double ctmp = 1.0 - ((double)r / 255.0);
    5acb:	0f b6 3c 3b          	movzbl (%rbx,%rdi,1),%edi
/home/tenebris/Disk/Racing-code/examples/23-libjpeg-divide-by-zero/libjpeg-turbo-2.0.90/cmyk.h:31 (discriminator 3)
  double mtmp = 1.0 - ((double)g / 255.0);
    5acf:	0f b6 34 33          	movzbl (%rbx,%rsi,1),%esi
/home/tenebris/Disk/Racing-code/examples/23-libjpeg-divide-by-zero/libjpeg-turbo-2.0.90/cmyk.h:30 (discriminator 3)
  double ctmp = 1.0 - ((double)r / 255.0);
    5ad3:	f2 0f 2a cf          	cvtsi2sd %edi,%xmm1
    5ad7:	f2 0f 5e c8          	divsd  %xmm0,%xmm1
    5adb:	f2 0f 5c e9          	subsd  %xmm1,%xmm5
/home/tenebris/Disk/Racing-code/examples/23-libjpeg-divide-by-zero/libjpeg-turbo-2.0.90/cmyk.h:31 (discriminator 3)
  double mtmp = 1.0 - ((double)g / 255.0);
    5adf:	66 0f ef c9          	pxor   %xmm1,%xmm1
    5ae3:	f2 0f 2a ce          	cvtsi2sd %esi,%xmm1
get_rgb_cmyk_row():
/home/tenebris/Disk/Racing-code/examples/23-libjpeg-divide-by-zero/libjpeg-turbo-2.0.90/rdppm.c:458 (discriminator 3)
      JSAMPLE b = rescale[UCH(*bufferptr++)];
    5ae7:	0f b6 72 ff          	movzbl -0x1(%rdx),%esi
rgb_to_cmyk():
/home/tenebris/Disk/Racing-code/examples/23-libjpeg-divide-by-zero/libjpeg-turbo-2.0.90/cmyk.h:32 (discriminator 3)
  double ytmp = 1.0 - ((double)b / 255.0);
    5aeb:	0f b6 34 33          	movzbl (%rbx,%rsi,1),%esi
/home/tenebris/Disk/Racing-code/examples/23-libjpeg-divide-by-zero/libjpeg-turbo-2.0.90/cmyk.h:31 (discriminator 3)
  double mtmp = 1.0 - ((double)g / 255.0);
    5aef:	f2 0f 5e c8          	divsd  %xmm0,%xmm1
    5af3:	f2 0f 5c e1          	subsd  %xmm1,%xmm4
/home/tenebris/Disk/Racing-code/examples/23-libjpeg-divide-by-zero/libjpeg-turbo-2.0.90/cmyk.h:32 (discriminator 3)
  double ytmp = 1.0 - ((double)b / 255.0);
    5af7:	66 0f ef c9          	pxor   %xmm1,%xmm1
    5afb:	f2 0f 2a ce          	cvtsi2sd %esi,%xmm1
    5aff:	f2 0f 5e c8          	divsd  %xmm0,%xmm1
    5b03:	f2 0f 5c d9          	subsd  %xmm1,%xmm3
/home/tenebris/Disk/Racing-code/examples/23-libjpeg-divide-by-zero/libjpeg-turbo-2.0.90/cmyk.h:33 (discriminator 3)
  double ktmp = MIN(MIN(ctmp, mtmp), ytmp);
    5b07:	66 0f 28 cd          	movapd %xmm5,%xmm1
    5b0b:	f2 0f 5d cc          	minsd  %xmm4,%xmm1
    5b0f:	f2 0f 5d cb          	minsd  %xmm3,%xmm1
/home/tenebris/Disk/Racing-code/examples/23-libjpeg-divide-by-zero/libjpeg-turbo-2.0.90/cmyk.h:35 (discriminator 3)
  if (ktmp == 1.0) ctmp = mtmp = ytmp = 0.0;
    5b13:	66 0f 2e ca          	ucomisd %xmm2,%xmm1
    5b17:	7a 06                	jp     5b1f <get_rgb_cmyk_row+0xff>
/home/tenebris/Disk/Racing-code/examples/23-libjpeg-divide-by-zero/libjpeg-turbo-2.0.90/cmyk.h:35
    5b19:	0f 84 a1 00 00 00    	je     5bc0 <get_rgb_cmyk_row+0x1a0>
/home/tenebris/Disk/Racing-code/examples/23-libjpeg-divide-by-zero/libjpeg-turbo-2.0.90/cmyk.h:37
    ctmp = (ctmp - ktmp) / (1.0 - ktmp);
    5b1f:	66 0f 28 fa          	movapd %xmm2,%xmm7
    5b23:	f2 0f 5c e9          	subsd  %xmm1,%xmm5
/home/tenebris/Disk/Racing-code/examples/23-libjpeg-divide-by-zero/libjpeg-turbo-2.0.90/cmyk.h:38
    mtmp = (mtmp - ktmp) / (1.0 - ktmp);
    5b27:	f2 0f 5c e1          	subsd  %xmm1,%xmm4
get_rgb_cmyk_row():
/home/tenebris/Disk/Racing-code/examples/23-libjpeg-divide-by-zero/libjpeg-turbo-2.0.90/rdppm.c:460
      ptr += 4;
    5b2b:	48 83 c0 04          	add    $0x4,%rax
rgb_to_cmyk():
/home/tenebris/Disk/Racing-code/examples/23-libjpeg-divide-by-zero/libjpeg-turbo-2.0.90/cmyk.h:37
    ctmp = (ctmp - ktmp) / (1.0 - ktmp);
    5b2f:	f2 0f 5c f9          	subsd  %xmm1,%xmm7
/home/tenebris/Disk/Racing-code/examples/23-libjpeg-divide-by-zero/libjpeg-turbo-2.0.90/cmyk.h:39
    ytmp = (ytmp - ktmp) / (1.0 - ktmp);
    5b33:	f2 0f 5c d9          	subsd  %xmm1,%xmm3
/home/tenebris/Disk/Racing-code/examples/23-libjpeg-divide-by-zero/libjpeg-turbo-2.0.90/cmyk.h:41
  *c = (JSAMPLE)(255.0 - ctmp * 255.0 + 0.5);
    5b37:	66 44 0f 28 c0       	movapd %xmm0,%xmm8
/home/tenebris/Disk/Racing-code/examples/23-libjpeg-divide-by-zero/libjpeg-turbo-2.0.90/cmyk.h:44
  *k = (JSAMPLE)(255.0 - ktmp * 255.0 + 0.5);
    5b3c:	f2 0f 59 c8          	mulsd  %xmm0,%xmm1
/home/tenebris/Disk/Racing-code/examples/23-libjpeg-divide-by-zero/libjpeg-turbo-2.0.90/cmyk.h:37
    ctmp = (ctmp - ktmp) / (1.0 - ktmp);
    5b40:	f2 0f 5e ef          	divsd  %xmm7,%xmm5
/home/tenebris/Disk/Racing-code/examples/23-libjpeg-divide-by-zero/libjpeg-turbo-2.0.90/cmyk.h:38
    mtmp = (mtmp - ktmp) / (1.0 - ktmp);
    5b44:	f2 0f 5e e7          	divsd  %xmm7,%xmm4
/home/tenebris/Disk/Racing-code/examples/23-libjpeg-divide-by-zero/libjpeg-turbo-2.0.90/cmyk.h:41
  *c = (JSAMPLE)(255.0 - ctmp * 255.0 + 0.5);
    5b48:	f2 0f 59 e8          	mulsd  %xmm0,%xmm5
    5b4c:	f2 44 0f 5c c5       	subsd  %xmm5,%xmm8
/home/tenebris/Disk/Racing-code/examples/23-libjpeg-divide-by-zero/libjpeg-turbo-2.0.90/cmyk.h:42
  *m = (JSAMPLE)(255.0 - mtmp * 255.0 + 0.5);
    5b51:	66 0f 28 e8          	movapd %xmm0,%xmm5
/home/tenebris/Disk/Racing-code/examples/23-libjpeg-divide-by-zero/libjpeg-turbo-2.0.90/cmyk.h:41
  *c = (JSAMPLE)(255.0 - ctmp * 255.0 + 0.5);
    5b55:	f2 44 0f 58 c6       	addsd  %xmm6,%xmm8
    5b5a:	f2 41 0f 2c f0       	cvttsd2si %xmm8,%esi
/home/tenebris/Disk/Racing-code/examples/23-libjpeg-divide-by-zero/libjpeg-turbo-2.0.90/cmyk.h:39
    ytmp = (ytmp - ktmp) / (1.0 - ktmp);
    5b5f:	f2 0f 5e df          	divsd  %xmm7,%xmm3
/home/tenebris/Disk/Racing-code/examples/23-libjpeg-divide-by-zero/libjpeg-turbo-2.0.90/cmyk.h:41
  *c = (JSAMPLE)(255.0 - ctmp * 255.0 + 0.5);
    5b63:	40 88 70 fc          	mov    %sil,-0x4(%rax)
/home/tenebris/Disk/Racing-code/examples/23-libjpeg-divide-by-zero/libjpeg-turbo-2.0.90/cmyk.h:42
  *m = (JSAMPLE)(255.0 - mtmp * 255.0 + 0.5);
    5b67:	f2 0f 59 e0          	mulsd  %xmm0,%xmm4
    5b6b:	f2 0f 5c ec          	subsd  %xmm4,%xmm5
/home/tenebris/Disk/Racing-code/examples/23-libjpeg-divide-by-zero/libjpeg-turbo-2.0.90/cmyk.h:43
  *y = (JSAMPLE)(255.0 - ytmp * 255.0 + 0.5);
    5b6f:	66 0f 28 e0          	movapd %xmm0,%xmm4
/home/tenebris/Disk/Racing-code/examples/23-libjpeg-divide-by-zero/libjpeg-turbo-2.0.90/cmyk.h:42
  *m = (JSAMPLE)(255.0 - mtmp * 255.0 + 0.5);
    5b73:	f2 0f 58 ee          	addsd  %xmm6,%xmm5
    5b77:	f2 0f 2c f5          	cvttsd2si %xmm5,%esi
    5b7b:	40 88 70 fd          	mov    %sil,-0x3(%rax)
/home/tenebris/Disk/Racing-code/examples/23-libjpeg-divide-by-zero/libjpeg-turbo-2.0.90/cmyk.h:43
  *y = (JSAMPLE)(255.0 - ytmp * 255.0 + 0.5);
    5b7f:	f2 0f 59 d8          	mulsd  %xmm0,%xmm3
    5b83:	f2 0f 5c e3          	subsd  %xmm3,%xmm4
/home/tenebris/Disk/Racing-code/examples/23-libjpeg-divide-by-zero/libjpeg-turbo-2.0.90/cmyk.h:44
  *k = (JSAMPLE)(255.0 - ktmp * 255.0 + 0.5);
    5b87:	66 0f 28 d8          	movapd %xmm0,%xmm3
    5b8b:	f2 0f 5c d9          	subsd  %xmm1,%xmm3
/home/tenebris/Disk/Racing-code/examples/23-libjpeg-divide-by-zero/libjpeg-turbo-2.0.90/cmyk.h:43
  *y = (JSAMPLE)(255.0 - ytmp * 255.0 + 0.5);
    5b8f:	f2 0f 58 e6          	addsd  %xmm6,%xmm4
/home/tenebris/Disk/Racing-code/examples/23-libjpeg-divide-by-zero/libjpeg-turbo-2.0.90/cmyk.h:44
  *k = (JSAMPLE)(255.0 - ktmp * 255.0 + 0.5);
    5b93:	f2 0f 58 de          	addsd  %xmm6,%xmm3
/home/tenebris/Disk/Racing-code/examples/23-libjpeg-divide-by-zero/libjpeg-turbo-2.0.90/cmyk.h:43
  *y = (JSAMPLE)(255.0 - ytmp * 255.0 + 0.5);
    5b97:	f2 0f 2c f4          	cvttsd2si %xmm4,%esi
    5b9b:	40 88 70 fe          	mov    %sil,-0x2(%rax)
/home/tenebris/Disk/Racing-code/examples/23-libjpeg-divide-by-zero/libjpeg-turbo-2.0.90/cmyk.h:44
  *k = (JSAMPLE)(255.0 - ktmp * 255.0 + 0.5);
    5b9f:	f2 0f 2c f3          	cvttsd2si %xmm3,%esi
    5ba3:	40 88 70 ff          	mov    %sil,-0x1(%rax)
get_rgb_cmyk_row():
/home/tenebris/Disk/Racing-code/examples/23-libjpeg-divide-by-zero/libjpeg-turbo-2.0.90/rdppm.c:455
    for (col = cinfo->image_width; col > 0; col--) {
    5ba7:	48 39 c8             	cmp    %rcx,%rax
    5baa:	0f 85 00 ff ff ff    	jne    5ab0 <get_rgb_cmyk_row+0x90>
/home/tenebris/Disk/Racing-code/examples/23-libjpeg-divide-by-zero/libjpeg-turbo-2.0.90/rdppm.c:464
}
    5bb0:	48 83 c4 08          	add    $0x8,%rsp
    5bb4:	b8 01 00 00 00       	mov    $0x1,%eax
    5bb9:	5b                   	pop    %rbx
    5bba:	5d                   	pop    %rbp
    5bbb:	41 5c                	pop    %r12
    5bbd:	41 5d                	pop    %r13
    5bbf:	c3                   	ret    
rgb_to_cmyk():
/home/tenebris/Disk/Racing-code/examples/23-libjpeg-divide-by-zero/libjpeg-turbo-2.0.90/cmyk.h:41
  *c = (JSAMPLE)(255.0 - ctmp * 255.0 + 0.5);
    5bc0:	c6 00 ff             	movb   $0xff,(%rax)
get_rgb_cmyk_row():
/home/tenebris/Disk/Racing-code/examples/23-libjpeg-divide-by-zero/libjpeg-turbo-2.0.90/rdppm.c:460
      ptr += 4;
    5bc3:	48 83 c0 04          	add    $0x4,%rax
rgb_to_cmyk():
/home/tenebris/Disk/Racing-code/examples/23-libjpeg-divide-by-zero/libjpeg-turbo-2.0.90/cmyk.h:42
  *m = (JSAMPLE)(255.0 - mtmp * 255.0 + 0.5);
    5bc7:	c6 40 fd ff          	movb   $0xff,-0x3(%rax)
/home/tenebris/Disk/Racing-code/examples/23-libjpeg-divide-by-zero/libjpeg-turbo-2.0.90/cmyk.h:43
  *y = (JSAMPLE)(255.0 - ytmp * 255.0 + 0.5);
    5bcb:	c6 40 fe ff          	movb   $0xff,-0x2(%rax)
/home/tenebris/Disk/Racing-code/examples/23-libjpeg-divide-by-zero/libjpeg-turbo-2.0.90/cmyk.h:44
  *k = (JSAMPLE)(255.0 - ktmp * 255.0 + 0.5);
    5bcf:	c6 40 ff 00          	movb   $0x0,-0x1(%rax)
get_rgb_cmyk_row():
/home/tenebris/Disk/Racing-code/examples/23-libjpeg-divide-by-zero/libjpeg-turbo-2.0.90/rdppm.c:455
    for (col = cinfo->image_width; col > 0; col--) {
    5bd3:	48 39 c8             	cmp    %rcx,%rax
    5bd6:	0f 85 d4 fe ff ff    	jne    5ab0 <get_rgb_cmyk_row+0x90>
/home/tenebris/Disk/Racing-code/examples/23-libjpeg-divide-by-zero/libjpeg-turbo-2.0.90/rdppm.c:464
}
    5bdc:	48 83 c4 08          	add    $0x8,%rsp
    5be0:	b8 01 00 00 00       	mov    $0x1,%eax
    5be5:	5b                   	pop    %rbx
    5be6:	5d                   	pop    %rbp
    5be7:	41 5c                	pop    %r12
    5be9:	41 5d                	pop    %r13
    5beb:	c3                   	ret    
    5bec:	0f 1f 40 00          	nopl   0x0(%rax)
/home/tenebris/Disk/Racing-code/examples/23-libjpeg-divide-by-zero/libjpeg-turbo-2.0.90/rdppm.c:447
    for (col = cinfo->image_width; col > 0; col--) {
    5bf0:	85 c9                	test   %ecx,%ecx
    5bf2:	74 bc                	je     5bb0 <get_rgb_cmyk_row+0x190>
    5bf4:	f2 0f 10 05 ec 66 00 	movsd  0x66ec(%rip),%xmm0        # c2e8 <rgb_red+0x48>
    5bfb:	00 
    5bfc:	f2 0f 10 15 ec 66 00 	movsd  0x66ec(%rip),%xmm2        # c2f0 <rgb_red+0x50>
    5c03:	00 
    5c04:	48 8d 34 88          	lea    (%rax,%rcx,4),%rsi
rgb_to_cmyk():
/home/tenebris/Disk/Racing-code/examples/23-libjpeg-divide-by-zero/libjpeg-turbo-2.0.90/cmyk.h:41
  *c = (JSAMPLE)(255.0 - ctmp * 255.0 + 0.5);
    5c08:	f2 0f 10 35 e8 66 00 	movsd  0x66e8(%rip),%xmm6        # c2f8 <rgb_red+0x58>
    5c0f:	00 
get_rgb_cmyk_row():
/home/tenebris/Disk/Racing-code/examples/23-libjpeg-divide-by-zero/libjpeg-turbo-2.0.90/rdppm.c:448 (discriminator 3)
      JSAMPLE r = *bufferptr++;
    5c10:	0f b6 3a             	movzbl (%rdx),%edi
rgb_to_cmyk():
/home/tenebris/Disk/Racing-code/examples/23-libjpeg-divide-by-zero/libjpeg-turbo-2.0.90/cmyk.h:30 (discriminator 3)
  double ctmp = 1.0 - ((double)r / 255.0);
    5c13:	66 0f ef c9          	pxor   %xmm1,%xmm1
get_rgb_cmyk_row():
/home/tenebris/Disk/Racing-code/examples/23-libjpeg-divide-by-zero/libjpeg-turbo-2.0.90/rdppm.c:449 (discriminator 3)
      JSAMPLE g = *bufferptr++;
    5c17:	0f b6 4a 01          	movzbl 0x1(%rdx),%ecx
rgb_to_cmyk():
/home/tenebris/Disk/Racing-code/examples/23-libjpeg-divide-by-zero/libjpeg-turbo-2.0.90/cmyk.h:30 (discriminator 3)
    5c1b:	66 0f 28 ea          	movapd %xmm2,%xmm5
    5c1f:	48 83 c2 03          	add    $0x3,%rdx
/home/tenebris/Disk/Racing-code/examples/23-libjpeg-divide-by-zero/libjpeg-turbo-2.0.90/cmyk.h:31 (discriminator 3)
  double mtmp = 1.0 - ((double)g / 255.0);
    5c23:	66 0f 28 e2          	movapd %xmm2,%xmm4
/home/tenebris/Disk/Racing-code/examples/23-libjpeg-divide-by-zero/libjpeg-turbo-2.0.90/cmyk.h:32 (discriminator 3)
  double ytmp = 1.0 - ((double)b / 255.0);
    5c27:	66 0f 28 da          	movapd %xmm2,%xmm3
/home/tenebris/Disk/Racing-code/examples/23-libjpeg-divide-by-zero/libjpeg-turbo-2.0.90/cmyk.h:30 (discriminator 3)
  double ctmp = 1.0 - ((double)r / 255.0);
    5c2b:	f2 0f 2a cf          	cvtsi2sd %edi,%xmm1
    5c2f:	f2 0f 5e c8          	divsd  %xmm0,%xmm1
    5c33:	f2 0f 5c e9          	subsd  %xmm1,%xmm5
/home/tenebris/Disk/Racing-code/examples/23-libjpeg-divide-by-zero/libjpeg-turbo-2.0.90/cmyk.h:31 (discriminator 3)
  double mtmp = 1.0 - ((double)g / 255.0);
    5c37:	66 0f ef c9          	pxor   %xmm1,%xmm1
    5c3b:	f2 0f 2a c9          	cvtsi2sd %ecx,%xmm1
/home/tenebris/Disk/Racing-code/examples/23-libjpeg-divide-by-zero/libjpeg-turbo-2.0.90/cmyk.h:32 (discriminator 3)
  double ytmp = 1.0 - ((double)b / 255.0);
    5c3f:	0f b6 4a ff          	movzbl -0x1(%rdx),%ecx
/home/tenebris/Disk/Racing-code/examples/23-libjpeg-divide-by-zero/libjpeg-turbo-2.0.90/cmyk.h:31 (discriminator 3)
  double mtmp = 1.0 - ((double)g / 255.0);
    5c43:	f2 0f 5e c8          	divsd  %xmm0,%xmm1
    5c47:	f2 0f 5c e1          	subsd  %xmm1,%xmm4
/home/tenebris/Disk/Racing-code/examples/23-libjpeg-divide-by-zero/libjpeg-turbo-2.0.90/cmyk.h:32 (discriminator 3)
  double ytmp = 1.0 - ((double)b / 255.0);
    5c4b:	66 0f ef c9          	pxor   %xmm1,%xmm1
    5c4f:	f2 0f 2a c9          	cvtsi2sd %ecx,%xmm1
    5c53:	f2 0f 5e c8          	divsd  %xmm0,%xmm1
    5c57:	f2 0f 5c d9          	subsd  %xmm1,%xmm3
/home/tenebris/Disk/Racing-code/examples/23-libjpeg-divide-by-zero/libjpeg-turbo-2.0.90/cmyk.h:33 (discriminator 3)
  double ktmp = MIN(MIN(ctmp, mtmp), ytmp);
    5c5b:	66 0f 28 cd          	movapd %xmm5,%xmm1
    5c5f:	f2 0f 5d cc          	minsd  %xmm4,%xmm1
    5c63:	f2 0f 5d cb          	minsd  %xmm3,%xmm1
/home/tenebris/Disk/Racing-code/examples/23-libjpeg-divide-by-zero/libjpeg-turbo-2.0.90/cmyk.h:35 (discriminator 3)
  if (ktmp == 1.0) ctmp = mtmp = ytmp = 0.0;
    5c67:	66 0f 2e ca          	ucomisd %xmm2,%xmm1
    5c6b:	7a 06                	jp     5c73 <get_rgb_cmyk_row+0x253>
/home/tenebris/Disk/Racing-code/examples/23-libjpeg-divide-by-zero/libjpeg-turbo-2.0.90/cmyk.h:35
    5c6d:	0f 84 9d 00 00 00    	je     5d10 <get_rgb_cmyk_row+0x2f0>
/home/tenebris/Disk/Racing-code/examples/23-libjpeg-divide-by-zero/libjpeg-turbo-2.0.90/cmyk.h:37
    ctmp = (ctmp - ktmp) / (1.0 - ktmp);
    5c73:	66 0f 28 fa          	movapd %xmm2,%xmm7
    5c77:	f2 0f 5c e9          	subsd  %xmm1,%xmm5
/home/tenebris/Disk/Racing-code/examples/23-libjpeg-divide-by-zero/libjpeg-turbo-2.0.90/cmyk.h:38
    mtmp = (mtmp - ktmp) / (1.0 - ktmp);
    5c7b:	f2 0f 5c e1          	subsd  %xmm1,%xmm4
get_rgb_cmyk_row():
/home/tenebris/Disk/Racing-code/examples/23-libjpeg-divide-by-zero/libjpeg-turbo-2.0.90/rdppm.c:452
      ptr += 4;
    5c7f:	48 83 c0 04          	add    $0x4,%rax
rgb_to_cmyk():
/home/tenebris/Disk/Racing-code/examples/23-libjpeg-divide-by-zero/libjpeg-turbo-2.0.90/cmyk.h:37
    ctmp = (ctmp - ktmp) / (1.0 - ktmp);
    5c83:	f2 0f 5c f9          	subsd  %xmm1,%xmm7
/home/tenebris/Disk/Racing-code/examples/23-libjpeg-divide-by-zero/libjpeg-turbo-2.0.90/cmyk.h:39
    ytmp = (ytmp - ktmp) / (1.0 - ktmp);
    5c87:	f2 0f 5c d9          	subsd  %xmm1,%xmm3
/home/tenebris/Disk/Racing-code/examples/23-libjpeg-divide-by-zero/libjpeg-turbo-2.0.90/cmyk.h:41
  *c = (JSAMPLE)(255.0 - ctmp * 255.0 + 0.5);
    5c8b:	66 44 0f 28 c0       	movapd %xmm0,%xmm8
/home/tenebris/Disk/Racing-code/examples/23-libjpeg-divide-by-zero/libjpeg-turbo-2.0.90/cmyk.h:44
  *k = (JSAMPLE)(255.0 - ktmp * 255.0 + 0.5);
    5c90:	f2 0f 59 c8          	mulsd  %xmm0,%xmm1
/home/tenebris/Disk/Racing-code/examples/23-libjpeg-divide-by-zero/libjpeg-turbo-2.0.90/cmyk.h:37
    ctmp = (ctmp - ktmp) / (1.0 - ktmp);
    5c94:	f2 0f 5e ef          	divsd  %xmm7,%xmm5
/home/tenebris/Disk/Racing-code/examples/23-libjpeg-divide-by-zero/libjpeg-turbo-2.0.90/cmyk.h:38
    mtmp = (mtmp - ktmp) / (1.0 - ktmp);
    5c98:	f2 0f 5e e7          	divsd  %xmm7,%xmm4
/home/tenebris/Disk/Racing-code/examples/23-libjpeg-divide-by-zero/libjpeg-turbo-2.0.90/cmyk.h:41
  *c = (JSAMPLE)(255.0 - ctmp * 255.0 + 0.5);
    5c9c:	f2 0f 59 e8          	mulsd  %xmm0,%xmm5
    5ca0:	f2 44 0f 5c c5       	subsd  %xmm5,%xmm8
/home/tenebris/Disk/Racing-code/examples/23-libjpeg-divide-by-zero/libjpeg-turbo-2.0.90/cmyk.h:42
  *m = (JSAMPLE)(255.0 - mtmp * 255.0 + 0.5);
    5ca5:	66 0f 28 e8          	movapd %xmm0,%xmm5
/home/tenebris/Disk/Racing-code/examples/23-libjpeg-divide-by-zero/libjpeg-turbo-2.0.90/cmyk.h:41
  *c = (JSAMPLE)(255.0 - ctmp * 255.0 + 0.5);
    5ca9:	f2 44 0f 58 c6       	addsd  %xmm6,%xmm8
    5cae:	f2 41 0f 2c c8       	cvttsd2si %xmm8,%ecx
/home/tenebris/Disk/Racing-code/examples/23-libjpeg-divide-by-zero/libjpeg-turbo-2.0.90/cmyk.h:39
    ytmp = (ytmp - ktmp) / (1.0 - ktmp);
    5cb3:	f2 0f 5e df          	divsd  %xmm7,%xmm3
/home/tenebris/Disk/Racing-code/examples/23-libjpeg-divide-by-zero/libjpeg-turbo-2.0.90/cmyk.h:41
  *c = (JSAMPLE)(255.0 - ctmp * 255.0 + 0.5);
    5cb7:	88 48 fc             	mov    %cl,-0x4(%rax)
/home/tenebris/Disk/Racing-code/examples/23-libjpeg-divide-by-zero/libjpeg-turbo-2.0.90/cmyk.h:42
  *m = (JSAMPLE)(255.0 - mtmp * 255.0 + 0.5);
    5cba:	f2 0f 59 e0          	mulsd  %xmm0,%xmm4
    5cbe:	f2 0f 5c ec          	subsd  %xmm4,%xmm5
/home/tenebris/Disk/Racing-code/examples/23-libjpeg-divide-by-zero/libjpeg-turbo-2.0.90/cmyk.h:43
  *y = (JSAMPLE)(255.0 - ytmp * 255.0 + 0.5);
    5cc2:	66 0f 28 e0          	movapd %xmm0,%xmm4
/home/tenebris/Disk/Racing-code/examples/23-libjpeg-divide-by-zero/libjpeg-turbo-2.0.90/cmyk.h:42
  *m = (JSAMPLE)(255.0 - mtmp * 255.0 + 0.5);
    5cc6:	f2 0f 58 ee          	addsd  %xmm6,%xmm5
    5cca:	f2 0f 2c cd          	cvttsd2si %xmm5,%ecx
    5cce:	88 48 fd             	mov    %cl,-0x3(%rax)
/home/tenebris/Disk/Racing-code/examples/23-libjpeg-divide-by-zero/libjpeg-turbo-2.0.90/cmyk.h:43
  *y = (JSAMPLE)(255.0 - ytmp * 255.0 + 0.5);
    5cd1:	f2 0f 59 d8          	mulsd  %xmm0,%xmm3
    5cd5:	f2 0f 5c e3          	subsd  %xmm3,%xmm4
/home/tenebris/Disk/Racing-code/examples/23-libjpeg-divide-by-zero/libjpeg-turbo-2.0.90/cmyk.h:44
  *k = (JSAMPLE)(255.0 - ktmp * 255.0 + 0.5);
    5cd9:	66 0f 28 d8          	movapd %xmm0,%xmm3
    5cdd:	f2 0f 5c d9          	subsd  %xmm1,%xmm3
/home/tenebris/Disk/Racing-code/examples/23-libjpeg-divide-by-zero/libjpeg-turbo-2.0.90/cmyk.h:43
  *y = (JSAMPLE)(255.0 - ytmp * 255.0 + 0.5);
    5ce1:	f2 0f 58 e6          	addsd  %xmm6,%xmm4
/home/tenebris/Disk/Racing-code/examples/23-libjpeg-divide-by-zero/libjpeg-turbo-2.0.90/cmyk.h:44
  *k = (JSAMPLE)(255.0 - ktmp * 255.0 + 0.5);
    5ce5:	f2 0f 58 de          	addsd  %xmm6,%xmm3
/home/tenebris/Disk/Racing-code/examples/23-libjpeg-divide-by-zero/libjpeg-turbo-2.0.90/cmyk.h:43
  *y = (JSAMPLE)(255.0 - ytmp * 255.0 + 0.5);
    5ce9:	f2 0f 2c cc          	cvttsd2si %xmm4,%ecx
    5ced:	88 48 fe             	mov    %cl,-0x2(%rax)
/home/tenebris/Disk/Racing-code/examples/23-libjpeg-divide-by-zero/libjpeg-turbo-2.0.90/cmyk.h:44
  *k = (JSAMPLE)(255.0 - ktmp * 255.0 + 0.5);
    5cf0:	f2 0f 2c cb          	cvttsd2si %xmm3,%ecx
    5cf4:	88 48 ff             	mov    %cl,-0x1(%rax)
get_rgb_cmyk_row():
/home/tenebris/Disk/Racing-code/examples/23-libjpeg-divide-by-zero/libjpeg-turbo-2.0.90/rdppm.c:447
    for (col = cinfo->image_width; col > 0; col--) {
    5cf7:	48 39 c6             	cmp    %rax,%rsi
    5cfa:	0f 85 10 ff ff ff    	jne    5c10 <get_rgb_cmyk_row+0x1f0>
/home/tenebris/Disk/Racing-code/examples/23-libjpeg-divide-by-zero/libjpeg-turbo-2.0.90/rdppm.c:464
}
    5d00:	48 83 c4 08          	add    $0x8,%rsp
    5d04:	b8 01 00 00 00       	mov    $0x1,%eax
    5d09:	5b                   	pop    %rbx
    5d0a:	5d                   	pop    %rbp
    5d0b:	41 5c                	pop    %r12
    5d0d:	41 5d                	pop    %r13
    5d0f:	c3                   	ret    
rgb_to_cmyk():
/home/tenebris/Disk/Racing-code/examples/23-libjpeg-divide-by-zero/libjpeg-turbo-2.0.90/cmyk.h:41
  *c = (JSAMPLE)(255.0 - ctmp * 255.0 + 0.5);
    5d10:	c6 00 ff             	movb   $0xff,(%rax)
get_rgb_cmyk_row():
/home/tenebris/Disk/Racing-code/examples/23-libjpeg-divide-by-zero/libjpeg-turbo-2.0.90/rdppm.c:452
      ptr += 4;
    5d13:	48 83 c0 04          	add    $0x4,%rax
rgb_to_cmyk():
/home/tenebris/Disk/Racing-code/examples/23-libjpeg-divide-by-zero/libjpeg-turbo-2.0.90/cmyk.h:42
  *m = (JSAMPLE)(255.0 - mtmp * 255.0 + 0.5);
    5d17:	c6 40 fd ff          	movb   $0xff,-0x3(%rax)
/home/tenebris/Disk/Racing-code/examples/23-libjpeg-divide-by-zero/libjpeg-turbo-2.0.90/cmyk.h:43
  *y = (JSAMPLE)(255.0 - ytmp * 255.0 + 0.5);
    5d1b:	c6 40 fe ff          	movb   $0xff,-0x2(%rax)
/home/tenebris/Disk/Racing-code/examples/23-libjpeg-divide-by-zero/libjpeg-turbo-2.0.90/cmyk.h:44
  *k = (JSAMPLE)(255.0 - ktmp * 255.0 + 0.5);
    5d1f:	c6 40 ff 00          	movb   $0x0,-0x1(%rax)
get_rgb_cmyk_row():
/home/tenebris/Disk/Racing-code/examples/23-libjpeg-divide-by-zero/libjpeg-turbo-2.0.90/rdppm.c:447
    for (col = cinfo->image_width; col > 0; col--) {
    5d23:	48 39 f0             	cmp    %rsi,%rax
    5d26:	0f 85 e4 fe ff ff    	jne    5c10 <get_rgb_cmyk_row+0x1f0>
/home/tenebris/Disk/Racing-code/examples/23-libjpeg-divide-by-zero/libjpeg-turbo-2.0.90/rdppm.c:464
}
    5d2c:	48 83 c4 08          	add    $0x8,%rsp
    5d30:	b8 01 00 00 00       	mov    $0x1,%eax
    5d35:	5b                   	pop    %rbx
    5d36:	5d                   	pop    %rbp
    5d37:	41 5c                	pop    %r12
    5d39:	41 5d                	pop    %r13
    5d3b:	c3                   	ret    
    5d3c:	0f 1f 40 00          	nopl   0x0(%rax)

0000000000005d40 <get_word_gray_row>:
get_word_gray_row():
/home/tenebris/Disk/Racing-code/examples/23-libjpeg-divide-by-zero/libjpeg-turbo-2.0.90/rdppm.c:485
{
    5d40:	f3 0f 1e fa          	endbr64 
    5d44:	41 57                	push   %r15
    5d46:	49 89 ff             	mov    %rdi,%r15
    5d49:	41 56                	push   %r14
    5d4b:	41 55                	push   %r13
    5d4d:	41 54                	push   %r12
    5d4f:	55                   	push   %rbp
    5d50:	53                   	push   %rbx
    5d51:	48 89 f3             	mov    %rsi,%rbx
    5d54:	48 83 ec 18          	sub    $0x18,%rsp
/home/tenebris/Disk/Racing-code/examples/23-libjpeg-divide-by-zero/libjpeg-turbo-2.0.90/rdppm.c:491
  unsigned int maxval = source->maxval;
    5d58:	8b 46 50             	mov    0x50(%rsi),%eax
fread():
/usr/include/x86_64-linux-gnu/bits/stdio2.h:293
    5d5b:	48 8b 4e 18          	mov    0x18(%rsi),%rcx
    5d5f:	48 8b 56 40          	mov    0x40(%rsi),%rdx
    5d63:	48 8b 7e 30          	mov    0x30(%rsi),%rdi
get_word_gray_row():
/home/tenebris/Disk/Racing-code/examples/23-libjpeg-divide-by-zero/libjpeg-turbo-2.0.90/rdppm.c:489
  register JSAMPLE *rescale = source->rescale;
    5d67:	4c 8b 6e 48          	mov    0x48(%rsi),%r13
fread():
/usr/include/x86_64-linux-gnu/bits/stdio2.h:293
    5d6b:	be 01 00 00 00       	mov    $0x1,%esi
get_word_gray_row():
/home/tenebris/Disk/Racing-code/examples/23-libjpeg-divide-by-zero/libjpeg-turbo-2.0.90/rdppm.c:491
  unsigned int maxval = source->maxval;
    5d70:	89 44 24 0c          	mov    %eax,0xc(%rsp)
fread():
/usr/include/x86_64-linux-gnu/bits/stdio2.h:293
    5d74:	e8 17 c5 ff ff       	call   2290 <fread@plt>
get_word_gray_row():
/home/tenebris/Disk/Racing-code/examples/23-libjpeg-divide-by-zero/libjpeg-turbo-2.0.90/rdppm.c:493
  if (!ReadOK(source->pub.input_file, source->iobuffer, source->buffer_width))
    5d79:	48 39 43 40          	cmp    %rax,0x40(%rbx)
    5d7d:	74 0f                	je     5d8e <get_word_gray_row+0x4e>
/home/tenebris/Disk/Racing-code/examples/23-libjpeg-divide-by-zero/libjpeg-turbo-2.0.90/rdppm.c:494
    ERREXIT(cinfo, JERR_INPUT_EOF);
    5d7f:	49 8b 07             	mov    (%r15),%rax
    5d82:	4c 89 ff             	mov    %r15,%rdi
    5d85:	c7 40 28 2b 00 00 00 	movl   $0x2b,0x28(%rax)
    5d8c:	ff 10                	call   *(%rax)
/home/tenebris/Disk/Racing-code/examples/23-libjpeg-divide-by-zero/libjpeg-turbo-2.0.90/rdppm.c:495
  ptr = source->pub.buffer[0];
    5d8e:	48 8b 43 20          	mov    0x20(%rbx),%rax
/home/tenebris/Disk/Racing-code/examples/23-libjpeg-divide-by-zero/libjpeg-turbo-2.0.90/rdppm.c:497
  for (col = cinfo->image_width; col > 0; col--) {
    5d92:	45 8b 67 30          	mov    0x30(%r15),%r12d
/home/tenebris/Disk/Racing-code/examples/23-libjpeg-divide-by-zero/libjpeg-turbo-2.0.90/rdppm.c:496
  bufferptr = source->iobuffer;
    5d96:	4c 8b 73 30          	mov    0x30(%rbx),%r14
/home/tenebris/Disk/Racing-code/examples/23-libjpeg-divide-by-zero/libjpeg-turbo-2.0.90/rdppm.c:495
  ptr = source->pub.buffer[0];
    5d9a:	48 8b 28             	mov    (%rax),%rbp
/home/tenebris/Disk/Racing-code/examples/23-libjpeg-divide-by-zero/libjpeg-turbo-2.0.90/rdppm.c:497
  for (col = cinfo->image_width; col > 0; col--) {
    5d9d:	45 85 e4             	test   %r12d,%r12d
    5da0:	74 3f                	je     5de1 <get_word_gray_row+0xa1>
    5da2:	49 01 ec             	add    %rbp,%r12
    5da5:	0f 1f 00             	nopl   (%rax)
/home/tenebris/Disk/Racing-code/examples/23-libjpeg-divide-by-zero/libjpeg-turbo-2.0.90/rdppm.c:500
    temp |= UCH(*bufferptr++);
    5da8:	41 0f b7 1e          	movzwl (%r14),%ebx
    5dac:	49 83 c6 02          	add    $0x2,%r14
    5db0:	66 c1 c3 08          	rol    $0x8,%bx
/home/tenebris/Disk/Racing-code/examples/23-libjpeg-divide-by-zero/libjpeg-turbo-2.0.90/rdppm.c:501
    if (temp > maxval)
    5db4:	0f b7 c3             	movzwl %bx,%eax
    5db7:	39 44 24 0c          	cmp    %eax,0xc(%rsp)
    5dbb:	73 0f                	jae    5dcc <get_word_gray_row+0x8c>
/home/tenebris/Disk/Racing-code/examples/23-libjpeg-divide-by-zero/libjpeg-turbo-2.0.90/rdppm.c:502
      ERREXIT(cinfo, JERR_PPM_OUTOFRANGE);
    5dbd:	49 8b 07             	mov    (%r15),%rax
    5dc0:	4c 89 ff             	mov    %r15,%rdi
    5dc3:	c7 40 28 06 04 00 00 	movl   $0x406,0x28(%rax)
    5dca:	ff 10                	call   *(%rax)
/home/tenebris/Disk/Racing-code/examples/23-libjpeg-divide-by-zero/libjpeg-turbo-2.0.90/rdppm.c:503 (discriminator 2)
    *ptr++ = rescale[temp];
    5dcc:	0f b7 db             	movzwl %bx,%ebx
    5dcf:	48 83 c5 01          	add    $0x1,%rbp
    5dd3:	41 0f b6 44 1d 00    	movzbl 0x0(%r13,%rbx,1),%eax
    5dd9:	88 45 ff             	mov    %al,-0x1(%rbp)
/home/tenebris/Disk/Racing-code/examples/23-libjpeg-divide-by-zero/libjpeg-turbo-2.0.90/rdppm.c:497 (discriminator 2)
  for (col = cinfo->image_width; col > 0; col--) {
    5ddc:	49 39 ec             	cmp    %rbp,%r12
    5ddf:	75 c7                	jne    5da8 <get_word_gray_row+0x68>
/home/tenebris/Disk/Racing-code/examples/23-libjpeg-divide-by-zero/libjpeg-turbo-2.0.90/rdppm.c:506
}
    5de1:	48 83 c4 18          	add    $0x18,%rsp
    5de5:	b8 01 00 00 00       	mov    $0x1,%eax
    5dea:	5b                   	pop    %rbx
    5deb:	5d                   	pop    %rbp
    5dec:	41 5c                	pop    %r12
    5dee:	41 5d                	pop    %r13
    5df0:	41 5e                	pop    %r14
    5df2:	41 5f                	pop    %r15
    5df4:	c3                   	ret    
    5df5:	66 66 2e 0f 1f 84 00 	data16 cs nopw 0x0(%rax,%rax,1)
    5dfc:	00 00 00 00 

0000000000005e00 <get_word_rgb_row>:
get_word_rgb_row():
/home/tenebris/Disk/Racing-code/examples/23-libjpeg-divide-by-zero/libjpeg-turbo-2.0.90/rdppm.c:512
{
    5e00:	f3 0f 1e fa          	endbr64 
    5e04:	41 57                	push   %r15
    5e06:	41 56                	push   %r14
    5e08:	41 55                	push   %r13
    5e0a:	49 89 fd             	mov    %rdi,%r13
    5e0d:	41 54                	push   %r12
    5e0f:	55                   	push   %rbp
    5e10:	53                   	push   %rbx
    5e11:	48 89 f3             	mov    %rsi,%rbx
    5e14:	48 83 ec 18          	sub    $0x18,%rsp
fread():
/usr/include/x86_64-linux-gnu/bits/stdio2.h:293
    5e18:	48 8b 4e 18          	mov    0x18(%rsi),%rcx
    5e1c:	48 8b 56 40          	mov    0x40(%rsi),%rdx
    5e20:	48 8b 7e 30          	mov    0x30(%rsi),%rdi
get_word_rgb_row():
/home/tenebris/Disk/Racing-code/examples/23-libjpeg-divide-by-zero/libjpeg-turbo-2.0.90/rdppm.c:516
  register JSAMPLE *rescale = source->rescale;
    5e24:	4c 8b 76 48          	mov    0x48(%rsi),%r14
/home/tenebris/Disk/Racing-code/examples/23-libjpeg-divide-by-zero/libjpeg-turbo-2.0.90/rdppm.c:518
  unsigned int maxval = source->maxval;
    5e28:	8b 6e 50             	mov    0x50(%rsi),%ebp
fread():
/usr/include/x86_64-linux-gnu/bits/stdio2.h:293
    5e2b:	be 01 00 00 00       	mov    $0x1,%esi
    5e30:	e8 5b c4 ff ff       	call   2290 <fread@plt>
get_word_rgb_row():
/home/tenebris/Disk/Racing-code/examples/23-libjpeg-divide-by-zero/libjpeg-turbo-2.0.90/rdppm.c:520
  if (!ReadOK(source->pub.input_file, source->iobuffer, source->buffer_width))
    5e35:	48 39 43 40          	cmp    %rax,0x40(%rbx)
    5e39:	74 10                	je     5e4b <get_word_rgb_row+0x4b>
/home/tenebris/Disk/Racing-code/examples/23-libjpeg-divide-by-zero/libjpeg-turbo-2.0.90/rdppm.c:521
    ERREXIT(cinfo, JERR_INPUT_EOF);
    5e3b:	49 8b 45 00          	mov    0x0(%r13),%rax
    5e3f:	4c 89 ef             	mov    %r13,%rdi
    5e42:	c7 40 28 2b 00 00 00 	movl   $0x2b,0x28(%rax)
    5e49:	ff 10                	call   *(%rax)
/home/tenebris/Disk/Racing-code/examples/23-libjpeg-divide-by-zero/libjpeg-turbo-2.0.90/rdppm.c:522
  ptr = source->pub.buffer[0];
    5e4b:	48 8b 43 20          	mov    0x20(%rbx),%rax
/home/tenebris/Disk/Racing-code/examples/23-libjpeg-divide-by-zero/libjpeg-turbo-2.0.90/rdppm.c:524
  for (col = cinfo->image_width; col > 0; col--) {
    5e4f:	41 8b 55 30          	mov    0x30(%r13),%edx
/home/tenebris/Disk/Racing-code/examples/23-libjpeg-divide-by-zero/libjpeg-turbo-2.0.90/rdppm.c:523
  bufferptr = source->iobuffer;
    5e53:	4c 8b 63 30          	mov    0x30(%rbx),%r12
/home/tenebris/Disk/Racing-code/examples/23-libjpeg-divide-by-zero/libjpeg-turbo-2.0.90/rdppm.c:522
  ptr = source->pub.buffer[0];
    5e57:	4c 8b 38             	mov    (%rax),%r15
/home/tenebris/Disk/Racing-code/examples/23-libjpeg-divide-by-zero/libjpeg-turbo-2.0.90/rdppm.c:524
  for (col = cinfo->image_width; col > 0; col--) {
    5e5a:	85 d2                	test   %edx,%edx
    5e5c:	0f 84 a6 00 00 00    	je     5f08 <get_word_rgb_row+0x108>
    5e62:	48 8d 04 52          	lea    (%rdx,%rdx,2),%rax
    5e66:	4c 01 f8             	add    %r15,%rax
    5e69:	48 89 44 24 08       	mov    %rax,0x8(%rsp)
    5e6e:	66 90                	xchg   %ax,%ax
/home/tenebris/Disk/Racing-code/examples/23-libjpeg-divide-by-zero/libjpeg-turbo-2.0.90/rdppm.c:527
    temp |= UCH(*bufferptr++);
    5e70:	41 0f b7 1c 24       	movzwl (%r12),%ebx
    5e75:	66 c1 c3 08          	rol    $0x8,%bx
/home/tenebris/Disk/Racing-code/examples/23-libjpeg-divide-by-zero/libjpeg-turbo-2.0.90/rdppm.c:528
    if (temp > maxval)
    5e79:	0f b7 d3             	movzwl %bx,%edx
    5e7c:	39 d5                	cmp    %edx,%ebp
    5e7e:	73 10                	jae    5e90 <get_word_rgb_row+0x90>
/home/tenebris/Disk/Racing-code/examples/23-libjpeg-divide-by-zero/libjpeg-turbo-2.0.90/rdppm.c:529
      ERREXIT(cinfo, JERR_PPM_OUTOFRANGE);
    5e80:	49 8b 55 00          	mov    0x0(%r13),%rdx
    5e84:	4c 89 ef             	mov    %r13,%rdi
    5e87:	c7 42 28 06 04 00 00 	movl   $0x406,0x28(%rdx)
    5e8e:	ff 12                	call   *(%rdx)
/home/tenebris/Disk/Racing-code/examples/23-libjpeg-divide-by-zero/libjpeg-turbo-2.0.90/rdppm.c:530
    *ptr++ = rescale[temp];
    5e90:	0f b7 db             	movzwl %bx,%ebx
    5e93:	41 0f b6 14 1e       	movzbl (%r14,%rbx,1),%edx
    5e98:	41 88 17             	mov    %dl,(%r15)
/home/tenebris/Disk/Racing-code/examples/23-libjpeg-divide-by-zero/libjpeg-turbo-2.0.90/rdppm.c:532
    temp |= UCH(*bufferptr++);
    5e9b:	41 0f b7 5c 24 02    	movzwl 0x2(%r12),%ebx
    5ea1:	66 c1 c3 08          	rol    $0x8,%bx
/home/tenebris/Disk/Racing-code/examples/23-libjpeg-divide-by-zero/libjpeg-turbo-2.0.90/rdppm.c:533
    if (temp > maxval)
    5ea5:	0f b7 d3             	movzwl %bx,%edx
    5ea8:	39 d5                	cmp    %edx,%ebp
    5eaa:	73 10                	jae    5ebc <get_word_rgb_row+0xbc>
/home/tenebris/Disk/Racing-code/examples/23-libjpeg-divide-by-zero/libjpeg-turbo-2.0.90/rdppm.c:534
      ERREXIT(cinfo, JERR_PPM_OUTOFRANGE);
    5eac:	49 8b 55 00          	mov    0x0(%r13),%rdx
    5eb0:	4c 89 ef             	mov    %r13,%rdi
    5eb3:	c7 42 28 06 04 00 00 	movl   $0x406,0x28(%rdx)
    5eba:	ff 12                	call   *(%rdx)
/home/tenebris/Disk/Racing-code/examples/23-libjpeg-divide-by-zero/libjpeg-turbo-2.0.90/rdppm.c:535
    *ptr++ = rescale[temp];
    5ebc:	0f b7 db             	movzwl %bx,%ebx
    5ebf:	49 83 c4 06          	add    $0x6,%r12
    5ec3:	41 0f b6 14 1e       	movzbl (%r14,%rbx,1),%edx
    5ec8:	41 88 57 01          	mov    %dl,0x1(%r15)
/home/tenebris/Disk/Racing-code/examples/23-libjpeg-divide-by-zero/libjpeg-turbo-2.0.90/rdppm.c:537
    temp |= UCH(*bufferptr++);
    5ecc:	41 0f b7 5c 24 fe    	movzwl -0x2(%r12),%ebx
    5ed2:	66 c1 c3 08          	rol    $0x8,%bx
/home/tenebris/Disk/Racing-code/examples/23-libjpeg-divide-by-zero/libjpeg-turbo-2.0.90/rdppm.c:538
    if (temp > maxval)
    5ed6:	0f b7 d3             	movzwl %bx,%edx
    5ed9:	39 d5                	cmp    %edx,%ebp
    5edb:	73 10                	jae    5eed <get_word_rgb_row+0xed>
/home/tenebris/Disk/Racing-code/examples/23-libjpeg-divide-by-zero/libjpeg-turbo-2.0.90/rdppm.c:539
      ERREXIT(cinfo, JERR_PPM_OUTOFRANGE);
    5edd:	49 8b 55 00          	mov    0x0(%r13),%rdx
    5ee1:	4c 89 ef             	mov    %r13,%rdi
    5ee4:	c7 42 28 06 04 00 00 	movl   $0x406,0x28(%rdx)
    5eeb:	ff 12                	call   *(%rdx)
/home/tenebris/Disk/Racing-code/examples/23-libjpeg-divide-by-zero/libjpeg-turbo-2.0.90/rdppm.c:540 (discriminator 2)
    *ptr++ = rescale[temp];
    5eed:	0f b7 db             	movzwl %bx,%ebx
    5ef0:	49 83 c7 03          	add    $0x3,%r15
    5ef4:	41 0f b6 14 1e       	movzbl (%r14,%rbx,1),%edx
    5ef9:	41 88 57 ff          	mov    %dl,-0x1(%r15)
/home/tenebris/Disk/Racing-code/examples/23-libjpeg-divide-by-zero/libjpeg-turbo-2.0.90/rdppm.c:524 (discriminator 2)
  for (col = cinfo->image_width; col > 0; col--) {
    5efd:	4c 3b 7c 24 08       	cmp    0x8(%rsp),%r15
    5f02:	0f 85 68 ff ff ff    	jne    5e70 <get_word_rgb_row+0x70>
/home/tenebris/Disk/Racing-code/examples/23-libjpeg-divide-by-zero/libjpeg-turbo-2.0.90/rdppm.c:543
}
    5f08:	48 83 c4 18          	add    $0x18,%rsp
    5f0c:	b8 01 00 00 00       	mov    $0x1,%eax
    5f11:	5b                   	pop    %rbx
    5f12:	5d                   	pop    %rbp
    5f13:	41 5c                	pop    %r12
    5f15:	41 5d                	pop    %r13
    5f17:	41 5e                	pop    %r14
    5f19:	41 5f                	pop    %r15
    5f1b:	c3                   	ret    
    5f1c:	0f 1f 40 00          	nopl   0x0(%rax)

0000000000005f20 <get_raw_row>:
get_raw_row():
/home/tenebris/Disk/Racing-code/examples/23-libjpeg-divide-by-zero/libjpeg-turbo-2.0.90/rdppm.c:473
{
    5f20:	f3 0f 1e fa          	endbr64 
    5f24:	55                   	push   %rbp
    5f25:	48 89 fd             	mov    %rdi,%rbp
    5f28:	53                   	push   %rbx
    5f29:	48 89 f3             	mov    %rsi,%rbx
    5f2c:	48 83 ec 08          	sub    $0x8,%rsp
fread():
/usr/include/x86_64-linux-gnu/bits/stdio2.h:293
    5f30:	48 8b 4e 18          	mov    0x18(%rsi),%rcx
    5f34:	48 8b 56 40          	mov    0x40(%rsi),%rdx
    5f38:	48 8b 7e 30          	mov    0x30(%rsi),%rdi
    5f3c:	be 01 00 00 00       	mov    $0x1,%esi
    5f41:	e8 4a c3 ff ff       	call   2290 <fread@plt>
get_raw_row():
/home/tenebris/Disk/Racing-code/examples/23-libjpeg-divide-by-zero/libjpeg-turbo-2.0.90/rdppm.c:476
  if (!ReadOK(source->pub.input_file, source->iobuffer, source->buffer_width))
    5f46:	48 39 43 40          	cmp    %rax,0x40(%rbx)
    5f4a:	74 10                	je     5f5c <get_raw_row+0x3c>
/home/tenebris/Disk/Racing-code/examples/23-libjpeg-divide-by-zero/libjpeg-turbo-2.0.90/rdppm.c:477
    ERREXIT(cinfo, JERR_INPUT_EOF);
    5f4c:	48 8b 45 00          	mov    0x0(%rbp),%rax
    5f50:	48 89 ef             	mov    %rbp,%rdi
    5f53:	c7 40 28 2b 00 00 00 	movl   $0x2b,0x28(%rax)
    5f5a:	ff 10                	call   *(%rax)
/home/tenebris/Disk/Racing-code/examples/23-libjpeg-divide-by-zero/libjpeg-turbo-2.0.90/rdppm.c:479
}
    5f5c:	48 83 c4 08          	add    $0x8,%rsp
    5f60:	b8 01 00 00 00       	mov    $0x1,%eax
    5f65:	5b                   	pop    %rbx
    5f66:	5d                   	pop    %rbp
    5f67:	c3                   	ret    
    5f68:	0f 1f 84 00 00 00 00 	nopl   0x0(%rax,%rax,1)
    5f6f:	00 

0000000000005f70 <read_pbm_integer>:
read_pbm_integer():
/home/tenebris/Disk/Racing-code/examples/23-libjpeg-divide-by-zero/libjpeg-turbo-2.0.90/rdppm.c:97
{
    5f70:	41 55                	push   %r13
    5f72:	41 89 d5             	mov    %edx,%r13d
    5f75:	41 54                	push   %r12
/home/tenebris/Disk/Racing-code/examples/23-libjpeg-divide-by-zero/libjpeg-turbo-2.0.90/rdppm.c:106
  } while (ch == ' ' || ch == '\t' || ch == '\n' || ch == '\r');
    5f77:	49 bc ff d9 ff ff fe 	movabs $0xfffffffeffffd9ff,%r12
    5f7e:	ff ff ff 
/home/tenebris/Disk/Racing-code/examples/23-libjpeg-divide-by-zero/libjpeg-turbo-2.0.90/rdppm.c:97
{
    5f81:	55                   	push   %rbp
    5f82:	48 89 fd             	mov    %rdi,%rbp
    5f85:	53                   	push   %rbx
    5f86:	48 89 f3             	mov    %rsi,%rbx
    5f89:	48 83 ec 08          	sub    $0x8,%rsp
    5f8d:	0f 1f 00             	nopl   (%rax)
pbm_getc():
/home/tenebris/Disk/Racing-code/examples/23-libjpeg-divide-by-zero/libjpeg-turbo-2.0.90/rdppm.c:81
  ch = getc(infile);
    5f90:	48 89 df             	mov    %rbx,%rdi
    5f93:	e8 d8 c4 ff ff       	call   2470 <getc@plt>
/home/tenebris/Disk/Racing-code/examples/23-libjpeg-divide-by-zero/libjpeg-turbo-2.0.90/rdppm.c:82
  if (ch == '#') {
    5f98:	83 f8 23             	cmp    $0x23,%eax
    5f9b:	0f 84 97 00 00 00    	je     6038 <read_pbm_integer+0xc8>
read_pbm_integer():
/home/tenebris/Disk/Racing-code/examples/23-libjpeg-divide-by-zero/libjpeg-turbo-2.0.90/rdppm.c:104
    if (ch == EOF)
    5fa1:	83 f8 ff             	cmp    $0xffffffff,%eax
    5fa4:	0f 84 a4 00 00 00    	je     604e <read_pbm_integer+0xde>
/home/tenebris/Disk/Racing-code/examples/23-libjpeg-divide-by-zero/libjpeg-turbo-2.0.90/rdppm.c:106
  } while (ch == ' ' || ch == '\t' || ch == '\n' || ch == '\r');
    5faa:	83 f8 20             	cmp    $0x20,%eax
    5fad:	0f 86 cd 00 00 00    	jbe    6080 <read_pbm_integer+0x110>
/home/tenebris/Disk/Racing-code/examples/23-libjpeg-divide-by-zero/libjpeg-turbo-2.0.90/rdppm.c:108 (discriminator 1)
  if (ch < '0' || ch > '9')
    5fb3:	44 8d 60 d0          	lea    -0x30(%rax),%r12d
    5fb7:	41 83 fc 09          	cmp    $0x9,%r12d
    5fbb:	76 1c                	jbe    5fd9 <read_pbm_integer+0x69>
    5fbd:	e9 a2 00 00 00       	jmp    6064 <read_pbm_integer+0xf4>
    5fc2:	66 0f 1f 44 00 00    	nopw   0x0(%rax,%rax,1)
/home/tenebris/Disk/Racing-code/examples/23-libjpeg-divide-by-zero/libjpeg-turbo-2.0.90/rdppm.c:112
  while ((ch = pbm_getc(infile)) >= '0' && ch <= '9') {
    5fc8:	8d 50 d0             	lea    -0x30(%rax),%edx
    5fcb:	83 fa 09             	cmp    $0x9,%edx
    5fce:	77 40                	ja     6010 <read_pbm_integer+0xa0>
/home/tenebris/Disk/Racing-code/examples/23-libjpeg-divide-by-zero/libjpeg-turbo-2.0.90/rdppm.c:113
    val *= 10;
    5fd0:	43 8d 14 a4          	lea    (%r12,%r12,4),%edx
/home/tenebris/Disk/Racing-code/examples/23-libjpeg-divide-by-zero/libjpeg-turbo-2.0.90/rdppm.c:114
    val += ch - '0';
    5fd4:	44 8d 64 50 d0       	lea    -0x30(%rax,%rdx,2),%r12d
pbm_getc():
/home/tenebris/Disk/Racing-code/examples/23-libjpeg-divide-by-zero/libjpeg-turbo-2.0.90/rdppm.c:81
  ch = getc(infile);
    5fd9:	48 89 df             	mov    %rbx,%rdi
    5fdc:	e8 8f c4 ff ff       	call   2470 <getc@plt>
/home/tenebris/Disk/Racing-code/examples/23-libjpeg-divide-by-zero/libjpeg-turbo-2.0.90/rdppm.c:82
  if (ch == '#') {
    5fe1:	83 f8 23             	cmp    $0x23,%eax
    5fe4:	75 e2                	jne    5fc8 <read_pbm_integer+0x58>
    5fe6:	66 2e 0f 1f 84 00 00 	cs nopw 0x0(%rax,%rax,1)
    5fed:	00 00 00 
/home/tenebris/Disk/Racing-code/examples/23-libjpeg-divide-by-zero/libjpeg-turbo-2.0.90/rdppm.c:84
      ch = getc(infile);
    5ff0:	48 89 df             	mov    %rbx,%rdi
    5ff3:	e8 78 c4 ff ff       	call   2470 <getc@plt>
/home/tenebris/Disk/Racing-code/examples/23-libjpeg-divide-by-zero/libjpeg-turbo-2.0.90/rdppm.c:85
    } while (ch != '\n' && ch != EOF);
    5ff8:	83 f8 0a             	cmp    $0xa,%eax
    5ffb:	74 cb                	je     5fc8 <read_pbm_integer+0x58>
    5ffd:	83 f8 ff             	cmp    $0xffffffff,%eax
    6000:	75 ee                	jne    5ff0 <read_pbm_integer+0x80>
read_pbm_integer():
/home/tenebris/Disk/Racing-code/examples/23-libjpeg-divide-by-zero/libjpeg-turbo-2.0.90/rdppm.c:112
  while ((ch = pbm_getc(infile)) >= '0' && ch <= '9') {
    6002:	8d 50 d0             	lea    -0x30(%rax),%edx
    6005:	83 fa 09             	cmp    $0x9,%edx
    6008:	76 c6                	jbe    5fd0 <read_pbm_integer+0x60>
    600a:	66 0f 1f 44 00 00    	nopw   0x0(%rax,%rax,1)
/home/tenebris/Disk/Racing-code/examples/23-libjpeg-divide-by-zero/libjpeg-turbo-2.0.90/rdppm.c:117
  if (val > maxval)
    6010:	45 39 ec             	cmp    %r13d,%r12d
    6013:	76 10                	jbe    6025 <read_pbm_integer+0xb5>
/home/tenebris/Disk/Racing-code/examples/23-libjpeg-divide-by-zero/libjpeg-turbo-2.0.90/rdppm.c:118
    ERREXIT(cinfo, JERR_PPM_OUTOFRANGE);
    6015:	48 8b 45 00          	mov    0x0(%rbp),%rax
    6019:	48 89 ef             	mov    %rbp,%rdi
    601c:	c7 40 28 06 04 00 00 	movl   $0x406,0x28(%rax)
    6023:	ff 10                	call   *(%rax)
/home/tenebris/Disk/Racing-code/examples/23-libjpeg-divide-by-zero/libjpeg-turbo-2.0.90/rdppm.c:121
}
    6025:	48 83 c4 08          	add    $0x8,%rsp
    6029:	44 89 e0             	mov    %r12d,%eax
    602c:	5b                   	pop    %rbx
    602d:	5d                   	pop    %rbp
    602e:	41 5c                	pop    %r12
    6030:	41 5d                	pop    %r13
    6032:	c3                   	ret    
    6033:	0f 1f 44 00 00       	nopl   0x0(%rax,%rax,1)
pbm_getc():
/home/tenebris/Disk/Racing-code/examples/23-libjpeg-divide-by-zero/libjpeg-turbo-2.0.90/rdppm.c:84
      ch = getc(infile);
    6038:	48 89 df             	mov    %rbx,%rdi
    603b:	e8 30 c4 ff ff       	call   2470 <getc@plt>
/home/tenebris/Disk/Racing-code/examples/23-libjpeg-divide-by-zero/libjpeg-turbo-2.0.90/rdppm.c:85
    } while (ch != '\n' && ch != EOF);
    6040:	83 f8 0a             	cmp    $0xa,%eax
    6043:	0f 84 58 ff ff ff    	je     5fa1 <read_pbm_integer+0x31>
    6049:	83 f8 ff             	cmp    $0xffffffff,%eax
    604c:	75 ea                	jne    6038 <read_pbm_integer+0xc8>
read_pbm_integer():
/home/tenebris/Disk/Racing-code/examples/23-libjpeg-divide-by-zero/libjpeg-turbo-2.0.90/rdppm.c:105
      ERREXIT(cinfo, JERR_INPUT_EOF);
    604e:	48 8b 45 00          	mov    0x0(%rbp),%rax
    6052:	48 89 ef             	mov    %rbp,%rdi
/home/tenebris/Disk/Racing-code/examples/23-libjpeg-divide-by-zero/libjpeg-turbo-2.0.90/rdppm.c:108
  if (ch < '0' || ch > '9')
    6055:	41 bc cf ff ff ff    	mov    $0xffffffcf,%r12d
/home/tenebris/Disk/Racing-code/examples/23-libjpeg-divide-by-zero/libjpeg-turbo-2.0.90/rdppm.c:105
      ERREXIT(cinfo, JERR_INPUT_EOF);
    605b:	c7 40 28 2b 00 00 00 	movl   $0x2b,0x28(%rax)
    6062:	ff 10                	call   *(%rax)
/home/tenebris/Disk/Racing-code/examples/23-libjpeg-divide-by-zero/libjpeg-turbo-2.0.90/rdppm.c:109
    ERREXIT(cinfo, JERR_PPM_NONNUMERIC);
    6064:	48 8b 45 00          	mov    0x0(%rbp),%rax
    6068:	48 89 ef             	mov    %rbp,%rdi
    606b:	c7 40 28 04 04 00 00 	movl   $0x404,0x28(%rax)
    6072:	ff 10                	call   *(%rax)
    6074:	e9 60 ff ff ff       	jmp    5fd9 <read_pbm_integer+0x69>
    6079:	0f 1f 80 00 00 00 00 	nopl   0x0(%rax)
/home/tenebris/Disk/Racing-code/examples/23-libjpeg-divide-by-zero/libjpeg-turbo-2.0.90/rdppm.c:106
  } while (ch == ' ' || ch == '\t' || ch == '\n' || ch == '\r');
    6080:	49 0f a3 c4          	bt     %rax,%r12
    6084:	0f 83 06 ff ff ff    	jae    5f90 <read_pbm_integer+0x20>
    608a:	e9 24 ff ff ff       	jmp    5fb3 <read_pbm_integer+0x43>
    608f:	90                   	nop

0000000000006090 <get_text_rgb_cmyk_row>:
get_text_rgb_cmyk_row():
/home/tenebris/Disk/Racing-code/examples/23-libjpeg-divide-by-zero/libjpeg-turbo-2.0.90/rdppm.c:275
{
    6090:	f3 0f 1e fa          	endbr64 
    6094:	41 57                	push   %r15
    6096:	41 56                	push   %r14
    6098:	41 55                	push   %r13
    609a:	41 54                	push   %r12
    609c:	55                   	push   %rbp
    609d:	53                   	push   %rbx
    609e:	48 89 fb             	mov    %rdi,%rbx
    60a1:	48 83 ec 28          	sub    $0x28,%rsp
/home/tenebris/Disk/Racing-code/examples/23-libjpeg-divide-by-zero/libjpeg-turbo-2.0.90/rdppm.c:283
  ptr = source->pub.buffer[0];
    60a5:	48 8b 46 20          	mov    0x20(%rsi),%rax
/home/tenebris/Disk/Racing-code/examples/23-libjpeg-divide-by-zero/libjpeg-turbo-2.0.90/rdppm.c:281
  unsigned int maxval = source->maxval;
    60a9:	44 8b 76 50          	mov    0x50(%rsi),%r14d
/home/tenebris/Disk/Racing-code/examples/23-libjpeg-divide-by-zero/libjpeg-turbo-2.0.90/rdppm.c:277
  FILE *infile = source->pub.input_file;
    60ad:	48 8b 6e 18          	mov    0x18(%rsi),%rbp
/home/tenebris/Disk/Racing-code/examples/23-libjpeg-divide-by-zero/libjpeg-turbo-2.0.90/rdppm.c:279
  register JSAMPLE *rescale = source->rescale;
    60b1:	4c 8b 7e 48          	mov    0x48(%rsi),%r15
/home/tenebris/Disk/Racing-code/examples/23-libjpeg-divide-by-zero/libjpeg-turbo-2.0.90/rdppm.c:283
  ptr = source->pub.buffer[0];
    60b5:	48 8b 08             	mov    (%rax),%rcx
/home/tenebris/Disk/Racing-code/examples/23-libjpeg-divide-by-zero/libjpeg-turbo-2.0.90/rdppm.c:285
    for (col = cinfo->image_width; col > 0; col--) {
    60b8:	8b 47 30             	mov    0x30(%rdi),%eax
/home/tenebris/Disk/Racing-code/examples/23-libjpeg-divide-by-zero/libjpeg-turbo-2.0.90/rdppm.c:284
  if (maxval == MAXJSAMPLE) {
    60bb:	41 81 fe ff 00 00 00 	cmp    $0xff,%r14d
    60c2:	0f 84 b8 01 00 00    	je     6280 <get_text_rgb_cmyk_row+0x1f0>
/home/tenebris/Disk/Racing-code/examples/23-libjpeg-divide-by-zero/libjpeg-turbo-2.0.90/rdppm.c:293
    for (col = cinfo->image_width; col > 0; col--) {
    60c8:	85 c0                	test   %eax,%eax
    60ca:	0f 84 70 01 00 00    	je     6240 <get_text_rgb_cmyk_row+0x1b0>
    60d0:	48 8d 04 81          	lea    (%rcx,%rax,4),%rax
    60d4:	f2 0f 10 05 0c 62 00 	movsd  0x620c(%rip),%xmm0        # c2e8 <rgb_red+0x48>
    60db:	00 
    60dc:	f2 0f 10 15 0c 62 00 	movsd  0x620c(%rip),%xmm2        # c2f0 <rgb_red+0x50>
    60e3:	00 
    60e4:	48 89 44 24 18       	mov    %rax,0x18(%rsp)
    60e9:	0f 1f 80 00 00 00 00 	nopl   0x0(%rax)
/home/tenebris/Disk/Racing-code/examples/23-libjpeg-divide-by-zero/libjpeg-turbo-2.0.90/rdppm.c:294 (discriminator 3)
      JSAMPLE r = rescale[read_pbm_integer(cinfo, infile, maxval)];
    60f0:	44 89 f2             	mov    %r14d,%edx
    60f3:	48 89 ee             	mov    %rbp,%rsi
    60f6:	48 89 df             	mov    %rbx,%rdi
    60f9:	48 89 0c 24          	mov    %rcx,(%rsp)
    60fd:	f2 0f 11 54 24 10    	movsd  %xmm2,0x10(%rsp)
    6103:	f2 0f 11 44 24 08    	movsd  %xmm0,0x8(%rsp)
    6109:	e8 62 fe ff ff       	call   5f70 <read_pbm_integer>
/home/tenebris/Disk/Racing-code/examples/23-libjpeg-divide-by-zero/libjpeg-turbo-2.0.90/rdppm.c:295 (discriminator 3)
      JSAMPLE g = rescale[read_pbm_integer(cinfo, infile, maxval)];
    610e:	44 89 f2             	mov    %r14d,%edx
    6111:	48 89 ee             	mov    %rbp,%rsi
    6114:	48 89 df             	mov    %rbx,%rdi
/home/tenebris/Disk/Racing-code/examples/23-libjpeg-divide-by-zero/libjpeg-turbo-2.0.90/rdppm.c:294 (discriminator 3)
      JSAMPLE r = rescale[read_pbm_integer(cinfo, infile, maxval)];
    6117:	89 c0                	mov    %eax,%eax
    6119:	45 0f b6 2c 07       	movzbl (%r15,%rax,1),%r13d
/home/tenebris/Disk/Racing-code/examples/23-libjpeg-divide-by-zero/libjpeg-turbo-2.0.90/rdppm.c:295 (discriminator 3)
      JSAMPLE g = rescale[read_pbm_integer(cinfo, infile, maxval)];
    611e:	e8 4d fe ff ff       	call   5f70 <read_pbm_integer>
/home/tenebris/Disk/Racing-code/examples/23-libjpeg-divide-by-zero/libjpeg-turbo-2.0.90/rdppm.c:296 (discriminator 3)
      JSAMPLE b = rescale[read_pbm_integer(cinfo, infile, maxval)];
    6123:	44 89 f2             	mov    %r14d,%edx
    6126:	48 89 ee             	mov    %rbp,%rsi
    6129:	48 89 df             	mov    %rbx,%rdi
/home/tenebris/Disk/Racing-code/examples/23-libjpeg-divide-by-zero/libjpeg-turbo-2.0.90/rdppm.c:295 (discriminator 3)
      JSAMPLE g = rescale[read_pbm_integer(cinfo, infile, maxval)];
    612c:	89 c0                	mov    %eax,%eax
    612e:	45 0f b6 24 07       	movzbl (%r15,%rax,1),%r12d
/home/tenebris/Disk/Racing-code/examples/23-libjpeg-divide-by-zero/libjpeg-turbo-2.0.90/rdppm.c:296 (discriminator 3)
      JSAMPLE b = rescale[read_pbm_integer(cinfo, infile, maxval)];
    6133:	e8 38 fe ff ff       	call   5f70 <read_pbm_integer>
rgb_to_cmyk():
/home/tenebris/Disk/Racing-code/examples/23-libjpeg-divide-by-zero/libjpeg-turbo-2.0.90/cmyk.h:30 (discriminator 3)
  double ctmp = 1.0 - ((double)r / 255.0);
    6138:	66 0f ef c9          	pxor   %xmm1,%xmm1
    613c:	f2 0f 10 44 24 08    	movsd  0x8(%rsp),%xmm0
    6142:	f2 0f 10 54 24 10    	movsd  0x10(%rsp),%xmm2
    6148:	f2 41 0f 2a cd       	cvtsi2sd %r13d,%xmm1
get_text_rgb_cmyk_row():
/home/tenebris/Disk/Racing-code/examples/23-libjpeg-divide-by-zero/libjpeg-turbo-2.0.90/rdppm.c:296 (discriminator 3)
    614d:	89 c0                	mov    %eax,%eax
rgb_to_cmyk():
/home/tenebris/Disk/Racing-code/examples/23-libjpeg-divide-by-zero/libjpeg-turbo-2.0.90/cmyk.h:35 (discriminator 3)
  if (ktmp == 1.0) ctmp = mtmp = ytmp = 0.0;
    614f:	48 8b 0c 24          	mov    (%rsp),%rcx
/home/tenebris/Disk/Racing-code/examples/23-libjpeg-divide-by-zero/libjpeg-turbo-2.0.90/cmyk.h:30 (discriminator 3)
  double ctmp = 1.0 - ((double)r / 255.0);
    6153:	66 0f 28 ea          	movapd %xmm2,%xmm5
/home/tenebris/Disk/Racing-code/examples/23-libjpeg-divide-by-zero/libjpeg-turbo-2.0.90/cmyk.h:32 (discriminator 3)
  double ytmp = 1.0 - ((double)b / 255.0);
    6157:	41 0f b6 04 07       	movzbl (%r15,%rax,1),%eax
/home/tenebris/Disk/Racing-code/examples/23-libjpeg-divide-by-zero/libjpeg-turbo-2.0.90/cmyk.h:31 (discriminator 3)
  double mtmp = 1.0 - ((double)g / 255.0);
    615c:	66 0f 28 e2          	movapd %xmm2,%xmm4
/home/tenebris/Disk/Racing-code/examples/23-libjpeg-divide-by-zero/libjpeg-turbo-2.0.90/cmyk.h:32 (discriminator 3)
  double ytmp = 1.0 - ((double)b / 255.0);
    6160:	66 0f 28 da          	movapd %xmm2,%xmm3
/home/tenebris/Disk/Racing-code/examples/23-libjpeg-divide-by-zero/libjpeg-turbo-2.0.90/cmyk.h:30 (discriminator 3)
  double ctmp = 1.0 - ((double)r / 255.0);
    6164:	f2 0f 5e c8          	divsd  %xmm0,%xmm1
    6168:	f2 0f 5c e9          	subsd  %xmm1,%xmm5
/home/tenebris/Disk/Racing-code/examples/23-libjpeg-divide-by-zero/libjpeg-turbo-2.0.90/cmyk.h:31 (discriminator 3)
  double mtmp = 1.0 - ((double)g / 255.0);
    616c:	66 0f ef c9          	pxor   %xmm1,%xmm1
    6170:	f2 41 0f 2a cc       	cvtsi2sd %r12d,%xmm1
    6175:	f2 0f 5e c8          	divsd  %xmm0,%xmm1
    6179:	f2 0f 5c e1          	subsd  %xmm1,%xmm4
/home/tenebris/Disk/Racing-code/examples/23-libjpeg-divide-by-zero/libjpeg-turbo-2.0.90/cmyk.h:32 (discriminator 3)
  double ytmp = 1.0 - ((double)b / 255.0);
    617d:	66 0f ef c9          	pxor   %xmm1,%xmm1
    6181:	f2 0f 2a c8          	cvtsi2sd %eax,%xmm1
    6185:	f2 0f 5e c8          	divsd  %xmm0,%xmm1
    6189:	f2 0f 5c d9          	subsd  %xmm1,%xmm3
/home/tenebris/Disk/Racing-code/examples/23-libjpeg-divide-by-zero/libjpeg-turbo-2.0.90/cmyk.h:33 (discriminator 3)
  double ktmp = MIN(MIN(ctmp, mtmp), ytmp);
    618d:	66 0f 28 cd          	movapd %xmm5,%xmm1
    6191:	f2 0f 5d cc          	minsd  %xmm4,%xmm1
    6195:	f2 0f 5d cb          	minsd  %xmm3,%xmm1
/home/tenebris/Disk/Racing-code/examples/23-libjpeg-divide-by-zero/libjpeg-turbo-2.0.90/cmyk.h:35 (discriminator 3)
  if (ktmp == 1.0) ctmp = mtmp = ytmp = 0.0;
    6199:	66 0f 2e ca          	ucomisd %xmm2,%xmm1
    619d:	7a 06                	jp     61a5 <get_text_rgb_cmyk_row+0x115>
/home/tenebris/Disk/Racing-code/examples/23-libjpeg-divide-by-zero/libjpeg-turbo-2.0.90/cmyk.h:35
    619f:	0f 84 b3 00 00 00    	je     6258 <get_text_rgb_cmyk_row+0x1c8>
/home/tenebris/Disk/Racing-code/examples/23-libjpeg-divide-by-zero/libjpeg-turbo-2.0.90/cmyk.h:37
    ctmp = (ctmp - ktmp) / (1.0 - ktmp);
    61a5:	66 0f 28 f2          	movapd %xmm2,%xmm6
    61a9:	f2 0f 5c e9          	subsd  %xmm1,%xmm5
/home/tenebris/Disk/Racing-code/examples/23-libjpeg-divide-by-zero/libjpeg-turbo-2.0.90/cmyk.h:38
    mtmp = (mtmp - ktmp) / (1.0 - ktmp);
    61ad:	f2 0f 5c e1          	subsd  %xmm1,%xmm4
get_text_rgb_cmyk_row():
/home/tenebris/Disk/Racing-code/examples/23-libjpeg-divide-by-zero/libjpeg-turbo-2.0.90/rdppm.c:298
      ptr += 4;
    61b1:	48 83 c1 04          	add    $0x4,%rcx
rgb_to_cmyk():
/home/tenebris/Disk/Racing-code/examples/23-libjpeg-divide-by-zero/libjpeg-turbo-2.0.90/cmyk.h:37
    ctmp = (ctmp - ktmp) / (1.0 - ktmp);
    61b5:	f2 0f 5c f1          	subsd  %xmm1,%xmm6
/home/tenebris/Disk/Racing-code/examples/23-libjpeg-divide-by-zero/libjpeg-turbo-2.0.90/cmyk.h:39
    ytmp = (ytmp - ktmp) / (1.0 - ktmp);
    61b9:	f2 0f 5c d9          	subsd  %xmm1,%xmm3
/home/tenebris/Disk/Racing-code/examples/23-libjpeg-divide-by-zero/libjpeg-turbo-2.0.90/cmyk.h:41
  *c = (JSAMPLE)(255.0 - ctmp * 255.0 + 0.5);
    61bd:	66 0f 28 f8          	movapd %xmm0,%xmm7
/home/tenebris/Disk/Racing-code/examples/23-libjpeg-divide-by-zero/libjpeg-turbo-2.0.90/cmyk.h:44
  *k = (JSAMPLE)(255.0 - ktmp * 255.0 + 0.5);
    61c1:	f2 0f 59 c8          	mulsd  %xmm0,%xmm1
/home/tenebris/Disk/Racing-code/examples/23-libjpeg-divide-by-zero/libjpeg-turbo-2.0.90/cmyk.h:37
    ctmp = (ctmp - ktmp) / (1.0 - ktmp);
    61c5:	f2 0f 5e ee          	divsd  %xmm6,%xmm5
/home/tenebris/Disk/Racing-code/examples/23-libjpeg-divide-by-zero/libjpeg-turbo-2.0.90/cmyk.h:38
    mtmp = (mtmp - ktmp) / (1.0 - ktmp);
    61c9:	f2 0f 5e e6          	divsd  %xmm6,%xmm4
/home/tenebris/Disk/Racing-code/examples/23-libjpeg-divide-by-zero/libjpeg-turbo-2.0.90/cmyk.h:41
  *c = (JSAMPLE)(255.0 - ctmp * 255.0 + 0.5);
    61cd:	f2 0f 59 e8          	mulsd  %xmm0,%xmm5
    61d1:	f2 0f 5c fd          	subsd  %xmm5,%xmm7
    61d5:	f2 0f 58 3d 1b 61 00 	addsd  0x611b(%rip),%xmm7        # c2f8 <rgb_red+0x58>
    61dc:	00 
/home/tenebris/Disk/Racing-code/examples/23-libjpeg-divide-by-zero/libjpeg-turbo-2.0.90/cmyk.h:42
  *m = (JSAMPLE)(255.0 - mtmp * 255.0 + 0.5);
    61dd:	66 0f 28 e8          	movapd %xmm0,%xmm5
/home/tenebris/Disk/Racing-code/examples/23-libjpeg-divide-by-zero/libjpeg-turbo-2.0.90/cmyk.h:41
  *c = (JSAMPLE)(255.0 - ctmp * 255.0 + 0.5);
    61e1:	f2 0f 2c c7          	cvttsd2si %xmm7,%eax
/home/tenebris/Disk/Racing-code/examples/23-libjpeg-divide-by-zero/libjpeg-turbo-2.0.90/cmyk.h:39
    ytmp = (ytmp - ktmp) / (1.0 - ktmp);
    61e5:	f2 0f 5e de          	divsd  %xmm6,%xmm3
/home/tenebris/Disk/Racing-code/examples/23-libjpeg-divide-by-zero/libjpeg-turbo-2.0.90/cmyk.h:41
  *c = (JSAMPLE)(255.0 - ctmp * 255.0 + 0.5);
    61e9:	88 41 fc             	mov    %al,-0x4(%rcx)
/home/tenebris/Disk/Racing-code/examples/23-libjpeg-divide-by-zero/libjpeg-turbo-2.0.90/cmyk.h:42
  *m = (JSAMPLE)(255.0 - mtmp * 255.0 + 0.5);
    61ec:	f2 0f 59 e0          	mulsd  %xmm0,%xmm4
    61f0:	f2 0f 5c ec          	subsd  %xmm4,%xmm5
    61f4:	f2 0f 58 2d fc 60 00 	addsd  0x60fc(%rip),%xmm5        # c2f8 <rgb_red+0x58>
    61fb:	00 
/home/tenebris/Disk/Racing-code/examples/23-libjpeg-divide-by-zero/libjpeg-turbo-2.0.90/cmyk.h:43
  *y = (JSAMPLE)(255.0 - ytmp * 255.0 + 0.5);
    61fc:	66 0f 28 e0          	movapd %xmm0,%xmm4
/home/tenebris/Disk/Racing-code/examples/23-libjpeg-divide-by-zero/libjpeg-turbo-2.0.90/cmyk.h:42
  *m = (JSAMPLE)(255.0 - mtmp * 255.0 + 0.5);
    6200:	f2 0f 2c c5          	cvttsd2si %xmm5,%eax
    6204:	88 41 fd             	mov    %al,-0x3(%rcx)
/home/tenebris/Disk/Racing-code/examples/23-libjpeg-divide-by-zero/libjpeg-turbo-2.0.90/cmyk.h:43
  *y = (JSAMPLE)(255.0 - ytmp * 255.0 + 0.5);
    6207:	f2 0f 59 d8          	mulsd  %xmm0,%xmm3
    620b:	f2 0f 5c e3          	subsd  %xmm3,%xmm4
    620f:	f2 0f 58 25 e1 60 00 	addsd  0x60e1(%rip),%xmm4        # c2f8 <rgb_red+0x58>
    6216:	00 
/home/tenebris/Disk/Racing-code/examples/23-libjpeg-divide-by-zero/libjpeg-turbo-2.0.90/cmyk.h:44
  *k = (JSAMPLE)(255.0 - ktmp * 255.0 + 0.5);
    6217:	66 0f 28 d8          	movapd %xmm0,%xmm3
    621b:	f2 0f 5c d9          	subsd  %xmm1,%xmm3
    621f:	f2 0f 58 1d d1 60 00 	addsd  0x60d1(%rip),%xmm3        # c2f8 <rgb_red+0x58>
    6226:	00 
/home/tenebris/Disk/Racing-code/examples/23-libjpeg-divide-by-zero/libjpeg-turbo-2.0.90/cmyk.h:43
  *y = (JSAMPLE)(255.0 - ytmp * 255.0 + 0.5);
    6227:	f2 0f 2c c4          	cvttsd2si %xmm4,%eax
    622b:	88 41 fe             	mov    %al,-0x2(%rcx)
/home/tenebris/Disk/Racing-code/examples/23-libjpeg-divide-by-zero/libjpeg-turbo-2.0.90/cmyk.h:44
  *k = (JSAMPLE)(255.0 - ktmp * 255.0 + 0.5);
    622e:	f2 0f 2c c3          	cvttsd2si %xmm3,%eax
    6232:	88 41 ff             	mov    %al,-0x1(%rcx)
get_text_rgb_cmyk_row():
/home/tenebris/Disk/Racing-code/examples/23-libjpeg-divide-by-zero/libjpeg-turbo-2.0.90/rdppm.c:293
    for (col = cinfo->image_width; col > 0; col--) {
    6235:	48 3b 4c 24 18       	cmp    0x18(%rsp),%rcx
    623a:	0f 85 b0 fe ff ff    	jne    60f0 <get_text_rgb_cmyk_row+0x60>
/home/tenebris/Disk/Racing-code/examples/23-libjpeg-divide-by-zero/libjpeg-turbo-2.0.90/rdppm.c:302
}
    6240:	48 83 c4 28          	add    $0x28,%rsp
    6244:	b8 01 00 00 00       	mov    $0x1,%eax
    6249:	5b                   	pop    %rbx
    624a:	5d                   	pop    %rbp
    624b:	41 5c                	pop    %r12
    624d:	41 5d                	pop    %r13
    624f:	41 5e                	pop    %r14
    6251:	41 5f                	pop    %r15
    6253:	c3                   	ret    
    6254:	0f 1f 40 00          	nopl   0x0(%rax)
rgb_to_cmyk():
/home/tenebris/Disk/Racing-code/examples/23-libjpeg-divide-by-zero/libjpeg-turbo-2.0.90/cmyk.h:41
  *c = (JSAMPLE)(255.0 - ctmp * 255.0 + 0.5);
    6258:	c6 01 ff             	movb   $0xff,(%rcx)
get_text_rgb_cmyk_row():
/home/tenebris/Disk/Racing-code/examples/23-libjpeg-divide-by-zero/libjpeg-turbo-2.0.90/rdppm.c:298
      ptr += 4;
    625b:	48 83 c1 04          	add    $0x4,%rcx
rgb_to_cmyk():
/home/tenebris/Disk/Racing-code/examples/23-libjpeg-divide-by-zero/libjpeg-turbo-2.0.90/cmyk.h:42
  *m = (JSAMPLE)(255.0 - mtmp * 255.0 + 0.5);
    625f:	c6 41 fd ff          	movb   $0xff,-0x3(%rcx)
/home/tenebris/Disk/Racing-code/examples/23-libjpeg-divide-by-zero/libjpeg-turbo-2.0.90/cmyk.h:43
  *y = (JSAMPLE)(255.0 - ytmp * 255.0 + 0.5);
    6263:	c6 41 fe ff          	movb   $0xff,-0x2(%rcx)
/home/tenebris/Disk/Racing-code/examples/23-libjpeg-divide-by-zero/libjpeg-turbo-2.0.90/cmyk.h:44
  *k = (JSAMPLE)(255.0 - ktmp * 255.0 + 0.5);
    6267:	c6 41 ff 00          	movb   $0x0,-0x1(%rcx)
get_text_rgb_cmyk_row():
/home/tenebris/Disk/Racing-code/examples/23-libjpeg-divide-by-zero/libjpeg-turbo-2.0.90/rdppm.c:293
    for (col = cinfo->image_width; col > 0; col--) {
    626b:	48 3b 4c 24 18       	cmp    0x18(%rsp),%rcx
    6270:	0f 85 7a fe ff ff    	jne    60f0 <get_text_rgb_cmyk_row+0x60>
    6276:	eb c8                	jmp    6240 <get_text_rgb_cmyk_row+0x1b0>
    6278:	0f 1f 84 00 00 00 00 	nopl   0x0(%rax,%rax,1)
    627f:	00 
/home/tenebris/Disk/Racing-code/examples/23-libjpeg-divide-by-zero/libjpeg-turbo-2.0.90/rdppm.c:285
    for (col = cinfo->image_width; col > 0; col--) {
    6280:	85 c0                	test   %eax,%eax
    6282:	74 bc                	je     6240 <get_text_rgb_cmyk_row+0x1b0>
    6284:	f2 0f 10 05 5c 60 00 	movsd  0x605c(%rip),%xmm0        # c2e8 <rgb_red+0x48>
    628b:	00 
    628c:	f2 0f 10 15 5c 60 00 	movsd  0x605c(%rip),%xmm2        # c2f0 <rgb_red+0x50>
    6293:	00 
    6294:	4c 8d 34 81          	lea    (%rcx,%rax,4),%r14
    6298:	0f 1f 84 00 00 00 00 	nopl   0x0(%rax,%rax,1)
    629f:	00 
/home/tenebris/Disk/Racing-code/examples/23-libjpeg-divide-by-zero/libjpeg-turbo-2.0.90/rdppm.c:286 (discriminator 3)
      JSAMPLE r = read_pbm_integer(cinfo, infile, maxval);
    62a0:	ba ff 00 00 00       	mov    $0xff,%edx
    62a5:	48 89 ee             	mov    %rbp,%rsi
    62a8:	48 89 df             	mov    %rbx,%rdi
    62ab:	48 89 0c 24          	mov    %rcx,(%rsp)
    62af:	f2 0f 11 54 24 10    	movsd  %xmm2,0x10(%rsp)
    62b5:	f2 0f 11 44 24 08    	movsd  %xmm0,0x8(%rsp)
    62bb:	e8 b0 fc ff ff       	call   5f70 <read_pbm_integer>
/home/tenebris/Disk/Racing-code/examples/23-libjpeg-divide-by-zero/libjpeg-turbo-2.0.90/rdppm.c:287 (discriminator 3)
      JSAMPLE g = read_pbm_integer(cinfo, infile, maxval);
    62c0:	ba ff 00 00 00       	mov    $0xff,%edx
    62c5:	48 89 ee             	mov    %rbp,%rsi
    62c8:	48 89 df             	mov    %rbx,%rdi
/home/tenebris/Disk/Racing-code/examples/23-libjpeg-divide-by-zero/libjpeg-turbo-2.0.90/rdppm.c:286 (discriminator 3)
      JSAMPLE r = read_pbm_integer(cinfo, infile, maxval);
    62cb:	41 89 c5             	mov    %eax,%r13d
/home/tenebris/Disk/Racing-code/examples/23-libjpeg-divide-by-zero/libjpeg-turbo-2.0.90/rdppm.c:287 (discriminator 3)
      JSAMPLE g = read_pbm_integer(cinfo, infile, maxval);
    62ce:	e8 9d fc ff ff       	call   5f70 <read_pbm_integer>
/home/tenebris/Disk/Racing-code/examples/23-libjpeg-divide-by-zero/libjpeg-turbo-2.0.90/rdppm.c:288 (discriminator 3)
      JSAMPLE b = read_pbm_integer(cinfo, infile, maxval);
    62d3:	ba ff 00 00 00       	mov    $0xff,%edx
    62d8:	48 89 ee             	mov    %rbp,%rsi
    62db:	48 89 df             	mov    %rbx,%rdi
/home/tenebris/Disk/Racing-code/examples/23-libjpeg-divide-by-zero/libjpeg-turbo-2.0.90/rdppm.c:287 (discriminator 3)
      JSAMPLE g = read_pbm_integer(cinfo, infile, maxval);
    62de:	41 89 c4             	mov    %eax,%r12d
rgb_to_cmyk():
/home/tenebris/Disk/Racing-code/examples/23-libjpeg-divide-by-zero/libjpeg-turbo-2.0.90/cmyk.h:30 (discriminator 3)
  double ctmp = 1.0 - ((double)r / 255.0);
    62e1:	45 0f b6 ed          	movzbl %r13b,%r13d
get_text_rgb_cmyk_row():
/home/tenebris/Disk/Racing-code/examples/23-libjpeg-divide-by-zero/libjpeg-turbo-2.0.90/rdppm.c:288 (discriminator 3)
      JSAMPLE b = read_pbm_integer(cinfo, infile, maxval);
    62e5:	e8 86 fc ff ff       	call   5f70 <read_pbm_integer>
rgb_to_cmyk():
/home/tenebris/Disk/Racing-code/examples/23-libjpeg-divide-by-zero/libjpeg-turbo-2.0.90/cmyk.h:30 (discriminator 3)
    62ea:	66 0f ef c9          	pxor   %xmm1,%xmm1
    62ee:	f2 0f 10 44 24 08    	movsd  0x8(%rsp),%xmm0
    62f4:	f2 0f 10 54 24 10    	movsd  0x10(%rsp),%xmm2
    62fa:	f2 41 0f 2a cd       	cvtsi2sd %r13d,%xmm1
/home/tenebris/Disk/Racing-code/examples/23-libjpeg-divide-by-zero/libjpeg-turbo-2.0.90/cmyk.h:31 (discriminator 3)
  double mtmp = 1.0 - ((double)g / 255.0);
    62ff:	45 0f b6 e4          	movzbl %r12b,%r12d
/home/tenebris/Disk/Racing-code/examples/23-libjpeg-divide-by-zero/libjpeg-turbo-2.0.90/cmyk.h:32 (discriminator 3)
  double ytmp = 1.0 - ((double)b / 255.0);
    6303:	0f b6 c0             	movzbl %al,%eax
/home/tenebris/Disk/Racing-code/examples/23-libjpeg-divide-by-zero/libjpeg-turbo-2.0.90/cmyk.h:35 (discriminator 3)
  if (ktmp == 1.0) ctmp = mtmp = ytmp = 0.0;
    6306:	48 8b 0c 24          	mov    (%rsp),%rcx
/home/tenebris/Disk/Racing-code/examples/23-libjpeg-divide-by-zero/libjpeg-turbo-2.0.90/cmyk.h:30 (discriminator 3)
  double ctmp = 1.0 - ((double)r / 255.0);
    630a:	66 0f 28 ea          	movapd %xmm2,%xmm5
/home/tenebris/Disk/Racing-code/examples/23-libjpeg-divide-by-zero/libjpeg-turbo-2.0.90/cmyk.h:31 (discriminator 3)
  double mtmp = 1.0 - ((double)g / 255.0);
    630e:	66 0f 28 e2          	movapd %xmm2,%xmm4
/home/tenebris/Disk/Racing-code/examples/23-libjpeg-divide-by-zero/libjpeg-turbo-2.0.90/cmyk.h:32 (discriminator 3)
  double ytmp = 1.0 - ((double)b / 255.0);
    6312:	66 0f 28 da          	movapd %xmm2,%xmm3
/home/tenebris/Disk/Racing-code/examples/23-libjpeg-divide-by-zero/libjpeg-turbo-2.0.90/cmyk.h:30 (discriminator 3)
  double ctmp = 1.0 - ((double)r / 255.0);
    6316:	f2 0f 5e c8          	divsd  %xmm0,%xmm1
    631a:	f2 0f 5c e9          	subsd  %xmm1,%xmm5
/home/tenebris/Disk/Racing-code/examples/23-libjpeg-divide-by-zero/libjpeg-turbo-2.0.90/cmyk.h:31 (discriminator 3)
  double mtmp = 1.0 - ((double)g / 255.0);
    631e:	66 0f ef c9          	pxor   %xmm1,%xmm1
    6322:	f2 41 0f 2a cc       	cvtsi2sd %r12d,%xmm1
    6327:	f2 0f 5e c8          	divsd  %xmm0,%xmm1
    632b:	f2 0f 5c e1          	subsd  %xmm1,%xmm4
/home/tenebris/Disk/Racing-code/examples/23-libjpeg-divide-by-zero/libjpeg-turbo-2.0.90/cmyk.h:32 (discriminator 3)
  double ytmp = 1.0 - ((double)b / 255.0);
    632f:	66 0f ef c9          	pxor   %xmm1,%xmm1
    6333:	f2 0f 2a c8          	cvtsi2sd %eax,%xmm1
    6337:	f2 0f 5e c8          	divsd  %xmm0,%xmm1
    633b:	f2 0f 5c d9          	subsd  %xmm1,%xmm3
/home/tenebris/Disk/Racing-code/examples/23-libjpeg-divide-by-zero/libjpeg-turbo-2.0.90/cmyk.h:33 (discriminator 3)
  double ktmp = MIN(MIN(ctmp, mtmp), ytmp);
    633f:	66 0f 28 cd          	movapd %xmm5,%xmm1
    6343:	f2 0f 5d cc          	minsd  %xmm4,%xmm1
    6347:	f2 0f 5d cb          	minsd  %xmm3,%xmm1
/home/tenebris/Disk/Racing-code/examples/23-libjpeg-divide-by-zero/libjpeg-turbo-2.0.90/cmyk.h:35 (discriminator 3)
  if (ktmp == 1.0) ctmp = mtmp = ytmp = 0.0;
    634b:	66 0f 2e ca          	ucomisd %xmm2,%xmm1
    634f:	7a 06                	jp     6357 <get_text_rgb_cmyk_row+0x2c7>
/home/tenebris/Disk/Racing-code/examples/23-libjpeg-divide-by-zero/libjpeg-turbo-2.0.90/cmyk.h:35
    6351:	0f 84 a1 00 00 00    	je     63f8 <get_text_rgb_cmyk_row+0x368>
/home/tenebris/Disk/Racing-code/examples/23-libjpeg-divide-by-zero/libjpeg-turbo-2.0.90/cmyk.h:37
    ctmp = (ctmp - ktmp) / (1.0 - ktmp);
    6357:	66 0f 28 f2          	movapd %xmm2,%xmm6
    635b:	f2 0f 5c e9          	subsd  %xmm1,%xmm5
/home/tenebris/Disk/Racing-code/examples/23-libjpeg-divide-by-zero/libjpeg-turbo-2.0.90/cmyk.h:38
    mtmp = (mtmp - ktmp) / (1.0 - ktmp);
    635f:	f2 0f 5c e1          	subsd  %xmm1,%xmm4
get_text_rgb_cmyk_row():
/home/tenebris/Disk/Racing-code/examples/23-libjpeg-divide-by-zero/libjpeg-turbo-2.0.90/rdppm.c:290
      ptr += 4;
    6363:	48 83 c1 04          	add    $0x4,%rcx
rgb_to_cmyk():
/home/tenebris/Disk/Racing-code/examples/23-libjpeg-divide-by-zero/libjpeg-turbo-2.0.90/cmyk.h:37
    ctmp = (ctmp - ktmp) / (1.0 - ktmp);
    6367:	f2 0f 5c f1          	subsd  %xmm1,%xmm6
/home/tenebris/Disk/Racing-code/examples/23-libjpeg-divide-by-zero/libjpeg-turbo-2.0.90/cmyk.h:39
    ytmp = (ytmp - ktmp) / (1.0 - ktmp);
    636b:	f2 0f 5c d9          	subsd  %xmm1,%xmm3
/home/tenebris/Disk/Racing-code/examples/23-libjpeg-divide-by-zero/libjpeg-turbo-2.0.90/cmyk.h:41
  *c = (JSAMPLE)(255.0 - ctmp * 255.0 + 0.5);
    636f:	66 0f 28 f8          	movapd %xmm0,%xmm7
/home/tenebris/Disk/Racing-code/examples/23-libjpeg-divide-by-zero/libjpeg-turbo-2.0.90/cmyk.h:44
  *k = (JSAMPLE)(255.0 - ktmp * 255.0 + 0.5);
    6373:	f2 0f 59 c8          	mulsd  %xmm0,%xmm1
/home/tenebris/Disk/Racing-code/examples/23-libjpeg-divide-by-zero/libjpeg-turbo-2.0.90/cmyk.h:37
    ctmp = (ctmp - ktmp) / (1.0 - ktmp);
    6377:	f2 0f 5e ee          	divsd  %xmm6,%xmm5
/home/tenebris/Disk/Racing-code/examples/23-libjpeg-divide-by-zero/libjpeg-turbo-2.0.90/cmyk.h:38
    mtmp = (mtmp - ktmp) / (1.0 - ktmp);
    637b:	f2 0f 5e e6          	divsd  %xmm6,%xmm4
/home/tenebris/Disk/Racing-code/examples/23-libjpeg-divide-by-zero/libjpeg-turbo-2.0.90/cmyk.h:41
  *c = (JSAMPLE)(255.0 - ctmp * 255.0 + 0.5);
    637f:	f2 0f 59 e8          	mulsd  %xmm0,%xmm5
    6383:	f2 0f 5c fd          	subsd  %xmm5,%xmm7
    6387:	f2 0f 58 3d 69 5f 00 	addsd  0x5f69(%rip),%xmm7        # c2f8 <rgb_red+0x58>
    638e:	00 
/home/tenebris/Disk/Racing-code/examples/23-libjpeg-divide-by-zero/libjpeg-turbo-2.0.90/cmyk.h:42
  *m = (JSAMPLE)(255.0 - mtmp * 255.0 + 0.5);
    638f:	66 0f 28 e8          	movapd %xmm0,%xmm5
/home/tenebris/Disk/Racing-code/examples/23-libjpeg-divide-by-zero/libjpeg-turbo-2.0.90/cmyk.h:41
  *c = (JSAMPLE)(255.0 - ctmp * 255.0 + 0.5);
    6393:	f2 0f 2c c7          	cvttsd2si %xmm7,%eax
/home/tenebris/Disk/Racing-code/examples/23-libjpeg-divide-by-zero/libjpeg-turbo-2.0.90/cmyk.h:39
    ytmp = (ytmp - ktmp) / (1.0 - ktmp);
    6397:	f2 0f 5e de          	divsd  %xmm6,%xmm3
/home/tenebris/Disk/Racing-code/examples/23-libjpeg-divide-by-zero/libjpeg-turbo-2.0.90/cmyk.h:41
  *c = (JSAMPLE)(255.0 - ctmp * 255.0 + 0.5);
    639b:	88 41 fc             	mov    %al,-0x4(%rcx)
/home/tenebris/Disk/Racing-code/examples/23-libjpeg-divide-by-zero/libjpeg-turbo-2.0.90/cmyk.h:42
  *m = (JSAMPLE)(255.0 - mtmp * 255.0 + 0.5);
    639e:	f2 0f 59 e0          	mulsd  %xmm0,%xmm4
    63a2:	f2 0f 5c ec          	subsd  %xmm4,%xmm5
    63a6:	f2 0f 58 2d 4a 5f 00 	addsd  0x5f4a(%rip),%xmm5        # c2f8 <rgb_red+0x58>
    63ad:	00 
/home/tenebris/Disk/Racing-code/examples/23-libjpeg-divide-by-zero/libjpeg-turbo-2.0.90/cmyk.h:43
  *y = (JSAMPLE)(255.0 - ytmp * 255.0 + 0.5);
    63ae:	66 0f 28 e0          	movapd %xmm0,%xmm4
/home/tenebris/Disk/Racing-code/examples/23-libjpeg-divide-by-zero/libjpeg-turbo-2.0.90/cmyk.h:42
  *m = (JSAMPLE)(255.0 - mtmp * 255.0 + 0.5);
    63b2:	f2 0f 2c c5          	cvttsd2si %xmm5,%eax
    63b6:	88 41 fd             	mov    %al,-0x3(%rcx)
/home/tenebris/Disk/Racing-code/examples/23-libjpeg-divide-by-zero/libjpeg-turbo-2.0.90/cmyk.h:43
  *y = (JSAMPLE)(255.0 - ytmp * 255.0 + 0.5);
    63b9:	f2 0f 59 d8          	mulsd  %xmm0,%xmm3
    63bd:	f2 0f 5c e3          	subsd  %xmm3,%xmm4
    63c1:	f2 0f 58 25 2f 5f 00 	addsd  0x5f2f(%rip),%xmm4        # c2f8 <rgb_red+0x58>
    63c8:	00 
/home/tenebris/Disk/Racing-code/examples/23-libjpeg-divide-by-zero/libjpeg-turbo-2.0.90/cmyk.h:44
  *k = (JSAMPLE)(255.0 - ktmp * 255.0 + 0.5);
    63c9:	66 0f 28 d8          	movapd %xmm0,%xmm3
    63cd:	f2 0f 5c d9          	subsd  %xmm1,%xmm3
    63d1:	f2 0f 58 1d 1f 5f 00 	addsd  0x5f1f(%rip),%xmm3        # c2f8 <rgb_red+0x58>
    63d8:	00 
/home/tenebris/Disk/Racing-code/examples/23-libjpeg-divide-by-zero/libjpeg-turbo-2.0.90/cmyk.h:43
  *y = (JSAMPLE)(255.0 - ytmp * 255.0 + 0.5);
    63d9:	f2 0f 2c c4          	cvttsd2si %xmm4,%eax
    63dd:	88 41 fe             	mov    %al,-0x2(%rcx)
/home/tenebris/Disk/Racing-code/examples/23-libjpeg-divide-by-zero/libjpeg-turbo-2.0.90/cmyk.h:44
  *k = (JSAMPLE)(255.0 - ktmp * 255.0 + 0.5);
    63e0:	f2 0f 2c c3          	cvttsd2si %xmm3,%eax
    63e4:	88 41 ff             	mov    %al,-0x1(%rcx)
get_text_rgb_cmyk_row():
/home/tenebris/Disk/Racing-code/examples/23-libjpeg-divide-by-zero/libjpeg-turbo-2.0.90/rdppm.c:285
    for (col = cinfo->image_width; col > 0; col--) {
    63e7:	49 39 ce             	cmp    %rcx,%r14
    63ea:	0f 85 b0 fe ff ff    	jne    62a0 <get_text_rgb_cmyk_row+0x210>
    63f0:	e9 4b fe ff ff       	jmp    6240 <get_text_rgb_cmyk_row+0x1b0>
    63f5:	0f 1f 00             	nopl   (%rax)
rgb_to_cmyk():
/home/tenebris/Disk/Racing-code/examples/23-libjpeg-divide-by-zero/libjpeg-turbo-2.0.90/cmyk.h:41
  *c = (JSAMPLE)(255.0 - ctmp * 255.0 + 0.5);
    63f8:	c6 01 ff             	movb   $0xff,(%rcx)
get_text_rgb_cmyk_row():
/home/tenebris/Disk/Racing-code/examples/23-libjpeg-divide-by-zero/libjpeg-turbo-2.0.90/rdppm.c:290
      ptr += 4;
    63fb:	48 83 c1 04          	add    $0x4,%rcx
rgb_to_cmyk():
/home/tenebris/Disk/Racing-code/examples/23-libjpeg-divide-by-zero/libjpeg-turbo-2.0.90/cmyk.h:42
  *m = (JSAMPLE)(255.0 - mtmp * 255.0 + 0.5);
    63ff:	c6 41 fd ff          	movb   $0xff,-0x3(%rcx)
/home/tenebris/Disk/Racing-code/examples/23-libjpeg-divide-by-zero/libjpeg-turbo-2.0.90/cmyk.h:43
  *y = (JSAMPLE)(255.0 - ytmp * 255.0 + 0.5);
    6403:	c6 41 fe ff          	movb   $0xff,-0x2(%rcx)
/home/tenebris/Disk/Racing-code/examples/23-libjpeg-divide-by-zero/libjpeg-turbo-2.0.90/cmyk.h:44
  *k = (JSAMPLE)(255.0 - ktmp * 255.0 + 0.5);
    6407:	c6 41 ff 00          	movb   $0x0,-0x1(%rcx)
get_text_rgb_cmyk_row():
/home/tenebris/Disk/Racing-code/examples/23-libjpeg-divide-by-zero/libjpeg-turbo-2.0.90/rdppm.c:285
    for (col = cinfo->image_width; col > 0; col--) {
    640b:	4c 39 f1             	cmp    %r14,%rcx
    640e:	0f 85 8c fe ff ff    	jne    62a0 <get_text_rgb_cmyk_row+0x210>
    6414:	e9 27 fe ff ff       	jmp    6240 <get_text_rgb_cmyk_row+0x1b0>
    6419:	0f 1f 80 00 00 00 00 	nopl   0x0(%rax)

0000000000006420 <get_text_rgb_row>:
get_text_rgb_row():
/home/tenebris/Disk/Racing-code/examples/23-libjpeg-divide-by-zero/libjpeg-turbo-2.0.90/rdppm.c:240
{
    6420:	f3 0f 1e fa          	endbr64 
    6424:	41 57                	push   %r15
/home/tenebris/Disk/Racing-code/examples/23-libjpeg-divide-by-zero/libjpeg-turbo-2.0.90/rdppm.c:247
  register int rindex = rgb_red[cinfo->in_color_space];
    6426:	48 8d 0d 73 5e 00 00 	lea    0x5e73(%rip),%rcx        # c2a0 <rgb_red>
/home/tenebris/Disk/Racing-code/examples/23-libjpeg-divide-by-zero/libjpeg-turbo-2.0.90/rdppm.c:240
{
    642d:	48 89 f2             	mov    %rsi,%rdx
    6430:	41 56                	push   %r14
    6432:	41 55                	push   %r13
    6434:	41 54                	push   %r12
    6436:	55                   	push   %rbp
    6437:	48 89 fd             	mov    %rdi,%rbp
    643a:	53                   	push   %rbx
    643b:	48 83 ec 38          	sub    $0x38,%rsp
/home/tenebris/Disk/Racing-code/examples/23-libjpeg-divide-by-zero/libjpeg-turbo-2.0.90/rdppm.c:247
  register int rindex = rgb_red[cinfo->in_color_space];
    643f:	8b 47 3c             	mov    0x3c(%rdi),%eax
/home/tenebris/Disk/Racing-code/examples/23-libjpeg-divide-by-zero/libjpeg-turbo-2.0.90/rdppm.c:246
  unsigned int maxval = source->maxval;
    6442:	44 8b 76 50          	mov    0x50(%rsi),%r14d
/home/tenebris/Disk/Racing-code/examples/23-libjpeg-divide-by-zero/libjpeg-turbo-2.0.90/rdppm.c:253
  ptr = source->pub.buffer[0];
    6446:	48 8b 52 20          	mov    0x20(%rdx),%rdx
/home/tenebris/Disk/Racing-code/examples/23-libjpeg-divide-by-zero/libjpeg-turbo-2.0.90/rdppm.c:242
  FILE *infile = source->pub.input_file;
    644a:	4c 8b 6e 18          	mov    0x18(%rsi),%r13
/home/tenebris/Disk/Racing-code/examples/23-libjpeg-divide-by-zero/libjpeg-turbo-2.0.90/rdppm.c:247
  register int rindex = rgb_red[cinfo->in_color_space];
    644e:	44 8b 0c 81          	mov    (%rcx,%rax,4),%r9d
/home/tenebris/Disk/Racing-code/examples/23-libjpeg-divide-by-zero/libjpeg-turbo-2.0.90/rdppm.c:248
  register int gindex = rgb_green[cinfo->in_color_space];
    6452:	48 8d 0d e7 5d 00 00 	lea    0x5de7(%rip),%rcx        # c240 <rgb_green>
/home/tenebris/Disk/Racing-code/examples/23-libjpeg-divide-by-zero/libjpeg-turbo-2.0.90/rdppm.c:244
  register JSAMPLE *rescale = source->rescale;
    6459:	4c 8b 7e 48          	mov    0x48(%rsi),%r15
/home/tenebris/Disk/Racing-code/examples/23-libjpeg-divide-by-zero/libjpeg-turbo-2.0.90/rdppm.c:251
  register int ps = rgb_pixelsize[cinfo->in_color_space];
    645d:	48 8d 35 1c 5d 00 00 	lea    0x5d1c(%rip),%rsi        # c180 <rgb_pixelsize>
/home/tenebris/Disk/Racing-code/examples/23-libjpeg-divide-by-zero/libjpeg-turbo-2.0.90/rdppm.c:248
  register int gindex = rgb_green[cinfo->in_color_space];
    6464:	44 8b 04 81          	mov    (%rcx,%rax,4),%r8d
/home/tenebris/Disk/Racing-code/examples/23-libjpeg-divide-by-zero/libjpeg-turbo-2.0.90/rdppm.c:249
  register int bindex = rgb_blue[cinfo->in_color_space];
    6468:	48 8d 0d 71 5d 00 00 	lea    0x5d71(%rip),%rcx        # c1e0 <rgb_blue>
/home/tenebris/Disk/Racing-code/examples/23-libjpeg-divide-by-zero/libjpeg-turbo-2.0.90/rdppm.c:253
  ptr = source->pub.buffer[0];
    646f:	48 8b 1a             	mov    (%rdx),%rbx
/home/tenebris/Disk/Racing-code/examples/23-libjpeg-divide-by-zero/libjpeg-turbo-2.0.90/rdppm.c:249
  register int bindex = rgb_blue[cinfo->in_color_space];
    6472:	48 63 3c 81          	movslq (%rcx,%rax,4),%rdi
/home/tenebris/Disk/Racing-code/examples/23-libjpeg-divide-by-zero/libjpeg-turbo-2.0.90/rdppm.c:250
  register int aindex = alpha_index[cinfo->in_color_space];
    6476:	48 8d 0d a3 5c 00 00 	lea    0x5ca3(%rip),%rcx        # c120 <alpha_index>
/home/tenebris/Disk/Racing-code/examples/23-libjpeg-divide-by-zero/libjpeg-turbo-2.0.90/rdppm.c:256
      RGB_READ_LOOP(read_pbm_integer(cinfo, infile, maxval),
    647d:	44 8b 65 30          	mov    0x30(%rbp),%r12d
/home/tenebris/Disk/Racing-code/examples/23-libjpeg-divide-by-zero/libjpeg-turbo-2.0.90/rdppm.c:250
  register int aindex = alpha_index[cinfo->in_color_space];
    6481:	8b 0c 81             	mov    (%rcx,%rax,4),%ecx
/home/tenebris/Disk/Racing-code/examples/23-libjpeg-divide-by-zero/libjpeg-turbo-2.0.90/rdppm.c:251
  register int ps = rgb_pixelsize[cinfo->in_color_space];
    6484:	48 63 04 86          	movslq (%rsi,%rax,4),%rax
/home/tenebris/Disk/Racing-code/examples/23-libjpeg-divide-by-zero/libjpeg-turbo-2.0.90/rdppm.c:254
  if (maxval == MAXJSAMPLE) {
    6488:	41 81 fe ff 00 00 00 	cmp    $0xff,%r14d
    648f:	0f 84 6b 01 00 00    	je     6600 <get_text_rgb_row+0x1e0>
/home/tenebris/Disk/Racing-code/examples/23-libjpeg-divide-by-zero/libjpeg-turbo-2.0.90/rdppm.c:261
    if (aindex >= 0)
    6495:	85 c9                	test   %ecx,%ecx
    6497:	0f 88 c3 00 00 00    	js     6560 <get_text_rgb_row+0x140>
/home/tenebris/Disk/Racing-code/examples/23-libjpeg-divide-by-zero/libjpeg-turbo-2.0.90/rdppm.c:262
      RGB_READ_LOOP(rescale[read_pbm_integer(cinfo, infile, maxval)],
    649d:	45 85 e4             	test   %r12d,%r12d
    64a0:	0f 84 9f 00 00 00    	je     6545 <get_text_rgb_row+0x125>
/home/tenebris/Disk/Racing-code/examples/23-libjpeg-divide-by-zero/libjpeg-turbo-2.0.90/rdppm.c:256
      RGB_READ_LOOP(read_pbm_integer(cinfo, infile, maxval),
    64a6:	49 63 f1             	movslq %r9d,%rsi
    64a9:	48 89 7c 24 08       	mov    %rdi,0x8(%rsp)
    64ae:	49 63 d0             	movslq %r8d,%rdx
    64b1:	48 63 f9             	movslq %ecx,%rdi
    64b4:	48 89 74 24 18       	mov    %rsi,0x18(%rsp)
    64b9:	48 01 f3             	add    %rsi,%rbx
    64bc:	48 89 54 24 10       	mov    %rdx,0x10(%rsp)
    64c1:	48 89 7c 24 20       	mov    %rdi,0x20(%rsp)
    64c6:	48 89 44 24 28       	mov    %rax,0x28(%rsp)
    64cb:	0f 1f 44 00 00       	nopl   0x0(%rax,%rax,1)
/home/tenebris/Disk/Racing-code/examples/23-libjpeg-divide-by-zero/libjpeg-turbo-2.0.90/rdppm.c:262 (discriminator 3)
      RGB_READ_LOOP(rescale[read_pbm_integer(cinfo, infile, maxval)],
    64d0:	44 89 f2             	mov    %r14d,%edx
    64d3:	4c 89 ee             	mov    %r13,%rsi
    64d6:	48 89 ef             	mov    %rbp,%rdi
    64d9:	e8 92 fa ff ff       	call   5f70 <read_pbm_integer>
    64de:	44 89 f2             	mov    %r14d,%edx
    64e1:	4c 89 ee             	mov    %r13,%rsi
    64e4:	48 89 ef             	mov    %rbp,%rdi
    64e7:	89 c0                	mov    %eax,%eax
    64e9:	41 0f b6 04 07       	movzbl (%r15,%rax,1),%eax
    64ee:	88 03                	mov    %al,(%rbx)
    64f0:	e8 7b fa ff ff       	call   5f70 <read_pbm_integer>
    64f5:	48 8b 7c 24 10       	mov    0x10(%rsp),%rdi
    64fa:	48 89 d9             	mov    %rbx,%rcx
    64fd:	4c 89 ee             	mov    %r13,%rsi
    6500:	89 c0                	mov    %eax,%eax
    6502:	48 2b 4c 24 18       	sub    0x18(%rsp),%rcx
    6507:	44 89 f2             	mov    %r14d,%edx
    650a:	41 0f b6 04 07       	movzbl (%r15,%rax,1),%eax
    650f:	48 89 0c 24          	mov    %rcx,(%rsp)
    6513:	88 04 39             	mov    %al,(%rcx,%rdi,1)
    6516:	48 89 ef             	mov    %rbp,%rdi
    6519:	e8 52 fa ff ff       	call   5f70 <read_pbm_integer>
    651e:	48 8b 0c 24          	mov    (%rsp),%rcx
    6522:	48 8b 74 24 08       	mov    0x8(%rsp),%rsi
    6527:	89 c0                	mov    %eax,%eax
    6529:	48 03 5c 24 28       	add    0x28(%rsp),%rbx
    652e:	41 0f b6 04 07       	movzbl (%r15,%rax,1),%eax
    6533:	88 04 31             	mov    %al,(%rcx,%rsi,1)
    6536:	48 8b 44 24 20       	mov    0x20(%rsp),%rax
    653b:	c6 04 01 ff          	movb   $0xff,(%rcx,%rax,1)
    653f:	41 83 ec 01          	sub    $0x1,%r12d
    6543:	75 8b                	jne    64d0 <get_text_rgb_row+0xb0>
/home/tenebris/Disk/Racing-code/examples/23-libjpeg-divide-by-zero/libjpeg-turbo-2.0.90/rdppm.c:268
}
    6545:	48 83 c4 38          	add    $0x38,%rsp
    6549:	b8 01 00 00 00       	mov    $0x1,%eax
    654e:	5b                   	pop    %rbx
    654f:	5d                   	pop    %rbp
    6550:	41 5c                	pop    %r12
    6552:	41 5d                	pop    %r13
    6554:	41 5e                	pop    %r14
    6556:	41 5f                	pop    %r15
    6558:	c3                   	ret    
    6559:	0f 1f 80 00 00 00 00 	nopl   0x0(%rax)
/home/tenebris/Disk/Racing-code/examples/23-libjpeg-divide-by-zero/libjpeg-turbo-2.0.90/rdppm.c:265
      RGB_READ_LOOP(rescale[read_pbm_integer(cinfo, infile, maxval)],)
    6560:	45 85 e4             	test   %r12d,%r12d
    6563:	74 e0                	je     6545 <get_text_rgb_row+0x125>
/home/tenebris/Disk/Racing-code/examples/23-libjpeg-divide-by-zero/libjpeg-turbo-2.0.90/rdppm.c:256
      RGB_READ_LOOP(read_pbm_integer(cinfo, infile, maxval),
    6565:	49 63 d1             	movslq %r9d,%rdx
    6568:	49 63 f0             	movslq %r8d,%rsi
    656b:	48 89 7c 24 08       	mov    %rdi,0x8(%rsp)
    6570:	48 89 54 24 18       	mov    %rdx,0x18(%rsp)
    6575:	48 01 d3             	add    %rdx,%rbx
    6578:	48 89 74 24 10       	mov    %rsi,0x10(%rsp)
    657d:	48 89 44 24 20       	mov    %rax,0x20(%rsp)
    6582:	66 0f 1f 44 00 00    	nopw   0x0(%rax,%rax,1)
/home/tenebris/Disk/Racing-code/examples/23-libjpeg-divide-by-zero/libjpeg-turbo-2.0.90/rdppm.c:265 (discriminator 3)
      RGB_READ_LOOP(rescale[read_pbm_integer(cinfo, infile, maxval)],)
    6588:	44 89 f2             	mov    %r14d,%edx
    658b:	4c 89 ee             	mov    %r13,%rsi
    658e:	48 89 ef             	mov    %rbp,%rdi
    6591:	e8 da f9 ff ff       	call   5f70 <read_pbm_integer>
    6596:	44 89 f2             	mov    %r14d,%edx
    6599:	4c 89 ee             	mov    %r13,%rsi
    659c:	48 89 ef             	mov    %rbp,%rdi
    659f:	89 c0                	mov    %eax,%eax
    65a1:	41 0f b6 04 07       	movzbl (%r15,%rax,1),%eax
    65a6:	88 03                	mov    %al,(%rbx)
    65a8:	e8 c3 f9 ff ff       	call   5f70 <read_pbm_integer>
    65ad:	48 8b 54 24 10       	mov    0x10(%rsp),%rdx
    65b2:	48 89 d9             	mov    %rbx,%rcx
    65b5:	48 89 ef             	mov    %rbp,%rdi
    65b8:	89 c0                	mov    %eax,%eax
    65ba:	48 2b 4c 24 18       	sub    0x18(%rsp),%rcx
    65bf:	4c 89 ee             	mov    %r13,%rsi
    65c2:	41 0f b6 04 07       	movzbl (%r15,%rax,1),%eax
    65c7:	48 89 0c 24          	mov    %rcx,(%rsp)
    65cb:	88 04 11             	mov    %al,(%rcx,%rdx,1)
    65ce:	44 89 f2             	mov    %r14d,%edx
    65d1:	e8 9a f9 ff ff       	call   5f70 <read_pbm_integer>
    65d6:	48 8b 7c 24 08       	mov    0x8(%rsp),%rdi
    65db:	48 8b 0c 24          	mov    (%rsp),%rcx
    65df:	89 c0                	mov    %eax,%eax
    65e1:	48 03 5c 24 20       	add    0x20(%rsp),%rbx
    65e6:	41 0f b6 04 07       	movzbl (%r15,%rax,1),%eax
    65eb:	88 04 39             	mov    %al,(%rcx,%rdi,1)
    65ee:	41 83 ec 01          	sub    $0x1,%r12d
    65f2:	75 94                	jne    6588 <get_text_rgb_row+0x168>
    65f4:	e9 4c ff ff ff       	jmp    6545 <get_text_rgb_row+0x125>
    65f9:	0f 1f 80 00 00 00 00 	nopl   0x0(%rax)
/home/tenebris/Disk/Racing-code/examples/23-libjpeg-divide-by-zero/libjpeg-turbo-2.0.90/rdppm.c:255
    if (aindex >= 0)
    6600:	85 c9                	test   %ecx,%ecx
    6602:	0f 88 90 00 00 00    	js     6698 <get_text_rgb_row+0x278>
/home/tenebris/Disk/Racing-code/examples/23-libjpeg-divide-by-zero/libjpeg-turbo-2.0.90/rdppm.c:256
      RGB_READ_LOOP(read_pbm_integer(cinfo, infile, maxval),
    6608:	45 85 e4             	test   %r12d,%r12d
    660b:	0f 84 34 ff ff ff    	je     6545 <get_text_rgb_row+0x125>
    6611:	48 89 7c 24 08       	mov    %rdi,0x8(%rsp)
    6616:	49 63 d0             	movslq %r8d,%rdx
    6619:	48 63 f9             	movslq %ecx,%rdi
    661c:	4d 63 f1             	movslq %r9d,%r14
    661f:	48 89 14 24          	mov    %rdx,(%rsp)
    6623:	4c 01 f3             	add    %r14,%rbx
    6626:	48 89 7c 24 18       	mov    %rdi,0x18(%rsp)
    662b:	48 89 44 24 10       	mov    %rax,0x10(%rsp)
/home/tenebris/Disk/Racing-code/examples/23-libjpeg-divide-by-zero/libjpeg-turbo-2.0.90/rdppm.c:256 (discriminator 3)
    6630:	ba ff 00 00 00       	mov    $0xff,%edx
    6635:	4c 89 ee             	mov    %r13,%rsi
    6638:	48 89 ef             	mov    %rbp,%rdi
    663b:	49 89 df             	mov    %rbx,%r15
    663e:	e8 2d f9 ff ff       	call   5f70 <read_pbm_integer>
    6643:	ba ff 00 00 00       	mov    $0xff,%edx
    6648:	4c 89 ee             	mov    %r13,%rsi
    664b:	48 89 ef             	mov    %rbp,%rdi
    664e:	88 03                	mov    %al,(%rbx)
    6650:	4d 29 f7             	sub    %r14,%r15
    6653:	e8 18 f9 ff ff       	call   5f70 <read_pbm_integer>
    6658:	48 8b 34 24          	mov    (%rsp),%rsi
    665c:	ba ff 00 00 00       	mov    $0xff,%edx
    6661:	48 89 ef             	mov    %rbp,%rdi
    6664:	41 88 04 37          	mov    %al,(%r15,%rsi,1)
    6668:	4c 89 ee             	mov    %r13,%rsi
    666b:	e8 00 f9 ff ff       	call   5f70 <read_pbm_integer>
    6670:	48 8b 54 24 08       	mov    0x8(%rsp),%rdx
    6675:	48 03 5c 24 10       	add    0x10(%rsp),%rbx
    667a:	41 88 04 17          	mov    %al,(%r15,%rdx,1)
    667e:	48 8b 44 24 18       	mov    0x18(%rsp),%rax
    6683:	41 c6 04 07 ff       	movb   $0xff,(%r15,%rax,1)
    6688:	41 83 ec 01          	sub    $0x1,%r12d
    668c:	75 a2                	jne    6630 <get_text_rgb_row+0x210>
    668e:	e9 b2 fe ff ff       	jmp    6545 <get_text_rgb_row+0x125>
    6693:	0f 1f 44 00 00       	nopl   0x0(%rax,%rax,1)
/home/tenebris/Disk/Racing-code/examples/23-libjpeg-divide-by-zero/libjpeg-turbo-2.0.90/rdppm.c:259
      RGB_READ_LOOP(read_pbm_integer(cinfo, infile, maxval),)
    6698:	45 85 e4             	test   %r12d,%r12d
    669b:	0f 84 a4 fe ff ff    	je     6545 <get_text_rgb_row+0x125>
/home/tenebris/Disk/Racing-code/examples/23-libjpeg-divide-by-zero/libjpeg-turbo-2.0.90/rdppm.c:256
      RGB_READ_LOOP(read_pbm_integer(cinfo, infile, maxval),
    66a1:	49 63 f0             	movslq %r8d,%rsi
    66a4:	48 89 7c 24 08       	mov    %rdi,0x8(%rsp)
    66a9:	4d 63 f1             	movslq %r9d,%r14
    66ac:	48 89 34 24          	mov    %rsi,(%rsp)
    66b0:	4c 01 f3             	add    %r14,%rbx
    66b3:	48 89 44 24 10       	mov    %rax,0x10(%rsp)
    66b8:	0f 1f 84 00 00 00 00 	nopl   0x0(%rax,%rax,1)
    66bf:	00 
/home/tenebris/Disk/Racing-code/examples/23-libjpeg-divide-by-zero/libjpeg-turbo-2.0.90/rdppm.c:259 (discriminator 3)
      RGB_READ_LOOP(read_pbm_integer(cinfo, infile, maxval),)
    66c0:	ba ff 00 00 00       	mov    $0xff,%edx
    66c5:	4c 89 ee             	mov    %r13,%rsi
    66c8:	48 89 ef             	mov    %rbp,%rdi
    66cb:	49 89 df             	mov    %rbx,%r15
    66ce:	e8 9d f8 ff ff       	call   5f70 <read_pbm_integer>
    66d3:	ba ff 00 00 00       	mov    $0xff,%edx
    66d8:	4c 89 ee             	mov    %r13,%rsi
    66db:	48 89 ef             	mov    %rbp,%rdi
    66de:	88 03                	mov    %al,(%rbx)
    66e0:	4d 29 f7             	sub    %r14,%r15
    66e3:	e8 88 f8 ff ff       	call   5f70 <read_pbm_integer>
    66e8:	48 8b 34 24          	mov    (%rsp),%rsi
    66ec:	ba ff 00 00 00       	mov    $0xff,%edx
    66f1:	48 89 ef             	mov    %rbp,%rdi
    66f4:	41 88 04 37          	mov    %al,(%r15,%rsi,1)
    66f8:	4c 89 ee             	mov    %r13,%rsi
    66fb:	e8 70 f8 ff ff       	call   5f70 <read_pbm_integer>
    6700:	48 8b 54 24 08       	mov    0x8(%rsp),%rdx
    6705:	48 03 5c 24 10       	add    0x10(%rsp),%rbx
    670a:	41 88 04 17          	mov    %al,(%r15,%rdx,1)
    670e:	41 83 ec 01          	sub    $0x1,%r12d
    6712:	75 ac                	jne    66c0 <get_text_rgb_row+0x2a0>
    6714:	e9 2c fe ff ff       	jmp    6545 <get_text_rgb_row+0x125>
    6719:	0f 1f 80 00 00 00 00 	nopl   0x0(%rax)

0000000000006720 <get_text_gray_cmyk_row>:
get_text_gray_cmyk_row():
/home/tenebris/Disk/Racing-code/examples/23-libjpeg-divide-by-zero/libjpeg-turbo-2.0.90/rdppm.c:201
{
    6720:	f3 0f 1e fa          	endbr64 
    6724:	41 57                	push   %r15
    6726:	41 56                	push   %r14
    6728:	41 55                	push   %r13
    672a:	41 54                	push   %r12
    672c:	55                   	push   %rbp
    672d:	48 89 fd             	mov    %rdi,%rbp
    6730:	53                   	push   %rbx
    6731:	48 83 ec 18          	sub    $0x18,%rsp
/home/tenebris/Disk/Racing-code/examples/23-libjpeg-divide-by-zero/libjpeg-turbo-2.0.90/rdppm.c:209
  ptr = source->pub.buffer[0];
    6735:	48 8b 46 20          	mov    0x20(%rsi),%rax
/home/tenebris/Disk/Racing-code/examples/23-libjpeg-divide-by-zero/libjpeg-turbo-2.0.90/rdppm.c:207
  unsigned int maxval = source->maxval;
    6739:	44 8b 7e 50          	mov    0x50(%rsi),%r15d
/home/tenebris/Disk/Racing-code/examples/23-libjpeg-divide-by-zero/libjpeg-turbo-2.0.90/rdppm.c:203
  FILE *infile = source->pub.input_file;
    673d:	4c 8b 66 18          	mov    0x18(%rsi),%r12
/home/tenebris/Disk/Racing-code/examples/23-libjpeg-divide-by-zero/libjpeg-turbo-2.0.90/rdppm.c:205
  register JSAMPLE *rescale = source->rescale;
    6741:	4c 8b 6e 48          	mov    0x48(%rsi),%r13
/home/tenebris/Disk/Racing-code/examples/23-libjpeg-divide-by-zero/libjpeg-turbo-2.0.90/rdppm.c:209
  ptr = source->pub.buffer[0];
    6745:	48 8b 18             	mov    (%rax),%rbx
/home/tenebris/Disk/Racing-code/examples/23-libjpeg-divide-by-zero/libjpeg-turbo-2.0.90/rdppm.c:211
    for (col = cinfo->image_width; col > 0; col--) {
    6748:	8b 47 30             	mov    0x30(%rdi),%eax
/home/tenebris/Disk/Racing-code/examples/23-libjpeg-divide-by-zero/libjpeg-turbo-2.0.90/rdppm.c:210
  if (maxval == MAXJSAMPLE) {
    674b:	41 81 ff ff 00 00 00 	cmp    $0xff,%r15d
    6752:	0f 84 08 01 00 00    	je     6860 <get_text_gray_cmyk_row+0x140>
/home/tenebris/Disk/Racing-code/examples/23-libjpeg-divide-by-zero/libjpeg-turbo-2.0.90/rdppm.c:217
    for (col = cinfo->image_width; col > 0; col--) {
    6758:	85 c0                	test   %eax,%eax
    675a:	0f 84 bd 00 00 00    	je     681d <get_text_gray_cmyk_row+0xfd>
    6760:	f2 0f 10 0d 80 5b 00 	movsd  0x5b80(%rip),%xmm1        # c2e8 <rgb_red+0x48>
    6767:	00 
    6768:	f2 0f 10 1d 80 5b 00 	movsd  0x5b80(%rip),%xmm3        # c2f0 <rgb_red+0x50>
    676f:	00 
    6770:	4c 8d 34 83          	lea    (%rbx,%rax,4),%r14
    6774:	0f 1f 40 00          	nopl   0x0(%rax)
/home/tenebris/Disk/Racing-code/examples/23-libjpeg-divide-by-zero/libjpeg-turbo-2.0.90/rdppm.c:218 (discriminator 3)
      JSAMPLE gray = rescale[read_pbm_integer(cinfo, infile, maxval)];
    6778:	44 89 fa             	mov    %r15d,%edx
    677b:	4c 89 e6             	mov    %r12,%rsi
    677e:	48 89 ef             	mov    %rbp,%rdi
    6781:	f2 0f 11 5c 24 08    	movsd  %xmm3,0x8(%rsp)
    6787:	f2 0f 11 0c 24       	movsd  %xmm1,(%rsp)
    678c:	e8 df f7 ff ff       	call   5f70 <read_pbm_integer>
rgb_to_cmyk():
/home/tenebris/Disk/Racing-code/examples/23-libjpeg-divide-by-zero/libjpeg-turbo-2.0.90/cmyk.h:30 (discriminator 3)
  double ctmp = 1.0 - ((double)r / 255.0);
    6791:	66 0f ef d2          	pxor   %xmm2,%xmm2
    6795:	f2 0f 10 0c 24       	movsd  (%rsp),%xmm1
    679a:	f2 0f 10 5c 24 08    	movsd  0x8(%rsp),%xmm3
get_text_gray_cmyk_row():
/home/tenebris/Disk/Racing-code/examples/23-libjpeg-divide-by-zero/libjpeg-turbo-2.0.90/rdppm.c:218 (discriminator 3)
    67a0:	89 c0                	mov    %eax,%eax
rgb_to_cmyk():
/home/tenebris/Disk/Racing-code/examples/23-libjpeg-divide-by-zero/libjpeg-turbo-2.0.90/cmyk.h:30 (discriminator 3)
    67a2:	41 0f b6 44 05 00    	movzbl 0x0(%r13,%rax,1),%eax
    67a8:	66 0f 28 c3          	movapd %xmm3,%xmm0
    67ac:	f2 0f 2a d0          	cvtsi2sd %eax,%xmm2
    67b0:	f2 0f 5e d1          	divsd  %xmm1,%xmm2
    67b4:	f2 0f 5c c2          	subsd  %xmm2,%xmm0
/home/tenebris/Disk/Racing-code/examples/23-libjpeg-divide-by-zero/libjpeg-turbo-2.0.90/cmyk.h:35 (discriminator 3)
  if (ktmp == 1.0) ctmp = mtmp = ytmp = 0.0;
    67b8:	66 0f 2e c3          	ucomisd %xmm3,%xmm0
    67bc:	7a 02                	jp     67c0 <get_text_gray_cmyk_row+0xa0>
    67be:	74 78                	je     6838 <get_text_gray_cmyk_row+0x118>
/home/tenebris/Disk/Racing-code/examples/23-libjpeg-divide-by-zero/libjpeg-turbo-2.0.90/cmyk.h:37
    ctmp = (ctmp - ktmp) / (1.0 - ktmp);
    67c0:	66 0f 28 d0          	movapd %xmm0,%xmm2
    67c4:	66 0f 28 e3          	movapd %xmm3,%xmm4
get_text_gray_cmyk_row():
/home/tenebris/Disk/Racing-code/examples/23-libjpeg-divide-by-zero/libjpeg-turbo-2.0.90/rdppm.c:220
      ptr += 4;
    67c8:	48 83 c3 04          	add    $0x4,%rbx
rgb_to_cmyk():
/home/tenebris/Disk/Racing-code/examples/23-libjpeg-divide-by-zero/libjpeg-turbo-2.0.90/cmyk.h:37
    67cc:	f2 0f 5c e0          	subsd  %xmm0,%xmm4
    67d0:	f2 0f 5c d0          	subsd  %xmm0,%xmm2
/home/tenebris/Disk/Racing-code/examples/23-libjpeg-divide-by-zero/libjpeg-turbo-2.0.90/cmyk.h:44
  *k = (JSAMPLE)(255.0 - ktmp * 255.0 + 0.5);
    67d4:	f2 0f 59 c1          	mulsd  %xmm1,%xmm0
/home/tenebris/Disk/Racing-code/examples/23-libjpeg-divide-by-zero/libjpeg-turbo-2.0.90/cmyk.h:37
    ctmp = (ctmp - ktmp) / (1.0 - ktmp);
    67d8:	f2 0f 5e d4          	divsd  %xmm4,%xmm2
/home/tenebris/Disk/Racing-code/examples/23-libjpeg-divide-by-zero/libjpeg-turbo-2.0.90/cmyk.h:41
  *c = (JSAMPLE)(255.0 - ctmp * 255.0 + 0.5);
    67dc:	66 0f 28 e1          	movapd %xmm1,%xmm4
    67e0:	f2 0f 59 d1          	mulsd  %xmm1,%xmm2
    67e4:	f2 0f 5c e2          	subsd  %xmm2,%xmm4
    67e8:	f2 0f 58 25 08 5b 00 	addsd  0x5b08(%rip),%xmm4        # c2f8 <rgb_red+0x58>
    67ef:	00 
/home/tenebris/Disk/Racing-code/examples/23-libjpeg-divide-by-zero/libjpeg-turbo-2.0.90/cmyk.h:44
  *k = (JSAMPLE)(255.0 - ktmp * 255.0 + 0.5);
    67f0:	66 0f 28 d1          	movapd %xmm1,%xmm2
    67f4:	f2 0f 5c d0          	subsd  %xmm0,%xmm2
    67f8:	f2 0f 58 15 f8 5a 00 	addsd  0x5af8(%rip),%xmm2        # c2f8 <rgb_red+0x58>
    67ff:	00 
/home/tenebris/Disk/Racing-code/examples/23-libjpeg-divide-by-zero/libjpeg-turbo-2.0.90/cmyk.h:41
  *c = (JSAMPLE)(255.0 - ctmp * 255.0 + 0.5);
    6800:	f2 0f 2c c4          	cvttsd2si %xmm4,%eax
    6804:	88 43 fc             	mov    %al,-0x4(%rbx)
/home/tenebris/Disk/Racing-code/examples/23-libjpeg-divide-by-zero/libjpeg-turbo-2.0.90/cmyk.h:42
  *m = (JSAMPLE)(255.0 - mtmp * 255.0 + 0.5);
    6807:	88 43 fd             	mov    %al,-0x3(%rbx)
/home/tenebris/Disk/Racing-code/examples/23-libjpeg-divide-by-zero/libjpeg-turbo-2.0.90/cmyk.h:43
  *y = (JSAMPLE)(255.0 - ytmp * 255.0 + 0.5);
    680a:	88 43 fe             	mov    %al,-0x2(%rbx)
/home/tenebris/Disk/Racing-code/examples/23-libjpeg-divide-by-zero/libjpeg-turbo-2.0.90/cmyk.h:44
  *k = (JSAMPLE)(255.0 - ktmp * 255.0 + 0.5);
    680d:	f2 0f 2c c2          	cvttsd2si %xmm2,%eax
    6811:	88 43 ff             	mov    %al,-0x1(%rbx)
get_text_gray_cmyk_row():
/home/tenebris/Disk/Racing-code/examples/23-libjpeg-divide-by-zero/libjpeg-turbo-2.0.90/rdppm.c:217
    for (col = cinfo->image_width; col > 0; col--) {
    6814:	49 39 de             	cmp    %rbx,%r14
    6817:	0f 85 5b ff ff ff    	jne    6778 <get_text_gray_cmyk_row+0x58>
/home/tenebris/Disk/Racing-code/examples/23-libjpeg-divide-by-zero/libjpeg-turbo-2.0.90/rdppm.c:224
}
    681d:	48 83 c4 18          	add    $0x18,%rsp
    6821:	b8 01 00 00 00       	mov    $0x1,%eax
    6826:	5b                   	pop    %rbx
    6827:	5d                   	pop    %rbp
    6828:	41 5c                	pop    %r12
    682a:	41 5d                	pop    %r13
    682c:	41 5e                	pop    %r14
    682e:	41 5f                	pop    %r15
    6830:	c3                   	ret    
    6831:	0f 1f 80 00 00 00 00 	nopl   0x0(%rax)
rgb_to_cmyk():
/home/tenebris/Disk/Racing-code/examples/23-libjpeg-divide-by-zero/libjpeg-turbo-2.0.90/cmyk.h:41
  *c = (JSAMPLE)(255.0 - ctmp * 255.0 + 0.5);
    6838:	c6 03 ff             	movb   $0xff,(%rbx)
get_text_gray_cmyk_row():
/home/tenebris/Disk/Racing-code/examples/23-libjpeg-divide-by-zero/libjpeg-turbo-2.0.90/rdppm.c:220
      ptr += 4;
    683b:	48 83 c3 04          	add    $0x4,%rbx
rgb_to_cmyk():
/home/tenebris/Disk/Racing-code/examples/23-libjpeg-divide-by-zero/libjpeg-turbo-2.0.90/cmyk.h:42
  *m = (JSAMPLE)(255.0 - mtmp * 255.0 + 0.5);
    683f:	c6 43 fd ff          	movb   $0xff,-0x3(%rbx)
/home/tenebris/Disk/Racing-code/examples/23-libjpeg-divide-by-zero/libjpeg-turbo-2.0.90/cmyk.h:43
  *y = (JSAMPLE)(255.0 - ytmp * 255.0 + 0.5);
    6843:	c6 43 fe ff          	movb   $0xff,-0x2(%rbx)
/home/tenebris/Disk/Racing-code/examples/23-libjpeg-divide-by-zero/libjpeg-turbo-2.0.90/cmyk.h:44
  *k = (JSAMPLE)(255.0 - ktmp * 255.0 + 0.5);
    6847:	c6 43 ff 00          	movb   $0x0,-0x1(%rbx)
get_text_gray_cmyk_row():
/home/tenebris/Disk/Racing-code/examples/23-libjpeg-divide-by-zero/libjpeg-turbo-2.0.90/rdppm.c:217
    for (col = cinfo->image_width; col > 0; col--) {
    684b:	4c 39 f3             	cmp    %r14,%rbx
    684e:	0f 85 24 ff ff ff    	jne    6778 <get_text_gray_cmyk_row+0x58>
    6854:	eb c7                	jmp    681d <get_text_gray_cmyk_row+0xfd>
    6856:	66 2e 0f 1f 84 00 00 	cs nopw 0x0(%rax,%rax,1)
    685d:	00 00 00 
/home/tenebris/Disk/Racing-code/examples/23-libjpeg-divide-by-zero/libjpeg-turbo-2.0.90/rdppm.c:211
    for (col = cinfo->image_width; col > 0; col--) {
    6860:	85 c0                	test   %eax,%eax
    6862:	74 b9                	je     681d <get_text_gray_cmyk_row+0xfd>
    6864:	f2 0f 10 0d 7c 5a 00 	movsd  0x5a7c(%rip),%xmm1        # c2e8 <rgb_red+0x48>
    686b:	00 
    686c:	f2 0f 10 1d 7c 5a 00 	movsd  0x5a7c(%rip),%xmm3        # c2f0 <rgb_red+0x50>
    6873:	00 
    6874:	4c 8d 2c 83          	lea    (%rbx,%rax,4),%r13
    6878:	0f 1f 84 00 00 00 00 	nopl   0x0(%rax,%rax,1)
    687f:	00 
/home/tenebris/Disk/Racing-code/examples/23-libjpeg-divide-by-zero/libjpeg-turbo-2.0.90/rdppm.c:212 (discriminator 3)
      JSAMPLE gray = read_pbm_integer(cinfo, infile, maxval);
    6880:	ba ff 00 00 00       	mov    $0xff,%edx
    6885:	4c 89 e6             	mov    %r12,%rsi
    6888:	48 89 ef             	mov    %rbp,%rdi
    688b:	f2 0f 11 0c 24       	movsd  %xmm1,(%rsp)
    6890:	f2 0f 11 5c 24 08    	movsd  %xmm3,0x8(%rsp)
    6896:	e8 d5 f6 ff ff       	call   5f70 <read_pbm_integer>
rgb_to_cmyk():
/home/tenebris/Disk/Racing-code/examples/23-libjpeg-divide-by-zero/libjpeg-turbo-2.0.90/cmyk.h:30 (discriminator 3)
  double ctmp = 1.0 - ((double)r / 255.0);
    689b:	66 0f ef d2          	pxor   %xmm2,%xmm2
    689f:	f2 0f 10 0c 24       	movsd  (%rsp),%xmm1
    68a4:	f2 0f 10 5c 24 08    	movsd  0x8(%rsp),%xmm3
    68aa:	0f b6 c0             	movzbl %al,%eax
    68ad:	f2 0f 2a d0          	cvtsi2sd %eax,%xmm2
    68b1:	66 0f 28 c3          	movapd %xmm3,%xmm0
    68b5:	f2 0f 5e d1          	divsd  %xmm1,%xmm2
    68b9:	f2 0f 5c c2          	subsd  %xmm2,%xmm0
/home/tenebris/Disk/Racing-code/examples/23-libjpeg-divide-by-zero/libjpeg-turbo-2.0.90/cmyk.h:35 (discriminator 3)
  if (ktmp == 1.0) ctmp = mtmp = ytmp = 0.0;
    68bd:	66 0f 2e c3          	ucomisd %xmm3,%xmm0
    68c1:	7a 02                	jp     68c5 <get_text_gray_cmyk_row+0x1a5>
    68c3:	74 6b                	je     6930 <get_text_gray_cmyk_row+0x210>
/home/tenebris/Disk/Racing-code/examples/23-libjpeg-divide-by-zero/libjpeg-turbo-2.0.90/cmyk.h:37
    ctmp = (ctmp - ktmp) / (1.0 - ktmp);
    68c5:	66 0f 28 d0          	movapd %xmm0,%xmm2
    68c9:	66 0f 28 e3          	movapd %xmm3,%xmm4
get_text_gray_cmyk_row():
/home/tenebris/Disk/Racing-code/examples/23-libjpeg-divide-by-zero/libjpeg-turbo-2.0.90/rdppm.c:214
      ptr += 4;
    68cd:	48 83 c3 04          	add    $0x4,%rbx
rgb_to_cmyk():
/home/tenebris/Disk/Racing-code/examples/23-libjpeg-divide-by-zero/libjpeg-turbo-2.0.90/cmyk.h:37
    68d1:	f2 0f 5c e0          	subsd  %xmm0,%xmm4
    68d5:	f2 0f 5c d0          	subsd  %xmm0,%xmm2
/home/tenebris/Disk/Racing-code/examples/23-libjpeg-divide-by-zero/libjpeg-turbo-2.0.90/cmyk.h:44
  *k = (JSAMPLE)(255.0 - ktmp * 255.0 + 0.5);
    68d9:	f2 0f 59 c1          	mulsd  %xmm1,%xmm0
/home/tenebris/Disk/Racing-code/examples/23-libjpeg-divide-by-zero/libjpeg-turbo-2.0.90/cmyk.h:37
    ctmp = (ctmp - ktmp) / (1.0 - ktmp);
    68dd:	f2 0f 5e d4          	divsd  %xmm4,%xmm2
/home/tenebris/Disk/Racing-code/examples/23-libjpeg-divide-by-zero/libjpeg-turbo-2.0.90/cmyk.h:41
  *c = (JSAMPLE)(255.0 - ctmp * 255.0 + 0.5);
    68e1:	66 0f 28 e1          	movapd %xmm1,%xmm4
    68e5:	f2 0f 59 d1          	mulsd  %xmm1,%xmm2
    68e9:	f2 0f 5c e2          	subsd  %xmm2,%xmm4
    68ed:	f2 0f 58 25 03 5a 00 	addsd  0x5a03(%rip),%xmm4        # c2f8 <rgb_red+0x58>
    68f4:	00 
/home/tenebris/Disk/Racing-code/examples/23-libjpeg-divide-by-zero/libjpeg-turbo-2.0.90/cmyk.h:44
  *k = (JSAMPLE)(255.0 - ktmp * 255.0 + 0.5);
    68f5:	66 0f 28 d1          	movapd %xmm1,%xmm2
    68f9:	f2 0f 5c d0          	subsd  %xmm0,%xmm2
    68fd:	f2 0f 58 15 f3 59 00 	addsd  0x59f3(%rip),%xmm2        # c2f8 <rgb_red+0x58>
    6904:	00 
/home/tenebris/Disk/Racing-code/examples/23-libjpeg-divide-by-zero/libjpeg-turbo-2.0.90/cmyk.h:41
  *c = (JSAMPLE)(255.0 - ctmp * 255.0 + 0.5);
    6905:	f2 0f 2c c4          	cvttsd2si %xmm4,%eax
    6909:	88 43 fc             	mov    %al,-0x4(%rbx)
/home/tenebris/Disk/Racing-code/examples/23-libjpeg-divide-by-zero/libjpeg-turbo-2.0.90/cmyk.h:42
  *m = (JSAMPLE)(255.0 - mtmp * 255.0 + 0.5);
    690c:	88 43 fd             	mov    %al,-0x3(%rbx)
/home/tenebris/Disk/Racing-code/examples/23-libjpeg-divide-by-zero/libjpeg-turbo-2.0.90/cmyk.h:43
  *y = (JSAMPLE)(255.0 - ytmp * 255.0 + 0.5);
    690f:	88 43 fe             	mov    %al,-0x2(%rbx)
/home/tenebris/Disk/Racing-code/examples/23-libjpeg-divide-by-zero/libjpeg-turbo-2.0.90/cmyk.h:44
  *k = (JSAMPLE)(255.0 - ktmp * 255.0 + 0.5);
    6912:	f2 0f 2c c2          	cvttsd2si %xmm2,%eax
    6916:	88 43 ff             	mov    %al,-0x1(%rbx)
get_text_gray_cmyk_row():
/home/tenebris/Disk/Racing-code/examples/23-libjpeg-divide-by-zero/libjpeg-turbo-2.0.90/rdppm.c:211
    for (col = cinfo->image_width; col > 0; col--) {
    6919:	4c 39 eb             	cmp    %r13,%rbx
    691c:	0f 85 5e ff ff ff    	jne    6880 <get_text_gray_cmyk_row+0x160>
    6922:	e9 f6 fe ff ff       	jmp    681d <get_text_gray_cmyk_row+0xfd>
    6927:	66 0f 1f 84 00 00 00 	nopw   0x0(%rax,%rax,1)
    692e:	00 00 
rgb_to_cmyk():
/home/tenebris/Disk/Racing-code/examples/23-libjpeg-divide-by-zero/libjpeg-turbo-2.0.90/cmyk.h:41
  *c = (JSAMPLE)(255.0 - ctmp * 255.0 + 0.5);
    6930:	c6 03 ff             	movb   $0xff,(%rbx)
get_text_gray_cmyk_row():
/home/tenebris/Disk/Racing-code/examples/23-libjpeg-divide-by-zero/libjpeg-turbo-2.0.90/rdppm.c:214
      ptr += 4;
    6933:	48 83 c3 04          	add    $0x4,%rbx
rgb_to_cmyk():
/home/tenebris/Disk/Racing-code/examples/23-libjpeg-divide-by-zero/libjpeg-turbo-2.0.90/cmyk.h:42
  *m = (JSAMPLE)(255.0 - mtmp * 255.0 + 0.5);
    6937:	c6 43 fd ff          	movb   $0xff,-0x3(%rbx)
/home/tenebris/Disk/Racing-code/examples/23-libjpeg-divide-by-zero/libjpeg-turbo-2.0.90/cmyk.h:43
  *y = (JSAMPLE)(255.0 - ytmp * 255.0 + 0.5);
    693b:	c6 43 fe ff          	movb   $0xff,-0x2(%rbx)
/home/tenebris/Disk/Racing-code/examples/23-libjpeg-divide-by-zero/libjpeg-turbo-2.0.90/cmyk.h:44
  *k = (JSAMPLE)(255.0 - ktmp * 255.0 + 0.5);
    693f:	c6 43 ff 00          	movb   $0x0,-0x1(%rbx)
get_text_gray_cmyk_row():
/home/tenebris/Disk/Racing-code/examples/23-libjpeg-divide-by-zero/libjpeg-turbo-2.0.90/rdppm.c:211
    for (col = cinfo->image_width; col > 0; col--) {
    6943:	4c 39 eb             	cmp    %r13,%rbx
    6946:	0f 85 34 ff ff ff    	jne    6880 <get_text_gray_cmyk_row+0x160>
    694c:	e9 cc fe ff ff       	jmp    681d <get_text_gray_cmyk_row+0xfd>
    6951:	66 66 2e 0f 1f 84 00 	data16 cs nopw 0x0(%rax,%rax,1)
    6958:	00 00 00 00 
    695c:	0f 1f 40 00          	nopl   0x0(%rax)

0000000000006960 <get_text_gray_rgb_row>:
get_text_gray_rgb_row():
/home/tenebris/Disk/Racing-code/examples/23-libjpeg-divide-by-zero/libjpeg-turbo-2.0.90/rdppm.c:166
{
    6960:	f3 0f 1e fa          	endbr64 
    6964:	41 57                	push   %r15
    6966:	48 89 f0             	mov    %rsi,%rax
/home/tenebris/Disk/Racing-code/examples/23-libjpeg-divide-by-zero/libjpeg-turbo-2.0.90/rdppm.c:177
  register int ps = rgb_pixelsize[cinfo->in_color_space];
    6969:	4c 8d 05 10 58 00 00 	lea    0x5810(%rip),%r8        # c180 <rgb_pixelsize>
/home/tenebris/Disk/Racing-code/examples/23-libjpeg-divide-by-zero/libjpeg-turbo-2.0.90/rdppm.c:166
{
    6970:	41 56                	push   %r14
    6972:	41 55                	push   %r13
    6974:	49 89 fd             	mov    %rdi,%r13
    6977:	41 54                	push   %r12
    6979:	55                   	push   %rbp
    697a:	53                   	push   %rbx
    697b:	48 83 ec 38          	sub    $0x38,%rsp
/home/tenebris/Disk/Racing-code/examples/23-libjpeg-divide-by-zero/libjpeg-turbo-2.0.90/rdppm.c:173
  register int rindex = rgb_red[cinfo->in_color_space];
    697f:	8b 4f 3c             	mov    0x3c(%rdi),%ecx
/home/tenebris/Disk/Racing-code/examples/23-libjpeg-divide-by-zero/libjpeg-turbo-2.0.90/rdppm.c:170
  register JSAMPLE *rescale = source->rescale;
    6982:	48 8b 5e 48          	mov    0x48(%rsi),%rbx
/home/tenebris/Disk/Racing-code/examples/23-libjpeg-divide-by-zero/libjpeg-turbo-2.0.90/rdppm.c:168
  FILE *infile = source->pub.input_file;
    6986:	4c 8b 76 18          	mov    0x18(%rsi),%r14
/home/tenebris/Disk/Racing-code/examples/23-libjpeg-divide-by-zero/libjpeg-turbo-2.0.90/rdppm.c:172
  unsigned int maxval = source->maxval;
    698a:	44 8b 7e 50          	mov    0x50(%rsi),%r15d
/home/tenebris/Disk/Racing-code/examples/23-libjpeg-divide-by-zero/libjpeg-turbo-2.0.90/rdppm.c:173
  register int rindex = rgb_red[cinfo->in_color_space];
    698e:	48 8d 35 0b 59 00 00 	lea    0x590b(%rip),%rsi        # c2a0 <rgb_red>
    6995:	4c 63 24 8e          	movslq (%rsi,%rcx,4),%r12
/home/tenebris/Disk/Racing-code/examples/23-libjpeg-divide-by-zero/libjpeg-turbo-2.0.90/rdppm.c:174
  register int gindex = rgb_green[cinfo->in_color_space];
    6999:	48 8d 35 a0 58 00 00 	lea    0x58a0(%rip),%rsi        # c240 <rgb_green>
/home/tenebris/Disk/Racing-code/examples/23-libjpeg-divide-by-zero/libjpeg-turbo-2.0.90/rdppm.c:179
  ptr = source->pub.buffer[0];
    69a0:	48 8b 40 20          	mov    0x20(%rax),%rax
/home/tenebris/Disk/Racing-code/examples/23-libjpeg-divide-by-zero/libjpeg-turbo-2.0.90/rdppm.c:170
  register JSAMPLE *rescale = source->rescale;
    69a4:	48 89 5c 24 08       	mov    %rbx,0x8(%rsp)
/home/tenebris/Disk/Racing-code/examples/23-libjpeg-divide-by-zero/libjpeg-turbo-2.0.90/rdppm.c:174
  register int gindex = rgb_green[cinfo->in_color_space];
    69a9:	8b 14 8e             	mov    (%rsi,%rcx,4),%edx
/home/tenebris/Disk/Racing-code/examples/23-libjpeg-divide-by-zero/libjpeg-turbo-2.0.90/rdppm.c:175
  register int bindex = rgb_blue[cinfo->in_color_space];
    69ac:	48 8d 35 2d 58 00 00 	lea    0x582d(%rip),%rsi        # c1e0 <rgb_blue>
/home/tenebris/Disk/Racing-code/examples/23-libjpeg-divide-by-zero/libjpeg-turbo-2.0.90/rdppm.c:177
  register int ps = rgb_pixelsize[cinfo->in_color_space];
    69b3:	45 8b 04 88          	mov    (%r8,%rcx,4),%r8d
/home/tenebris/Disk/Racing-code/examples/23-libjpeg-divide-by-zero/libjpeg-turbo-2.0.90/rdppm.c:175
  register int bindex = rgb_blue[cinfo->in_color_space];
    69b7:	48 63 2c 8e          	movslq (%rsi,%rcx,4),%rbp
/home/tenebris/Disk/Racing-code/examples/23-libjpeg-divide-by-zero/libjpeg-turbo-2.0.90/rdppm.c:176
  register int aindex = alpha_index[cinfo->in_color_space];
    69bb:	48 8d 35 5e 57 00 00 	lea    0x575e(%rip),%rsi        # c120 <alpha_index>
/home/tenebris/Disk/Racing-code/examples/23-libjpeg-divide-by-zero/libjpeg-turbo-2.0.90/rdppm.c:182
      GRAY_RGB_READ_LOOP(read_pbm_integer(cinfo, infile, maxval),
    69c2:	8b 5f 30             	mov    0x30(%rdi),%ebx
/home/tenebris/Disk/Racing-code/examples/23-libjpeg-divide-by-zero/libjpeg-turbo-2.0.90/rdppm.c:176
  register int aindex = alpha_index[cinfo->in_color_space];
    69c5:	8b 34 8e             	mov    (%rsi,%rcx,4),%esi
/home/tenebris/Disk/Racing-code/examples/23-libjpeg-divide-by-zero/libjpeg-turbo-2.0.90/rdppm.c:179
  ptr = source->pub.buffer[0];
    69c8:	48 8b 08             	mov    (%rax),%rcx
/home/tenebris/Disk/Racing-code/examples/23-libjpeg-divide-by-zero/libjpeg-turbo-2.0.90/rdppm.c:180
  if (maxval == MAXJSAMPLE) {
    69cb:	41 81 ff ff 00 00 00 	cmp    $0xff,%r15d
    69d2:	0f 84 f8 00 00 00    	je     6ad0 <get_text_gray_rgb_row+0x170>
/home/tenebris/Disk/Racing-code/examples/23-libjpeg-divide-by-zero/libjpeg-turbo-2.0.90/rdppm.c:187
    if (aindex >= 0)
    69d8:	85 f6                	test   %esi,%esi
    69da:	0f 88 90 00 00 00    	js     6a70 <get_text_gray_rgb_row+0x110>
/home/tenebris/Disk/Racing-code/examples/23-libjpeg-divide-by-zero/libjpeg-turbo-2.0.90/rdppm.c:188
      GRAY_RGB_READ_LOOP(rescale[read_pbm_integer(cinfo, infile, maxval)],
    69e0:	85 db                	test   %ebx,%ebx
    69e2:	74 74                	je     6a58 <get_text_gray_rgb_row+0xf8>
/home/tenebris/Disk/Racing-code/examples/23-libjpeg-divide-by-zero/libjpeg-turbo-2.0.90/rdppm.c:182
      GRAY_RGB_READ_LOOP(read_pbm_integer(cinfo, infile, maxval),
    69e4:	48 63 c2             	movslq %edx,%rax
    69e7:	48 89 44 24 18       	mov    %rax,0x18(%rsp)
    69ec:	49 63 c4             	movslq %r12d,%rax
    69ef:	4c 8d 24 29          	lea    (%rcx,%rbp,1),%r12
    69f3:	48 89 44 24 10       	mov    %rax,0x10(%rsp)
    69f8:	48 63 c6             	movslq %esi,%rax
    69fb:	48 89 44 24 20       	mov    %rax,0x20(%rsp)
    6a00:	49 63 c0             	movslq %r8d,%rax
    6a03:	48 89 44 24 28       	mov    %rax,0x28(%rsp)
    6a08:	0f 1f 84 00 00 00 00 	nopl   0x0(%rax,%rax,1)
    6a0f:	00 
/home/tenebris/Disk/Racing-code/examples/23-libjpeg-divide-by-zero/libjpeg-turbo-2.0.90/rdppm.c:188 (discriminator 3)
      GRAY_RGB_READ_LOOP(rescale[read_pbm_integer(cinfo, infile, maxval)],
    6a10:	4c 89 f6             	mov    %r14,%rsi
    6a13:	4c 89 ef             	mov    %r13,%rdi
    6a16:	44 89 fa             	mov    %r15d,%edx
    6a19:	e8 52 f5 ff ff       	call   5f70 <read_pbm_integer>
    6a1e:	48 8b 4c 24 08       	mov    0x8(%rsp),%rcx
    6a23:	48 8b 7c 24 18       	mov    0x18(%rsp),%rdi
    6a28:	89 c0                	mov    %eax,%eax
    6a2a:	0f b6 34 01          	movzbl (%rcx,%rax,1),%esi
    6a2e:	4c 89 e0             	mov    %r12,%rax
    6a31:	48 8b 4c 24 10       	mov    0x10(%rsp),%rcx
    6a36:	48 29 e8             	sub    %rbp,%rax
    6a39:	41 88 34 24          	mov    %sil,(%r12)
    6a3d:	4c 03 64 24 28       	add    0x28(%rsp),%r12
    6a42:	40 88 34 38          	mov    %sil,(%rax,%rdi,1)
    6a46:	48 8b 7c 24 20       	mov    0x20(%rsp),%rdi
    6a4b:	40 88 34 08          	mov    %sil,(%rax,%rcx,1)
    6a4f:	c6 04 38 ff          	movb   $0xff,(%rax,%rdi,1)
    6a53:	83 eb 01             	sub    $0x1,%ebx
    6a56:	75 b8                	jne    6a10 <get_text_gray_rgb_row+0xb0>
/home/tenebris/Disk/Racing-code/examples/23-libjpeg-divide-by-zero/libjpeg-turbo-2.0.90/rdppm.c:194
}
    6a58:	48 83 c4 38          	add    $0x38,%rsp
    6a5c:	b8 01 00 00 00       	mov    $0x1,%eax
    6a61:	5b                   	pop    %rbx
    6a62:	5d                   	pop    %rbp
    6a63:	41 5c                	pop    %r12
    6a65:	41 5d                	pop    %r13
    6a67:	41 5e                	pop    %r14
    6a69:	41 5f                	pop    %r15
    6a6b:	c3                   	ret    
    6a6c:	0f 1f 40 00          	nopl   0x0(%rax)
/home/tenebris/Disk/Racing-code/examples/23-libjpeg-divide-by-zero/libjpeg-turbo-2.0.90/rdppm.c:191
      GRAY_RGB_READ_LOOP(rescale[read_pbm_integer(cinfo, infile, maxval)],)
    6a70:	85 db                	test   %ebx,%ebx
    6a72:	74 e4                	je     6a58 <get_text_gray_rgb_row+0xf8>
/home/tenebris/Disk/Racing-code/examples/23-libjpeg-divide-by-zero/libjpeg-turbo-2.0.90/rdppm.c:182
      GRAY_RGB_READ_LOOP(read_pbm_integer(cinfo, infile, maxval),
    6a74:	48 63 c2             	movslq %edx,%rax
    6a77:	48 89 44 24 18       	mov    %rax,0x18(%rsp)
    6a7c:	49 63 c4             	movslq %r12d,%rax
    6a7f:	4c 8d 24 29          	lea    (%rcx,%rbp,1),%r12
    6a83:	48 89 44 24 10       	mov    %rax,0x10(%rsp)
    6a88:	49 63 c0             	movslq %r8d,%rax
    6a8b:	48 89 44 24 20       	mov    %rax,0x20(%rsp)
/home/tenebris/Disk/Racing-code/examples/23-libjpeg-divide-by-zero/libjpeg-turbo-2.0.90/rdppm.c:191 (discriminator 3)
      GRAY_RGB_READ_LOOP(rescale[read_pbm_integer(cinfo, infile, maxval)],)
    6a90:	44 89 fa             	mov    %r15d,%edx
    6a93:	4c 89 f6             	mov    %r14,%rsi
    6a96:	4c 89 ef             	mov    %r13,%rdi
    6a99:	e8 d2 f4 ff ff       	call   5f70 <read_pbm_integer>
    6a9e:	48 8b 4c 24 08       	mov    0x8(%rsp),%rcx
    6aa3:	4c 89 e6             	mov    %r12,%rsi
    6aa6:	48 8b 7c 24 18       	mov    0x18(%rsp),%rdi
    6aab:	89 c0                	mov    %eax,%eax
    6aad:	48 8b 54 24 10       	mov    0x10(%rsp),%rdx
    6ab2:	48 29 ee             	sub    %rbp,%rsi
    6ab5:	0f b6 04 01          	movzbl (%rcx,%rax,1),%eax
    6ab9:	41 88 04 24          	mov    %al,(%r12)
    6abd:	4c 03 64 24 20       	add    0x20(%rsp),%r12
    6ac2:	88 04 3e             	mov    %al,(%rsi,%rdi,1)
    6ac5:	88 04 16             	mov    %al,(%rsi,%rdx,1)
    6ac8:	83 eb 01             	sub    $0x1,%ebx
    6acb:	75 c3                	jne    6a90 <get_text_gray_rgb_row+0x130>
    6acd:	eb 89                	jmp    6a58 <get_text_gray_rgb_row+0xf8>
    6acf:	90                   	nop
/home/tenebris/Disk/Racing-code/examples/23-libjpeg-divide-by-zero/libjpeg-turbo-2.0.90/rdppm.c:181
    if (aindex >= 0)
    6ad0:	85 f6                	test   %esi,%esi
    6ad2:	78 6c                	js     6b40 <get_text_gray_rgb_row+0x1e0>
/home/tenebris/Disk/Racing-code/examples/23-libjpeg-divide-by-zero/libjpeg-turbo-2.0.90/rdppm.c:182
      GRAY_RGB_READ_LOOP(read_pbm_integer(cinfo, infile, maxval),
    6ad4:	85 db                	test   %ebx,%ebx
    6ad6:	0f 84 7c ff ff ff    	je     6a58 <get_text_gray_rgb_row+0xf8>
    6adc:	48 63 c2             	movslq %edx,%rax
    6adf:	4c 8d 3c 29          	lea    (%rcx,%rbp,1),%r15
    6ae3:	48 89 44 24 08       	mov    %rax,0x8(%rsp)
    6ae8:	48 63 c6             	movslq %esi,%rax
    6aeb:	48 89 44 24 18       	mov    %rax,0x18(%rsp)
    6af0:	49 63 c0             	movslq %r8d,%rax
    6af3:	48 89 44 24 10       	mov    %rax,0x10(%rsp)
    6af8:	0f 1f 84 00 00 00 00 	nopl   0x0(%rax,%rax,1)
    6aff:	00 
/home/tenebris/Disk/Racing-code/examples/23-libjpeg-divide-by-zero/libjpeg-turbo-2.0.90/rdppm.c:182 (discriminator 3)
    6b00:	ba ff 00 00 00       	mov    $0xff,%edx
    6b05:	4c 89 f6             	mov    %r14,%rsi
    6b08:	4c 89 ef             	mov    %r13,%rdi
    6b0b:	e8 60 f4 ff ff       	call   5f70 <read_pbm_integer>
    6b10:	4c 89 fa             	mov    %r15,%rdx
    6b13:	48 8b 4c 24 08       	mov    0x8(%rsp),%rcx
    6b18:	48 29 ea             	sub    %rbp,%rdx
    6b1b:	41 88 07             	mov    %al,(%r15)
    6b1e:	4c 03 7c 24 10       	add    0x10(%rsp),%r15
    6b23:	88 04 0a             	mov    %al,(%rdx,%rcx,1)
    6b26:	42 88 04 22          	mov    %al,(%rdx,%r12,1)
    6b2a:	48 8b 44 24 18       	mov    0x18(%rsp),%rax
    6b2f:	c6 04 02 ff          	movb   $0xff,(%rdx,%rax,1)
    6b33:	83 eb 01             	sub    $0x1,%ebx
    6b36:	75 c8                	jne    6b00 <get_text_gray_rgb_row+0x1a0>
    6b38:	e9 1b ff ff ff       	jmp    6a58 <get_text_gray_rgb_row+0xf8>
    6b3d:	0f 1f 00             	nopl   (%rax)
/home/tenebris/Disk/Racing-code/examples/23-libjpeg-divide-by-zero/libjpeg-turbo-2.0.90/rdppm.c:185
      GRAY_RGB_READ_LOOP(read_pbm_integer(cinfo, infile, maxval),)
    6b40:	85 db                	test   %ebx,%ebx
    6b42:	0f 84 10 ff ff ff    	je     6a58 <get_text_gray_rgb_row+0xf8>
/home/tenebris/Disk/Racing-code/examples/23-libjpeg-divide-by-zero/libjpeg-turbo-2.0.90/rdppm.c:182
      GRAY_RGB_READ_LOOP(read_pbm_integer(cinfo, infile, maxval),
    6b48:	48 63 c2             	movslq %edx,%rax
    6b4b:	4c 8d 3c 29          	lea    (%rcx,%rbp,1),%r15
    6b4f:	48 89 44 24 08       	mov    %rax,0x8(%rsp)
    6b54:	49 63 c0             	movslq %r8d,%rax
    6b57:	48 89 44 24 10       	mov    %rax,0x10(%rsp)
    6b5c:	0f 1f 40 00          	nopl   0x0(%rax)
/home/tenebris/Disk/Racing-code/examples/23-libjpeg-divide-by-zero/libjpeg-turbo-2.0.90/rdppm.c:185 (discriminator 3)
      GRAY_RGB_READ_LOOP(read_pbm_integer(cinfo, infile, maxval),)
    6b60:	ba ff 00 00 00       	mov    $0xff,%edx
    6b65:	4c 89 ef             	mov    %r13,%rdi
    6b68:	4c 89 f6             	mov    %r14,%rsi
    6b6b:	e8 00 f4 ff ff       	call   5f70 <read_pbm_integer>
    6b70:	4c 89 fa             	mov    %r15,%rdx
    6b73:	48 8b 7c 24 08       	mov    0x8(%rsp),%rdi
    6b78:	48 29 ea             	sub    %rbp,%rdx
    6b7b:	41 88 07             	mov    %al,(%r15)
    6b7e:	4c 03 7c 24 10       	add    0x10(%rsp),%r15
    6b83:	88 04 3a             	mov    %al,(%rdx,%rdi,1)
    6b86:	42 88 04 22          	mov    %al,(%rdx,%r12,1)
    6b8a:	83 eb 01             	sub    $0x1,%ebx
    6b8d:	75 d1                	jne    6b60 <get_text_gray_rgb_row+0x200>
    6b8f:	e9 c4 fe ff ff       	jmp    6a58 <get_text_gray_rgb_row+0xf8>
    6b94:	66 66 2e 0f 1f 84 00 	data16 cs nopw 0x0(%rax,%rax,1)
    6b9b:	00 00 00 00 
    6b9f:	90                   	nop

0000000000006ba0 <get_text_gray_row>:
get_text_gray_row():
/home/tenebris/Disk/Racing-code/examples/23-libjpeg-divide-by-zero/libjpeg-turbo-2.0.90/rdppm.c:138
{
    6ba0:	f3 0f 1e fa          	endbr64 
    6ba4:	41 57                	push   %r15
    6ba6:	41 56                	push   %r14
    6ba8:	41 55                	push   %r13
    6baa:	41 54                	push   %r12
    6bac:	55                   	push   %rbp
    6bad:	53                   	push   %rbx
    6bae:	48 83 ec 08          	sub    $0x8,%rsp
/home/tenebris/Disk/Racing-code/examples/23-libjpeg-divide-by-zero/libjpeg-turbo-2.0.90/rdppm.c:146
  ptr = source->pub.buffer[0];
    6bb2:	48 8b 46 20          	mov    0x20(%rsi),%rax
/home/tenebris/Disk/Racing-code/examples/23-libjpeg-divide-by-zero/libjpeg-turbo-2.0.90/rdppm.c:147
  for (col = cinfo->image_width; col > 0; col--) {
    6bb6:	8b 6f 30             	mov    0x30(%rdi),%ebp
/home/tenebris/Disk/Racing-code/examples/23-libjpeg-divide-by-zero/libjpeg-turbo-2.0.90/rdppm.c:140
  FILE *infile = source->pub.input_file;
    6bb9:	4c 8b 6e 18          	mov    0x18(%rsi),%r13
/home/tenebris/Disk/Racing-code/examples/23-libjpeg-divide-by-zero/libjpeg-turbo-2.0.90/rdppm.c:142
  register JSAMPLE *rescale = source->rescale;
    6bbd:	4c 8b 7e 48          	mov    0x48(%rsi),%r15
/home/tenebris/Disk/Racing-code/examples/23-libjpeg-divide-by-zero/libjpeg-turbo-2.0.90/rdppm.c:144
  unsigned int maxval = source->maxval;
    6bc1:	44 8b 76 50          	mov    0x50(%rsi),%r14d
/home/tenebris/Disk/Racing-code/examples/23-libjpeg-divide-by-zero/libjpeg-turbo-2.0.90/rdppm.c:146
  ptr = source->pub.buffer[0];
    6bc5:	48 8b 18             	mov    (%rax),%rbx
/home/tenebris/Disk/Racing-code/examples/23-libjpeg-divide-by-zero/libjpeg-turbo-2.0.90/rdppm.c:147
  for (col = cinfo->image_width; col > 0; col--) {
    6bc8:	85 ed                	test   %ebp,%ebp
    6bca:	74 2d                	je     6bf9 <get_text_gray_row+0x59>
    6bcc:	49 89 fc             	mov    %rdi,%r12
    6bcf:	48 01 dd             	add    %rbx,%rbp
    6bd2:	66 0f 1f 44 00 00    	nopw   0x0(%rax,%rax,1)
/home/tenebris/Disk/Racing-code/examples/23-libjpeg-divide-by-zero/libjpeg-turbo-2.0.90/rdppm.c:148 (discriminator 3)
    *ptr++ = rescale[read_pbm_integer(cinfo, infile, maxval)];
    6bd8:	44 89 f2             	mov    %r14d,%edx
    6bdb:	4c 89 ee             	mov    %r13,%rsi
    6bde:	4c 89 e7             	mov    %r12,%rdi
    6be1:	48 83 c3 01          	add    $0x1,%rbx
    6be5:	e8 86 f3 ff ff       	call   5f70 <read_pbm_integer>
    6bea:	89 c0                	mov    %eax,%eax
    6bec:	41 0f b6 04 07       	movzbl (%r15,%rax,1),%eax
    6bf1:	88 43 ff             	mov    %al,-0x1(%rbx)
/home/tenebris/Disk/Racing-code/examples/23-libjpeg-divide-by-zero/libjpeg-turbo-2.0.90/rdppm.c:147 (discriminator 3)
  for (col = cinfo->image_width; col > 0; col--) {
    6bf4:	48 39 eb             	cmp    %rbp,%rbx
    6bf7:	75 df                	jne    6bd8 <get_text_gray_row+0x38>
/home/tenebris/Disk/Racing-code/examples/23-libjpeg-divide-by-zero/libjpeg-turbo-2.0.90/rdppm.c:151
}
    6bf9:	48 83 c4 08          	add    $0x8,%rsp
    6bfd:	b8 01 00 00 00       	mov    $0x1,%eax
    6c02:	5b                   	pop    %rbx
    6c03:	5d                   	pop    %rbp
    6c04:	41 5c                	pop    %r12
    6c06:	41 5d                	pop    %r13
    6c08:	41 5e                	pop    %r14
    6c0a:	41 5f                	pop    %r15
    6c0c:	c3                   	ret    
    6c0d:	0f 1f 00             	nopl   (%rax)

0000000000006c10 <start_input_ppm>:
start_input_ppm():
/home/tenebris/Disk/Racing-code/examples/23-libjpeg-divide-by-zero/libjpeg-turbo-2.0.90/rdppm.c:552
{
    6c10:	f3 0f 1e fa          	endbr64 
    6c14:	41 57                	push   %r15
    6c16:	41 56                	push   %r14
    6c18:	41 55                	push   %r13
    6c1a:	41 54                	push   %r12
    6c1c:	55                   	push   %rbp
    6c1d:	48 89 fd             	mov    %rdi,%rbp
    6c20:	53                   	push   %rbx
    6c21:	48 89 f3             	mov    %rsi,%rbx
    6c24:	48 83 ec 18          	sub    $0x18,%rsp
/home/tenebris/Disk/Racing-code/examples/23-libjpeg-divide-by-zero/libjpeg-turbo-2.0.90/rdppm.c:558
  if (getc(source->pub.input_file) != 'P')
    6c28:	48 8b 7e 18          	mov    0x18(%rsi),%rdi
    6c2c:	e8 3f b8 ff ff       	call   2470 <getc@plt>
    6c31:	83 f8 50             	cmp    $0x50,%eax
    6c34:	74 10                	je     6c46 <start_input_ppm+0x36>
/home/tenebris/Disk/Racing-code/examples/23-libjpeg-divide-by-zero/libjpeg-turbo-2.0.90/rdppm.c:559
    ERREXIT(cinfo, JERR_PPM_NOT);
    6c36:	48 8b 45 00          	mov    0x0(%rbp),%rax
    6c3a:	48 89 ef             	mov    %rbp,%rdi
    6c3d:	c7 40 28 05 04 00 00 	movl   $0x405,0x28(%rax)
    6c44:	ff 10                	call   *(%rax)
/home/tenebris/Disk/Racing-code/examples/23-libjpeg-divide-by-zero/libjpeg-turbo-2.0.90/rdppm.c:561
  c = getc(source->pub.input_file); /* subformat discriminator character */
    6c46:	48 8b 7b 18          	mov    0x18(%rbx),%rdi
    6c4a:	e8 21 b8 ff ff       	call   2470 <getc@plt>
    6c4f:	41 89 c7             	mov    %eax,%r15d
/home/tenebris/Disk/Racing-code/examples/23-libjpeg-divide-by-zero/libjpeg-turbo-2.0.90/rdppm.c:564
  switch (c) {
    6c52:	83 f8 33             	cmp    $0x33,%eax
    6c55:	0f 8f 35 02 00 00    	jg     6e90 <start_input_ppm+0x280>
    6c5b:	83 f8 31             	cmp    $0x31,%eax
    6c5e:	7f 10                	jg     6c70 <start_input_ppm+0x60>
/home/tenebris/Disk/Racing-code/examples/23-libjpeg-divide-by-zero/libjpeg-turbo-2.0.90/rdppm.c:571
    ERREXIT(cinfo, JERR_PPM_NOT);
    6c60:	48 8b 45 00          	mov    0x0(%rbp),%rax
    6c64:	48 89 ef             	mov    %rbp,%rdi
    6c67:	c7 40 28 05 04 00 00 	movl   $0x405,0x28(%rax)
    6c6e:	ff 10                	call   *(%rax)
/home/tenebris/Disk/Racing-code/examples/23-libjpeg-divide-by-zero/libjpeg-turbo-2.0.90/rdppm.c:576
  w = read_pbm_integer(cinfo, source->pub.input_file, 65535);
    6c70:	48 8b 73 18          	mov    0x18(%rbx),%rsi
    6c74:	ba ff ff 00 00       	mov    $0xffff,%edx
    6c79:	48 89 ef             	mov    %rbp,%rdi
    6c7c:	e8 ef f2 ff ff       	call   5f70 <read_pbm_integer>
/home/tenebris/Disk/Racing-code/examples/23-libjpeg-divide-by-zero/libjpeg-turbo-2.0.90/rdppm.c:577
  h = read_pbm_integer(cinfo, source->pub.input_file, 65535);
    6c81:	48 8b 73 18          	mov    0x18(%rbx),%rsi
    6c85:	ba ff ff 00 00       	mov    $0xffff,%edx
    6c8a:	48 89 ef             	mov    %rbp,%rdi
/home/tenebris/Disk/Racing-code/examples/23-libjpeg-divide-by-zero/libjpeg-turbo-2.0.90/rdppm.c:576
  w = read_pbm_integer(cinfo, source->pub.input_file, 65535);
    6c8d:	41 89 c5             	mov    %eax,%r13d
/home/tenebris/Disk/Racing-code/examples/23-libjpeg-divide-by-zero/libjpeg-turbo-2.0.90/rdppm.c:577
  h = read_pbm_integer(cinfo, source->pub.input_file, 65535);
    6c90:	e8 db f2 ff ff       	call   5f70 <read_pbm_integer>
/home/tenebris/Disk/Racing-code/examples/23-libjpeg-divide-by-zero/libjpeg-turbo-2.0.90/rdppm.c:578
  maxval = read_pbm_integer(cinfo, source->pub.input_file, 65535);
    6c95:	48 8b 73 18          	mov    0x18(%rbx),%rsi
    6c99:	66 41 0f 6e c5       	movd   %r13d,%xmm0
    6c9e:	48 89 ef             	mov    %rbp,%rdi
    6ca1:	66 0f 6e c8          	movd   %eax,%xmm1
    6ca5:	ba ff ff 00 00       	mov    $0xffff,%edx
/home/tenebris/Disk/Racing-code/examples/23-libjpeg-divide-by-zero/libjpeg-turbo-2.0.90/rdppm.c:577
  h = read_pbm_integer(cinfo, source->pub.input_file, 65535);
    6caa:	41 89 c6             	mov    %eax,%r14d
    6cad:	66 0f 62 c1          	punpckldq %xmm1,%xmm0
    6cb1:	66 0f d6 44 24 08    	movq   %xmm0,0x8(%rsp)
/home/tenebris/Disk/Racing-code/examples/23-libjpeg-divide-by-zero/libjpeg-turbo-2.0.90/rdppm.c:578
  maxval = read_pbm_integer(cinfo, source->pub.input_file, 65535);
    6cb7:	e8 b4 f2 ff ff       	call   5f70 <read_pbm_integer>
/home/tenebris/Disk/Racing-code/examples/23-libjpeg-divide-by-zero/libjpeg-turbo-2.0.90/rdppm.c:580
  if (w <= 0 || h <= 0 || maxval <= 0) /* error check */
    6cbc:	45 85 ed             	test   %r13d,%r13d
/home/tenebris/Disk/Racing-code/examples/23-libjpeg-divide-by-zero/libjpeg-turbo-2.0.90/rdppm.c:578
  maxval = read_pbm_integer(cinfo, source->pub.input_file, 65535);
    6cbf:	41 89 c4             	mov    %eax,%r12d
/home/tenebris/Disk/Racing-code/examples/23-libjpeg-divide-by-zero/libjpeg-turbo-2.0.90/rdppm.c:580
  if (w <= 0 || h <= 0 || maxval <= 0) /* error check */
    6cc2:	0f 94 c0             	sete   %al
    6cc5:	45 85 f6             	test   %r14d,%r14d
    6cc8:	0f 94 c2             	sete   %dl
    6ccb:	08 d0                	or     %dl,%al
    6ccd:	75 05                	jne    6cd4 <start_input_ppm+0xc4>
    6ccf:	45 85 e4             	test   %r12d,%r12d
    6cd2:	75 10                	jne    6ce4 <start_input_ppm+0xd4>
/home/tenebris/Disk/Racing-code/examples/23-libjpeg-divide-by-zero/libjpeg-turbo-2.0.90/rdppm.c:581
    ERREXIT(cinfo, JERR_PPM_NOT);
    6cd4:	48 8b 45 00          	mov    0x0(%rbp),%rax
    6cd8:	48 89 ef             	mov    %rbp,%rdi
    6cdb:	c7 40 28 05 04 00 00 	movl   $0x405,0x28(%rax)
    6ce2:	ff 10                	call   *(%rax)
/home/tenebris/Disk/Racing-code/examples/23-libjpeg-divide-by-zero/libjpeg-turbo-2.0.90/rdppm.c:584
  cinfo->image_width = (JDIMENSION)w;
    6ce4:	48 8b 44 24 08       	mov    0x8(%rsp),%rax
/home/tenebris/Disk/Racing-code/examples/23-libjpeg-divide-by-zero/libjpeg-turbo-2.0.90/rdppm.c:583
  cinfo->data_precision = BITS_IN_JSAMPLE; /* we always rescale data to this */
    6ce9:	c7 45 48 08 00 00 00 	movl   $0x8,0x48(%rbp)
/home/tenebris/Disk/Racing-code/examples/23-libjpeg-divide-by-zero/libjpeg-turbo-2.0.90/rdppm.c:584
  cinfo->image_width = (JDIMENSION)w;
    6cf0:	48 89 45 30          	mov    %rax,0x30(%rbp)
/home/tenebris/Disk/Racing-code/examples/23-libjpeg-divide-by-zero/libjpeg-turbo-2.0.90/rdppm.c:595
    if (cinfo->in_color_space == JCS_UNKNOWN)
    6cf4:	8b 45 3c             	mov    0x3c(%rbp),%eax
/home/tenebris/Disk/Racing-code/examples/23-libjpeg-divide-by-zero/libjpeg-turbo-2.0.90/rdppm.c:586
  source->maxval = maxval;
    6cf7:	44 89 63 50          	mov    %r12d,0x50(%rbx)
/home/tenebris/Disk/Racing-code/examples/23-libjpeg-divide-by-zero/libjpeg-turbo-2.0.90/rdppm.c:593
  switch (c) {
    6cfb:	41 83 ff 35          	cmp    $0x35,%r15d
    6cff:	0f 84 33 02 00 00    	je     6f38 <start_input_ppm+0x328>
    6d05:	0f 8f 9d 01 00 00    	jg     6ea8 <start_input_ppm+0x298>
    6d0b:	41 83 ff 32          	cmp    $0x32,%r15d
    6d0f:	0f 84 2b 03 00 00    	je     7040 <start_input_ppm+0x430>
    6d15:	41 83 ff 33          	cmp    $0x33,%r15d
    6d19:	0f 85 99 02 00 00    	jne    6fb8 <start_input_ppm+0x3a8>
/home/tenebris/Disk/Racing-code/examples/23-libjpeg-divide-by-zero/libjpeg-turbo-2.0.90/rdppm.c:610
    if (cinfo->in_color_space == JCS_UNKNOWN)
    6d1f:	85 c0                	test   %eax,%eax
    6d21:	75 07                	jne    6d2a <start_input_ppm+0x11a>
/home/tenebris/Disk/Racing-code/examples/23-libjpeg-divide-by-zero/libjpeg-turbo-2.0.90/rdppm.c:611
      cinfo->in_color_space = JCS_EXT_RGB;
    6d23:	c7 45 3c 06 00 00 00 	movl   $0x6,0x3c(%rbp)
/home/tenebris/Disk/Racing-code/examples/23-libjpeg-divide-by-zero/libjpeg-turbo-2.0.90/rdppm.c:612
    TRACEMS2(cinfo, 1, JTRC_PPM_TEXT, w, h);
    6d2a:	48 8b 45 00          	mov    0x0(%rbp),%rax
    6d2e:	be 01 00 00 00       	mov    $0x1,%esi
    6d33:	48 89 ef             	mov    %rbp,%rdi
    6d36:	c7 40 28 0a 04 00 00 	movl   $0x40a,0x28(%rax)
    6d3d:	44 89 68 2c          	mov    %r13d,0x2c(%rax)
    6d41:	44 89 70 30          	mov    %r14d,0x30(%rax)
    6d45:	ff 50 08             	call   *0x8(%rax)
/home/tenebris/Disk/Racing-code/examples/23-libjpeg-divide-by-zero/libjpeg-turbo-2.0.90/rdppm.c:613
    if (IsExtRGB(cinfo->in_color_space))
    6d48:	8b 45 3c             	mov    0x3c(%rbp),%eax
    6d4b:	8d 50 fa             	lea    -0x6(%rax),%edx
    6d4e:	83 fa 09             	cmp    $0x9,%edx
    6d51:	0f 86 a9 02 00 00    	jbe    7000 <start_input_ppm+0x3f0>
    6d57:	83 f8 02             	cmp    $0x2,%eax
    6d5a:	0f 84 a0 02 00 00    	je     7000 <start_input_ppm+0x3f0>
/home/tenebris/Disk/Racing-code/examples/23-libjpeg-divide-by-zero/libjpeg-turbo-2.0.90/rdppm.c:615
    else if (cinfo->in_color_space == JCS_CMYK)
    6d60:	83 f8 04             	cmp    $0x4,%eax
    6d63:	0f 84 64 04 00 00    	je     71cd <start_input_ppm+0x5bd>
/home/tenebris/Disk/Racing-code/examples/23-libjpeg-divide-by-zero/libjpeg-turbo-2.0.90/rdppm.c:618
      ERREXIT(cinfo, JERR_BAD_IN_COLORSPACE);
    6d69:	48 8b 45 00          	mov    0x0(%rbp),%rax
    6d6d:	48 89 ef             	mov    %rbp,%rdi
/home/tenebris/Disk/Racing-code/examples/23-libjpeg-divide-by-zero/libjpeg-turbo-2.0.90/rdppm.c:619
    need_iobuffer = FALSE;
    6d70:	45 31 f6             	xor    %r14d,%r14d
/home/tenebris/Disk/Racing-code/examples/23-libjpeg-divide-by-zero/libjpeg-turbo-2.0.90/rdppm.c:618
      ERREXIT(cinfo, JERR_BAD_IN_COLORSPACE);
    6d73:	c7 40 28 09 00 00 00 	movl   $0x9,0x28(%rax)
    6d7a:	ff 10                	call   *(%rax)
/home/tenebris/Disk/Racing-code/examples/23-libjpeg-divide-by-zero/libjpeg-turbo-2.0.90/rdppm.c:672
  if (IsExtRGB(cinfo->in_color_space))
    6d7c:	8b 45 3c             	mov    0x3c(%rbp),%eax
    6d7f:	8d 50 fa             	lea    -0x6(%rax),%edx
    6d82:	83 fa 09             	cmp    $0x9,%edx
    6d85:	0f 87 3f 02 00 00    	ja     6fca <start_input_ppm+0x3ba>
    6d8b:	0f 1f 44 00 00       	nopl   0x0(%rax,%rax,1)
/home/tenebris/Disk/Racing-code/examples/23-libjpeg-divide-by-zero/libjpeg-turbo-2.0.90/rdppm.c:673
    cinfo->input_components = rgb_pixelsize[cinfo->in_color_space];
    6d90:	48 8d 15 e9 53 00 00 	lea    0x53e9(%rip),%rdx        # c180 <rgb_pixelsize>
    6d97:	8b 04 82             	mov    (%rdx,%rax,4),%eax
    6d9a:	89 45 38             	mov    %eax,0x38(%rbp)
/home/tenebris/Disk/Racing-code/examples/23-libjpeg-divide-by-zero/libjpeg-turbo-2.0.90/rdppm.c:680
  if (need_iobuffer) {
    6d9d:	31 c9                	xor    %ecx,%ecx
    6d9f:	45 85 f6             	test   %r14d,%r14d
    6da2:	0f 84 70 02 00 00    	je     7018 <start_input_ppm+0x408>
/home/tenebris/Disk/Racing-code/examples/23-libjpeg-divide-by-zero/libjpeg-turbo-2.0.90/rdppm.c:682
      source->buffer_width = (size_t)w * 3 *
    6da8:	44 89 ea             	mov    %r13d,%edx
    6dab:	41 81 fc ff 00 00 00 	cmp    $0xff,%r12d
    6db2:	48 8d 04 12          	lea    (%rdx,%rdx,1),%rax
    6db6:	48 0f 47 d0          	cmova  %rax,%rdx
/home/tenebris/Disk/Racing-code/examples/23-libjpeg-divide-by-zero/libjpeg-turbo-2.0.90/rdppm.c:681
    if (c == '6')
    6dba:	41 83 ff 36          	cmp    $0x36,%r15d
    6dbe:	0f 84 68 01 00 00    	je     6f2c <start_input_ppm+0x31c>
/home/tenebris/Disk/Racing-code/examples/23-libjpeg-divide-by-zero/libjpeg-turbo-2.0.90/rdppm.c:688
      (*cinfo->mem->alloc_small) ((j_common_ptr)cinfo, JPOOL_IMAGE,
    6dc4:	48 8b 45 08          	mov    0x8(%rbp),%rax
    6dc8:	89 4c 24 08          	mov    %ecx,0x8(%rsp)
    6dcc:	be 01 00 00 00       	mov    $0x1,%esi
    6dd1:	48 89 ef             	mov    %rbp,%rdi
/home/tenebris/Disk/Racing-code/examples/23-libjpeg-divide-by-zero/libjpeg-turbo-2.0.90/rdppm.c:682
      source->buffer_width = (size_t)w * 3 *
    6dd4:	48 89 53 40          	mov    %rdx,0x40(%rbx)
/home/tenebris/Disk/Racing-code/examples/23-libjpeg-divide-by-zero/libjpeg-turbo-2.0.90/rdppm.c:688
      (*cinfo->mem->alloc_small) ((j_common_ptr)cinfo, JPOOL_IMAGE,
    6dd8:	ff 10                	call   *(%rax)
    6dda:	8b 4c 24 08          	mov    0x8(%rsp),%ecx
/home/tenebris/Disk/Racing-code/examples/23-libjpeg-divide-by-zero/libjpeg-turbo-2.0.90/rdppm.c:687
    source->iobuffer = (U_CHAR *)
    6dde:	48 89 43 30          	mov    %rax,0x30(%rbx)
/home/tenebris/Disk/Racing-code/examples/23-libjpeg-divide-by-zero/libjpeg-turbo-2.0.90/rdppm.c:693
  if (use_raw_buffer) {
    6de2:	85 c9                	test   %ecx,%ecx
    6de4:	0f 84 34 02 00 00    	je     701e <start_input_ppm+0x40e>
/home/tenebris/Disk/Racing-code/examples/23-libjpeg-divide-by-zero/libjpeg-turbo-2.0.90/rdppm.c:696
    source->pixrow = (JSAMPROW)source->iobuffer;
    6dea:	48 8b 43 30          	mov    0x30(%rbx),%rax
    6dee:	48 89 43 38          	mov    %rax,0x38(%rbx)
/home/tenebris/Disk/Racing-code/examples/23-libjpeg-divide-by-zero/libjpeg-turbo-2.0.90/rdppm.c:697
    source->pub.buffer = &source->pixrow;
    6df2:	48 8d 43 38          	lea    0x38(%rbx),%rax
    6df6:	48 89 43 20          	mov    %rax,0x20(%rbx)
/home/tenebris/Disk/Racing-code/examples/23-libjpeg-divide-by-zero/libjpeg-turbo-2.0.90/rdppm.c:698
    source->pub.buffer_height = 1;
    6dfa:	c7 43 28 01 00 00 00 	movl   $0x1,0x28(%rbx)
/home/tenebris/Disk/Racing-code/examples/23-libjpeg-divide-by-zero/libjpeg-turbo-2.0.90/rdppm.c:708
  if (need_rescale) {
    6e01:	45 85 f6             	test   %r14d,%r14d
    6e04:	74 71                	je     6e77 <start_input_ppm+0x267>
/home/tenebris/Disk/Racing-code/examples/23-libjpeg-divide-by-zero/libjpeg-turbo-2.0.90/rdppm.c:714
                                  (size_t)(((long)MAX(maxval, 255) + 1L) *
    6e06:	b8 ff 00 00 00       	mov    $0xff,%eax
/home/tenebris/Disk/Racing-code/examples/23-libjpeg-divide-by-zero/libjpeg-turbo-2.0.90/rdppm.c:713
      (*cinfo->mem->alloc_small) ((j_common_ptr)cinfo, JPOOL_IMAGE,
    6e0b:	be 01 00 00 00       	mov    $0x1,%esi
    6e10:	48 89 ef             	mov    %rbp,%rdi
/home/tenebris/Disk/Racing-code/examples/23-libjpeg-divide-by-zero/libjpeg-turbo-2.0.90/rdppm.c:714
                                  (size_t)(((long)MAX(maxval, 255) + 1L) *
    6e13:	41 39 c4             	cmp    %eax,%r12d
    6e16:	41 0f 43 c4          	cmovae %r12d,%eax
    6e1a:	89 c2                	mov    %eax,%edx
/home/tenebris/Disk/Racing-code/examples/23-libjpeg-divide-by-zero/libjpeg-turbo-2.0.90/rdppm.c:713
      (*cinfo->mem->alloc_small) ((j_common_ptr)cinfo, JPOOL_IMAGE,
    6e1c:	48 8b 45 08          	mov    0x8(%rbp),%rax
/home/tenebris/Disk/Racing-code/examples/23-libjpeg-divide-by-zero/libjpeg-turbo-2.0.90/rdppm.c:714
                                  (size_t)(((long)MAX(maxval, 255) + 1L) *
    6e20:	48 83 c2 01          	add    $0x1,%rdx
/home/tenebris/Disk/Racing-code/examples/23-libjpeg-divide-by-zero/libjpeg-turbo-2.0.90/rdppm.c:713
      (*cinfo->mem->alloc_small) ((j_common_ptr)cinfo, JPOOL_IMAGE,
    6e24:	ff 10                	call   *(%rax)
/home/tenebris/Disk/Racing-code/examples/23-libjpeg-divide-by-zero/libjpeg-turbo-2.0.90/rdppm.c:716
    half_maxval = maxval / 2;
    6e26:	44 89 e1             	mov    %r12d,%ecx
    6e29:	d1 e9                	shr    %ecx
/home/tenebris/Disk/Racing-code/examples/23-libjpeg-divide-by-zero/libjpeg-turbo-2.0.90/rdppm.c:712
    source->rescale = (JSAMPLE *)
    6e2b:	48 89 43 48          	mov    %rax,0x48(%rbx)
/home/tenebris/Disk/Racing-code/examples/23-libjpeg-divide-by-zero/libjpeg-turbo-2.0.90/rdppm.c:713
      (*cinfo->mem->alloc_small) ((j_common_ptr)cinfo, JPOOL_IMAGE,
    6e2f:	48 89 c6             	mov    %rax,%rsi
/home/tenebris/Disk/Racing-code/examples/23-libjpeg-divide-by-zero/libjpeg-turbo-2.0.90/rdppm.c:719
      source->rescale[val] = (JSAMPLE)((val * MAXJSAMPLE + half_maxval) /
    6e32:	48 89 c8             	mov    %rcx,%rax
    6e35:	48 99                	cqto   
    6e37:	49 f7 fc             	idiv   %r12
    6e3a:	88 06                	mov    %al,(%rsi)
/home/tenebris/Disk/Racing-code/examples/23-libjpeg-divide-by-zero/libjpeg-turbo-2.0.90/rdppm.c:717
    for (val = 0; val <= (long)maxval; val++) {
    6e3c:	4d 85 e4             	test   %r12,%r12
    6e3f:	74 36                	je     6e77 <start_input_ppm+0x267>
    6e41:	48 81 c1 ff 00 00 00 	add    $0xff,%rcx
    6e48:	4d 8d 44 24 01       	lea    0x1(%r12),%r8
    6e4d:	be 01 00 00 00       	mov    $0x1,%esi
    6e52:	66 0f 1f 44 00 00    	nopw   0x0(%rax,%rax,1)
/home/tenebris/Disk/Racing-code/examples/23-libjpeg-divide-by-zero/libjpeg-turbo-2.0.90/rdppm.c:719
      source->rescale[val] = (JSAMPLE)((val * MAXJSAMPLE + half_maxval) /
    6e58:	48 89 c8             	mov    %rcx,%rax
    6e5b:	48 8b 7b 48          	mov    0x48(%rbx),%rdi
/home/tenebris/Disk/Racing-code/examples/23-libjpeg-divide-by-zero/libjpeg-turbo-2.0.90/rdppm.c:717
    for (val = 0; val <= (long)maxval; val++) {
    6e5f:	48 81 c1 ff 00 00 00 	add    $0xff,%rcx
/home/tenebris/Disk/Racing-code/examples/23-libjpeg-divide-by-zero/libjpeg-turbo-2.0.90/rdppm.c:719
      source->rescale[val] = (JSAMPLE)((val * MAXJSAMPLE + half_maxval) /
    6e66:	48 99                	cqto   
    6e68:	49 f7 fc             	idiv   %r12
    6e6b:	88 04 37             	mov    %al,(%rdi,%rsi,1)
/home/tenebris/Disk/Racing-code/examples/23-libjpeg-divide-by-zero/libjpeg-turbo-2.0.90/rdppm.c:717
    for (val = 0; val <= (long)maxval; val++) {
    6e6e:	48 83 c6 01          	add    $0x1,%rsi
    6e72:	49 39 f0             	cmp    %rsi,%r8
    6e75:	75 e1                	jne    6e58 <start_input_ppm+0x248>
/home/tenebris/Disk/Racing-code/examples/23-libjpeg-divide-by-zero/libjpeg-turbo-2.0.90/rdppm.c:723
}
    6e77:	48 83 c4 18          	add    $0x18,%rsp
    6e7b:	5b                   	pop    %rbx
    6e7c:	5d                   	pop    %rbp
    6e7d:	41 5c                	pop    %r12
    6e7f:	41 5d                	pop    %r13
    6e81:	41 5e                	pop    %r14
    6e83:	41 5f                	pop    %r15
    6e85:	c3                   	ret    
    6e86:	66 2e 0f 1f 84 00 00 	cs nopw 0x0(%rax,%rax,1)
    6e8d:	00 00 00 
/home/tenebris/Disk/Racing-code/examples/23-libjpeg-divide-by-zero/libjpeg-turbo-2.0.90/rdppm.c:564
  switch (c) {
    6e90:	8d 40 cb             	lea    -0x35(%rax),%eax
    6e93:	83 f8 01             	cmp    $0x1,%eax
    6e96:	0f 86 d4 fd ff ff    	jbe    6c70 <start_input_ppm+0x60>
    6e9c:	e9 bf fd ff ff       	jmp    6c60 <start_input_ppm+0x50>
    6ea1:	0f 1f 80 00 00 00 00 	nopl   0x0(%rax)
/home/tenebris/Disk/Racing-code/examples/23-libjpeg-divide-by-zero/libjpeg-turbo-2.0.90/rdppm.c:593
  switch (c) {
    6ea8:	41 83 ff 36          	cmp    $0x36,%r15d
    6eac:	0f 85 06 01 00 00    	jne    6fb8 <start_input_ppm+0x3a8>
/home/tenebris/Disk/Racing-code/examples/23-libjpeg-divide-by-zero/libjpeg-turbo-2.0.90/rdppm.c:646
    if (cinfo->in_color_space == JCS_UNKNOWN)
    6eb2:	85 c0                	test   %eax,%eax
    6eb4:	75 07                	jne    6ebd <start_input_ppm+0x2ad>
/home/tenebris/Disk/Racing-code/examples/23-libjpeg-divide-by-zero/libjpeg-turbo-2.0.90/rdppm.c:647
      cinfo->in_color_space = JCS_EXT_RGB;
    6eb6:	c7 45 3c 06 00 00 00 	movl   $0x6,0x3c(%rbp)
/home/tenebris/Disk/Racing-code/examples/23-libjpeg-divide-by-zero/libjpeg-turbo-2.0.90/rdppm.c:648
    TRACEMS2(cinfo, 1, JTRC_PPM, w, h);
    6ebd:	48 8b 45 00          	mov    0x0(%rbp),%rax
    6ec1:	be 01 00 00 00       	mov    $0x1,%esi
    6ec6:	48 89 ef             	mov    %rbp,%rdi
    6ec9:	c7 40 28 09 04 00 00 	movl   $0x409,0x28(%rax)
    6ed0:	44 89 68 2c          	mov    %r13d,0x2c(%rax)
    6ed4:	44 89 70 30          	mov    %r14d,0x30(%rax)
    6ed8:	ff 50 08             	call   *0x8(%rax)
/home/tenebris/Disk/Racing-code/examples/23-libjpeg-divide-by-zero/libjpeg-turbo-2.0.90/rdppm.c:649
    if (maxval > 255) {
    6edb:	41 81 fc ff 00 00 00 	cmp    $0xff,%r12d
    6ee2:	0f 87 c0 01 00 00    	ja     70a8 <start_input_ppm+0x498>
/home/tenebris/Disk/Racing-code/examples/23-libjpeg-divide-by-zero/libjpeg-turbo-2.0.90/rdppm.c:653
               (cinfo->in_color_space == JCS_EXT_RGB ||
    6ee8:	8b 45 3c             	mov    0x3c(%rbp),%eax
/home/tenebris/Disk/Racing-code/examples/23-libjpeg-divide-by-zero/libjpeg-turbo-2.0.90/rdppm.c:651
    } else if (maxval == MAXJSAMPLE && sizeof(JSAMPLE) == sizeof(U_CHAR) &&
    6eeb:	0f 84 9c 02 00 00    	je     718d <start_input_ppm+0x57d>
/home/tenebris/Disk/Racing-code/examples/23-libjpeg-divide-by-zero/libjpeg-turbo-2.0.90/rdppm.c:662
      if (IsExtRGB(cinfo->in_color_space))
    6ef1:	8d 50 fa             	lea    -0x6(%rax),%edx
    6ef4:	83 fa 09             	cmp    $0x9,%edx
    6ef7:	0f 86 51 02 00 00    	jbe    714e <start_input_ppm+0x53e>
    6efd:	83 f8 02             	cmp    $0x2,%eax
    6f00:	0f 84 48 02 00 00    	je     714e <start_input_ppm+0x53e>
/home/tenebris/Disk/Racing-code/examples/23-libjpeg-divide-by-zero/libjpeg-turbo-2.0.90/rdppm.c:664
      else if (cinfo->in_color_space == JCS_CMYK)
    6f06:	83 f8 04             	cmp    $0x4,%eax
    6f09:	0f 85 8f 00 00 00    	jne    6f9e <start_input_ppm+0x38e>
/home/tenebris/Disk/Racing-code/examples/23-libjpeg-divide-by-zero/libjpeg-turbo-2.0.90/rdppm.c:603
      source->pub.get_pixel_rows = get_text_gray_cmyk_row;
    6f0f:	48 8d 05 0a eb ff ff 	lea    -0x14f6(%rip),%rax        # 5a20 <get_rgb_cmyk_row>
    6f16:	48 89 43 08          	mov    %rax,0x8(%rbx)
/home/tenebris/Disk/Racing-code/examples/23-libjpeg-divide-by-zero/libjpeg-turbo-2.0.90/rdppm.c:677
    cinfo->input_components = 4;
    6f1a:	c7 45 38 04 00 00 00 	movl   $0x4,0x38(%rbp)
/home/tenebris/Disk/Racing-code/examples/23-libjpeg-divide-by-zero/libjpeg-turbo-2.0.90/rdppm.c:682
      source->buffer_width = (size_t)w * 3 *
    6f21:	44 89 ea             	mov    %r13d,%edx
    6f24:	41 be 01 00 00 00    	mov    $0x1,%r14d
    6f2a:	31 c9                	xor    %ecx,%ecx
    6f2c:	48 8d 14 52          	lea    (%rdx,%rdx,2),%rdx
    6f30:	e9 8f fe ff ff       	jmp    6dc4 <start_input_ppm+0x1b4>
    6f35:	0f 1f 00             	nopl   (%rax)
/home/tenebris/Disk/Racing-code/examples/23-libjpeg-divide-by-zero/libjpeg-turbo-2.0.90/rdppm.c:623
    if (cinfo->in_color_space == JCS_UNKNOWN)
    6f38:	85 c0                	test   %eax,%eax
    6f3a:	75 07                	jne    6f43 <start_input_ppm+0x333>
/home/tenebris/Disk/Racing-code/examples/23-libjpeg-divide-by-zero/libjpeg-turbo-2.0.90/rdppm.c:624
      cinfo->in_color_space = JCS_GRAYSCALE;
    6f3c:	c7 45 3c 01 00 00 00 	movl   $0x1,0x3c(%rbp)
/home/tenebris/Disk/Racing-code/examples/23-libjpeg-divide-by-zero/libjpeg-turbo-2.0.90/rdppm.c:625
    TRACEMS2(cinfo, 1, JTRC_PGM, w, h);
    6f43:	48 8b 45 00          	mov    0x0(%rbp),%rax
    6f47:	be 01 00 00 00       	mov    $0x1,%esi
    6f4c:	48 89 ef             	mov    %rbp,%rdi
    6f4f:	c7 40 28 07 04 00 00 	movl   $0x407,0x28(%rax)
    6f56:	44 89 68 2c          	mov    %r13d,0x2c(%rax)
    6f5a:	44 89 70 30          	mov    %r14d,0x30(%rax)
    6f5e:	ff 50 08             	call   *0x8(%rax)
/home/tenebris/Disk/Racing-code/examples/23-libjpeg-divide-by-zero/libjpeg-turbo-2.0.90/rdppm.c:626
    if (maxval > 255) {
    6f61:	41 81 fc ff 00 00 00 	cmp    $0xff,%r12d
    6f68:	0f 87 5a 01 00 00    	ja     70c8 <start_input_ppm+0x4b8>
/home/tenebris/Disk/Racing-code/examples/23-libjpeg-divide-by-zero/libjpeg-turbo-2.0.90/rdppm.c:629
               cinfo->in_color_space == JCS_GRAYSCALE) {
    6f6e:	8b 45 3c             	mov    0x3c(%rbp),%eax
/home/tenebris/Disk/Racing-code/examples/23-libjpeg-divide-by-zero/libjpeg-turbo-2.0.90/rdppm.c:628
    } else if (maxval == MAXJSAMPLE && sizeof(JSAMPLE) == sizeof(U_CHAR) &&
    6f71:	0f 84 6d 02 00 00    	je     71e4 <start_input_ppm+0x5d4>
/home/tenebris/Disk/Racing-code/examples/23-libjpeg-divide-by-zero/libjpeg-turbo-2.0.90/rdppm.c:634
      if (cinfo->in_color_space == JCS_GRAYSCALE)
    6f77:	83 f8 01             	cmp    $0x1,%eax
    6f7a:	0f 84 ac 01 00 00    	je     712c <start_input_ppm+0x51c>
/home/tenebris/Disk/Racing-code/examples/23-libjpeg-divide-by-zero/libjpeg-turbo-2.0.90/rdppm.c:636
      else if (IsExtRGB(cinfo->in_color_space))
    6f80:	8d 50 fa             	lea    -0x6(%rax),%edx
    6f83:	83 fa 09             	cmp    $0x9,%edx
    6f86:	0f 86 df 01 00 00    	jbe    716b <start_input_ppm+0x55b>
    6f8c:	83 f8 02             	cmp    $0x2,%eax
    6f8f:	0f 84 d6 01 00 00    	je     716b <start_input_ppm+0x55b>
/home/tenebris/Disk/Racing-code/examples/23-libjpeg-divide-by-zero/libjpeg-turbo-2.0.90/rdppm.c:638
      else if (cinfo->in_color_space == JCS_CMYK)
    6f95:	83 f8 04             	cmp    $0x4,%eax
    6f98:	0f 84 87 02 00 00    	je     7225 <start_input_ppm+0x615>
/home/tenebris/Disk/Racing-code/examples/23-libjpeg-divide-by-zero/libjpeg-turbo-2.0.90/rdppm.c:667
        ERREXIT(cinfo, JERR_BAD_IN_COLORSPACE);
    6f9e:	48 8b 45 00          	mov    0x0(%rbp),%rax
    6fa2:	48 89 ef             	mov    %rbp,%rdi
    6fa5:	c7 40 28 09 00 00 00 	movl   $0x9,0x28(%rax)
    6fac:	ff 10                	call   *(%rax)
/home/tenebris/Disk/Racing-code/examples/23-libjpeg-divide-by-zero/libjpeg-turbo-2.0.90/rdppm.c:672
  if (IsExtRGB(cinfo->in_color_space))
    6fae:	8b 45 3c             	mov    0x3c(%rbp),%eax
    6fb1:	0f 1f 80 00 00 00 00 	nopl   0x0(%rax)
/home/tenebris/Disk/Racing-code/examples/23-libjpeg-divide-by-zero/libjpeg-turbo-2.0.90/rdppm.c:589
  need_iobuffer = TRUE;         /* do we need an I/O buffer? */
    6fb8:	41 be 01 00 00 00    	mov    $0x1,%r14d
/home/tenebris/Disk/Racing-code/examples/23-libjpeg-divide-by-zero/libjpeg-turbo-2.0.90/rdppm.c:672
  if (IsExtRGB(cinfo->in_color_space))
    6fbe:	8d 50 fa             	lea    -0x6(%rax),%edx
    6fc1:	83 fa 09             	cmp    $0x9,%edx
    6fc4:	0f 86 c6 fd ff ff    	jbe    6d90 <start_input_ppm+0x180>
    6fca:	83 f8 02             	cmp    $0x2,%eax
    6fcd:	0f 84 bd fd ff ff    	je     6d90 <start_input_ppm+0x180>
/home/tenebris/Disk/Racing-code/examples/23-libjpeg-divide-by-zero/libjpeg-turbo-2.0.90/rdppm.c:674
  else if (cinfo->in_color_space == JCS_GRAYSCALE)
    6fd3:	83 f8 01             	cmp    $0x1,%eax
    6fd6:	0f 84 44 01 00 00    	je     7120 <start_input_ppm+0x510>
/home/tenebris/Disk/Racing-code/examples/23-libjpeg-divide-by-zero/libjpeg-turbo-2.0.90/rdppm.c:676
  else if (cinfo->in_color_space == JCS_CMYK)
    6fdc:	ba 01 00 00 00       	mov    $0x1,%edx
    6fe1:	31 c9                	xor    %ecx,%ecx
    6fe3:	83 f8 04             	cmp    $0x4,%eax
    6fe6:	0f 84 2d 02 00 00    	je     7219 <start_input_ppm+0x609>
/home/tenebris/Disk/Racing-code/examples/23-libjpeg-divide-by-zero/libjpeg-turbo-2.0.90/rdppm.c:680
  if (need_iobuffer) {
    6fec:	45 85 f6             	test   %r14d,%r14d
    6fef:	41 89 d6             	mov    %edx,%r14d
    6ff2:	0f 85 b0 fd ff ff    	jne    6da8 <start_input_ppm+0x198>
    6ff8:	e9 e5 fd ff ff       	jmp    6de2 <start_input_ppm+0x1d2>
    6ffd:	0f 1f 00             	nopl   (%rax)
/home/tenebris/Disk/Racing-code/examples/23-libjpeg-divide-by-zero/libjpeg-turbo-2.0.90/rdppm.c:673
    cinfo->input_components = rgb_pixelsize[cinfo->in_color_space];
    7000:	48 8d 15 79 51 00 00 	lea    0x5179(%rip),%rdx        # c180 <rgb_pixelsize>
/home/tenebris/Disk/Racing-code/examples/23-libjpeg-divide-by-zero/libjpeg-turbo-2.0.90/rdppm.c:614
      source->pub.get_pixel_rows = get_text_rgb_row;
    7007:	48 8d 0d 12 f4 ff ff 	lea    -0xbee(%rip),%rcx        # 6420 <get_text_rgb_row>
/home/tenebris/Disk/Racing-code/examples/23-libjpeg-divide-by-zero/libjpeg-turbo-2.0.90/rdppm.c:673
    cinfo->input_components = rgb_pixelsize[cinfo->in_color_space];
    700e:	8b 04 82             	mov    (%rdx,%rax,4),%eax
/home/tenebris/Disk/Racing-code/examples/23-libjpeg-divide-by-zero/libjpeg-turbo-2.0.90/rdppm.c:614
      source->pub.get_pixel_rows = get_text_rgb_row;
    7011:	48 89 4b 08          	mov    %rcx,0x8(%rbx)
/home/tenebris/Disk/Racing-code/examples/23-libjpeg-divide-by-zero/libjpeg-turbo-2.0.90/rdppm.c:673
    cinfo->input_components = rgb_pixelsize[cinfo->in_color_space];
    7015:	89 45 38             	mov    %eax,0x38(%rbp)
/home/tenebris/Disk/Racing-code/examples/23-libjpeg-divide-by-zero/libjpeg-turbo-2.0.90/rdppm.c:680
  if (need_iobuffer) {
    7018:	41 be 01 00 00 00    	mov    $0x1,%r14d
/home/tenebris/Disk/Racing-code/examples/23-libjpeg-divide-by-zero/libjpeg-turbo-2.0.90/rdppm.c:701
    source->pub.buffer = (*cinfo->mem->alloc_sarray)
    701e:	8b 55 38             	mov    0x38(%rbp),%edx
    7021:	48 8b 45 08          	mov    0x8(%rbp),%rax
    7025:	b9 01 00 00 00       	mov    $0x1,%ecx
    702a:	48 89 ef             	mov    %rbp,%rdi
    702d:	be 01 00 00 00       	mov    $0x1,%esi
    7032:	41 0f af d5          	imul   %r13d,%edx
    7036:	ff 50 10             	call   *0x10(%rax)
/home/tenebris/Disk/Racing-code/examples/23-libjpeg-divide-by-zero/libjpeg-turbo-2.0.90/rdppm.c:704
    source->pub.buffer_height = 1;
    7039:	e9 b8 fd ff ff       	jmp    6df6 <start_input_ppm+0x1e6>
    703e:	66 90                	xchg   %ax,%ax
/home/tenebris/Disk/Racing-code/examples/23-libjpeg-divide-by-zero/libjpeg-turbo-2.0.90/rdppm.c:595
    if (cinfo->in_color_space == JCS_UNKNOWN)
    7040:	85 c0                	test   %eax,%eax
    7042:	75 07                	jne    704b <start_input_ppm+0x43b>
/home/tenebris/Disk/Racing-code/examples/23-libjpeg-divide-by-zero/libjpeg-turbo-2.0.90/rdppm.c:596
      cinfo->in_color_space = JCS_GRAYSCALE;
    7044:	c7 45 3c 01 00 00 00 	movl   $0x1,0x3c(%rbp)
/home/tenebris/Disk/Racing-code/examples/23-libjpeg-divide-by-zero/libjpeg-turbo-2.0.90/rdppm.c:597
    TRACEMS2(cinfo, 1, JTRC_PGM_TEXT, w, h);
    704b:	48 8b 45 00          	mov    0x0(%rbp),%rax
    704f:	be 01 00 00 00       	mov    $0x1,%esi
    7054:	48 89 ef             	mov    %rbp,%rdi
    7057:	c7 40 28 08 04 00 00 	movl   $0x408,0x28(%rax)
    705e:	44 89 68 2c          	mov    %r13d,0x2c(%rax)
    7062:	44 89 70 30          	mov    %r14d,0x30(%rax)
    7066:	ff 50 08             	call   *0x8(%rax)
/home/tenebris/Disk/Racing-code/examples/23-libjpeg-divide-by-zero/libjpeg-turbo-2.0.90/rdppm.c:598
    if (cinfo->in_color_space == JCS_GRAYSCALE)
    7069:	8b 45 3c             	mov    0x3c(%rbp),%eax
    706c:	83 f8 01             	cmp    $0x1,%eax
    706f:	74 77                	je     70e8 <start_input_ppm+0x4d8>
/home/tenebris/Disk/Racing-code/examples/23-libjpeg-divide-by-zero/libjpeg-turbo-2.0.90/rdppm.c:600
    else if (IsExtRGB(cinfo->in_color_space))
    7071:	8d 50 fa             	lea    -0x6(%rax),%edx
    7074:	83 fa 09             	cmp    $0x9,%edx
    7077:	0f 86 83 00 00 00    	jbe    7100 <start_input_ppm+0x4f0>
    707d:	83 f8 02             	cmp    $0x2,%eax
    7080:	74 7e                	je     7100 <start_input_ppm+0x4f0>
/home/tenebris/Disk/Racing-code/examples/23-libjpeg-divide-by-zero/libjpeg-turbo-2.0.90/rdppm.c:602
    else if (cinfo->in_color_space == JCS_CMYK)
    7082:	83 f8 04             	cmp    $0x4,%eax
    7085:	0f 85 de fc ff ff    	jne    6d69 <start_input_ppm+0x159>
/home/tenebris/Disk/Racing-code/examples/23-libjpeg-divide-by-zero/libjpeg-turbo-2.0.90/rdppm.c:603
      source->pub.get_pixel_rows = get_text_gray_cmyk_row;
    708b:	48 8d 05 8e f6 ff ff 	lea    -0x972(%rip),%rax        # 6720 <get_text_gray_cmyk_row>
    7092:	48 89 43 08          	mov    %rax,0x8(%rbx)
/home/tenebris/Disk/Racing-code/examples/23-libjpeg-divide-by-zero/libjpeg-turbo-2.0.90/rdppm.c:677
    cinfo->input_components = 4;
    7096:	c7 45 38 04 00 00 00 	movl   $0x4,0x38(%rbp)
/home/tenebris/Disk/Racing-code/examples/23-libjpeg-divide-by-zero/libjpeg-turbo-2.0.90/rdppm.c:680
  if (need_iobuffer) {
    709d:	e9 76 ff ff ff       	jmp    7018 <start_input_ppm+0x408>
    70a2:	66 0f 1f 44 00 00    	nopw   0x0(%rax,%rax,1)
/home/tenebris/Disk/Racing-code/examples/23-libjpeg-divide-by-zero/libjpeg-turbo-2.0.90/rdppm.c:650
      source->pub.get_pixel_rows = get_word_rgb_row;
    70a8:	48 8d 05 51 ed ff ff 	lea    -0x12af(%rip),%rax        # 5e00 <get_word_rgb_row>
/home/tenebris/Disk/Racing-code/examples/23-libjpeg-divide-by-zero/libjpeg-turbo-2.0.90/rdppm.c:589
  need_iobuffer = TRUE;         /* do we need an I/O buffer? */
    70af:	41 be 01 00 00 00    	mov    $0x1,%r14d
/home/tenebris/Disk/Racing-code/examples/23-libjpeg-divide-by-zero/libjpeg-turbo-2.0.90/rdppm.c:650
      source->pub.get_pixel_rows = get_word_rgb_row;
    70b5:	48 89 43 08          	mov    %rax,0x8(%rbx)
/home/tenebris/Disk/Racing-code/examples/23-libjpeg-divide-by-zero/libjpeg-turbo-2.0.90/rdppm.c:653
               (cinfo->in_color_space == JCS_EXT_RGB ||
    70b9:	8b 45 3c             	mov    0x3c(%rbp),%eax
    70bc:	e9 fd fe ff ff       	jmp    6fbe <start_input_ppm+0x3ae>
    70c1:	0f 1f 80 00 00 00 00 	nopl   0x0(%rax)
/home/tenebris/Disk/Racing-code/examples/23-libjpeg-divide-by-zero/libjpeg-turbo-2.0.90/rdppm.c:627
      source->pub.get_pixel_rows = get_word_gray_row;
    70c8:	48 8d 05 71 ec ff ff 	lea    -0x138f(%rip),%rax        # 5d40 <get_word_gray_row>
/home/tenebris/Disk/Racing-code/examples/23-libjpeg-divide-by-zero/libjpeg-turbo-2.0.90/rdppm.c:589
  need_iobuffer = TRUE;         /* do we need an I/O buffer? */
    70cf:	41 be 01 00 00 00    	mov    $0x1,%r14d
/home/tenebris/Disk/Racing-code/examples/23-libjpeg-divide-by-zero/libjpeg-turbo-2.0.90/rdppm.c:627
      source->pub.get_pixel_rows = get_word_gray_row;
    70d5:	48 89 43 08          	mov    %rax,0x8(%rbx)
/home/tenebris/Disk/Racing-code/examples/23-libjpeg-divide-by-zero/libjpeg-turbo-2.0.90/rdppm.c:629
               cinfo->in_color_space == JCS_GRAYSCALE) {
    70d9:	8b 45 3c             	mov    0x3c(%rbp),%eax
    70dc:	e9 dd fe ff ff       	jmp    6fbe <start_input_ppm+0x3ae>
    70e1:	0f 1f 80 00 00 00 00 	nopl   0x0(%rax)
/home/tenebris/Disk/Racing-code/examples/23-libjpeg-divide-by-zero/libjpeg-turbo-2.0.90/rdppm.c:599
      source->pub.get_pixel_rows = get_text_gray_row;
    70e8:	48 8d 05 b1 fa ff ff 	lea    -0x54f(%rip),%rax        # 6ba0 <get_text_gray_row>
    70ef:	48 89 43 08          	mov    %rax,0x8(%rbx)
/home/tenebris/Disk/Racing-code/examples/23-libjpeg-divide-by-zero/libjpeg-turbo-2.0.90/rdppm.c:675
    cinfo->input_components = 1;
    70f3:	c7 45 38 01 00 00 00 	movl   $0x1,0x38(%rbp)
/home/tenebris/Disk/Racing-code/examples/23-libjpeg-divide-by-zero/libjpeg-turbo-2.0.90/rdppm.c:693
  if (use_raw_buffer) {
    70fa:	e9 19 ff ff ff       	jmp    7018 <start_input_ppm+0x408>
    70ff:	90                   	nop
/home/tenebris/Disk/Racing-code/examples/23-libjpeg-divide-by-zero/libjpeg-turbo-2.0.90/rdppm.c:673
    cinfo->input_components = rgb_pixelsize[cinfo->in_color_space];
    7100:	48 8d 15 79 50 00 00 	lea    0x5079(%rip),%rdx        # c180 <rgb_pixelsize>
/home/tenebris/Disk/Racing-code/examples/23-libjpeg-divide-by-zero/libjpeg-turbo-2.0.90/rdppm.c:614
      source->pub.get_pixel_rows = get_text_rgb_row;
    7107:	48 8d 0d 52 f8 ff ff 	lea    -0x7ae(%rip),%rcx        # 6960 <get_text_gray_rgb_row>
/home/tenebris/Disk/Racing-code/examples/23-libjpeg-divide-by-zero/libjpeg-turbo-2.0.90/rdppm.c:673
    cinfo->input_components = rgb_pixelsize[cinfo->in_color_space];
    710e:	8b 04 82             	mov    (%rdx,%rax,4),%eax
/home/tenebris/Disk/Racing-code/examples/23-libjpeg-divide-by-zero/libjpeg-turbo-2.0.90/rdppm.c:614
      source->pub.get_pixel_rows = get_text_rgb_row;
    7111:	48 89 4b 08          	mov    %rcx,0x8(%rbx)
/home/tenebris/Disk/Racing-code/examples/23-libjpeg-divide-by-zero/libjpeg-turbo-2.0.90/rdppm.c:673
    cinfo->input_components = rgb_pixelsize[cinfo->in_color_space];
    7115:	89 45 38             	mov    %eax,0x38(%rbp)
/home/tenebris/Disk/Racing-code/examples/23-libjpeg-divide-by-zero/libjpeg-turbo-2.0.90/rdppm.c:680
  if (need_iobuffer) {
    7118:	e9 fb fe ff ff       	jmp    7018 <start_input_ppm+0x408>
    711d:	0f 1f 00             	nopl   (%rax)
/home/tenebris/Disk/Racing-code/examples/23-libjpeg-divide-by-zero/libjpeg-turbo-2.0.90/rdppm.c:675
    cinfo->input_components = 1;
    7120:	c7 45 38 01 00 00 00 	movl   $0x1,0x38(%rbp)
    7127:	e9 71 fc ff ff       	jmp    6d9d <start_input_ppm+0x18d>
/home/tenebris/Disk/Racing-code/examples/23-libjpeg-divide-by-zero/libjpeg-turbo-2.0.90/rdppm.c:599
      source->pub.get_pixel_rows = get_text_gray_row;
    712c:	48 8d 05 cd df ff ff 	lea    -0x2033(%rip),%rax        # 5100 <get_scaled_gray_row>
/home/tenebris/Disk/Racing-code/examples/23-libjpeg-divide-by-zero/libjpeg-turbo-2.0.90/rdppm.c:591
  need_rescale = TRUE;          /* do we need a rescale array? */
    7133:	41 be 01 00 00 00    	mov    $0x1,%r14d
/home/tenebris/Disk/Racing-code/examples/23-libjpeg-divide-by-zero/libjpeg-turbo-2.0.90/rdppm.c:590
  use_raw_buffer = FALSE;       /* do we map input buffer onto I/O buffer? */
    7139:	31 c9                	xor    %ecx,%ecx
/home/tenebris/Disk/Racing-code/examples/23-libjpeg-divide-by-zero/libjpeg-turbo-2.0.90/rdppm.c:599
      source->pub.get_pixel_rows = get_text_gray_row;
    713b:	48 89 43 08          	mov    %rax,0x8(%rbx)
/home/tenebris/Disk/Racing-code/examples/23-libjpeg-divide-by-zero/libjpeg-turbo-2.0.90/rdppm.c:675
    cinfo->input_components = 1;
    713f:	c7 45 38 01 00 00 00 	movl   $0x1,0x38(%rbp)
/home/tenebris/Disk/Racing-code/examples/23-libjpeg-divide-by-zero/libjpeg-turbo-2.0.90/rdppm.c:682
      source->buffer_width = (size_t)w * 3 *
    7146:	44 89 ea             	mov    %r13d,%edx
/home/tenebris/Disk/Racing-code/examples/23-libjpeg-divide-by-zero/libjpeg-turbo-2.0.90/rdppm.c:685
      source->buffer_width = (size_t)w *
    7149:	e9 76 fc ff ff       	jmp    6dc4 <start_input_ppm+0x1b4>
/home/tenebris/Disk/Racing-code/examples/23-libjpeg-divide-by-zero/libjpeg-turbo-2.0.90/rdppm.c:673
    cinfo->input_components = rgb_pixelsize[cinfo->in_color_space];
    714e:	48 8d 15 2b 50 00 00 	lea    0x502b(%rip),%rdx        # c180 <rgb_pixelsize>
/home/tenebris/Disk/Racing-code/examples/23-libjpeg-divide-by-zero/libjpeg-turbo-2.0.90/rdppm.c:614
      source->pub.get_pixel_rows = get_text_rgb_row;
    7155:	48 8d 0d 34 e5 ff ff 	lea    -0x1acc(%rip),%rcx        # 5690 <get_rgb_row>
/home/tenebris/Disk/Racing-code/examples/23-libjpeg-divide-by-zero/libjpeg-turbo-2.0.90/rdppm.c:673
    cinfo->input_components = rgb_pixelsize[cinfo->in_color_space];
    715c:	8b 04 82             	mov    (%rdx,%rax,4),%eax
/home/tenebris/Disk/Racing-code/examples/23-libjpeg-divide-by-zero/libjpeg-turbo-2.0.90/rdppm.c:614
      source->pub.get_pixel_rows = get_text_rgb_row;
    715f:	48 89 4b 08          	mov    %rcx,0x8(%rbx)
/home/tenebris/Disk/Racing-code/examples/23-libjpeg-divide-by-zero/libjpeg-turbo-2.0.90/rdppm.c:673
    cinfo->input_components = rgb_pixelsize[cinfo->in_color_space];
    7163:	89 45 38             	mov    %eax,0x38(%rbp)
/home/tenebris/Disk/Racing-code/examples/23-libjpeg-divide-by-zero/libjpeg-turbo-2.0.90/rdppm.c:680
  if (need_iobuffer) {
    7166:	e9 b6 fd ff ff       	jmp    6f21 <start_input_ppm+0x311>
/home/tenebris/Disk/Racing-code/examples/23-libjpeg-divide-by-zero/libjpeg-turbo-2.0.90/rdppm.c:673
    cinfo->input_components = rgb_pixelsize[cinfo->in_color_space];
    716b:	48 8d 15 0e 50 00 00 	lea    0x500e(%rip),%rdx        # c180 <rgb_pixelsize>
/home/tenebris/Disk/Racing-code/examples/23-libjpeg-divide-by-zero/libjpeg-turbo-2.0.90/rdppm.c:614
      source->pub.get_pixel_rows = get_text_rgb_row;
    7172:	48 8d 0d 07 e0 ff ff 	lea    -0x1ff9(%rip),%rcx        # 5180 <get_gray_rgb_row>
/home/tenebris/Disk/Racing-code/examples/23-libjpeg-divide-by-zero/libjpeg-turbo-2.0.90/rdppm.c:673
    cinfo->input_components = rgb_pixelsize[cinfo->in_color_space];
    7179:	41 be 01 00 00 00    	mov    $0x1,%r14d
    717f:	8b 04 82             	mov    (%rdx,%rax,4),%eax
/home/tenebris/Disk/Racing-code/examples/23-libjpeg-divide-by-zero/libjpeg-turbo-2.0.90/rdppm.c:614
      source->pub.get_pixel_rows = get_text_rgb_row;
    7182:	48 89 4b 08          	mov    %rcx,0x8(%rbx)
/home/tenebris/Disk/Racing-code/examples/23-libjpeg-divide-by-zero/libjpeg-turbo-2.0.90/rdppm.c:673
    cinfo->input_components = rgb_pixelsize[cinfo->in_color_space];
    7186:	31 c9                	xor    %ecx,%ecx
    7188:	89 45 38             	mov    %eax,0x38(%rbp)
/home/tenebris/Disk/Racing-code/examples/23-libjpeg-divide-by-zero/libjpeg-turbo-2.0.90/rdppm.c:680
  if (need_iobuffer) {
    718b:	eb b9                	jmp    7146 <start_input_ppm+0x536>
/home/tenebris/Disk/Racing-code/examples/23-libjpeg-divide-by-zero/libjpeg-turbo-2.0.90/rdppm.c:653 (discriminator 1)
               (cinfo->in_color_space == JCS_EXT_RGB ||
    718d:	89 c2                	mov    %eax,%edx
    718f:	83 e2 fb             	and    $0xfffffffb,%edx
/home/tenebris/Disk/Racing-code/examples/23-libjpeg-divide-by-zero/libjpeg-turbo-2.0.90/rdppm.c:651 (discriminator 1)
    } else if (maxval == MAXJSAMPLE && sizeof(JSAMPLE) == sizeof(U_CHAR) &&
    7192:	83 fa 02             	cmp    $0x2,%edx
    7195:	0f 85 56 fd ff ff    	jne    6ef1 <start_input_ppm+0x2e1>
/home/tenebris/Disk/Racing-code/examples/23-libjpeg-divide-by-zero/libjpeg-turbo-2.0.90/rdppm.c:658
      source->pub.get_pixel_rows = get_raw_row;
    719b:	48 8d 0d 7e ed ff ff 	lea    -0x1282(%rip),%rcx        # 5f20 <get_raw_row>
/home/tenebris/Disk/Racing-code/examples/23-libjpeg-divide-by-zero/libjpeg-turbo-2.0.90/rdppm.c:672
  if (IsExtRGB(cinfo->in_color_space))
    71a2:	8d 50 fa             	lea    -0x6(%rax),%edx
/home/tenebris/Disk/Racing-code/examples/23-libjpeg-divide-by-zero/libjpeg-turbo-2.0.90/rdppm.c:658
      source->pub.get_pixel_rows = get_raw_row;
    71a5:	48 89 4b 08          	mov    %rcx,0x8(%rbx)
/home/tenebris/Disk/Racing-code/examples/23-libjpeg-divide-by-zero/libjpeg-turbo-2.0.90/rdppm.c:672
  if (IsExtRGB(cinfo->in_color_space))
    71a9:	83 fa 09             	cmp    $0x9,%edx
    71ac:	0f 86 92 00 00 00    	jbe    7244 <start_input_ppm+0x634>
    71b2:	83 f8 02             	cmp    $0x2,%eax
    71b5:	0f 84 89 00 00 00    	je     7244 <start_input_ppm+0x634>
/home/tenebris/Disk/Racing-code/examples/23-libjpeg-divide-by-zero/libjpeg-turbo-2.0.90/rdppm.c:676
  else if (cinfo->in_color_space == JCS_CMYK)
    71bb:	83 f8 04             	cmp    $0x4,%eax
    71be:	74 4c                	je     720c <start_input_ppm+0x5fc>
/home/tenebris/Disk/Racing-code/examples/23-libjpeg-divide-by-zero/libjpeg-turbo-2.0.90/rdppm.c:660
      need_rescale = FALSE;
    71c0:	45 31 f6             	xor    %r14d,%r14d
/home/tenebris/Disk/Racing-code/examples/23-libjpeg-divide-by-zero/libjpeg-turbo-2.0.90/rdppm.c:659
      use_raw_buffer = TRUE;
    71c3:	b9 01 00 00 00       	mov    $0x1,%ecx
    71c8:	e9 db fb ff ff       	jmp    6da8 <start_input_ppm+0x198>
/home/tenebris/Disk/Racing-code/examples/23-libjpeg-divide-by-zero/libjpeg-turbo-2.0.90/rdppm.c:603
      source->pub.get_pixel_rows = get_text_gray_cmyk_row;
    71cd:	48 8d 05 bc ee ff ff 	lea    -0x1144(%rip),%rax        # 6090 <get_text_rgb_cmyk_row>
    71d4:	48 89 43 08          	mov    %rax,0x8(%rbx)
/home/tenebris/Disk/Racing-code/examples/23-libjpeg-divide-by-zero/libjpeg-turbo-2.0.90/rdppm.c:677
    cinfo->input_components = 4;
    71d8:	c7 45 38 04 00 00 00 	movl   $0x4,0x38(%rbp)
/home/tenebris/Disk/Racing-code/examples/23-libjpeg-divide-by-zero/libjpeg-turbo-2.0.90/rdppm.c:680
  if (need_iobuffer) {
    71df:	e9 34 fe ff ff       	jmp    7018 <start_input_ppm+0x408>
/home/tenebris/Disk/Racing-code/examples/23-libjpeg-divide-by-zero/libjpeg-turbo-2.0.90/rdppm.c:628 (discriminator 1)
    } else if (maxval == MAXJSAMPLE && sizeof(JSAMPLE) == sizeof(U_CHAR) &&
    71e4:	83 f8 01             	cmp    $0x1,%eax
    71e7:	0f 85 93 fd ff ff    	jne    6f80 <start_input_ppm+0x370>
/home/tenebris/Disk/Racing-code/examples/23-libjpeg-divide-by-zero/libjpeg-turbo-2.0.90/rdppm.c:599
      source->pub.get_pixel_rows = get_text_gray_row;
    71ed:	48 8d 05 2c ed ff ff 	lea    -0x12d4(%rip),%rax        # 5f20 <get_raw_row>
/home/tenebris/Disk/Racing-code/examples/23-libjpeg-divide-by-zero/libjpeg-turbo-2.0.90/rdppm.c:632
      need_rescale = FALSE;
    71f4:	45 31 f6             	xor    %r14d,%r14d
/home/tenebris/Disk/Racing-code/examples/23-libjpeg-divide-by-zero/libjpeg-turbo-2.0.90/rdppm.c:631
      use_raw_buffer = TRUE;
    71f7:	b9 01 00 00 00       	mov    $0x1,%ecx
/home/tenebris/Disk/Racing-code/examples/23-libjpeg-divide-by-zero/libjpeg-turbo-2.0.90/rdppm.c:599
      source->pub.get_pixel_rows = get_text_gray_row;
    71fc:	48 89 43 08          	mov    %rax,0x8(%rbx)
/home/tenebris/Disk/Racing-code/examples/23-libjpeg-divide-by-zero/libjpeg-turbo-2.0.90/rdppm.c:675
    cinfo->input_components = 1;
    7200:	c7 45 38 01 00 00 00 	movl   $0x1,0x38(%rbp)
/home/tenebris/Disk/Racing-code/examples/23-libjpeg-divide-by-zero/libjpeg-turbo-2.0.90/rdppm.c:680
  if (need_iobuffer) {
    7207:	e9 3a ff ff ff       	jmp    7146 <start_input_ppm+0x536>
/home/tenebris/Disk/Racing-code/examples/23-libjpeg-divide-by-zero/libjpeg-turbo-2.0.90/rdppm.c:660
      need_rescale = FALSE;
    720c:	31 d2                	xor    %edx,%edx
/home/tenebris/Disk/Racing-code/examples/23-libjpeg-divide-by-zero/libjpeg-turbo-2.0.90/rdppm.c:589
  need_iobuffer = TRUE;         /* do we need an I/O buffer? */
    720e:	41 be 01 00 00 00    	mov    $0x1,%r14d
/home/tenebris/Disk/Racing-code/examples/23-libjpeg-divide-by-zero/libjpeg-turbo-2.0.90/rdppm.c:659
      use_raw_buffer = TRUE;
    7214:	b9 01 00 00 00       	mov    $0x1,%ecx
/home/tenebris/Disk/Racing-code/examples/23-libjpeg-divide-by-zero/libjpeg-turbo-2.0.90/rdppm.c:677
    cinfo->input_components = 4;
    7219:	c7 45 38 04 00 00 00 	movl   $0x4,0x38(%rbp)
    7220:	e9 c7 fd ff ff       	jmp    6fec <start_input_ppm+0x3dc>
/home/tenebris/Disk/Racing-code/examples/23-libjpeg-divide-by-zero/libjpeg-turbo-2.0.90/rdppm.c:603
      source->pub.get_pixel_rows = get_text_gray_cmyk_row;
    7225:	48 8d 05 34 e2 ff ff 	lea    -0x1dcc(%rip),%rax        # 5460 <get_gray_cmyk_row>
/home/tenebris/Disk/Racing-code/examples/23-libjpeg-divide-by-zero/libjpeg-turbo-2.0.90/rdppm.c:677
    cinfo->input_components = 4;
    722c:	41 be 01 00 00 00    	mov    $0x1,%r14d
    7232:	31 c9                	xor    %ecx,%ecx
/home/tenebris/Disk/Racing-code/examples/23-libjpeg-divide-by-zero/libjpeg-turbo-2.0.90/rdppm.c:603
      source->pub.get_pixel_rows = get_text_gray_cmyk_row;
    7234:	48 89 43 08          	mov    %rax,0x8(%rbx)
/home/tenebris/Disk/Racing-code/examples/23-libjpeg-divide-by-zero/libjpeg-turbo-2.0.90/rdppm.c:677
    cinfo->input_components = 4;
    7238:	c7 45 38 04 00 00 00 	movl   $0x4,0x38(%rbp)
/home/tenebris/Disk/Racing-code/examples/23-libjpeg-divide-by-zero/libjpeg-turbo-2.0.90/rdppm.c:680
  if (need_iobuffer) {
    723f:	e9 02 ff ff ff       	jmp    7146 <start_input_ppm+0x536>
/home/tenebris/Disk/Racing-code/examples/23-libjpeg-divide-by-zero/libjpeg-turbo-2.0.90/rdppm.c:673
    cinfo->input_components = rgb_pixelsize[cinfo->in_color_space];
    7244:	48 8d 15 35 4f 00 00 	lea    0x4f35(%rip),%rdx        # c180 <rgb_pixelsize>
/home/tenebris/Disk/Racing-code/examples/23-libjpeg-divide-by-zero/libjpeg-turbo-2.0.90/rdppm.c:660
      need_rescale = FALSE;
    724b:	45 31 f6             	xor    %r14d,%r14d
/home/tenebris/Disk/Racing-code/examples/23-libjpeg-divide-by-zero/libjpeg-turbo-2.0.90/rdppm.c:659
      use_raw_buffer = TRUE;
    724e:	b9 01 00 00 00       	mov    $0x1,%ecx
/home/tenebris/Disk/Racing-code/examples/23-libjpeg-divide-by-zero/libjpeg-turbo-2.0.90/rdppm.c:673
    cinfo->input_components = rgb_pixelsize[cinfo->in_color_space];
    7253:	8b 04 82             	mov    (%rdx,%rax,4),%eax
/home/tenebris/Disk/Racing-code/examples/23-libjpeg-divide-by-zero/libjpeg-turbo-2.0.90/rdppm.c:682
      source->buffer_width = (size_t)w * 3 *
    7256:	44 89 ea             	mov    %r13d,%edx
/home/tenebris/Disk/Racing-code/examples/23-libjpeg-divide-by-zero/libjpeg-turbo-2.0.90/rdppm.c:673
    cinfo->input_components = rgb_pixelsize[cinfo->in_color_space];
    7259:	89 45 38             	mov    %eax,0x38(%rbp)
/home/tenebris/Disk/Racing-code/examples/23-libjpeg-divide-by-zero/libjpeg-turbo-2.0.90/rdppm.c:681
    if (c == '6')
    725c:	e9 cb fc ff ff       	jmp    6f2c <start_input_ppm+0x31c>
    7261:	66 66 2e 0f 1f 84 00 	data16 cs nopw 0x0(%rax,%rax,1)
    7268:	00 00 00 00 
    726c:	0f 1f 40 00          	nopl   0x0(%rax)

0000000000007270 <jinit_read_ppm>:
jinit_read_ppm():
/home/tenebris/Disk/Racing-code/examples/23-libjpeg-divide-by-zero/libjpeg-turbo-2.0.90/rdppm.c:743
 * The module selection routine for PPM format input.
 */

GLOBAL(cjpeg_source_ptr)
jinit_read_ppm(j_compress_ptr cinfo)
{
    7270:	f3 0f 1e fa          	endbr64 
    7274:	48 83 ec 08          	sub    $0x8,%rsp
/home/tenebris/Disk/Racing-code/examples/23-libjpeg-divide-by-zero/libjpeg-turbo-2.0.90/rdppm.c:748
  ppm_source_ptr source;

  /* Create module interface object */
  source = (ppm_source_ptr)
    (*cinfo->mem->alloc_small) ((j_common_ptr)cinfo, JPOOL_IMAGE,
    7278:	48 8b 47 08          	mov    0x8(%rdi),%rax
    727c:	ba 58 00 00 00       	mov    $0x58,%edx
    7281:	be 01 00 00 00       	mov    $0x1,%esi
    7286:	ff 10                	call   *(%rax)
/home/tenebris/Disk/Racing-code/examples/23-libjpeg-divide-by-zero/libjpeg-turbo-2.0.90/rdppm.c:751
                                sizeof(ppm_source_struct));
  /* Fill in method ptrs, except get_pixel_rows which start_input sets */
  source->pub.start_input = start_input_ppm;
    7288:	48 8d 0d 81 f9 ff ff 	lea    -0x67f(%rip),%rcx        # 6c10 <start_input_ppm>
/home/tenebris/Disk/Racing-code/examples/23-libjpeg-divide-by-zero/libjpeg-turbo-2.0.90/rdppm.c:752
  source->pub.finish_input = finish_input_ppm;
    728f:	48 8d 15 5a de ff ff 	lea    -0x21a6(%rip),%rdx        # 50f0 <finish_input_ppm>
/home/tenebris/Disk/Racing-code/examples/23-libjpeg-divide-by-zero/libjpeg-turbo-2.0.90/rdppm.c:751
  source->pub.start_input = start_input_ppm;
    7296:	48 89 08             	mov    %rcx,(%rax)
/home/tenebris/Disk/Racing-code/examples/23-libjpeg-divide-by-zero/libjpeg-turbo-2.0.90/rdppm.c:752
  source->pub.finish_input = finish_input_ppm;
    7299:	48 89 50 10          	mov    %rdx,0x10(%rax)
/home/tenebris/Disk/Racing-code/examples/23-libjpeg-divide-by-zero/libjpeg-turbo-2.0.90/rdppm.c:755

  return (cjpeg_source_ptr)source;
}
    729d:	48 83 c4 08          	add    $0x8,%rsp
    72a1:	c3                   	ret    
    72a2:	66 2e 0f 1f 84 00 00 	cs nopw 0x0(%rax,%rax,1)
    72a9:	00 00 00 
    72ac:	0f 1f 40 00          	nopl   0x0(%rax)

00000000000072b0 <read_text_integer>:
read_text_integer():
/home/tenebris/Disk/Racing-code/examples/23-libjpeg-divide-by-zero/libjpeg-turbo-2.0.90/rdswitch.c:45

LOCAL(boolean)
read_text_integer(FILE *file, long *result, int *termchar)
/* Read an unsigned decimal integer from a file, store it in result */
/* Reads one trailing character after the integer; returns it in termchar */
{
    72b0:	41 57                	push   %r15
    72b2:	41 56                	push   %r14
    72b4:	41 55                	push   %r13
    72b6:	49 89 f5             	mov    %rsi,%r13
    72b9:	41 54                	push   %r12
    72bb:	49 89 d4             	mov    %rdx,%r12
    72be:	55                   	push   %rbp
    72bf:	48 89 fd             	mov    %rdi,%rbp
    72c2:	53                   	push   %rbx
    72c3:	48 83 ec 08          	sub    $0x8,%rsp
    72c7:	eb 23                	jmp    72ec <read_text_integer+0x3c>
    72c9:	0f 1f 80 00 00 00 00 	nopl   0x0(%rax)
/home/tenebris/Disk/Racing-code/examples/23-libjpeg-divide-by-zero/libjpeg-turbo-2.0.90/rdswitch.c:52
  register long val;

  /* Skip any leading whitespace, detect EOF */
  do {
    ch = text_getc(file);
    if (ch == EOF) {
    72d0:	83 fb ff             	cmp    $0xffffffff,%ebx
    72d3:	74 3f                	je     7314 <read_text_integer+0x64>
/home/tenebris/Disk/Racing-code/examples/23-libjpeg-divide-by-zero/libjpeg-turbo-2.0.90/rdswitch.c:56
      *termchar = ch;
      return FALSE;
    }
  } while (isspace(ch));
    72d5:	e8 b6 b1 ff ff       	call   2490 <__ctype_b_loc@plt>
    72da:	49 89 c7             	mov    %rax,%r15
    72dd:	48 63 c3             	movslq %ebx,%rax
    72e0:	49 8b 17             	mov    (%r15),%rdx
    72e3:	0f b7 04 42          	movzwl (%rdx,%rax,2),%eax
    72e7:	f6 c4 20             	test   $0x20,%ah
    72ea:	74 44                	je     7330 <read_text_integer+0x80>
text_getc():
/home/tenebris/Disk/Racing-code/examples/23-libjpeg-divide-by-zero/libjpeg-turbo-2.0.90/rdswitch.c:31
  ch = getc(file);
    72ec:	48 89 ef             	mov    %rbp,%rdi
    72ef:	e8 7c b1 ff ff       	call   2470 <getc@plt>
    72f4:	89 c3                	mov    %eax,%ebx
/home/tenebris/Disk/Racing-code/examples/23-libjpeg-divide-by-zero/libjpeg-turbo-2.0.90/rdswitch.c:32
  if (ch == '#') {
    72f6:	83 f8 23             	cmp    $0x23,%eax
    72f9:	75 d5                	jne    72d0 <read_text_integer+0x20>
    72fb:	0f 1f 44 00 00       	nopl   0x0(%rax,%rax,1)
/home/tenebris/Disk/Racing-code/examples/23-libjpeg-divide-by-zero/libjpeg-turbo-2.0.90/rdswitch.c:34
      ch = getc(file);
    7300:	48 89 ef             	mov    %rbp,%rdi
    7303:	e8 68 b1 ff ff       	call   2470 <getc@plt>
    7308:	89 c3                	mov    %eax,%ebx
/home/tenebris/Disk/Racing-code/examples/23-libjpeg-divide-by-zero/libjpeg-turbo-2.0.90/rdswitch.c:35
    } while (ch != '\n' && ch != EOF);
    730a:	83 f8 0a             	cmp    $0xa,%eax
    730d:	74 c1                	je     72d0 <read_text_integer+0x20>
    730f:	83 f8 ff             	cmp    $0xffffffff,%eax
    7312:	75 ec                	jne    7300 <read_text_integer+0x50>
read_text_integer():
/home/tenebris/Disk/Racing-code/examples/23-libjpeg-divide-by-zero/libjpeg-turbo-2.0.90/rdswitch.c:54
      return FALSE;
    7314:	45 31 c0             	xor    %r8d,%r8d
/home/tenebris/Disk/Racing-code/examples/23-libjpeg-divide-by-zero/libjpeg-turbo-2.0.90/rdswitch.c:53
      *termchar = ch;
    7317:	41 89 1c 24          	mov    %ebx,(%r12)
/home/tenebris/Disk/Racing-code/examples/23-libjpeg-divide-by-zero/libjpeg-turbo-2.0.90/rdswitch.c:73
    val += ch - '0';
  }
  *result = val;
  *termchar = ch;
  return TRUE;
}
    731b:	48 83 c4 08          	add    $0x8,%rsp
    731f:	44 89 c0             	mov    %r8d,%eax
    7322:	5b                   	pop    %rbx
    7323:	5d                   	pop    %rbp
    7324:	41 5c                	pop    %r12
    7326:	41 5d                	pop    %r13
    7328:	41 5e                	pop    %r14
    732a:	41 5f                	pop    %r15
    732c:	c3                   	ret    
    732d:	0f 1f 00             	nopl   (%rax)
/home/tenebris/Disk/Racing-code/examples/23-libjpeg-divide-by-zero/libjpeg-turbo-2.0.90/rdswitch.c:60
    return FALSE;
    7330:	45 31 c0             	xor    %r8d,%r8d
/home/tenebris/Disk/Racing-code/examples/23-libjpeg-divide-by-zero/libjpeg-turbo-2.0.90/rdswitch.c:58
  if (!isdigit(ch)) {
    7333:	f6 c4 08             	test   $0x8,%ah
    7336:	74 df                	je     7317 <read_text_integer+0x67>
/home/tenebris/Disk/Racing-code/examples/23-libjpeg-divide-by-zero/libjpeg-turbo-2.0.90/rdswitch.c:63
  val = ch - '0';
    7338:	83 eb 30             	sub    $0x30,%ebx
    733b:	4c 63 f3             	movslq %ebx,%r14
/home/tenebris/Disk/Racing-code/examples/23-libjpeg-divide-by-zero/libjpeg-turbo-2.0.90/rdswitch.c:64
  while ((ch = text_getc(file)) != EOF) {
    733e:	eb 20                	jmp    7360 <read_text_integer+0xb0>
    7340:	83 fb ff             	cmp    $0xffffffff,%ebx
    7343:	74 3f                	je     7384 <read_text_integer+0xd4>
/home/tenebris/Disk/Racing-code/examples/23-libjpeg-divide-by-zero/libjpeg-turbo-2.0.90/rdswitch.c:65
    if (!isdigit(ch))
    7345:	49 8b 17             	mov    (%r15),%rdx
    7348:	48 63 c3             	movslq %ebx,%rax
    734b:	f6 44 42 01 08       	testb  $0x8,0x1(%rdx,%rax,2)
    7350:	74 32                	je     7384 <read_text_integer+0xd4>
/home/tenebris/Disk/Racing-code/examples/23-libjpeg-divide-by-zero/libjpeg-turbo-2.0.90/rdswitch.c:68
    val += ch - '0';
    7352:	83 eb 30             	sub    $0x30,%ebx
/home/tenebris/Disk/Racing-code/examples/23-libjpeg-divide-by-zero/libjpeg-turbo-2.0.90/rdswitch.c:67
    val *= 10;
    7355:	4b 8d 04 b6          	lea    (%r14,%r14,4),%rax
/home/tenebris/Disk/Racing-code/examples/23-libjpeg-divide-by-zero/libjpeg-turbo-2.0.90/rdswitch.c:68
    val += ch - '0';
    7359:	48 63 db             	movslq %ebx,%rbx
    735c:	4c 8d 34 43          	lea    (%rbx,%rax,2),%r14
text_getc():
/home/tenebris/Disk/Racing-code/examples/23-libjpeg-divide-by-zero/libjpeg-turbo-2.0.90/rdswitch.c:31
  ch = getc(file);
    7360:	48 89 ef             	mov    %rbp,%rdi
    7363:	e8 08 b1 ff ff       	call   2470 <getc@plt>
    7368:	89 c3                	mov    %eax,%ebx
/home/tenebris/Disk/Racing-code/examples/23-libjpeg-divide-by-zero/libjpeg-turbo-2.0.90/rdswitch.c:32
  if (ch == '#') {
    736a:	83 f8 23             	cmp    $0x23,%eax
    736d:	75 d1                	jne    7340 <read_text_integer+0x90>
    736f:	90                   	nop
/home/tenebris/Disk/Racing-code/examples/23-libjpeg-divide-by-zero/libjpeg-turbo-2.0.90/rdswitch.c:34
      ch = getc(file);
    7370:	48 89 ef             	mov    %rbp,%rdi
    7373:	e8 f8 b0 ff ff       	call   2470 <getc@plt>
    7378:	89 c3                	mov    %eax,%ebx
/home/tenebris/Disk/Racing-code/examples/23-libjpeg-divide-by-zero/libjpeg-turbo-2.0.90/rdswitch.c:35
    } while (ch != '\n' && ch != EOF);
    737a:	83 f8 0a             	cmp    $0xa,%eax
    737d:	74 c1                	je     7340 <read_text_integer+0x90>
    737f:	83 f8 ff             	cmp    $0xffffffff,%eax
    7382:	75 ec                	jne    7370 <read_text_integer+0xc0>
read_text_integer():
/home/tenebris/Disk/Racing-code/examples/23-libjpeg-divide-by-zero/libjpeg-turbo-2.0.90/rdswitch.c:70
  *result = val;
    7384:	4d 89 75 00          	mov    %r14,0x0(%r13)
/home/tenebris/Disk/Racing-code/examples/23-libjpeg-divide-by-zero/libjpeg-turbo-2.0.90/rdswitch.c:72
  return TRUE;
    7388:	41 b8 01 00 00 00    	mov    $0x1,%r8d
    738e:	eb 87                	jmp    7317 <read_text_integer+0x67>

0000000000007390 <read_scan_integer.part.0>:
read_scan_integer():
/home/tenebris/Disk/Racing-code/examples/23-libjpeg-divide-by-zero/libjpeg-turbo-2.0.90/rdswitch.c:142


#ifdef C_MULTISCAN_FILES_SUPPORTED

LOCAL(boolean)
read_scan_integer(FILE *file, long *result, int *termchar)
    7390:	41 55                	push   %r13
    7392:	49 89 f5             	mov    %rsi,%r13
    7395:	41 54                	push   %r12
    7397:	49 89 fc             	mov    %rdi,%r12
    739a:	55                   	push   %rbp
    739b:	53                   	push   %rbx
    739c:	48 83 ec 08          	sub    $0x8,%rsp
/home/tenebris/Disk/Racing-code/examples/23-libjpeg-divide-by-zero/libjpeg-turbo-2.0.90/rdswitch.c:151
{
  register int ch;

  if (!read_text_integer(file, result, termchar))
    return FALSE;
  ch = *termchar;
    73a0:	8b 2e                	mov    (%rsi),%ebp
/home/tenebris/Disk/Racing-code/examples/23-libjpeg-divide-by-zero/libjpeg-turbo-2.0.90/rdswitch.c:152
  while (ch != EOF && isspace(ch))
    73a2:	e8 e9 b0 ff ff       	call   2490 <__ctype_b_loc@plt>
    73a7:	48 89 c3             	mov    %rax,%rbx
    73aa:	66 0f 1f 44 00 00    	nopw   0x0(%rax,%rax,1)
    73b0:	48 8b 03             	mov    (%rbx),%rax
    73b3:	83 fd ff             	cmp    $0xffffffff,%ebp
    73b6:	74 40                	je     73f8 <read_scan_integer.part.0+0x68>
    73b8:	48 63 d5             	movslq %ebp,%rdx
    73bb:	0f b7 04 50          	movzwl (%rax,%rdx,2),%eax
    73bf:	f6 c4 20             	test   $0x20,%ah
    73c2:	74 74                	je     7438 <read_scan_integer.part.0+0xa8>
text_getc():
/home/tenebris/Disk/Racing-code/examples/23-libjpeg-divide-by-zero/libjpeg-turbo-2.0.90/rdswitch.c:31
  ch = getc(file);
    73c4:	4c 89 e7             	mov    %r12,%rdi
    73c7:	e8 a4 b0 ff ff       	call   2470 <getc@plt>
    73cc:	89 c5                	mov    %eax,%ebp
/home/tenebris/Disk/Racing-code/examples/23-libjpeg-divide-by-zero/libjpeg-turbo-2.0.90/rdswitch.c:32
  if (ch == '#') {
    73ce:	83 f8 23             	cmp    $0x23,%eax
    73d1:	75 dd                	jne    73b0 <read_scan_integer.part.0+0x20>
    73d3:	0f 1f 44 00 00       	nopl   0x0(%rax,%rax,1)
/home/tenebris/Disk/Racing-code/examples/23-libjpeg-divide-by-zero/libjpeg-turbo-2.0.90/rdswitch.c:34
      ch = getc(file);
    73d8:	4c 89 e7             	mov    %r12,%rdi
    73db:	e8 90 b0 ff ff       	call   2470 <getc@plt>
    73e0:	89 c5                	mov    %eax,%ebp
/home/tenebris/Disk/Racing-code/examples/23-libjpeg-divide-by-zero/libjpeg-turbo-2.0.90/rdswitch.c:35
    } while (ch != '\n' && ch != EOF);
    73e2:	83 f8 0a             	cmp    $0xa,%eax
    73e5:	74 c9                	je     73b0 <read_scan_integer.part.0+0x20>
    73e7:	83 f8 ff             	cmp    $0xffffffff,%eax
    73ea:	75 ec                	jne    73d8 <read_scan_integer.part.0+0x48>
read_scan_integer():
/home/tenebris/Disk/Racing-code/examples/23-libjpeg-divide-by-zero/libjpeg-turbo-2.0.90/rdswitch.c:152
  while (ch != EOF && isspace(ch))
    73ec:	48 8b 03             	mov    (%rbx),%rax
    73ef:	83 fd ff             	cmp    $0xffffffff,%ebp
    73f2:	75 c4                	jne    73b8 <read_scan_integer.part.0+0x28>
    73f4:	0f 1f 40 00          	nopl   0x0(%rax)
/home/tenebris/Disk/Racing-code/examples/23-libjpeg-divide-by-zero/libjpeg-turbo-2.0.90/rdswitch.c:154
    ch = text_getc(file);
  if (isdigit(ch)) {            /* oops, put it back */
    73f8:	f6 40 ff 08          	testb  $0x8,-0x1(%rax)
    73fc:	75 1a                	jne    7418 <read_scan_integer.part.0+0x88>
/home/tenebris/Disk/Racing-code/examples/23-libjpeg-divide-by-zero/libjpeg-turbo-2.0.90/rdswitch.c:165
     * this allows user to insert commas, etc, if desired.
     */
    if (ch != EOF && ch != ';' && ch != ':')
      ch = ' ';
  }
  *termchar = ch;
    73fe:	41 89 6d 00          	mov    %ebp,0x0(%r13)
/home/tenebris/Disk/Racing-code/examples/23-libjpeg-divide-by-zero/libjpeg-turbo-2.0.90/rdswitch.c:166
  return TRUE;
    7402:	b8 01 00 00 00       	mov    $0x1,%eax
/home/tenebris/Disk/Racing-code/examples/23-libjpeg-divide-by-zero/libjpeg-turbo-2.0.90/rdswitch.c:167
}
    7407:	48 83 c4 08          	add    $0x8,%rsp
    740b:	5b                   	pop    %rbx
    740c:	5d                   	pop    %rbp
    740d:	41 5c                	pop    %r12
    740f:	41 5d                	pop    %r13
    7411:	c3                   	ret    
    7412:	66 0f 1f 44 00 00    	nopw   0x0(%rax,%rax,1)
/home/tenebris/Disk/Racing-code/examples/23-libjpeg-divide-by-zero/libjpeg-turbo-2.0.90/rdswitch.c:155
    if (ungetc(ch, file) == EOF)
    7418:	4c 89 e6             	mov    %r12,%rsi
    741b:	89 ef                	mov    %ebp,%edi
    741d:	e8 6e af ff ff       	call   2390 <ungetc@plt>
    7422:	41 89 c0             	mov    %eax,%r8d
/home/tenebris/Disk/Racing-code/examples/23-libjpeg-divide-by-zero/libjpeg-turbo-2.0.90/rdswitch.c:156
      return FALSE;
    7425:	31 c0                	xor    %eax,%eax
/home/tenebris/Disk/Racing-code/examples/23-libjpeg-divide-by-zero/libjpeg-turbo-2.0.90/rdswitch.c:155
    if (ungetc(ch, file) == EOF)
    7427:	41 83 f8 ff          	cmp    $0xffffffff,%r8d
    742b:	74 da                	je     7407 <read_scan_integer.part.0+0x77>
/home/tenebris/Disk/Racing-code/examples/23-libjpeg-divide-by-zero/libjpeg-turbo-2.0.90/rdswitch.c:163
      ch = ' ';
    742d:	bd 20 00 00 00       	mov    $0x20,%ebp
    7432:	eb ca                	jmp    73fe <read_scan_integer.part.0+0x6e>
    7434:	0f 1f 40 00          	nopl   0x0(%rax)
/home/tenebris/Disk/Racing-code/examples/23-libjpeg-divide-by-zero/libjpeg-turbo-2.0.90/rdswitch.c:154
  if (isdigit(ch)) {            /* oops, put it back */
    7438:	f6 c4 08             	test   $0x8,%ah
    743b:	75 db                	jne    7418 <read_scan_integer.part.0+0x88>
/home/tenebris/Disk/Racing-code/examples/23-libjpeg-divide-by-zero/libjpeg-turbo-2.0.90/rdswitch.c:162
    if (ch != EOF && ch != ';' && ch != ':')
    743d:	83 fd 3b             	cmp    $0x3b,%ebp
    7440:	74 bc                	je     73fe <read_scan_integer.part.0+0x6e>
    7442:	83 fd 3a             	cmp    $0x3a,%ebp
    7445:	75 e6                	jne    742d <read_scan_integer.part.0+0x9d>
    7447:	eb b5                	jmp    73fe <read_scan_integer.part.0+0x6e>
read_scan_integer.part.0():
/home/tenebris/Disk/Racing-code/examples/23-libjpeg-divide-by-zero/libjpeg-turbo-2.0.90/rdswitch.c:162
    7449:	0f 1f 80 00 00 00 00 	nopl   0x0(%rax)

0000000000007450 <read_quant_tables>:
read_quant_tables():
/home/tenebris/Disk/Racing-code/examples/23-libjpeg-divide-by-zero/libjpeg-turbo-2.0.90/rdswitch.c:91
{
    7450:	f3 0f 1e fa          	endbr64 
    7454:	41 57                	push   %r15
    7456:	41 56                	push   %r14
    7458:	41 55                	push   %r13
    745a:	49 89 f5             	mov    %rsi,%r13
/home/tenebris/Disk/Racing-code/examples/23-libjpeg-divide-by-zero/libjpeg-turbo-2.0.90/rdswitch.c:97
  if ((fp = fopen(filename, "r")) == NULL) {
    745d:	48 8d 35 9c 4e 00 00 	lea    0x4e9c(%rip),%rsi        # c300 <rgb_red+0x60>
/home/tenebris/Disk/Racing-code/examples/23-libjpeg-divide-by-zero/libjpeg-turbo-2.0.90/rdswitch.c:91
{
    7464:	41 54                	push   %r12
    7466:	55                   	push   %rbp
    7467:	53                   	push   %rbx
    7468:	48 81 ec 48 01 00 00 	sub    $0x148,%rsp
    746f:	48 89 7c 24 10       	mov    %rdi,0x10(%rsp)
/home/tenebris/Disk/Racing-code/examples/23-libjpeg-divide-by-zero/libjpeg-turbo-2.0.90/rdswitch.c:97
  if ((fp = fopen(filename, "r")) == NULL) {
    7474:	4c 89 ef             	mov    %r13,%rdi
/home/tenebris/Disk/Racing-code/examples/23-libjpeg-divide-by-zero/libjpeg-turbo-2.0.90/rdswitch.c:91
{
    7477:	89 54 24 1c          	mov    %edx,0x1c(%rsp)
    747b:	64 48 8b 04 25 28 00 	mov    %fs:0x28,%rax
    7482:	00 00 
    7484:	48 89 84 24 38 01 00 	mov    %rax,0x138(%rsp)
    748b:	00 
    748c:	31 c0                	xor    %eax,%eax
/home/tenebris/Disk/Racing-code/examples/23-libjpeg-divide-by-zero/libjpeg-turbo-2.0.90/rdswitch.c:97
  if ((fp = fopen(filename, "r")) == NULL) {
    748e:	e8 6d af ff ff       	call   2400 <fopen@plt>
    7493:	48 85 c0             	test   %rax,%rax
    7496:	0f 84 7c 01 00 00    	je     7618 <read_quant_tables+0x1c8>
    749c:	49 89 c7             	mov    %rax,%r15
    749f:	48 8d 6c 24 24       	lea    0x24(%rsp),%rbp
    74a4:	48 8d 5c 24 28       	lea    0x28(%rsp),%rbx
    74a9:	48 c7 44 24 08 00 00 	movq   $0x0,0x8(%rsp)
    74b0:	00 00 
    74b2:	8b 44 24 08          	mov    0x8(%rsp),%eax
/home/tenebris/Disk/Racing-code/examples/23-libjpeg-divide-by-zero/libjpeg-turbo-2.0.90/rdswitch.c:103
  while (read_text_integer(fp, &val, &termchar)) { /* read 1st element of table */
    74b6:	48 89 ea             	mov    %rbp,%rdx
    74b9:	48 89 de             	mov    %rbx,%rsi
    74bc:	4c 89 ff             	mov    %r15,%rdi
    74bf:	89 44 24 18          	mov    %eax,0x18(%rsp)
    74c3:	e8 e8 fd ff ff       	call   72b0 <read_text_integer>
    74c8:	85 c0                	test   %eax,%eax
    74ca:	0f 84 16 01 00 00    	je     75e6 <read_quant_tables+0x196>
/home/tenebris/Disk/Racing-code/examples/23-libjpeg-divide-by-zero/libjpeg-turbo-2.0.90/rdswitch.c:104
    if (tblno >= NUM_QUANT_TBLS) {
    74d0:	48 83 7c 24 08 04    	cmpq   $0x4,0x8(%rsp)
    74d6:	0f 84 a4 00 00 00    	je     7580 <read_quant_tables+0x130>
/home/tenebris/Disk/Racing-code/examples/23-libjpeg-divide-by-zero/libjpeg-turbo-2.0.90/rdswitch.c:109
    table[0] = (unsigned int)val;
    74dc:	48 8b 44 24 28       	mov    0x28(%rsp),%rax
    74e1:	4c 8d 74 24 34       	lea    0x34(%rsp),%r14
    74e6:	4c 8d a4 24 30 01 00 	lea    0x130(%rsp),%r12
    74ed:	00 
    74ee:	89 44 24 30          	mov    %eax,0x30(%rsp)
/home/tenebris/Disk/Racing-code/examples/23-libjpeg-divide-by-zero/libjpeg-turbo-2.0.90/rdswitch.c:110
    for (i = 1; i < DCTSIZE2; i++) {
    74f2:	eb 1a                	jmp    750e <read_quant_tables+0xbe>
    74f4:	0f 1f 40 00          	nopl   0x0(%rax)
/home/tenebris/Disk/Racing-code/examples/23-libjpeg-divide-by-zero/libjpeg-turbo-2.0.90/rdswitch.c:116 (discriminator 2)
      table[i] = (unsigned int)val;
    74f8:	48 8b 44 24 28       	mov    0x28(%rsp),%rax
/home/tenebris/Disk/Racing-code/examples/23-libjpeg-divide-by-zero/libjpeg-turbo-2.0.90/rdswitch.c:110 (discriminator 2)
    for (i = 1; i < DCTSIZE2; i++) {
    74fd:	49 83 c6 04          	add    $0x4,%r14
/home/tenebris/Disk/Racing-code/examples/23-libjpeg-divide-by-zero/libjpeg-turbo-2.0.90/rdswitch.c:116 (discriminator 2)
      table[i] = (unsigned int)val;
    7501:	41 89 46 fc          	mov    %eax,-0x4(%r14)
/home/tenebris/Disk/Racing-code/examples/23-libjpeg-divide-by-zero/libjpeg-turbo-2.0.90/rdswitch.c:110 (discriminator 2)
    for (i = 1; i < DCTSIZE2; i++) {
    7505:	4d 39 e6             	cmp    %r12,%r14
    7508:	0f 84 a2 00 00 00    	je     75b0 <read_quant_tables+0x160>
/home/tenebris/Disk/Racing-code/examples/23-libjpeg-divide-by-zero/libjpeg-turbo-2.0.90/rdswitch.c:111
      if (!read_text_integer(fp, &val, &termchar)) {
    750e:	48 89 ea             	mov    %rbp,%rdx
    7511:	48 89 de             	mov    %rbx,%rsi
    7514:	4c 89 ff             	mov    %r15,%rdi
    7517:	e8 94 fd ff ff       	call   72b0 <read_text_integer>
    751c:	85 c0                	test   %eax,%eax
    751e:	75 d8                	jne    74f8 <read_quant_tables+0xa8>
    7520:	89 44 24 08          	mov    %eax,0x8(%rsp)
fprintf():
/usr/include/x86_64-linux-gnu/bits/stdio2.h:105
  return __fprintf_chk (__stream, __USE_FORTIFY_LEVEL - 1, __fmt,
    7524:	4c 89 e9             	mov    %r13,%rcx
    7527:	48 8d 15 32 4e 00 00 	lea    0x4e32(%rip),%rdx        # c360 <rgb_red+0xc0>
    752e:	48 8b 3d 0b 7b 00 00 	mov    0x7b0b(%rip),%rdi        # f040 <stderr@GLIBC_2.2.5>
    7535:	be 01 00 00 00       	mov    $0x1,%esi
    753a:	31 c0                	xor    %eax,%eax
    753c:	e8 0f af ff ff       	call   2450 <__fprintf_chk@plt>
read_quant_tables():
/home/tenebris/Disk/Racing-code/examples/23-libjpeg-divide-by-zero/libjpeg-turbo-2.0.90/rdswitch.c:130
    fclose(fp);
    7541:	4c 89 ff             	mov    %r15,%rdi
    7544:	e8 67 ad ff ff       	call   22b0 <fclose@plt>
/home/tenebris/Disk/Racing-code/examples/23-libjpeg-divide-by-zero/libjpeg-turbo-2.0.90/rdswitch.c:131
    return FALSE;
    7549:	44 8b 44 24 08       	mov    0x8(%rsp),%r8d
/home/tenebris/Disk/Racing-code/examples/23-libjpeg-divide-by-zero/libjpeg-turbo-2.0.90/rdswitch.c:136
}
    754e:	48 8b 84 24 38 01 00 	mov    0x138(%rsp),%rax
    7555:	00 
    7556:	64 48 2b 04 25 28 00 	sub    %fs:0x28,%rax
    755d:	00 00 
    755f:	0f 85 ae 00 00 00    	jne    7613 <read_quant_tables+0x1c3>
    7565:	48 81 c4 48 01 00 00 	add    $0x148,%rsp
    756c:	44 89 c0             	mov    %r8d,%eax
    756f:	5b                   	pop    %rbx
    7570:	5d                   	pop    %rbp
    7571:	41 5c                	pop    %r12
    7573:	41 5d                	pop    %r13
    7575:	41 5e                	pop    %r14
    7577:	41 5f                	pop    %r15
    7579:	c3                   	ret    
    757a:	66 0f 1f 44 00 00    	nopw   0x0(%rax,%rax,1)
fprintf():
/usr/include/x86_64-linux-gnu/bits/stdio2.h:105
    7580:	48 8b 3d b9 7a 00 00 	mov    0x7ab9(%rip),%rdi        # f040 <stderr@GLIBC_2.2.5>
    7587:	4c 89 e9             	mov    %r13,%rcx
    758a:	be 01 00 00 00       	mov    $0x1,%esi
    758f:	31 c0                	xor    %eax,%eax
    7591:	48 8d 15 84 4d 00 00 	lea    0x4d84(%rip),%rdx        # c31c <rgb_red+0x7c>
    7598:	e8 b3 ae ff ff       	call   2450 <__fprintf_chk@plt>
read_quant_tables():
/home/tenebris/Disk/Racing-code/examples/23-libjpeg-divide-by-zero/libjpeg-turbo-2.0.90/rdswitch.c:106
      fclose(fp);
    759d:	4c 89 ff             	mov    %r15,%rdi
    75a0:	e8 0b ad ff ff       	call   22b0 <fclose@plt>
/home/tenebris/Disk/Racing-code/examples/23-libjpeg-divide-by-zero/libjpeg-turbo-2.0.90/rdswitch.c:107
      return FALSE;
    75a5:	45 31 c0             	xor    %r8d,%r8d
    75a8:	eb a4                	jmp    754e <read_quant_tables+0xfe>
    75aa:	66 0f 1f 44 00 00    	nopw   0x0(%rax,%rax,1)
/home/tenebris/Disk/Racing-code/examples/23-libjpeg-divide-by-zero/libjpeg-turbo-2.0.90/rdswitch.c:122
    jpeg_add_quant_table(cinfo, tblno, table, q_scale_factor[tblno],
    75b0:	4c 8b 74 24 08       	mov    0x8(%rsp),%r14
    75b5:	48 8d 05 54 7a 00 00 	lea    0x7a54(%rip),%rax        # f010 <q_scale_factor>
    75bc:	44 8b 44 24 1c       	mov    0x1c(%rsp),%r8d
    75c1:	48 8d 54 24 30       	lea    0x30(%rsp),%rdx
    75c6:	8b 74 24 18          	mov    0x18(%rsp),%esi
    75ca:	48 8b 7c 24 10       	mov    0x10(%rsp),%rdi
    75cf:	42 8b 0c b0          	mov    (%rax,%r14,4),%ecx
    75d3:	49 83 c6 01          	add    $0x1,%r14
    75d7:	e8 c4 ac ff ff       	call   22a0 <jpeg_add_quant_table@plt>
/home/tenebris/Disk/Racing-code/examples/23-libjpeg-divide-by-zero/libjpeg-turbo-2.0.90/rdswitch.c:125
    tblno++;
    75dc:	4c 89 74 24 08       	mov    %r14,0x8(%rsp)
    75e1:	e9 cc fe ff ff       	jmp    74b2 <read_quant_tables+0x62>
/home/tenebris/Disk/Racing-code/examples/23-libjpeg-divide-by-zero/libjpeg-turbo-2.0.90/rdswitch.c:128
  if (termchar != EOF) {
    75e6:	83 7c 24 24 ff       	cmpl   $0xffffffff,0x24(%rsp)
    75eb:	89 44 24 08          	mov    %eax,0x8(%rsp)
    75ef:	74 0f                	je     7600 <read_quant_tables+0x1b0>
fprintf():
/usr/include/x86_64-linux-gnu/bits/stdio2.h:105
    75f1:	4c 89 e9             	mov    %r13,%rcx
    75f4:	48 8d 15 3d 4d 00 00 	lea    0x4d3d(%rip),%rdx        # c338 <rgb_red+0x98>
    75fb:	e9 2e ff ff ff       	jmp    752e <read_quant_tables+0xde>
read_quant_tables():
/home/tenebris/Disk/Racing-code/examples/23-libjpeg-divide-by-zero/libjpeg-turbo-2.0.90/rdswitch.c:134
  fclose(fp);
    7600:	4c 89 ff             	mov    %r15,%rdi
    7603:	e8 a8 ac ff ff       	call   22b0 <fclose@plt>
/home/tenebris/Disk/Racing-code/examples/23-libjpeg-divide-by-zero/libjpeg-turbo-2.0.90/rdswitch.c:135
  return TRUE;
    7608:	41 b8 01 00 00 00    	mov    $0x1,%r8d
    760e:	e9 3b ff ff ff       	jmp    754e <read_quant_tables+0xfe>
/home/tenebris/Disk/Racing-code/examples/23-libjpeg-divide-by-zero/libjpeg-turbo-2.0.90/rdswitch.c:136
}
    7613:	e8 a8 ac ff ff       	call   22c0 <__stack_chk_fail@plt>
fprintf():
/usr/include/x86_64-linux-gnu/bits/stdio2.h:105
    7618:	48 8b 3d 21 7a 00 00 	mov    0x7a21(%rip),%rdi        # f040 <stderr@GLIBC_2.2.5>
    761f:	4c 89 e9             	mov    %r13,%rcx
    7622:	be 01 00 00 00       	mov    $0x1,%esi
    7627:	31 c0                	xor    %eax,%eax
    7629:	48 8d 15 d2 4c 00 00 	lea    0x4cd2(%rip),%rdx        # c302 <rgb_red+0x62>
    7630:	e8 1b ae ff ff       	call   2450 <__fprintf_chk@plt>
read_quant_tables():
/home/tenebris/Disk/Racing-code/examples/23-libjpeg-divide-by-zero/libjpeg-turbo-2.0.90/rdswitch.c:99
    return FALSE;
    7635:	45 31 c0             	xor    %r8d,%r8d
    7638:	e9 11 ff ff ff       	jmp    754e <read_quant_tables+0xfe>
    763d:	0f 1f 00             	nopl   (%rax)

0000000000007640 <read_scan_script>:
read_scan_script():
/home/tenebris/Disk/Racing-code/examples/23-libjpeg-divide-by-zero/libjpeg-turbo-2.0.90/rdswitch.c:187
 * as commas or dashes) can be placed between numbers if desired.
 * Comments preceded by '#' may be included in the file.
 * Note: we do very little validity checking here;
 * jcmaster.c will validate the script parameters.
 */
{
    7640:	f3 0f 1e fa          	endbr64 
    7644:	41 57                	push   %r15
    7646:	41 56                	push   %r14
    7648:	41 55                	push   %r13
    764a:	41 54                	push   %r12
    764c:	49 89 f4             	mov    %rsi,%r12
/home/tenebris/Disk/Racing-code/examples/23-libjpeg-divide-by-zero/libjpeg-turbo-2.0.90/rdswitch.c:195
  long val;
  jpeg_scan_info *scanptr;
#define MAX_SCANS  100          /* quite arbitrary limit */
  jpeg_scan_info scans[MAX_SCANS];

  if ((fp = fopen(filename, "r")) == NULL) {
    764f:	48 8d 35 aa 4c 00 00 	lea    0x4caa(%rip),%rsi        # c300 <rgb_red+0x60>
/home/tenebris/Disk/Racing-code/examples/23-libjpeg-divide-by-zero/libjpeg-turbo-2.0.90/rdswitch.c:187
{
    7656:	55                   	push   %rbp
    7657:	53                   	push   %rbx
    7658:	48 81 ec 58 0e 00 00 	sub    $0xe58,%rsp
    765f:	48 89 7c 24 10       	mov    %rdi,0x10(%rsp)
/home/tenebris/Disk/Racing-code/examples/23-libjpeg-divide-by-zero/libjpeg-turbo-2.0.90/rdswitch.c:195
  if ((fp = fopen(filename, "r")) == NULL) {
    7664:	4c 89 e7             	mov    %r12,%rdi
/home/tenebris/Disk/Racing-code/examples/23-libjpeg-divide-by-zero/libjpeg-turbo-2.0.90/rdswitch.c:187
{
    7667:	64 48 8b 04 25 28 00 	mov    %fs:0x28,%rax
    766e:	00 00 
    7670:	48 89 84 24 48 0e 00 	mov    %rax,0xe48(%rsp)
    7677:	00 
    7678:	31 c0                	xor    %eax,%eax
/home/tenebris/Disk/Racing-code/examples/23-libjpeg-divide-by-zero/libjpeg-turbo-2.0.90/rdswitch.c:195
  if ((fp = fopen(filename, "r")) == NULL) {
    767a:	e8 81 ad ff ff       	call   2400 <fopen@plt>
    767f:	48 85 c0             	test   %rax,%rax
    7682:	0f 84 ff 02 00 00    	je     7987 <read_scan_script+0x347>
    7688:	49 89 c7             	mov    %rax,%r15
/home/tenebris/Disk/Racing-code/examples/23-libjpeg-divide-by-zero/libjpeg-turbo-2.0.90/rdswitch.c:199
    fprintf(stderr, "Can't open scan definition file %s\n", filename);
    return FALSE;
  }
  scanptr = scans;
    768b:	48 8d 44 24 30       	lea    0x30(%rsp),%rax
    7690:	48 8d 5c 24 24       	lea    0x24(%rsp),%rbx
/home/tenebris/Disk/Racing-code/examples/23-libjpeg-divide-by-zero/libjpeg-turbo-2.0.90/rdswitch.c:200
  scanno = 0;
    7695:	c7 44 24 0c 00 00 00 	movl   $0x0,0xc(%rsp)
    769c:	00 
/home/tenebris/Disk/Racing-code/examples/23-libjpeg-divide-by-zero/libjpeg-turbo-2.0.90/rdswitch.c:199
  scanptr = scans;
    769d:	48 89 44 24 18       	mov    %rax,0x18(%rsp)
    76a2:	48 89 c5             	mov    %rax,%rbp
    76a5:	4c 8d 6c 24 28       	lea    0x28(%rsp),%r13
read_scan_integer():
/home/tenebris/Disk/Racing-code/examples/23-libjpeg-divide-by-zero/libjpeg-turbo-2.0.90/rdswitch.c:149
  if (!read_text_integer(file, result, termchar))
    76aa:	48 89 da             	mov    %rbx,%rdx
    76ad:	4c 89 ee             	mov    %r13,%rsi
    76b0:	4c 89 ff             	mov    %r15,%rdi
    76b3:	e8 f8 fb ff ff       	call   72b0 <read_text_integer>
    76b8:	85 c0                	test   %eax,%eax
    76ba:	0f 84 f0 00 00 00    	je     77b0 <read_scan_script+0x170>
    76c0:	48 89 de             	mov    %rbx,%rsi
    76c3:	4c 89 ff             	mov    %r15,%rdi
    76c6:	e8 c5 fc ff ff       	call   7390 <read_scan_integer.part.0>
read_scan_script():
/home/tenebris/Disk/Racing-code/examples/23-libjpeg-divide-by-zero/libjpeg-turbo-2.0.90/rdswitch.c:202

  while (read_scan_integer(fp, &val, &termchar)) {
    76cb:	85 c0                	test   %eax,%eax
    76cd:	0f 84 dd 00 00 00    	je     77b0 <read_scan_script+0x170>
/home/tenebris/Disk/Racing-code/examples/23-libjpeg-divide-by-zero/libjpeg-turbo-2.0.90/rdswitch.c:203
    if (scanno >= MAX_SCANS) {
    76d3:	83 7c 24 0c 64       	cmpl   $0x64,0xc(%rsp)
    76d8:	0f 84 87 02 00 00    	je     7965 <read_scan_script+0x325>
/home/tenebris/Disk/Racing-code/examples/23-libjpeg-divide-by-zero/libjpeg-turbo-2.0.90/rdswitch.c:208
      fprintf(stderr, "Too many scans defined in file %s\n", filename);
      fclose(fp);
      return FALSE;
    }
    scanptr->component_index[0] = (int)val;
    76de:	48 8b 44 24 28       	mov    0x28(%rsp),%rax
/home/tenebris/Disk/Racing-code/examples/23-libjpeg-divide-by-zero/libjpeg-turbo-2.0.90/rdswitch.c:210
    ncomps = 1;
    while (termchar == ' ') {
    76e3:	41 be 02 00 00 00    	mov    $0x2,%r14d
/home/tenebris/Disk/Racing-code/examples/23-libjpeg-divide-by-zero/libjpeg-turbo-2.0.90/rdswitch.c:209
    ncomps = 1;
    76e9:	ba 01 00 00 00       	mov    $0x1,%edx
/home/tenebris/Disk/Racing-code/examples/23-libjpeg-divide-by-zero/libjpeg-turbo-2.0.90/rdswitch.c:208
    scanptr->component_index[0] = (int)val;
    76ee:	89 45 04             	mov    %eax,0x4(%rbp)
/home/tenebris/Disk/Racing-code/examples/23-libjpeg-divide-by-zero/libjpeg-turbo-2.0.90/rdswitch.c:210
    while (termchar == ' ') {
    76f1:	8b 44 24 24          	mov    0x24(%rsp),%eax
    76f5:	83 f8 20             	cmp    $0x20,%eax
    76f8:	0f 85 42 01 00 00    	jne    7840 <read_scan_script+0x200>
read_scan_integer():
/home/tenebris/Disk/Racing-code/examples/23-libjpeg-divide-by-zero/libjpeg-turbo-2.0.90/rdswitch.c:149
  if (!read_text_integer(file, result, termchar))
    76fe:	48 89 da             	mov    %rbx,%rdx
    7701:	4c 89 ee             	mov    %r13,%rsi
    7704:	4c 89 ff             	mov    %r15,%rdi
    7707:	e8 a4 fb ff ff       	call   72b0 <read_text_integer>
    770c:	85 c0                	test   %eax,%eax
    770e:	0f 84 8c 00 00 00    	je     77a0 <read_scan_script+0x160>
    7714:	48 89 de             	mov    %rbx,%rsi
    7717:	4c 89 ff             	mov    %r15,%rdi
    771a:	e8 71 fc ff ff       	call   7390 <read_scan_integer.part.0>
read_scan_script():
/home/tenebris/Disk/Racing-code/examples/23-libjpeg-divide-by-zero/libjpeg-turbo-2.0.90/rdswitch.c:217
        fprintf(stderr, "Too many components in one scan in file %s\n",
                filename);
        fclose(fp);
        return FALSE;
      }
      if (!read_scan_integer(fp, &val, &termchar))
    771f:	85 c0                	test   %eax,%eax
    7721:	74 7d                	je     77a0 <read_scan_script+0x160>
/home/tenebris/Disk/Racing-code/examples/23-libjpeg-divide-by-zero/libjpeg-turbo-2.0.90/rdswitch.c:219
        goto bogus;
      scanptr->component_index[ncomps] = (int)val;
    7723:	48 8b 44 24 28       	mov    0x28(%rsp),%rax
/home/tenebris/Disk/Racing-code/examples/23-libjpeg-divide-by-zero/libjpeg-turbo-2.0.90/rdswitch.c:220
      ncomps++;
    7728:	44 89 f2             	mov    %r14d,%edx
/home/tenebris/Disk/Racing-code/examples/23-libjpeg-divide-by-zero/libjpeg-turbo-2.0.90/rdswitch.c:219
      scanptr->component_index[ncomps] = (int)val;
    772b:	42 89 44 b5 00       	mov    %eax,0x0(%rbp,%r14,4)
/home/tenebris/Disk/Racing-code/examples/23-libjpeg-divide-by-zero/libjpeg-turbo-2.0.90/rdswitch.c:210
    while (termchar == ' ') {
    7730:	8b 44 24 24          	mov    0x24(%rsp),%eax
    7734:	83 f8 20             	cmp    $0x20,%eax
    7737:	0f 85 03 01 00 00    	jne    7840 <read_scan_script+0x200>
/home/tenebris/Disk/Racing-code/examples/23-libjpeg-divide-by-zero/libjpeg-turbo-2.0.90/rdswitch.c:211
      if (ncomps >= MAX_COMPS_IN_SCAN) {
    773d:	49 83 c6 01          	add    $0x1,%r14
    7741:	49 83 fe 05          	cmp    $0x5,%r14
    7745:	75 b7                	jne    76fe <read_scan_script+0xbe>
fprintf():
/usr/include/x86_64-linux-gnu/bits/stdio2.h:105
    7747:	4c 89 e1             	mov    %r12,%rcx
    774a:	48 8d 15 7f 4c 00 00 	lea    0x4c7f(%rip),%rdx        # c3d0 <rgb_red+0x130>
    7751:	48 8b 3d e8 78 00 00 	mov    0x78e8(%rip),%rdi        # f040 <stderr@GLIBC_2.2.5>
    7758:	be 01 00 00 00       	mov    $0x1,%esi
    775d:	31 c0                	xor    %eax,%eax
    775f:	e8 ec ac ff ff       	call   2450 <__fprintf_chk@plt>
read_scan_script():
/home/tenebris/Disk/Racing-code/examples/23-libjpeg-divide-by-zero/libjpeg-turbo-2.0.90/rdswitch.c:254
    scanptr++, scanno++;
  }

  if (termchar != EOF) {
    fprintf(stderr, "Non-numeric data in file %s\n", filename);
    fclose(fp);
    7764:	4c 89 ff             	mov    %r15,%rdi
    7767:	e8 44 ab ff ff       	call   22b0 <fclose@plt>
/home/tenebris/Disk/Racing-code/examples/23-libjpeg-divide-by-zero/libjpeg-turbo-2.0.90/rdswitch.c:255
    return FALSE;
    776c:	31 c0                	xor    %eax,%eax
/home/tenebris/Disk/Racing-code/examples/23-libjpeg-divide-by-zero/libjpeg-turbo-2.0.90/rdswitch.c:273
    cinfo->num_scans = scanno;
  }

  fclose(fp);
  return TRUE;
}
    776e:	48 8b 94 24 48 0e 00 	mov    0xe48(%rsp),%rdx
    7775:	00 
    7776:	64 48 2b 14 25 28 00 	sub    %fs:0x28,%rdx
    777d:	00 00 
    777f:	0f 85 26 02 00 00    	jne    79ab <read_scan_script+0x36b>
    7785:	48 81 c4 58 0e 00 00 	add    $0xe58,%rsp
    778c:	5b                   	pop    %rbx
    778d:	5d                   	pop    %rbp
    778e:	41 5c                	pop    %r12
    7790:	41 5d                	pop    %r13
    7792:	41 5e                	pop    %r14
    7794:	41 5f                	pop    %r15
    7796:	c3                   	ret    
    7797:	66 0f 1f 84 00 00 00 	nopw   0x0(%rax,%rax,1)
    779e:	00 00 
fprintf():
/usr/include/x86_64-linux-gnu/bits/stdio2.h:105
    77a0:	4c 89 e1             	mov    %r12,%rcx
    77a3:	48 8d 15 56 4c 00 00 	lea    0x4c56(%rip),%rdx        # c400 <rgb_red+0x160>
    77aa:	eb a5                	jmp    7751 <read_scan_script+0x111>
    77ac:	0f 1f 40 00          	nopl   0x0(%rax)
read_scan_script():
/home/tenebris/Disk/Racing-code/examples/23-libjpeg-divide-by-zero/libjpeg-turbo-2.0.90/rdswitch.c:252
  if (termchar != EOF) {
    77b0:	83 7c 24 24 ff       	cmpl   $0xffffffff,0x24(%rsp)
    77b5:	0f 85 bd 01 00 00    	jne    7978 <read_scan_script+0x338>
/home/tenebris/Disk/Racing-code/examples/23-libjpeg-divide-by-zero/libjpeg-turbo-2.0.90/rdswitch.c:258
  if (scanno > 0) {
    77bb:	44 8b 74 24 0c       	mov    0xc(%rsp),%r14d
    77c0:	45 85 f6             	test   %r14d,%r14d
    77c3:	74 62                	je     7827 <read_scan_script+0x1e7>
/home/tenebris/Disk/Racing-code/examples/23-libjpeg-divide-by-zero/libjpeg-turbo-2.0.90/rdswitch.c:264
      (*cinfo->mem->alloc_small) ((j_common_ptr)cinfo, JPOOL_IMAGE,
    77c5:	48 8b 6c 24 10       	mov    0x10(%rsp),%rbp
    77ca:	49 63 c6             	movslq %r14d,%rax
    77cd:	be 01 00 00 00       	mov    $0x1,%esi
    77d2:	48 8d 1c c0          	lea    (%rax,%rax,8),%rbx
    77d6:	48 8b 45 08          	mov    0x8(%rbp),%rax
    77da:	48 c1 e3 02          	shl    $0x2,%rbx
    77de:	48 89 ef             	mov    %rbp,%rdi
    77e1:	48 89 da             	mov    %rbx,%rdx
    77e4:	ff 10                	call   *(%rax)
memcpy():
/usr/include/x86_64-linux-gnu/bits/string_fortified.h:29

__fortify_function void *
__NTH (memcpy (void *__restrict __dest, const void *__restrict __src,
	       size_t __len))
{
  return __builtin___memcpy_chk (__dest, __src, __len,
    77e6:	48 8b 54 24 30       	mov    0x30(%rsp),%rdx
    77eb:	48 8d 78 08          	lea    0x8(%rax),%rdi
    77ef:	48 89 10             	mov    %rdx,(%rax)
    77f2:	48 8b 74 24 18       	mov    0x18(%rsp),%rsi
    77f7:	89 da                	mov    %ebx,%edx
    77f9:	48 83 e7 f8          	and    $0xfffffffffffffff8,%rdi
    77fd:	48 8b 4c 16 f8       	mov    -0x8(%rsi,%rdx,1),%rcx
    7802:	48 89 4c 10 f8       	mov    %rcx,-0x8(%rax,%rdx,1)
    7807:	48 89 c2             	mov    %rax,%rdx
    780a:	48 29 fa             	sub    %rdi,%rdx
    780d:	8d 0c 13             	lea    (%rbx,%rdx,1),%ecx
    7810:	48 29 d6             	sub    %rdx,%rsi
    7813:	c1 e9 03             	shr    $0x3,%ecx
    7816:	f3 48 a5             	rep movsq %ds:(%rsi),%es:(%rdi)
read_scan_script():
/home/tenebris/Disk/Racing-code/examples/23-libjpeg-divide-by-zero/libjpeg-turbo-2.0.90/rdswitch.c:267
    cinfo->scan_info = scanptr;
    7819:	48 89 85 f8 00 00 00 	mov    %rax,0xf8(%rbp)
/home/tenebris/Disk/Racing-code/examples/23-libjpeg-divide-by-zero/libjpeg-turbo-2.0.90/rdswitch.c:268
    cinfo->num_scans = scanno;
    7820:	44 89 b5 f0 00 00 00 	mov    %r14d,0xf0(%rbp)
/home/tenebris/Disk/Racing-code/examples/23-libjpeg-divide-by-zero/libjpeg-turbo-2.0.90/rdswitch.c:271
  fclose(fp);
    7827:	4c 89 ff             	mov    %r15,%rdi
    782a:	e8 81 aa ff ff       	call   22b0 <fclose@plt>
/home/tenebris/Disk/Racing-code/examples/23-libjpeg-divide-by-zero/libjpeg-turbo-2.0.90/rdswitch.c:272
  return TRUE;
    782f:	b8 01 00 00 00       	mov    $0x1,%eax
    7834:	e9 35 ff ff ff       	jmp    776e <read_scan_script+0x12e>
    7839:	0f 1f 80 00 00 00 00 	nopl   0x0(%rax)
/home/tenebris/Disk/Racing-code/examples/23-libjpeg-divide-by-zero/libjpeg-turbo-2.0.90/rdswitch.c:222
    scanptr->comps_in_scan = ncomps;
    7840:	89 55 00             	mov    %edx,0x0(%rbp)
/home/tenebris/Disk/Racing-code/examples/23-libjpeg-divide-by-zero/libjpeg-turbo-2.0.90/rdswitch.c:223
    if (termchar == ':') {
    7843:	83 f8 3a             	cmp    $0x3a,%eax
    7846:	74 33                	je     787b <read_scan_script+0x23b>
/home/tenebris/Disk/Racing-code/examples/23-libjpeg-divide-by-zero/libjpeg-turbo-2.0.90/rdswitch.c:238
      scanptr->Ss = 0;
    7848:	48 8b 0d 31 4e 00 00 	mov    0x4e31(%rip),%rcx        # c680 <std_luminance_quant_tbl+0x100>
/home/tenebris/Disk/Racing-code/examples/23-libjpeg-divide-by-zero/libjpeg-turbo-2.0.90/rdswitch.c:240
      scanptr->Ah = 0;
    784f:	c7 45 1c 00 00 00 00 	movl   $0x0,0x1c(%rbp)
    7856:	31 d2                	xor    %edx,%edx
/home/tenebris/Disk/Racing-code/examples/23-libjpeg-divide-by-zero/libjpeg-turbo-2.0.90/rdswitch.c:238
      scanptr->Ss = 0;
    7858:	48 89 4d 14          	mov    %rcx,0x14(%rbp)
/home/tenebris/Disk/Racing-code/examples/23-libjpeg-divide-by-zero/libjpeg-turbo-2.0.90/rdswitch.c:235
      scanptr->Al = (int)val;
    785c:	89 55 20             	mov    %edx,0x20(%rbp)
/home/tenebris/Disk/Racing-code/examples/23-libjpeg-divide-by-zero/libjpeg-turbo-2.0.90/rdswitch.c:243
    if (termchar != ';' && termchar != EOF) {
    785f:	83 f8 3b             	cmp    $0x3b,%eax
    7862:	74 09                	je     786d <read_scan_script+0x22d>
    7864:	83 f8 ff             	cmp    $0xffffffff,%eax
    7867:	0f 85 33 ff ff ff    	jne    77a0 <read_scan_script+0x160>
/home/tenebris/Disk/Racing-code/examples/23-libjpeg-divide-by-zero/libjpeg-turbo-2.0.90/rdswitch.c:249
    scanptr++, scanno++;
    786d:	83 44 24 0c 01       	addl   $0x1,0xc(%rsp)
    7872:	48 83 c5 24          	add    $0x24,%rbp
    7876:	e9 2f fe ff ff       	jmp    76aa <read_scan_script+0x6a>
read_scan_integer():
/home/tenebris/Disk/Racing-code/examples/23-libjpeg-divide-by-zero/libjpeg-turbo-2.0.90/rdswitch.c:149
  if (!read_text_integer(file, result, termchar))
    787b:	48 89 da             	mov    %rbx,%rdx
    787e:	4c 89 ee             	mov    %r13,%rsi
    7881:	4c 89 ff             	mov    %r15,%rdi
    7884:	e8 27 fa ff ff       	call   72b0 <read_text_integer>
    7889:	85 c0                	test   %eax,%eax
    788b:	0f 84 0f ff ff ff    	je     77a0 <read_scan_script+0x160>
    7891:	48 89 de             	mov    %rbx,%rsi
    7894:	4c 89 ff             	mov    %r15,%rdi
    7897:	e8 f4 fa ff ff       	call   7390 <read_scan_integer.part.0>
read_scan_script():
/home/tenebris/Disk/Racing-code/examples/23-libjpeg-divide-by-zero/libjpeg-turbo-2.0.90/rdswitch.c:224
      if (!read_scan_integer(fp, &val, &termchar) || termchar != ' ')
    789c:	85 c0                	test   %eax,%eax
    789e:	0f 84 fc fe ff ff    	je     77a0 <read_scan_script+0x160>
/home/tenebris/Disk/Racing-code/examples/23-libjpeg-divide-by-zero/libjpeg-turbo-2.0.90/rdswitch.c:224 (discriminator 1)
    78a4:	83 7c 24 24 20       	cmpl   $0x20,0x24(%rsp)
    78a9:	0f 85 f1 fe ff ff    	jne    77a0 <read_scan_script+0x160>
/home/tenebris/Disk/Racing-code/examples/23-libjpeg-divide-by-zero/libjpeg-turbo-2.0.90/rdswitch.c:226
      scanptr->Ss = (int)val;
    78af:	48 8b 44 24 28       	mov    0x28(%rsp),%rax
read_scan_integer():
/home/tenebris/Disk/Racing-code/examples/23-libjpeg-divide-by-zero/libjpeg-turbo-2.0.90/rdswitch.c:149
  if (!read_text_integer(file, result, termchar))
    78b4:	48 89 da             	mov    %rbx,%rdx
    78b7:	4c 89 ee             	mov    %r13,%rsi
    78ba:	4c 89 ff             	mov    %r15,%rdi
read_scan_script():
/home/tenebris/Disk/Racing-code/examples/23-libjpeg-divide-by-zero/libjpeg-turbo-2.0.90/rdswitch.c:226
      scanptr->Ss = (int)val;
    78bd:	89 45 14             	mov    %eax,0x14(%rbp)
read_scan_integer():
/home/tenebris/Disk/Racing-code/examples/23-libjpeg-divide-by-zero/libjpeg-turbo-2.0.90/rdswitch.c:149
  if (!read_text_integer(file, result, termchar))
    78c0:	e8 eb f9 ff ff       	call   72b0 <read_text_integer>
    78c5:	85 c0                	test   %eax,%eax
    78c7:	0f 84 d3 fe ff ff    	je     77a0 <read_scan_script+0x160>
    78cd:	48 89 de             	mov    %rbx,%rsi
    78d0:	4c 89 ff             	mov    %r15,%rdi
    78d3:	e8 b8 fa ff ff       	call   7390 <read_scan_integer.part.0>
read_scan_script():
/home/tenebris/Disk/Racing-code/examples/23-libjpeg-divide-by-zero/libjpeg-turbo-2.0.90/rdswitch.c:227
      if (!read_scan_integer(fp, &val, &termchar) || termchar != ' ')
    78d8:	85 c0                	test   %eax,%eax
    78da:	0f 84 c0 fe ff ff    	je     77a0 <read_scan_script+0x160>
/home/tenebris/Disk/Racing-code/examples/23-libjpeg-divide-by-zero/libjpeg-turbo-2.0.90/rdswitch.c:227 (discriminator 1)
    78e0:	83 7c 24 24 20       	cmpl   $0x20,0x24(%rsp)
    78e5:	0f 85 b5 fe ff ff    	jne    77a0 <read_scan_script+0x160>
/home/tenebris/Disk/Racing-code/examples/23-libjpeg-divide-by-zero/libjpeg-turbo-2.0.90/rdswitch.c:229
      scanptr->Se = (int)val;
    78eb:	48 8b 44 24 28       	mov    0x28(%rsp),%rax
read_scan_integer():
/home/tenebris/Disk/Racing-code/examples/23-libjpeg-divide-by-zero/libjpeg-turbo-2.0.90/rdswitch.c:149
  if (!read_text_integer(file, result, termchar))
    78f0:	48 89 da             	mov    %rbx,%rdx
    78f3:	4c 89 ee             	mov    %r13,%rsi
    78f6:	4c 89 ff             	mov    %r15,%rdi
read_scan_script():
/home/tenebris/Disk/Racing-code/examples/23-libjpeg-divide-by-zero/libjpeg-turbo-2.0.90/rdswitch.c:229
      scanptr->Se = (int)val;
    78f9:	89 45 18             	mov    %eax,0x18(%rbp)
read_scan_integer():
/home/tenebris/Disk/Racing-code/examples/23-libjpeg-divide-by-zero/libjpeg-turbo-2.0.90/rdswitch.c:149
  if (!read_text_integer(file, result, termchar))
    78fc:	e8 af f9 ff ff       	call   72b0 <read_text_integer>
    7901:	85 c0                	test   %eax,%eax
    7903:	0f 84 97 fe ff ff    	je     77a0 <read_scan_script+0x160>
    7909:	48 89 de             	mov    %rbx,%rsi
    790c:	4c 89 ff             	mov    %r15,%rdi
    790f:	e8 7c fa ff ff       	call   7390 <read_scan_integer.part.0>
read_scan_script():
/home/tenebris/Disk/Racing-code/examples/23-libjpeg-divide-by-zero/libjpeg-turbo-2.0.90/rdswitch.c:230
      if (!read_scan_integer(fp, &val, &termchar) || termchar != ' ')
    7914:	85 c0                	test   %eax,%eax
    7916:	0f 84 84 fe ff ff    	je     77a0 <read_scan_script+0x160>
/home/tenebris/Disk/Racing-code/examples/23-libjpeg-divide-by-zero/libjpeg-turbo-2.0.90/rdswitch.c:230 (discriminator 1)
    791c:	83 7c 24 24 20       	cmpl   $0x20,0x24(%rsp)
    7921:	0f 85 79 fe ff ff    	jne    77a0 <read_scan_script+0x160>
/home/tenebris/Disk/Racing-code/examples/23-libjpeg-divide-by-zero/libjpeg-turbo-2.0.90/rdswitch.c:232
      scanptr->Ah = (int)val;
    7927:	48 8b 44 24 28       	mov    0x28(%rsp),%rax
read_scan_integer():
/home/tenebris/Disk/Racing-code/examples/23-libjpeg-divide-by-zero/libjpeg-turbo-2.0.90/rdswitch.c:149
  if (!read_text_integer(file, result, termchar))
    792c:	48 89 da             	mov    %rbx,%rdx
    792f:	4c 89 ee             	mov    %r13,%rsi
    7932:	4c 89 ff             	mov    %r15,%rdi
read_scan_script():
/home/tenebris/Disk/Racing-code/examples/23-libjpeg-divide-by-zero/libjpeg-turbo-2.0.90/rdswitch.c:232
      scanptr->Ah = (int)val;
    7935:	89 45 1c             	mov    %eax,0x1c(%rbp)
read_scan_integer():
/home/tenebris/Disk/Racing-code/examples/23-libjpeg-divide-by-zero/libjpeg-turbo-2.0.90/rdswitch.c:149
  if (!read_text_integer(file, result, termchar))
    7938:	e8 73 f9 ff ff       	call   72b0 <read_text_integer>
    793d:	85 c0                	test   %eax,%eax
    793f:	0f 84 5b fe ff ff    	je     77a0 <read_scan_script+0x160>
    7945:	48 89 de             	mov    %rbx,%rsi
    7948:	4c 89 ff             	mov    %r15,%rdi
    794b:	e8 40 fa ff ff       	call   7390 <read_scan_integer.part.0>
read_scan_script():
/home/tenebris/Disk/Racing-code/examples/23-libjpeg-divide-by-zero/libjpeg-turbo-2.0.90/rdswitch.c:233
      if (!read_scan_integer(fp, &val, &termchar))
    7950:	85 c0                	test   %eax,%eax
    7952:	0f 84 48 fe ff ff    	je     77a0 <read_scan_script+0x160>
/home/tenebris/Disk/Racing-code/examples/23-libjpeg-divide-by-zero/libjpeg-turbo-2.0.90/rdswitch.c:235
      scanptr->Al = (int)val;
    7958:	8b 54 24 28          	mov    0x28(%rsp),%edx
    795c:	8b 44 24 24          	mov    0x24(%rsp),%eax
    7960:	e9 f7 fe ff ff       	jmp    785c <read_scan_script+0x21c>
fprintf():
/usr/include/x86_64-linux-gnu/bits/stdio2.h:105
    7965:	4c 89 e1             	mov    %r12,%rcx
    7968:	48 8d 15 39 4a 00 00 	lea    0x4a39(%rip),%rdx        # c3a8 <rgb_red+0x108>
    796f:	e9 dd fd ff ff       	jmp    7751 <read_scan_script+0x111>
    7974:	0f 1f 40 00          	nopl   0x0(%rax)
    7978:	4c 89 e1             	mov    %r12,%rcx
    797b:	48 8d 15 b6 49 00 00 	lea    0x49b6(%rip),%rdx        # c338 <rgb_red+0x98>
    7982:	e9 ca fd ff ff       	jmp    7751 <read_scan_script+0x111>
    7987:	48 8b 3d b2 76 00 00 	mov    0x76b2(%rip),%rdi        # f040 <stderr@GLIBC_2.2.5>
    798e:	4c 89 e1             	mov    %r12,%rcx
    7991:	be 01 00 00 00       	mov    $0x1,%esi
    7996:	31 c0                	xor    %eax,%eax
    7998:	48 8d 15 e1 49 00 00 	lea    0x49e1(%rip),%rdx        # c380 <rgb_red+0xe0>
    799f:	e8 ac aa ff ff       	call   2450 <__fprintf_chk@plt>
read_scan_script():
/home/tenebris/Disk/Racing-code/examples/23-libjpeg-divide-by-zero/libjpeg-turbo-2.0.90/rdswitch.c:197
    return FALSE;
    79a4:	31 c0                	xor    %eax,%eax
    79a6:	e9 c3 fd ff ff       	jmp    776e <read_scan_script+0x12e>
/home/tenebris/Disk/Racing-code/examples/23-libjpeg-divide-by-zero/libjpeg-turbo-2.0.90/rdswitch.c:273
}
    79ab:	e8 10 a9 ff ff       	call   22c0 <__stack_chk_fail@plt>

00000000000079b0 <set_quality_ratings>:
set_quality_ratings():
/home/tenebris/Disk/Racing-code/examples/23-libjpeg-divide-by-zero/libjpeg-turbo-2.0.90/rdswitch.c:323
set_quality_ratings(j_compress_ptr cinfo, char *arg, boolean force_baseline)
/* Process a quality-ratings parameter string, of the form
 *     N[,N,...]
 * If there are more q-table slots than parameters, the last value is replicated.
 */
{
    79b0:	f3 0f 1e fa          	endbr64 
    79b4:	41 57                	push   %r15
    79b6:	4c 8d 3d 53 76 00 00 	lea    0x7653(%rip),%r15        # f010 <q_scale_factor>
    79bd:	41 56                	push   %r14
/home/tenebris/Disk/Racing-code/examples/23-libjpeg-divide-by-zero/libjpeg-turbo-2.0.90/rdswitch.c:331
  char ch;

  for (tblno = 0; tblno < NUM_QUANT_TBLS; tblno++) {
    if (*arg) {
      ch = ',';                 /* if not set by sscanf, will be ',' */
      if (sscanf(arg, "%d%c", &val, &ch) < 1)
    79bf:	4c 8d 35 93 49 00 00 	lea    0x4993(%rip),%r14        # c359 <rgb_red+0xb9>
/home/tenebris/Disk/Racing-code/examples/23-libjpeg-divide-by-zero/libjpeg-turbo-2.0.90/rdswitch.c:323
{
    79c6:	41 55                	push   %r13
    79c8:	4d 8d 6f 10          	lea    0x10(%r15),%r13
    79cc:	41 54                	push   %r12
    79ce:	41 89 d4             	mov    %edx,%r12d
    79d1:	55                   	push   %rbp
    79d2:	48 89 fd             	mov    %rdi,%rbp
    79d5:	53                   	push   %rbx
    79d6:	48 89 f3             	mov    %rsi,%rbx
    79d9:	48 83 ec 18          	sub    $0x18,%rsp
    79dd:	64 48 8b 04 25 28 00 	mov    %fs:0x28,%rax
    79e4:	00 00 
    79e6:	48 89 44 24 08       	mov    %rax,0x8(%rsp)
    79eb:	31 c0                	xor    %eax,%eax
/home/tenebris/Disk/Racing-code/examples/23-libjpeg-divide-by-zero/libjpeg-turbo-2.0.90/rdswitch.c:324
  int val = 75;                 /* default value */
    79ed:	c7 44 24 04 4b 00 00 	movl   $0x4b,0x4(%rsp)
    79f4:	00 
/home/tenebris/Disk/Racing-code/examples/23-libjpeg-divide-by-zero/libjpeg-turbo-2.0.90/rdswitch.c:329
    if (*arg) {
    79f5:	80 3b 00             	cmpb   $0x0,(%rbx)
    79f8:	75 76                	jne    7a70 <set_quality_ratings+0xc0>
/home/tenebris/Disk/Racing-code/examples/23-libjpeg-divide-by-zero/libjpeg-turbo-2.0.90/rdswitch.c:348
    } else {
      /* reached end of parameter, set remaining factors to last value */
#if JPEG_LIB_VERSION >= 70
      cinfo->q_scale_factor[tblno] = jpeg_quality_scaling(val);
#else
      q_scale_factor[tblno] = jpeg_quality_scaling(val);
    79fa:	8b 7c 24 04          	mov    0x4(%rsp),%edi
    79fe:	e8 3d a9 ff ff       	call   2340 <jpeg_quality_scaling@plt>
    7a03:	41 89 07             	mov    %eax,(%r15)
/home/tenebris/Disk/Racing-code/examples/23-libjpeg-divide-by-zero/libjpeg-turbo-2.0.90/rdswitch.c:328 (discriminator 2)
  for (tblno = 0; tblno < NUM_QUANT_TBLS; tblno++) {
    7a06:	49 83 c7 04          	add    $0x4,%r15
    7a0a:	4d 39 fd             	cmp    %r15,%r13
    7a0d:	75 e6                	jne    79f5 <set_quality_ratings+0x45>
jpeg_default_qtables():
/home/tenebris/Disk/Racing-code/examples/23-libjpeg-divide-by-zero/libjpeg-turbo-2.0.90/rdswitch.c:309
  jpeg_add_quant_table(cinfo, 0, std_luminance_quant_tbl, q_scale_factor[0],
    7a0f:	8b 0d fb 75 00 00    	mov    0x75fb(%rip),%ecx        # f010 <q_scale_factor>
    7a15:	45 89 e0             	mov    %r12d,%r8d
    7a18:	31 f6                	xor    %esi,%esi
    7a1a:	48 89 ef             	mov    %rbp,%rdi
    7a1d:	48 8d 15 5c 4b 00 00 	lea    0x4b5c(%rip),%rdx        # c580 <std_luminance_quant_tbl>
    7a24:	e8 77 a8 ff ff       	call   22a0 <jpeg_add_quant_table@plt>
/home/tenebris/Disk/Racing-code/examples/23-libjpeg-divide-by-zero/libjpeg-turbo-2.0.90/rdswitch.c:311
  jpeg_add_quant_table(cinfo, 1, std_chrominance_quant_tbl, q_scale_factor[1],
    7a29:	45 89 e0             	mov    %r12d,%r8d
    7a2c:	be 01 00 00 00       	mov    $0x1,%esi
    7a31:	48 89 ef             	mov    %rbp,%rdi
    7a34:	8b 0d da 75 00 00    	mov    0x75da(%rip),%ecx        # f014 <q_scale_factor+0x4>
    7a3a:	48 8d 15 3f 4a 00 00 	lea    0x4a3f(%rip),%rdx        # c480 <std_chrominance_quant_tbl>
    7a41:	e8 5a a8 ff ff       	call   22a0 <jpeg_add_quant_table@plt>
set_quality_ratings():
/home/tenebris/Disk/Racing-code/examples/23-libjpeg-divide-by-zero/libjpeg-turbo-2.0.90/rdswitch.c:353
#endif
    }
  }
  jpeg_default_qtables(cinfo, force_baseline);
  return TRUE;
    7a46:	b8 01 00 00 00       	mov    $0x1,%eax
/home/tenebris/Disk/Racing-code/examples/23-libjpeg-divide-by-zero/libjpeg-turbo-2.0.90/rdswitch.c:354
}
    7a4b:	48 8b 54 24 08       	mov    0x8(%rsp),%rdx
    7a50:	64 48 2b 14 25 28 00 	sub    %fs:0x28,%rdx
    7a57:	00 00 
    7a59:	75 69                	jne    7ac4 <set_quality_ratings+0x114>
    7a5b:	48 83 c4 18          	add    $0x18,%rsp
    7a5f:	5b                   	pop    %rbx
    7a60:	5d                   	pop    %rbp
    7a61:	41 5c                	pop    %r12
    7a63:	41 5d                	pop    %r13
    7a65:	41 5e                	pop    %r14
    7a67:	41 5f                	pop    %r15
    7a69:	c3                   	ret    
    7a6a:	66 0f 1f 44 00 00    	nopw   0x0(%rax,%rax,1)
/home/tenebris/Disk/Racing-code/examples/23-libjpeg-divide-by-zero/libjpeg-turbo-2.0.90/rdswitch.c:331
      if (sscanf(arg, "%d%c", &val, &ch) < 1)
    7a70:	31 c0                	xor    %eax,%eax
    7a72:	48 8d 4c 24 03       	lea    0x3(%rsp),%rcx
    7a77:	48 8d 54 24 04       	lea    0x4(%rsp),%rdx
    7a7c:	4c 89 f6             	mov    %r14,%rsi
    7a7f:	48 89 df             	mov    %rbx,%rdi
/home/tenebris/Disk/Racing-code/examples/23-libjpeg-divide-by-zero/libjpeg-turbo-2.0.90/rdswitch.c:330
      ch = ',';                 /* if not set by sscanf, will be ',' */
    7a82:	c6 44 24 03 2c       	movb   $0x2c,0x3(%rsp)
/home/tenebris/Disk/Racing-code/examples/23-libjpeg-divide-by-zero/libjpeg-turbo-2.0.90/rdswitch.c:331
      if (sscanf(arg, "%d%c", &val, &ch) < 1)
    7a87:	e8 e4 a8 ff ff       	call   2370 <__isoc99_sscanf@plt>
    7a8c:	85 c0                	test   %eax,%eax
    7a8e:	7e 30                	jle    7ac0 <set_quality_ratings+0x110>
/home/tenebris/Disk/Racing-code/examples/23-libjpeg-divide-by-zero/libjpeg-turbo-2.0.90/rdswitch.c:333
      if (ch != ',')            /* syntax check */
    7a90:	80 7c 24 03 2c       	cmpb   $0x2c,0x3(%rsp)
    7a95:	75 29                	jne    7ac0 <set_quality_ratings+0x110>
/home/tenebris/Disk/Racing-code/examples/23-libjpeg-divide-by-zero/libjpeg-turbo-2.0.90/rdswitch.c:339
      q_scale_factor[tblno] = jpeg_quality_scaling(val);
    7a97:	8b 7c 24 04          	mov    0x4(%rsp),%edi
    7a9b:	e8 a0 a8 ff ff       	call   2340 <jpeg_quality_scaling@plt>
    7aa0:	41 89 07             	mov    %eax,(%r15)
/home/tenebris/Disk/Racing-code/examples/23-libjpeg-divide-by-zero/libjpeg-turbo-2.0.90/rdswitch.c:341
      while (*arg && *arg++ != ','); /* advance to next segment of arg
    7aa3:	eb 0f                	jmp    7ab4 <set_quality_ratings+0x104>
    7aa5:	0f 1f 00             	nopl   (%rax)
/home/tenebris/Disk/Racing-code/examples/23-libjpeg-divide-by-zero/libjpeg-turbo-2.0.90/rdswitch.c:341 (discriminator 1)
    7aa8:	48 83 c3 01          	add    $0x1,%rbx
    7aac:	3c 2c                	cmp    $0x2c,%al
    7aae:	0f 84 52 ff ff ff    	je     7a06 <set_quality_ratings+0x56>
/home/tenebris/Disk/Racing-code/examples/23-libjpeg-divide-by-zero/libjpeg-turbo-2.0.90/rdswitch.c:341 (discriminator 2)
    7ab4:	0f b6 03             	movzbl (%rbx),%eax
    7ab7:	84 c0                	test   %al,%al
    7ab9:	75 ed                	jne    7aa8 <set_quality_ratings+0xf8>
    7abb:	e9 46 ff ff ff       	jmp    7a06 <set_quality_ratings+0x56>
/home/tenebris/Disk/Racing-code/examples/23-libjpeg-divide-by-zero/libjpeg-turbo-2.0.90/rdswitch.c:332
        return FALSE;
    7ac0:	31 c0                	xor    %eax,%eax
    7ac2:	eb 87                	jmp    7a4b <set_quality_ratings+0x9b>
/home/tenebris/Disk/Racing-code/examples/23-libjpeg-divide-by-zero/libjpeg-turbo-2.0.90/rdswitch.c:354
}
    7ac4:	e8 f7 a7 ff ff       	call   22c0 <__stack_chk_fail@plt>
    7ac9:	0f 1f 80 00 00 00 00 	nopl   0x0(%rax)

0000000000007ad0 <set_quant_slots>:
set_quant_slots():
/home/tenebris/Disk/Racing-code/examples/23-libjpeg-divide-by-zero/libjpeg-turbo-2.0.90/rdswitch.c:363
set_quant_slots(j_compress_ptr cinfo, char *arg)
/* Process a quantization-table-selectors parameter string, of the form
 *     N[,N,...]
 * If there are more components than parameters, the last value is replicated.
 */
{
    7ad0:	f3 0f 1e fa          	endbr64 
    7ad4:	41 55                	push   %r13
/home/tenebris/Disk/Racing-code/examples/23-libjpeg-divide-by-zero/libjpeg-turbo-2.0.90/rdswitch.c:371
  char ch;

  for (ci = 0; ci < MAX_COMPONENTS; ci++) {
    if (*arg) {
      ch = ',';                 /* if not set by sscanf, will be ',' */
      if (sscanf(arg, "%d%c", &val, &ch) < 1)
    7ad6:	4c 8d 2d 7c 48 00 00 	lea    0x487c(%rip),%r13        # c359 <rgb_red+0xb9>
/home/tenebris/Disk/Racing-code/examples/23-libjpeg-divide-by-zero/libjpeg-turbo-2.0.90/rdswitch.c:363
{
    7add:	41 54                	push   %r12
    7adf:	49 89 fc             	mov    %rdi,%r12
    7ae2:	55                   	push   %rbp
/home/tenebris/Disk/Racing-code/examples/23-libjpeg-divide-by-zero/libjpeg-turbo-2.0.90/rdswitch.c:364
  int val = 0;                  /* default table # */
    7ae3:	31 ed                	xor    %ebp,%ebp
/home/tenebris/Disk/Racing-code/examples/23-libjpeg-divide-by-zero/libjpeg-turbo-2.0.90/rdswitch.c:363
{
    7ae5:	53                   	push   %rbx
    7ae6:	48 89 f3             	mov    %rsi,%rbx
    7ae9:	48 83 ec 18          	sub    $0x18,%rsp
    7aed:	64 48 8b 04 25 28 00 	mov    %fs:0x28,%rax
    7af4:	00 00 
    7af6:	48 89 44 24 08       	mov    %rax,0x8(%rsp)
    7afb:	31 c0                	xor    %eax,%eax
/home/tenebris/Disk/Racing-code/examples/23-libjpeg-divide-by-zero/libjpeg-turbo-2.0.90/rdswitch.c:364
  int val = 0;                  /* default table # */
    7afd:	c7 44 24 04 00 00 00 	movl   $0x0,0x4(%rsp)
    7b04:	00 
/home/tenebris/Disk/Racing-code/examples/23-libjpeg-divide-by-zero/libjpeg-turbo-2.0.90/rdswitch.c:368
  for (ci = 0; ci < MAX_COMPONENTS; ci++) {
    7b05:	eb 23                	jmp    7b2a <set_quant_slots+0x5a>
    7b07:	66 0f 1f 84 00 00 00 	nopw   0x0(%rax,%rax,1)
    7b0e:	00 00 
/home/tenebris/Disk/Racing-code/examples/23-libjpeg-divide-by-zero/libjpeg-turbo-2.0.90/rdswitch.c:385
      cinfo->comp_info[ci].quant_tbl_no = val;
      while (*arg && *arg++ != ','); /* advance to next segment of arg
                                        string */
    } else {
      /* reached end of parameter, set remaining components to last table */
      cinfo->comp_info[ci].quant_tbl_no = val;
    7b10:	49 8b 44 24 58       	mov    0x58(%r12),%rax
    7b15:	8b 54 24 04          	mov    0x4(%rsp),%edx
    7b19:	89 54 28 10          	mov    %edx,0x10(%rax,%rbp,1)
/home/tenebris/Disk/Racing-code/examples/23-libjpeg-divide-by-zero/libjpeg-turbo-2.0.90/rdswitch.c:368 (discriminator 2)
  for (ci = 0; ci < MAX_COMPONENTS; ci++) {
    7b1d:	48 83 c5 60          	add    $0x60,%rbp
    7b21:	48 81 fd c0 03 00 00 	cmp    $0x3c0,%rbp
    7b28:	74 66                	je     7b90 <set_quant_slots+0xc0>
/home/tenebris/Disk/Racing-code/examples/23-libjpeg-divide-by-zero/libjpeg-turbo-2.0.90/rdswitch.c:369
    if (*arg) {
    7b2a:	80 3b 00             	cmpb   $0x0,(%rbx)
    7b2d:	74 e1                	je     7b10 <set_quant_slots+0x40>
/home/tenebris/Disk/Racing-code/examples/23-libjpeg-divide-by-zero/libjpeg-turbo-2.0.90/rdswitch.c:371
      if (sscanf(arg, "%d%c", &val, &ch) < 1)
    7b2f:	31 c0                	xor    %eax,%eax
    7b31:	48 8d 4c 24 03       	lea    0x3(%rsp),%rcx
    7b36:	48 8d 54 24 04       	lea    0x4(%rsp),%rdx
    7b3b:	4c 89 ee             	mov    %r13,%rsi
    7b3e:	48 89 df             	mov    %rbx,%rdi
/home/tenebris/Disk/Racing-code/examples/23-libjpeg-divide-by-zero/libjpeg-turbo-2.0.90/rdswitch.c:370
      ch = ',';                 /* if not set by sscanf, will be ',' */
    7b41:	c6 44 24 03 2c       	movb   $0x2c,0x3(%rsp)
/home/tenebris/Disk/Racing-code/examples/23-libjpeg-divide-by-zero/libjpeg-turbo-2.0.90/rdswitch.c:371
      if (sscanf(arg, "%d%c", &val, &ch) < 1)
    7b46:	e8 25 a8 ff ff       	call   2370 <__isoc99_sscanf@plt>
    7b4b:	85 c0                	test   %eax,%eax
    7b4d:	7e 61                	jle    7bb0 <set_quant_slots+0xe0>
/home/tenebris/Disk/Racing-code/examples/23-libjpeg-divide-by-zero/libjpeg-turbo-2.0.90/rdswitch.c:373
      if (ch != ',')            /* syntax check */
    7b4f:	80 7c 24 03 2c       	cmpb   $0x2c,0x3(%rsp)
    7b54:	75 5a                	jne    7bb0 <set_quant_slots+0xe0>
/home/tenebris/Disk/Racing-code/examples/23-libjpeg-divide-by-zero/libjpeg-turbo-2.0.90/rdswitch.c:375
      if (val < 0 || val >= NUM_QUANT_TBLS) {
    7b56:	8b 44 24 04          	mov    0x4(%rsp),%eax
    7b5a:	83 f8 03             	cmp    $0x3,%eax
    7b5d:	77 55                	ja     7bb4 <set_quant_slots+0xe4>
/home/tenebris/Disk/Racing-code/examples/23-libjpeg-divide-by-zero/libjpeg-turbo-2.0.90/rdswitch.c:380
      cinfo->comp_info[ci].quant_tbl_no = val;
    7b5f:	49 8b 54 24 58       	mov    0x58(%r12),%rdx
    7b64:	89 44 2a 10          	mov    %eax,0x10(%rdx,%rbp,1)
/home/tenebris/Disk/Racing-code/examples/23-libjpeg-divide-by-zero/libjpeg-turbo-2.0.90/rdswitch.c:381
      while (*arg && *arg++ != ','); /* advance to next segment of arg
    7b68:	eb 0e                	jmp    7b78 <set_quant_slots+0xa8>
    7b6a:	66 0f 1f 44 00 00    	nopw   0x0(%rax,%rax,1)
/home/tenebris/Disk/Racing-code/examples/23-libjpeg-divide-by-zero/libjpeg-turbo-2.0.90/rdswitch.c:381 (discriminator 1)
    7b70:	48 83 c3 01          	add    $0x1,%rbx
    7b74:	3c 2c                	cmp    $0x2c,%al
    7b76:	74 a5                	je     7b1d <set_quant_slots+0x4d>
/home/tenebris/Disk/Racing-code/examples/23-libjpeg-divide-by-zero/libjpeg-turbo-2.0.90/rdswitch.c:381 (discriminator 2)
    7b78:	0f b6 03             	movzbl (%rbx),%eax
    7b7b:	84 c0                	test   %al,%al
    7b7d:	75 f1                	jne    7b70 <set_quant_slots+0xa0>
/home/tenebris/Disk/Racing-code/examples/23-libjpeg-divide-by-zero/libjpeg-turbo-2.0.90/rdswitch.c:368
  for (ci = 0; ci < MAX_COMPONENTS; ci++) {
    7b7f:	48 83 c5 60          	add    $0x60,%rbp
    7b83:	48 81 fd c0 03 00 00 	cmp    $0x3c0,%rbp
    7b8a:	75 9e                	jne    7b2a <set_quant_slots+0x5a>
    7b8c:	0f 1f 40 00          	nopl   0x0(%rax)
/home/tenebris/Disk/Racing-code/examples/23-libjpeg-divide-by-zero/libjpeg-turbo-2.0.90/rdswitch.c:388
    }
  }
  return TRUE;
    7b90:	b8 01 00 00 00       	mov    $0x1,%eax
/home/tenebris/Disk/Racing-code/examples/23-libjpeg-divide-by-zero/libjpeg-turbo-2.0.90/rdswitch.c:389
}
    7b95:	48 8b 54 24 08       	mov    0x8(%rsp),%rdx
    7b9a:	64 48 2b 14 25 28 00 	sub    %fs:0x28,%rdx
    7ba1:	00 00 
    7ba3:	75 32                	jne    7bd7 <set_quant_slots+0x107>
    7ba5:	48 83 c4 18          	add    $0x18,%rsp
    7ba9:	5b                   	pop    %rbx
    7baa:	5d                   	pop    %rbp
    7bab:	41 5c                	pop    %r12
    7bad:	41 5d                	pop    %r13
    7baf:	c3                   	ret    
/home/tenebris/Disk/Racing-code/examples/23-libjpeg-divide-by-zero/libjpeg-turbo-2.0.90/rdswitch.c:372
        return FALSE;
    7bb0:	31 c0                	xor    %eax,%eax
    7bb2:	eb e1                	jmp    7b95 <set_quant_slots+0xc5>
fprintf():
/usr/include/x86_64-linux-gnu/bits/stdio2.h:105
    7bb4:	48 8b 3d 85 74 00 00 	mov    0x7485(%rip),%rdi        # f040 <stderr@GLIBC_2.2.5>
    7bbb:	b9 03 00 00 00       	mov    $0x3,%ecx
    7bc0:	48 8d 15 61 48 00 00 	lea    0x4861(%rip),%rdx        # c428 <rgb_red+0x188>
    7bc7:	31 c0                	xor    %eax,%eax
    7bc9:	be 01 00 00 00       	mov    $0x1,%esi
    7bce:	e8 7d a8 ff ff       	call   2450 <__fprintf_chk@plt>
set_quant_slots():
/home/tenebris/Disk/Racing-code/examples/23-libjpeg-divide-by-zero/libjpeg-turbo-2.0.90/rdswitch.c:378
        return FALSE;
    7bd3:	31 c0                	xor    %eax,%eax
    7bd5:	eb be                	jmp    7b95 <set_quant_slots+0xc5>
/home/tenebris/Disk/Racing-code/examples/23-libjpeg-divide-by-zero/libjpeg-turbo-2.0.90/rdswitch.c:389
}
    7bd7:	e8 e4 a6 ff ff       	call   22c0 <__stack_chk_fail@plt>
    7bdc:	0f 1f 40 00          	nopl   0x0(%rax)

0000000000007be0 <set_sample_factors>:
set_sample_factors():
/home/tenebris/Disk/Racing-code/examples/23-libjpeg-divide-by-zero/libjpeg-turbo-2.0.90/rdswitch.c:398
set_sample_factors(j_compress_ptr cinfo, char *arg)
/* Process a sample-factors parameter string, of the form
 *     HxV[,HxV,...]
 * If there are more components than parameters, "1x1" is assumed for the rest.
 */
{
    7be0:	f3 0f 1e fa          	endbr64 
    7be4:	41 57                	push   %r15
    7be6:	41 56                	push   %r14
/home/tenebris/Disk/Racing-code/examples/23-libjpeg-divide-by-zero/libjpeg-turbo-2.0.90/rdswitch.c:405
  char ch1, ch2;

  for (ci = 0; ci < MAX_COMPONENTS; ci++) {
    if (*arg) {
      ch2 = ',';                /* if not set by sscanf, will be ',' */
      if (sscanf(arg, "%d%c%d%c", &val1, &ch1, &val2, &ch2) < 3)
    7be8:	4c 8d 35 66 47 00 00 	lea    0x4766(%rip),%r14        # c355 <rgb_red+0xb5>
/home/tenebris/Disk/Racing-code/examples/23-libjpeg-divide-by-zero/libjpeg-turbo-2.0.90/rdswitch.c:398
{
    7bef:	41 55                	push   %r13
    7bf1:	41 54                	push   %r12
    7bf3:	49 89 fc             	mov    %rdi,%r12
    7bf6:	55                   	push   %rbp
    7bf7:	31 ed                	xor    %ebp,%ebp
    7bf9:	53                   	push   %rbx
    7bfa:	48 89 f3             	mov    %rsi,%rbx
    7bfd:	48 83 ec 38          	sub    $0x38,%rsp
/home/tenebris/Disk/Racing-code/examples/23-libjpeg-divide-by-zero/libjpeg-turbo-2.0.90/rdswitch.c:419
      cinfo->comp_info[ci].v_samp_factor = val2;
      while (*arg && *arg++ != ',');  /* advance to next segment of arg
                                         string */
    } else {
      /* reached end of parameter, set remaining components to 1x1 sampling */
      cinfo->comp_info[ci].h_samp_factor = 1;
    7c01:	4c 8b 2d 80 4a 00 00 	mov    0x4a80(%rip),%r13        # c688 <std_luminance_quant_tbl+0x108>
/home/tenebris/Disk/Racing-code/examples/23-libjpeg-divide-by-zero/libjpeg-turbo-2.0.90/rdswitch.c:398
{
    7c08:	64 48 8b 04 25 28 00 	mov    %fs:0x28,%rax
    7c0f:	00 00 
    7c11:	48 89 44 24 28       	mov    %rax,0x28(%rsp)
    7c16:	31 c0                	xor    %eax,%eax
/home/tenebris/Disk/Racing-code/examples/23-libjpeg-divide-by-zero/libjpeg-turbo-2.0.90/rdswitch.c:405
      if (sscanf(arg, "%d%c%d%c", &val1, &ch1, &val2, &ch2) < 3)
    7c18:	4c 8d 4c 24 1f       	lea    0x1f(%rsp),%r9
    7c1d:	4c 8d 7c 24 24       	lea    0x24(%rsp),%r15
    7c22:	eb 1f                	jmp    7c43 <set_sample_factors+0x63>
    7c24:	0f 1f 40 00          	nopl   0x0(%rax)
/home/tenebris/Disk/Racing-code/examples/23-libjpeg-divide-by-zero/libjpeg-turbo-2.0.90/rdswitch.c:419
      cinfo->comp_info[ci].h_samp_factor = 1;
    7c28:	49 8b 44 24 58       	mov    0x58(%r12),%rax
    7c2d:	4c 89 6c 28 08       	mov    %r13,0x8(%rax,%rbp,1)
/home/tenebris/Disk/Racing-code/examples/23-libjpeg-divide-by-zero/libjpeg-turbo-2.0.90/rdswitch.c:402 (discriminator 2)
  for (ci = 0; ci < MAX_COMPONENTS; ci++) {
    7c32:	48 83 c5 60          	add    $0x60,%rbp
    7c36:	48 81 fd c0 03 00 00 	cmp    $0x3c0,%rbp
    7c3d:	0f 84 b5 00 00 00    	je     7cf8 <set_sample_factors+0x118>
/home/tenebris/Disk/Racing-code/examples/23-libjpeg-divide-by-zero/libjpeg-turbo-2.0.90/rdswitch.c:403
    if (*arg) {
    7c43:	80 3b 00             	cmpb   $0x0,(%rbx)
    7c46:	74 e0                	je     7c28 <set_sample_factors+0x48>
/home/tenebris/Disk/Racing-code/examples/23-libjpeg-divide-by-zero/libjpeg-turbo-2.0.90/rdswitch.c:405
      if (sscanf(arg, "%d%c%d%c", &val1, &ch1, &val2, &ch2) < 3)
    7c48:	31 c0                	xor    %eax,%eax
    7c4a:	48 8d 4c 24 1e       	lea    0x1e(%rsp),%rcx
    7c4f:	48 8d 54 24 20       	lea    0x20(%rsp),%rdx
    7c54:	4d 89 f8             	mov    %r15,%r8
    7c57:	4c 89 f6             	mov    %r14,%rsi
    7c5a:	48 89 df             	mov    %rbx,%rdi
/home/tenebris/Disk/Racing-code/examples/23-libjpeg-divide-by-zero/libjpeg-turbo-2.0.90/rdswitch.c:404
      ch2 = ',';                /* if not set by sscanf, will be ',' */
    7c5d:	c6 44 24 1f 2c       	movb   $0x2c,0x1f(%rsp)
/home/tenebris/Disk/Racing-code/examples/23-libjpeg-divide-by-zero/libjpeg-turbo-2.0.90/rdswitch.c:405
      if (sscanf(arg, "%d%c%d%c", &val1, &ch1, &val2, &ch2) < 3)
    7c62:	4c 89 4c 24 08       	mov    %r9,0x8(%rsp)
    7c67:	e8 04 a7 ff ff       	call   2370 <__isoc99_sscanf@plt>
    7c6c:	83 f8 02             	cmp    $0x2,%eax
    7c6f:	0f 8e a7 00 00 00    	jle    7d1c <set_sample_factors+0x13c>
/home/tenebris/Disk/Racing-code/examples/23-libjpeg-divide-by-zero/libjpeg-turbo-2.0.90/rdswitch.c:407
      if ((ch1 != 'x' && ch1 != 'X') || ch2 != ',') /* syntax check */
    7c75:	0f b6 44 24 1e       	movzbl 0x1e(%rsp),%eax
    7c7a:	83 e0 df             	and    $0xffffffdf,%eax
    7c7d:	3c 58                	cmp    $0x58,%al
    7c7f:	0f 85 97 00 00 00    	jne    7d1c <set_sample_factors+0x13c>
/home/tenebris/Disk/Racing-code/examples/23-libjpeg-divide-by-zero/libjpeg-turbo-2.0.90/rdswitch.c:407 (discriminator 1)
    7c85:	80 7c 24 1f 2c       	cmpb   $0x2c,0x1f(%rsp)
    7c8a:	0f 85 8c 00 00 00    	jne    7d1c <set_sample_factors+0x13c>
/home/tenebris/Disk/Racing-code/examples/23-libjpeg-divide-by-zero/libjpeg-turbo-2.0.90/rdswitch.c:409
      if (val1 <= 0 || val1 > 4 || val2 <= 0 || val2 > 4) {
    7c90:	8b 44 24 20          	mov    0x20(%rsp),%eax
    7c94:	8d 50 ff             	lea    -0x1(%rax),%edx
    7c97:	83 fa 03             	cmp    $0x3,%edx
    7c9a:	0f 87 80 00 00 00    	ja     7d20 <set_sample_factors+0x140>
    7ca0:	66 0f 6e 4c 24 24    	movd   0x24(%rsp),%xmm1
    7ca6:	66 0f 6e c0          	movd   %eax,%xmm0
/home/tenebris/Disk/Racing-code/examples/23-libjpeg-divide-by-zero/libjpeg-turbo-2.0.90/rdswitch.c:409 (discriminator 1)
    7caa:	4c 8b 4c 24 08       	mov    0x8(%rsp),%r9
    7caf:	66 0f 7e c8          	movd   %xmm1,%eax
    7cb3:	66 0f 62 c1          	punpckldq %xmm1,%xmm0
    7cb7:	8d 50 ff             	lea    -0x1(%rax),%edx
    7cba:	83 fa 03             	cmp    $0x3,%edx
    7cbd:	77 61                	ja     7d20 <set_sample_factors+0x140>
/home/tenebris/Disk/Racing-code/examples/23-libjpeg-divide-by-zero/libjpeg-turbo-2.0.90/rdswitch.c:413
      cinfo->comp_info[ci].h_samp_factor = val1;
    7cbf:	49 8b 54 24 58       	mov    0x58(%r12),%rdx
    7cc4:	66 0f d6 44 2a 08    	movq   %xmm0,0x8(%rdx,%rbp,1)
/home/tenebris/Disk/Racing-code/examples/23-libjpeg-divide-by-zero/libjpeg-turbo-2.0.90/rdswitch.c:415
      while (*arg && *arg++ != ',');  /* advance to next segment of arg
    7cca:	eb 10                	jmp    7cdc <set_sample_factors+0xfc>
    7ccc:	0f 1f 40 00          	nopl   0x0(%rax)
/home/tenebris/Disk/Racing-code/examples/23-libjpeg-divide-by-zero/libjpeg-turbo-2.0.90/rdswitch.c:415 (discriminator 1)
    7cd0:	48 83 c3 01          	add    $0x1,%rbx
    7cd4:	3c 2c                	cmp    $0x2c,%al
    7cd6:	0f 84 56 ff ff ff    	je     7c32 <set_sample_factors+0x52>
/home/tenebris/Disk/Racing-code/examples/23-libjpeg-divide-by-zero/libjpeg-turbo-2.0.90/rdswitch.c:415 (discriminator 2)
    7cdc:	0f b6 03             	movzbl (%rbx),%eax
    7cdf:	84 c0                	test   %al,%al
    7ce1:	75 ed                	jne    7cd0 <set_sample_factors+0xf0>
/home/tenebris/Disk/Racing-code/examples/23-libjpeg-divide-by-zero/libjpeg-turbo-2.0.90/rdswitch.c:402
  for (ci = 0; ci < MAX_COMPONENTS; ci++) {
    7ce3:	48 83 c5 60          	add    $0x60,%rbp
    7ce7:	48 81 fd c0 03 00 00 	cmp    $0x3c0,%rbp
    7cee:	0f 85 4f ff ff ff    	jne    7c43 <set_sample_factors+0x63>
    7cf4:	0f 1f 40 00          	nopl   0x0(%rax)
/home/tenebris/Disk/Racing-code/examples/23-libjpeg-divide-by-zero/libjpeg-turbo-2.0.90/rdswitch.c:423
      cinfo->comp_info[ci].v_samp_factor = 1;
    }
  }
  return TRUE;
    7cf8:	b8 01 00 00 00       	mov    $0x1,%eax
/home/tenebris/Disk/Racing-code/examples/23-libjpeg-divide-by-zero/libjpeg-turbo-2.0.90/rdswitch.c:424
}
    7cfd:	48 8b 54 24 28       	mov    0x28(%rsp),%rdx
    7d02:	64 48 2b 14 25 28 00 	sub    %fs:0x28,%rdx
    7d09:	00 00 
    7d0b:	75 34                	jne    7d41 <set_sample_factors+0x161>
    7d0d:	48 83 c4 38          	add    $0x38,%rsp
    7d11:	5b                   	pop    %rbx
    7d12:	5d                   	pop    %rbp
    7d13:	41 5c                	pop    %r12
    7d15:	41 5d                	pop    %r13
    7d17:	41 5e                	pop    %r14
    7d19:	41 5f                	pop    %r15
    7d1b:	c3                   	ret    
/home/tenebris/Disk/Racing-code/examples/23-libjpeg-divide-by-zero/libjpeg-turbo-2.0.90/rdswitch.c:406
        return FALSE;
    7d1c:	31 c0                	xor    %eax,%eax
    7d1e:	eb dd                	jmp    7cfd <set_sample_factors+0x11d>
fprintf():
/usr/include/x86_64-linux-gnu/bits/stdio2.h:105
    7d20:	48 8b 0d 19 73 00 00 	mov    0x7319(%rip),%rcx        # f040 <stderr@GLIBC_2.2.5>
    7d27:	ba 23 00 00 00       	mov    $0x23,%edx
    7d2c:	be 01 00 00 00       	mov    $0x1,%esi
    7d31:	48 8d 3d 20 47 00 00 	lea    0x4720(%rip),%rdi        # c458 <rgb_red+0x1b8>
    7d38:	e8 03 a7 ff ff       	call   2440 <fwrite@plt>
set_sample_factors():
/home/tenebris/Disk/Racing-code/examples/23-libjpeg-divide-by-zero/libjpeg-turbo-2.0.90/rdswitch.c:411
        return FALSE;
    7d3d:	31 c0                	xor    %eax,%eax
    7d3f:	eb bc                	jmp    7cfd <set_sample_factors+0x11d>
/home/tenebris/Disk/Racing-code/examples/23-libjpeg-divide-by-zero/libjpeg-turbo-2.0.90/rdswitch.c:424
}
    7d41:	e8 7a a5 ff ff       	call   22c0 <__stack_chk_fail@plt>
    7d46:	66 2e 0f 1f 84 00 00 	cs nopw 0x0(%rax,%rax,1)
    7d4d:	00 00 00 

0000000000007d50 <finish_input_bmp>:
finish_input_bmp():
/home/tenebris/Disk/Racing-code/examples/23-libjpeg-divide-by-zero/libjpeg-turbo-2.0.90/rdbmp.c:649
 * Finish up at the end of the file.
 */

METHODDEF(void)
finish_input_bmp(j_compress_ptr cinfo, cjpeg_source_ptr sinfo)
{
    7d50:	f3 0f 1e fa          	endbr64 
/home/tenebris/Disk/Racing-code/examples/23-libjpeg-divide-by-zero/libjpeg-turbo-2.0.90/rdbmp.c:651
  /* no work */
}
    7d54:	c3                   	ret    
    7d55:	66 66 2e 0f 1f 84 00 	data16 cs nopw 0x0(%rax,%rax,1)
    7d5c:	00 00 00 00 

0000000000007d60 <get_8bit_row>:
get_8bit_row():
/home/tenebris/Disk/Racing-code/examples/23-libjpeg-divide-by-zero/libjpeg-turbo-2.0.90/rdbmp.c:146
{
    7d60:	f3 0f 1e fa          	endbr64 
    7d64:	41 57                	push   %r15
    7d66:	41 56                	push   %r14
    7d68:	41 55                	push   %r13
    7d6a:	49 89 fd             	mov    %rdi,%r13
    7d6d:	41 54                	push   %r12
    7d6f:	55                   	push   %rbp
    7d70:	53                   	push   %rbx
    7d71:	48 89 f3             	mov    %rsi,%rbx
    7d74:	48 83 ec 38          	sub    $0x38,%rsp
/home/tenebris/Disk/Racing-code/examples/23-libjpeg-divide-by-zero/libjpeg-turbo-2.0.90/rdbmp.c:155
  if (source->use_inversion_array) {
    7d78:	8b 46 58             	mov    0x58(%rsi),%eax
/home/tenebris/Disk/Racing-code/examples/23-libjpeg-divide-by-zero/libjpeg-turbo-2.0.90/rdbmp.c:148
  register JSAMPARRAY colormap = source->colormap;
    7d7b:	4c 8b 66 38          	mov    0x38(%rsi),%r12
/home/tenebris/Disk/Racing-code/examples/23-libjpeg-divide-by-zero/libjpeg-turbo-2.0.90/rdbmp.c:149
  int cmaplen = source->cmap_length;
    7d7f:	44 8b 76 54          	mov    0x54(%rsi),%r14d
/home/tenebris/Disk/Racing-code/examples/23-libjpeg-divide-by-zero/libjpeg-turbo-2.0.90/rdbmp.c:155
  if (source->use_inversion_array) {
    7d83:	85 c0                	test   %eax,%eax
    7d85:	0f 84 45 01 00 00    	je     7ed0 <get_8bit_row+0x170>
/home/tenebris/Disk/Racing-code/examples/23-libjpeg-divide-by-zero/libjpeg-turbo-2.0.90/rdbmp.c:157
    source->source_row--;
    7d8b:	8b 46 48             	mov    0x48(%rsi),%eax
/home/tenebris/Disk/Racing-code/examples/23-libjpeg-divide-by-zero/libjpeg-turbo-2.0.90/rdbmp.c:158
    image_ptr = (*cinfo->mem->access_virt_sarray)
    7d8e:	45 31 c0             	xor    %r8d,%r8d
    7d91:	b9 01 00 00 00       	mov    $0x1,%ecx
/home/tenebris/Disk/Racing-code/examples/23-libjpeg-divide-by-zero/libjpeg-turbo-2.0.90/rdbmp.c:157
    source->source_row--;
    7d96:	8d 50 ff             	lea    -0x1(%rax),%edx
/home/tenebris/Disk/Racing-code/examples/23-libjpeg-divide-by-zero/libjpeg-turbo-2.0.90/rdbmp.c:158
    image_ptr = (*cinfo->mem->access_virt_sarray)
    7d99:	48 8b 47 08          	mov    0x8(%rdi),%rax
/home/tenebris/Disk/Racing-code/examples/23-libjpeg-divide-by-zero/libjpeg-turbo-2.0.90/rdbmp.c:157
    source->source_row--;
    7d9d:	89 56 48             	mov    %edx,0x48(%rsi)
/home/tenebris/Disk/Racing-code/examples/23-libjpeg-divide-by-zero/libjpeg-turbo-2.0.90/rdbmp.c:158
    image_ptr = (*cinfo->mem->access_virt_sarray)
    7da0:	48 8b 76 40          	mov    0x40(%rsi),%rsi
    7da4:	ff 50 38             	call   *0x38(%rax)
/home/tenebris/Disk/Racing-code/examples/23-libjpeg-divide-by-zero/libjpeg-turbo-2.0.90/rdbmp.c:161
    inptr = image_ptr[0];
    7da7:	48 8b 28             	mov    (%rax),%rbp
/home/tenebris/Disk/Racing-code/examples/23-libjpeg-divide-by-zero/libjpeg-turbo-2.0.90/rdbmp.c:169
  outptr = source->pub.buffer[0];
    7daa:	48 8b 43 20          	mov    0x20(%rbx),%rax
/home/tenebris/Disk/Racing-code/examples/23-libjpeg-divide-by-zero/libjpeg-turbo-2.0.90/rdbmp.c:170
  if (cinfo->in_color_space == JCS_GRAYSCALE) {
    7dae:	41 8b 55 3c          	mov    0x3c(%r13),%edx
/home/tenebris/Disk/Racing-code/examples/23-libjpeg-divide-by-zero/libjpeg-turbo-2.0.90/rdbmp.c:169
  outptr = source->pub.buffer[0];
    7db2:	48 8b 18             	mov    (%rax),%rbx
/home/tenebris/Disk/Racing-code/examples/23-libjpeg-divide-by-zero/libjpeg-turbo-2.0.90/rdbmp.c:171
    for (col = cinfo->image_width; col > 0; col--) {
    7db5:	41 8b 45 30          	mov    0x30(%r13),%eax
/home/tenebris/Disk/Racing-code/examples/23-libjpeg-divide-by-zero/libjpeg-turbo-2.0.90/rdbmp.c:170
  if (cinfo->in_color_space == JCS_GRAYSCALE) {
    7db9:	83 fa 01             	cmp    $0x1,%edx
    7dbc:	0f 84 ce 02 00 00    	je     8090 <get_8bit_row+0x330>
/home/tenebris/Disk/Racing-code/examples/23-libjpeg-divide-by-zero/libjpeg-turbo-2.0.90/rdbmp.c:177
  } else if (cinfo->in_color_space == JCS_CMYK) {
    7dc2:	83 fa 04             	cmp    $0x4,%edx
    7dc5:	0f 84 45 01 00 00    	je     7f10 <get_8bit_row+0x1b0>
/home/tenebris/Disk/Racing-code/examples/23-libjpeg-divide-by-zero/libjpeg-turbo-2.0.90/rdbmp.c:188
    register int gindex = rgb_green[cinfo->in_color_space];
    7dcb:	48 8d 35 ee 49 00 00 	lea    0x49ee(%rip),%rsi        # c7c0 <rgb_green>
/home/tenebris/Disk/Racing-code/examples/23-libjpeg-divide-by-zero/libjpeg-turbo-2.0.90/rdbmp.c:187
    register int rindex = rgb_red[cinfo->in_color_space];
    7dd2:	48 8d 0d 47 4a 00 00 	lea    0x4a47(%rip),%rcx        # c820 <rgb_red>
/home/tenebris/Disk/Racing-code/examples/23-libjpeg-divide-by-zero/libjpeg-turbo-2.0.90/rdbmp.c:188
    register int gindex = rgb_green[cinfo->in_color_space];
    7dd9:	4c 63 0c 96          	movslq (%rsi,%rdx,4),%r9
/home/tenebris/Disk/Racing-code/examples/23-libjpeg-divide-by-zero/libjpeg-turbo-2.0.90/rdbmp.c:189
    register int bindex = rgb_blue[cinfo->in_color_space];
    7ddd:	48 8d 35 7c 49 00 00 	lea    0x497c(%rip),%rsi        # c760 <rgb_blue>
/home/tenebris/Disk/Racing-code/examples/23-libjpeg-divide-by-zero/libjpeg-turbo-2.0.90/rdbmp.c:187
    register int rindex = rgb_red[cinfo->in_color_space];
    7de4:	48 63 0c 91          	movslq (%rcx,%rdx,4),%rcx
/home/tenebris/Disk/Racing-code/examples/23-libjpeg-divide-by-zero/libjpeg-turbo-2.0.90/rdbmp.c:189
    register int bindex = rgb_blue[cinfo->in_color_space];
    7de8:	4c 63 04 96          	movslq (%rsi,%rdx,4),%r8
/home/tenebris/Disk/Racing-code/examples/23-libjpeg-divide-by-zero/libjpeg-turbo-2.0.90/rdbmp.c:190
    register int aindex = alpha_index[cinfo->in_color_space];
    7dec:	48 8d 35 ad 48 00 00 	lea    0x48ad(%rip),%rsi        # c6a0 <alpha_index>
    7df3:	4c 63 14 96          	movslq (%rsi,%rdx,4),%r10
/home/tenebris/Disk/Racing-code/examples/23-libjpeg-divide-by-zero/libjpeg-turbo-2.0.90/rdbmp.c:191
    register int ps = rgb_pixelsize[cinfo->in_color_space];
    7df7:	48 8d 35 02 49 00 00 	lea    0x4902(%rip),%rsi        # c700 <rgb_pixelsize>
    7dfe:	48 63 34 96          	movslq (%rsi,%rdx,4),%rsi
/home/tenebris/Disk/Racing-code/examples/23-libjpeg-divide-by-zero/libjpeg-turbo-2.0.90/rdbmp.c:193
    if (aindex >= 0) {
    7e02:	45 85 d2             	test   %r10d,%r10d
    7e05:	0f 88 0d 03 00 00    	js     8118 <get_8bit_row+0x3b8>
/home/tenebris/Disk/Racing-code/examples/23-libjpeg-divide-by-zero/libjpeg-turbo-2.0.90/rdbmp.c:194
      for (col = cinfo->image_width; col > 0; col--) {
    7e0b:	85 c0                	test   %eax,%eax
    7e0d:	0f 84 a7 00 00 00    	je     7eba <get_8bit_row+0x15a>
    7e13:	41 89 c7             	mov    %eax,%r15d
    7e16:	48 8d 14 0b          	lea    (%rbx,%rcx,1),%rdx
    7e1a:	49 01 ef             	add    %rbp,%r15
    7e1d:	0f 1f 00             	nopl   (%rax)
/home/tenebris/Disk/Racing-code/examples/23-libjpeg-divide-by-zero/libjpeg-turbo-2.0.90/rdbmp.c:195
        t = *inptr++;
    7e20:	0f b6 45 00          	movzbl 0x0(%rbp),%eax
    7e24:	48 83 c5 01          	add    $0x1,%rbp
    7e28:	89 c3                	mov    %eax,%ebx
/home/tenebris/Disk/Racing-code/examples/23-libjpeg-divide-by-zero/libjpeg-turbo-2.0.90/rdbmp.c:196
        if (t >= cmaplen)
    7e2a:	41 39 c6             	cmp    %eax,%r14d
    7e2d:	7f 4a                	jg     7e79 <get_8bit_row+0x119>
/home/tenebris/Disk/Racing-code/examples/23-libjpeg-divide-by-zero/libjpeg-turbo-2.0.90/rdbmp.c:197
          ERREXIT(cinfo, JERR_BMP_OUTOFRANGE);
    7e2f:	49 8b 45 00          	mov    0x0(%r13),%rax
    7e33:	48 89 54 24 28       	mov    %rdx,0x28(%rsp)
    7e38:	4c 89 ef             	mov    %r13,%rdi
    7e3b:	48 89 74 24 20       	mov    %rsi,0x20(%rsp)
    7e40:	4c 89 54 24 18       	mov    %r10,0x18(%rsp)
    7e45:	4c 89 44 24 10       	mov    %r8,0x10(%rsp)
    7e4a:	4c 89 4c 24 08       	mov    %r9,0x8(%rsp)
    7e4f:	48 89 0c 24          	mov    %rcx,(%rsp)
    7e53:	c7 40 28 f1 03 00 00 	movl   $0x3f1,0x28(%rax)
    7e5a:	ff 10                	call   *(%rax)
    7e5c:	48 8b 54 24 28       	mov    0x28(%rsp),%rdx
    7e61:	48 8b 74 24 20       	mov    0x20(%rsp),%rsi
    7e66:	4c 8b 54 24 18       	mov    0x18(%rsp),%r10
    7e6b:	4c 8b 44 24 10       	mov    0x10(%rsp),%r8
    7e70:	4c 8b 4c 24 08       	mov    0x8(%rsp),%r9
    7e75:	48 8b 0c 24          	mov    (%rsp),%rcx
/home/tenebris/Disk/Racing-code/examples/23-libjpeg-divide-by-zero/libjpeg-turbo-2.0.90/rdbmp.c:198 (discriminator 2)
        outptr[rindex] = colormap[0][t];
    7e79:	49 8b 3c 24          	mov    (%r12),%rdi
    7e7d:	0f b6 c3             	movzbl %bl,%eax
    7e80:	0f b6 3c 07          	movzbl (%rdi,%rax,1),%edi
    7e84:	40 88 3a             	mov    %dil,(%rdx)
/home/tenebris/Disk/Racing-code/examples/23-libjpeg-divide-by-zero/libjpeg-turbo-2.0.90/rdbmp.c:199 (discriminator 2)
        outptr[gindex] = colormap[1][t];
    7e87:	49 8b 7c 24 08       	mov    0x8(%r12),%rdi
    7e8c:	44 0f b6 1c 07       	movzbl (%rdi,%rax,1),%r11d
    7e91:	48 89 d7             	mov    %rdx,%rdi
/home/tenebris/Disk/Racing-code/examples/23-libjpeg-divide-by-zero/libjpeg-turbo-2.0.90/rdbmp.c:194 (discriminator 2)
      for (col = cinfo->image_width; col > 0; col--) {
    7e94:	48 01 f2             	add    %rsi,%rdx
    7e97:	48 29 cf             	sub    %rcx,%rdi
/home/tenebris/Disk/Racing-code/examples/23-libjpeg-divide-by-zero/libjpeg-turbo-2.0.90/rdbmp.c:199 (discriminator 2)
        outptr[gindex] = colormap[1][t];
    7e9a:	46 88 1c 0f          	mov    %r11b,(%rdi,%r9,1)
/home/tenebris/Disk/Racing-code/examples/23-libjpeg-divide-by-zero/libjpeg-turbo-2.0.90/rdbmp.c:200 (discriminator 2)
        outptr[bindex] = colormap[2][t];
    7e9e:	4d 8b 5c 24 10       	mov    0x10(%r12),%r11
    7ea3:	41 0f b6 04 03       	movzbl (%r11,%rax,1),%eax
    7ea8:	42 88 04 07          	mov    %al,(%rdi,%r8,1)
/home/tenebris/Disk/Racing-code/examples/23-libjpeg-divide-by-zero/libjpeg-turbo-2.0.90/rdbmp.c:201 (discriminator 2)
        outptr[aindex] = 0xFF;
    7eac:	42 c6 04 17 ff       	movb   $0xff,(%rdi,%r10,1)
/home/tenebris/Disk/Racing-code/examples/23-libjpeg-divide-by-zero/libjpeg-turbo-2.0.90/rdbmp.c:194 (discriminator 2)
      for (col = cinfo->image_width; col > 0; col--) {
    7eb1:	4c 39 fd             	cmp    %r15,%rbp
    7eb4:	0f 85 66 ff ff ff    	jne    7e20 <get_8bit_row+0xc0>
/home/tenebris/Disk/Racing-code/examples/23-libjpeg-divide-by-zero/libjpeg-turbo-2.0.90/rdbmp.c:218
}
    7eba:	48 83 c4 38          	add    $0x38,%rsp
    7ebe:	b8 01 00 00 00       	mov    $0x1,%eax
    7ec3:	5b                   	pop    %rbx
    7ec4:	5d                   	pop    %rbp
    7ec5:	41 5c                	pop    %r12
    7ec7:	41 5d                	pop    %r13
    7ec9:	41 5e                	pop    %r14
    7ecb:	41 5f                	pop    %r15
    7ecd:	c3                   	ret    
    7ece:	66 90                	xchg   %ax,%ax
/home/tenebris/Disk/Racing-code/examples/23-libjpeg-divide-by-zero/libjpeg-turbo-2.0.90/rdbmp.c:163
    if (!ReadOK(source->pub.input_file, source->iobuffer, source->row_width))
    7ed0:	8b 56 4c             	mov    0x4c(%rsi),%edx
fread():
/usr/include/x86_64-linux-gnu/bits/stdio2.h:293
    return __fread_alias (__ptr, __size, __n, __stream);
    7ed3:	48 8b 4e 18          	mov    0x18(%rsi),%rcx
    7ed7:	48 8b 7e 60          	mov    0x60(%rsi),%rdi
    7edb:	be 01 00 00 00       	mov    $0x1,%esi
    7ee0:	e8 ab a3 ff ff       	call   2290 <fread@plt>
get_8bit_row():
/home/tenebris/Disk/Racing-code/examples/23-libjpeg-divide-by-zero/libjpeg-turbo-2.0.90/rdbmp.c:163
    7ee5:	8b 53 4c             	mov    0x4c(%rbx),%edx
    7ee8:	48 39 c2             	cmp    %rax,%rdx
    7eeb:	74 10                	je     7efd <get_8bit_row+0x19d>
/home/tenebris/Disk/Racing-code/examples/23-libjpeg-divide-by-zero/libjpeg-turbo-2.0.90/rdbmp.c:164
      ERREXIT(cinfo, JERR_INPUT_EOF);
    7eed:	49 8b 45 00          	mov    0x0(%r13),%rax
    7ef1:	4c 89 ef             	mov    %r13,%rdi
    7ef4:	c7 40 28 2b 00 00 00 	movl   $0x2b,0x28(%rax)
    7efb:	ff 10                	call   *(%rax)
/home/tenebris/Disk/Racing-code/examples/23-libjpeg-divide-by-zero/libjpeg-turbo-2.0.90/rdbmp.c:165
    inptr = source->iobuffer;
    7efd:	48 8b 6b 60          	mov    0x60(%rbx),%rbp
    7f01:	e9 a4 fe ff ff       	jmp    7daa <get_8bit_row+0x4a>
    7f06:	66 2e 0f 1f 84 00 00 	cs nopw 0x0(%rax,%rax,1)
    7f0d:	00 00 00 
/home/tenebris/Disk/Racing-code/examples/23-libjpeg-divide-by-zero/libjpeg-turbo-2.0.90/rdbmp.c:178
    for (col = cinfo->image_width; col > 0; col--) {
    7f10:	85 c0                	test   %eax,%eax
    7f12:	74 a6                	je     7eba <get_8bit_row+0x15a>
    7f14:	41 89 c7             	mov    %eax,%r15d
    7f17:	f2 0f 10 0d c9 43 00 	movsd  0x43c9(%rip),%xmm1        # c2e8 <rgb_red+0x48>
    7f1e:	00 
    7f1f:	f2 0f 10 2d c9 43 00 	movsd  0x43c9(%rip),%xmm5        # c2f0 <rgb_red+0x50>
    7f26:	00 
    7f27:	4a 8d 44 3d 00       	lea    0x0(%rbp,%r15,1),%rax
rgb_to_cmyk():
/home/tenebris/Disk/Racing-code/examples/23-libjpeg-divide-by-zero/libjpeg-turbo-2.0.90/cmyk.h:41
  *c = (JSAMPLE)(255.0 - ctmp * 255.0 + 0.5);
    7f2c:	f2 0f 10 35 c4 43 00 	movsd  0x43c4(%rip),%xmm6        # c2f8 <rgb_red+0x58>
    7f33:	00 
    7f34:	48 89 04 24          	mov    %rax,(%rsp)
    7f38:	0f 1f 84 00 00 00 00 	nopl   0x0(%rax,%rax,1)
    7f3f:	00 
get_8bit_row():
/home/tenebris/Disk/Racing-code/examples/23-libjpeg-divide-by-zero/libjpeg-turbo-2.0.90/rdbmp.c:179
      t = *inptr++;
    7f40:	0f b6 55 00          	movzbl 0x0(%rbp),%edx
    7f44:	48 83 c5 01          	add    $0x1,%rbp
    7f48:	41 89 d7             	mov    %edx,%r15d
/home/tenebris/Disk/Racing-code/examples/23-libjpeg-divide-by-zero/libjpeg-turbo-2.0.90/rdbmp.c:180
      if (t >= cmaplen)
    7f4b:	41 39 d6             	cmp    %edx,%r14d
    7f4e:	7f 34                	jg     7f84 <get_8bit_row+0x224>
/home/tenebris/Disk/Racing-code/examples/23-libjpeg-divide-by-zero/libjpeg-turbo-2.0.90/rdbmp.c:181
        ERREXIT(cinfo, JERR_BMP_OUTOFRANGE);
    7f50:	49 8b 55 00          	mov    0x0(%r13),%rdx
    7f54:	4c 89 ef             	mov    %r13,%rdi
    7f57:	c7 42 28 f1 03 00 00 	movl   $0x3f1,0x28(%rdx)
    7f5e:	ff 12                	call   *(%rdx)
    7f60:	48 8b 05 91 43 00 00 	mov    0x4391(%rip),%rax        # c2f8 <rgb_red+0x58>
    7f67:	66 48 0f 6e f0       	movq   %rax,%xmm6
    7f6c:	48 8b 05 7d 43 00 00 	mov    0x437d(%rip),%rax        # c2f0 <rgb_red+0x50>
    7f73:	66 48 0f 6e e8       	movq   %rax,%xmm5
    7f78:	48 8b 05 69 43 00 00 	mov    0x4369(%rip),%rax        # c2e8 <rgb_red+0x48>
    7f7f:	66 48 0f 6e c8       	movq   %rax,%xmm1
/home/tenebris/Disk/Racing-code/examples/23-libjpeg-divide-by-zero/libjpeg-turbo-2.0.90/rdbmp.c:182 (discriminator 2)
      rgb_to_cmyk(colormap[0][t], colormap[1][t], colormap[2][t], outptr,
    7f84:	49 8b 14 24          	mov    (%r12),%rdx
    7f88:	41 0f b6 c7          	movzbl %r15b,%eax
rgb_to_cmyk():
/home/tenebris/Disk/Racing-code/examples/23-libjpeg-divide-by-zero/libjpeg-turbo-2.0.90/cmyk.h:30 (discriminator 2)
  double ctmp = 1.0 - ((double)r / 255.0);
    7f8c:	66 0f ef c0          	pxor   %xmm0,%xmm0
    7f90:	66 0f 28 e5          	movapd %xmm5,%xmm4
/home/tenebris/Disk/Racing-code/examples/23-libjpeg-divide-by-zero/libjpeg-turbo-2.0.90/cmyk.h:31 (discriminator 2)
  double mtmp = 1.0 - ((double)g / 255.0);
    7f94:	66 0f 28 dd          	movapd %xmm5,%xmm3
/home/tenebris/Disk/Racing-code/examples/23-libjpeg-divide-by-zero/libjpeg-turbo-2.0.90/cmyk.h:32 (discriminator 2)
  double ytmp = 1.0 - ((double)b / 255.0);
    7f98:	66 0f 28 d5          	movapd %xmm5,%xmm2
/home/tenebris/Disk/Racing-code/examples/23-libjpeg-divide-by-zero/libjpeg-turbo-2.0.90/cmyk.h:30 (discriminator 2)
  double ctmp = 1.0 - ((double)r / 255.0);
    7f9c:	0f b6 14 02          	movzbl (%rdx,%rax,1),%edx
    7fa0:	f2 0f 2a c2          	cvtsi2sd %edx,%xmm0
get_8bit_row():
/home/tenebris/Disk/Racing-code/examples/23-libjpeg-divide-by-zero/libjpeg-turbo-2.0.90/rdbmp.c:182 (discriminator 2)
    7fa4:	49 8b 54 24 08       	mov    0x8(%r12),%rdx
rgb_to_cmyk():
/home/tenebris/Disk/Racing-code/examples/23-libjpeg-divide-by-zero/libjpeg-turbo-2.0.90/cmyk.h:31 (discriminator 2)
  double mtmp = 1.0 - ((double)g / 255.0);
    7fa9:	0f b6 14 02          	movzbl (%rdx,%rax,1),%edx
/home/tenebris/Disk/Racing-code/examples/23-libjpeg-divide-by-zero/libjpeg-turbo-2.0.90/cmyk.h:30 (discriminator 2)
  double ctmp = 1.0 - ((double)r / 255.0);
    7fad:	f2 0f 5e c1          	divsd  %xmm1,%xmm0
    7fb1:	f2 0f 5c e0          	subsd  %xmm0,%xmm4
/home/tenebris/Disk/Racing-code/examples/23-libjpeg-divide-by-zero/libjpeg-turbo-2.0.90/cmyk.h:31 (discriminator 2)
  double mtmp = 1.0 - ((double)g / 255.0);
    7fb5:	66 0f ef c0          	pxor   %xmm0,%xmm0
    7fb9:	f2 0f 2a c2          	cvtsi2sd %edx,%xmm0
get_8bit_row():
/home/tenebris/Disk/Racing-code/examples/23-libjpeg-divide-by-zero/libjpeg-turbo-2.0.90/rdbmp.c:182 (discriminator 2)
    7fbd:	49 8b 54 24 10       	mov    0x10(%r12),%rdx
rgb_to_cmyk():
/home/tenebris/Disk/Racing-code/examples/23-libjpeg-divide-by-zero/libjpeg-turbo-2.0.90/cmyk.h:32 (discriminator 2)
  double ytmp = 1.0 - ((double)b / 255.0);
    7fc2:	0f b6 04 02          	movzbl (%rdx,%rax,1),%eax
/home/tenebris/Disk/Racing-code/examples/23-libjpeg-divide-by-zero/libjpeg-turbo-2.0.90/cmyk.h:31 (discriminator 2)
  double mtmp = 1.0 - ((double)g / 255.0);
    7fc6:	f2 0f 5e c1          	divsd  %xmm1,%xmm0
    7fca:	f2 0f 5c d8          	subsd  %xmm0,%xmm3
/home/tenebris/Disk/Racing-code/examples/23-libjpeg-divide-by-zero/libjpeg-turbo-2.0.90/cmyk.h:32 (discriminator 2)
  double ytmp = 1.0 - ((double)b / 255.0);
    7fce:	66 0f ef c0          	pxor   %xmm0,%xmm0
    7fd2:	f2 0f 2a c0          	cvtsi2sd %eax,%xmm0
    7fd6:	f2 0f 5e c1          	divsd  %xmm1,%xmm0
    7fda:	f2 0f 5c d0          	subsd  %xmm0,%xmm2
/home/tenebris/Disk/Racing-code/examples/23-libjpeg-divide-by-zero/libjpeg-turbo-2.0.90/cmyk.h:33 (discriminator 2)
  double ktmp = MIN(MIN(ctmp, mtmp), ytmp);
    7fde:	66 0f 28 c4          	movapd %xmm4,%xmm0
    7fe2:	f2 0f 5d c3          	minsd  %xmm3,%xmm0
    7fe6:	f2 0f 5d c2          	minsd  %xmm2,%xmm0
/home/tenebris/Disk/Racing-code/examples/23-libjpeg-divide-by-zero/libjpeg-turbo-2.0.90/cmyk.h:35 (discriminator 2)
  if (ktmp == 1.0) ctmp = mtmp = ytmp = 0.0;
    7fea:	66 0f 2e c5          	ucomisd %xmm5,%xmm0
    7fee:	7a 06                	jp     7ff6 <get_8bit_row+0x296>
/home/tenebris/Disk/Racing-code/examples/23-libjpeg-divide-by-zero/libjpeg-turbo-2.0.90/cmyk.h:35
    7ff0:	0f 84 fa 00 00 00    	je     80f0 <get_8bit_row+0x390>
/home/tenebris/Disk/Racing-code/examples/23-libjpeg-divide-by-zero/libjpeg-turbo-2.0.90/cmyk.h:37
    ctmp = (ctmp - ktmp) / (1.0 - ktmp);
    7ff6:	66 0f 28 fd          	movapd %xmm5,%xmm7
    7ffa:	f2 0f 5c e0          	subsd  %xmm0,%xmm4
/home/tenebris/Disk/Racing-code/examples/23-libjpeg-divide-by-zero/libjpeg-turbo-2.0.90/cmyk.h:38
    mtmp = (mtmp - ktmp) / (1.0 - ktmp);
    7ffe:	f2 0f 5c d8          	subsd  %xmm0,%xmm3
get_8bit_row():
/home/tenebris/Disk/Racing-code/examples/23-libjpeg-divide-by-zero/libjpeg-turbo-2.0.90/rdbmp.c:184
      outptr += 4;
    8002:	48 83 c3 04          	add    $0x4,%rbx
rgb_to_cmyk():
/home/tenebris/Disk/Racing-code/examples/23-libjpeg-divide-by-zero/libjpeg-turbo-2.0.90/cmyk.h:37
    ctmp = (ctmp - ktmp) / (1.0 - ktmp);
    8006:	f2 0f 5c f8          	subsd  %xmm0,%xmm7
/home/tenebris/Disk/Racing-code/examples/23-libjpeg-divide-by-zero/libjpeg-turbo-2.0.90/cmyk.h:39
    ytmp = (ytmp - ktmp) / (1.0 - ktmp);
    800a:	f2 0f 5c d0          	subsd  %xmm0,%xmm2
/home/tenebris/Disk/Racing-code/examples/23-libjpeg-divide-by-zero/libjpeg-turbo-2.0.90/cmyk.h:41
  *c = (JSAMPLE)(255.0 - ctmp * 255.0 + 0.5);
    800e:	66 44 0f 28 c1       	movapd %xmm1,%xmm8
/home/tenebris/Disk/Racing-code/examples/23-libjpeg-divide-by-zero/libjpeg-turbo-2.0.90/cmyk.h:44
  *k = (JSAMPLE)(255.0 - ktmp * 255.0 + 0.5);
    8013:	f2 0f 59 c1          	mulsd  %xmm1,%xmm0
/home/tenebris/Disk/Racing-code/examples/23-libjpeg-divide-by-zero/libjpeg-turbo-2.0.90/cmyk.h:37
    ctmp = (ctmp - ktmp) / (1.0 - ktmp);
    8017:	f2 0f 5e e7          	divsd  %xmm7,%xmm4
/home/tenebris/Disk/Racing-code/examples/23-libjpeg-divide-by-zero/libjpeg-turbo-2.0.90/cmyk.h:38
    mtmp = (mtmp - ktmp) / (1.0 - ktmp);
    801b:	f2 0f 5e df          	divsd  %xmm7,%xmm3
/home/tenebris/Disk/Racing-code/examples/23-libjpeg-divide-by-zero/libjpeg-turbo-2.0.90/cmyk.h:41
  *c = (JSAMPLE)(255.0 - ctmp * 255.0 + 0.5);
    801f:	f2 0f 59 e1          	mulsd  %xmm1,%xmm4
    8023:	f2 44 0f 5c c4       	subsd  %xmm4,%xmm8
/home/tenebris/Disk/Racing-code/examples/23-libjpeg-divide-by-zero/libjpeg-turbo-2.0.90/cmyk.h:42
  *m = (JSAMPLE)(255.0 - mtmp * 255.0 + 0.5);
    8028:	66 0f 28 e1          	movapd %xmm1,%xmm4
/home/tenebris/Disk/Racing-code/examples/23-libjpeg-divide-by-zero/libjpeg-turbo-2.0.90/cmyk.h:41
  *c = (JSAMPLE)(255.0 - ctmp * 255.0 + 0.5);
    802c:	f2 44 0f 58 c6       	addsd  %xmm6,%xmm8
    8031:	f2 41 0f 2c c0       	cvttsd2si %xmm8,%eax
/home/tenebris/Disk/Racing-code/examples/23-libjpeg-divide-by-zero/libjpeg-turbo-2.0.90/cmyk.h:39
    ytmp = (ytmp - ktmp) / (1.0 - ktmp);
    8036:	f2 0f 5e d7          	divsd  %xmm7,%xmm2
/home/tenebris/Disk/Racing-code/examples/23-libjpeg-divide-by-zero/libjpeg-turbo-2.0.90/cmyk.h:41
  *c = (JSAMPLE)(255.0 - ctmp * 255.0 + 0.5);
    803a:	88 43 fc             	mov    %al,-0x4(%rbx)
/home/tenebris/Disk/Racing-code/examples/23-libjpeg-divide-by-zero/libjpeg-turbo-2.0.90/cmyk.h:42
  *m = (JSAMPLE)(255.0 - mtmp * 255.0 + 0.5);
    803d:	f2 0f 59 d9          	mulsd  %xmm1,%xmm3
    8041:	f2 0f 5c e3          	subsd  %xmm3,%xmm4
/home/tenebris/Disk/Racing-code/examples/23-libjpeg-divide-by-zero/libjpeg-turbo-2.0.90/cmyk.h:43
  *y = (JSAMPLE)(255.0 - ytmp * 255.0 + 0.5);
    8045:	66 0f 28 d9          	movapd %xmm1,%xmm3
/home/tenebris/Disk/Racing-code/examples/23-libjpeg-divide-by-zero/libjpeg-turbo-2.0.90/cmyk.h:42
  *m = (JSAMPLE)(255.0 - mtmp * 255.0 + 0.5);
    8049:	f2 0f 58 e6          	addsd  %xmm6,%xmm4
    804d:	f2 0f 2c c4          	cvttsd2si %xmm4,%eax
    8051:	88 43 fd             	mov    %al,-0x3(%rbx)
/home/tenebris/Disk/Racing-code/examples/23-libjpeg-divide-by-zero/libjpeg-turbo-2.0.90/cmyk.h:43
  *y = (JSAMPLE)(255.0 - ytmp * 255.0 + 0.5);
    8054:	f2 0f 59 d1          	mulsd  %xmm1,%xmm2
    8058:	f2 0f 5c da          	subsd  %xmm2,%xmm3
/home/tenebris/Disk/Racing-code/examples/23-libjpeg-divide-by-zero/libjpeg-turbo-2.0.90/cmyk.h:44
  *k = (JSAMPLE)(255.0 - ktmp * 255.0 + 0.5);
    805c:	66 0f 28 d1          	movapd %xmm1,%xmm2
    8060:	f2 0f 5c d0          	subsd  %xmm0,%xmm2
/home/tenebris/Disk/Racing-code/examples/23-libjpeg-divide-by-zero/libjpeg-turbo-2.0.90/cmyk.h:43
  *y = (JSAMPLE)(255.0 - ytmp * 255.0 + 0.5);
    8064:	f2 0f 58 de          	addsd  %xmm6,%xmm3
/home/tenebris/Disk/Racing-code/examples/23-libjpeg-divide-by-zero/libjpeg-turbo-2.0.90/cmyk.h:44
  *k = (JSAMPLE)(255.0 - ktmp * 255.0 + 0.5);
    8068:	f2 0f 58 d6          	addsd  %xmm6,%xmm2
/home/tenebris/Disk/Racing-code/examples/23-libjpeg-divide-by-zero/libjpeg-turbo-2.0.90/cmyk.h:43
  *y = (JSAMPLE)(255.0 - ytmp * 255.0 + 0.5);
    806c:	f2 0f 2c c3          	cvttsd2si %xmm3,%eax
    8070:	88 43 fe             	mov    %al,-0x2(%rbx)
/home/tenebris/Disk/Racing-code/examples/23-libjpeg-divide-by-zero/libjpeg-turbo-2.0.90/cmyk.h:44
  *k = (JSAMPLE)(255.0 - ktmp * 255.0 + 0.5);
    8073:	f2 0f 2c c2          	cvttsd2si %xmm2,%eax
    8077:	88 43 ff             	mov    %al,-0x1(%rbx)
get_8bit_row():
/home/tenebris/Disk/Racing-code/examples/23-libjpeg-divide-by-zero/libjpeg-turbo-2.0.90/rdbmp.c:178
    for (col = cinfo->image_width; col > 0; col--) {
    807a:	48 3b 2c 24          	cmp    (%rsp),%rbp
    807e:	0f 85 bc fe ff ff    	jne    7f40 <get_8bit_row+0x1e0>
    8084:	e9 31 fe ff ff       	jmp    7eba <get_8bit_row+0x15a>
    8089:	0f 1f 80 00 00 00 00 	nopl   0x0(%rax)
/home/tenebris/Disk/Racing-code/examples/23-libjpeg-divide-by-zero/libjpeg-turbo-2.0.90/rdbmp.c:171
    for (col = cinfo->image_width; col > 0; col--) {
    8090:	41 89 c7             	mov    %eax,%r15d
    8093:	4a 8d 4c 3d 00       	lea    0x0(%rbp,%r15,1),%rcx
    8098:	48 89 0c 24          	mov    %rcx,(%rsp)
    809c:	85 c0                	test   %eax,%eax
    809e:	0f 84 16 fe ff ff    	je     7eba <get_8bit_row+0x15a>
    80a4:	0f 1f 40 00          	nopl   0x0(%rax)
/home/tenebris/Disk/Racing-code/examples/23-libjpeg-divide-by-zero/libjpeg-turbo-2.0.90/rdbmp.c:172
      t = *inptr++;
    80a8:	0f b6 55 00          	movzbl 0x0(%rbp),%edx
    80ac:	48 83 c5 01          	add    $0x1,%rbp
    80b0:	41 89 d7             	mov    %edx,%r15d
/home/tenebris/Disk/Racing-code/examples/23-libjpeg-divide-by-zero/libjpeg-turbo-2.0.90/rdbmp.c:173
      if (t >= cmaplen)
    80b3:	41 39 d6             	cmp    %edx,%r14d
    80b6:	7f 10                	jg     80c8 <get_8bit_row+0x368>
/home/tenebris/Disk/Racing-code/examples/23-libjpeg-divide-by-zero/libjpeg-turbo-2.0.90/rdbmp.c:174
        ERREXIT(cinfo, JERR_BMP_OUTOFRANGE);
    80b8:	49 8b 55 00          	mov    0x0(%r13),%rdx
    80bc:	4c 89 ef             	mov    %r13,%rdi
    80bf:	c7 42 28 f1 03 00 00 	movl   $0x3f1,0x28(%rdx)
    80c6:	ff 12                	call   *(%rdx)
/home/tenebris/Disk/Racing-code/examples/23-libjpeg-divide-by-zero/libjpeg-turbo-2.0.90/rdbmp.c:175 (discriminator 2)
      *outptr++ = colormap[0][t];
    80c8:	49 8b 14 24          	mov    (%r12),%rdx
    80cc:	41 0f b6 c7          	movzbl %r15b,%eax
    80d0:	48 83 c3 01          	add    $0x1,%rbx
    80d4:	0f b6 04 02          	movzbl (%rdx,%rax,1),%eax
    80d8:	88 43 ff             	mov    %al,-0x1(%rbx)
/home/tenebris/Disk/Racing-code/examples/23-libjpeg-divide-by-zero/libjpeg-turbo-2.0.90/rdbmp.c:171 (discriminator 2)
    for (col = cinfo->image_width; col > 0; col--) {
    80db:	48 3b 2c 24          	cmp    (%rsp),%rbp
    80df:	75 c7                	jne    80a8 <get_8bit_row+0x348>
    80e1:	e9 d4 fd ff ff       	jmp    7eba <get_8bit_row+0x15a>
    80e6:	66 2e 0f 1f 84 00 00 	cs nopw 0x0(%rax,%rax,1)
    80ed:	00 00 00 
rgb_to_cmyk():
/home/tenebris/Disk/Racing-code/examples/23-libjpeg-divide-by-zero/libjpeg-turbo-2.0.90/cmyk.h:41
  *c = (JSAMPLE)(255.0 - ctmp * 255.0 + 0.5);
    80f0:	c6 03 ff             	movb   $0xff,(%rbx)
get_8bit_row():
/home/tenebris/Disk/Racing-code/examples/23-libjpeg-divide-by-zero/libjpeg-turbo-2.0.90/rdbmp.c:184
      outptr += 4;
    80f3:	48 83 c3 04          	add    $0x4,%rbx
rgb_to_cmyk():
/home/tenebris/Disk/Racing-code/examples/23-libjpeg-divide-by-zero/libjpeg-turbo-2.0.90/cmyk.h:42
  *m = (JSAMPLE)(255.0 - mtmp * 255.0 + 0.5);
    80f7:	c6 43 fd ff          	movb   $0xff,-0x3(%rbx)
/home/tenebris/Disk/Racing-code/examples/23-libjpeg-divide-by-zero/libjpeg-turbo-2.0.90/cmyk.h:43
  *y = (JSAMPLE)(255.0 - ytmp * 255.0 + 0.5);
    80fb:	c6 43 fe ff          	movb   $0xff,-0x2(%rbx)
/home/tenebris/Disk/Racing-code/examples/23-libjpeg-divide-by-zero/libjpeg-turbo-2.0.90/cmyk.h:44
  *k = (JSAMPLE)(255.0 - ktmp * 255.0 + 0.5);
    80ff:	c6 43 ff 00          	movb   $0x0,-0x1(%rbx)
get_8bit_row():
/home/tenebris/Disk/Racing-code/examples/23-libjpeg-divide-by-zero/libjpeg-turbo-2.0.90/rdbmp.c:178
    for (col = cinfo->image_width; col > 0; col--) {
    8103:	48 3b 2c 24          	cmp    (%rsp),%rbp
    8107:	0f 85 33 fe ff ff    	jne    7f40 <get_8bit_row+0x1e0>
    810d:	e9 a8 fd ff ff       	jmp    7eba <get_8bit_row+0x15a>
    8112:	66 0f 1f 44 00 00    	nopw   0x0(%rax,%rax,1)
/home/tenebris/Disk/Racing-code/examples/23-libjpeg-divide-by-zero/libjpeg-turbo-2.0.90/rdbmp.c:205
      for (col = cinfo->image_width; col > 0; col--) {
    8118:	85 c0                	test   %eax,%eax
    811a:	0f 84 9a fd ff ff    	je     7eba <get_8bit_row+0x15a>
    8120:	41 89 c7             	mov    %eax,%r15d
    8123:	4c 8d 14 0b          	lea    (%rbx,%rcx,1),%r10
    8127:	49 01 ef             	add    %rbp,%r15
    812a:	66 0f 1f 44 00 00    	nopw   0x0(%rax,%rax,1)
/home/tenebris/Disk/Racing-code/examples/23-libjpeg-divide-by-zero/libjpeg-turbo-2.0.90/rdbmp.c:206
        t = *inptr++;
    8130:	0f b6 45 00          	movzbl 0x0(%rbp),%eax
    8134:	48 83 c5 01          	add    $0x1,%rbp
    8138:	89 c3                	mov    %eax,%ebx
/home/tenebris/Disk/Racing-code/examples/23-libjpeg-divide-by-zero/libjpeg-turbo-2.0.90/rdbmp.c:207
        if (t >= cmaplen)
    813a:	41 39 c6             	cmp    %eax,%r14d
    813d:	7f 40                	jg     817f <get_8bit_row+0x41f>
/home/tenebris/Disk/Racing-code/examples/23-libjpeg-divide-by-zero/libjpeg-turbo-2.0.90/rdbmp.c:208
          ERREXIT(cinfo, JERR_BMP_OUTOFRANGE);
    813f:	49 8b 45 00          	mov    0x0(%r13),%rax
    8143:	4c 89 54 24 20       	mov    %r10,0x20(%rsp)
    8148:	4c 89 ef             	mov    %r13,%rdi
    814b:	48 89 74 24 18       	mov    %rsi,0x18(%rsp)
    8150:	4c 89 44 24 10       	mov    %r8,0x10(%rsp)
    8155:	4c 89 4c 24 08       	mov    %r9,0x8(%rsp)
    815a:	48 89 0c 24          	mov    %rcx,(%rsp)
    815e:	c7 40 28 f1 03 00 00 	movl   $0x3f1,0x28(%rax)
    8165:	ff 10                	call   *(%rax)
    8167:	4c 8b 54 24 20       	mov    0x20(%rsp),%r10
    816c:	48 8b 74 24 18       	mov    0x18(%rsp),%rsi
    8171:	4c 8b 44 24 10       	mov    0x10(%rsp),%r8
    8176:	4c 8b 4c 24 08       	mov    0x8(%rsp),%r9
    817b:	48 8b 0c 24          	mov    (%rsp),%rcx
/home/tenebris/Disk/Racing-code/examples/23-libjpeg-divide-by-zero/libjpeg-turbo-2.0.90/rdbmp.c:209 (discriminator 2)
        outptr[rindex] = colormap[0][t];
    817f:	49 8b 14 24          	mov    (%r12),%rdx
    8183:	0f b6 c3             	movzbl %bl,%eax
    8186:	0f b6 14 02          	movzbl (%rdx,%rax,1),%edx
    818a:	41 88 12             	mov    %dl,(%r10)
/home/tenebris/Disk/Racing-code/examples/23-libjpeg-divide-by-zero/libjpeg-turbo-2.0.90/rdbmp.c:210 (discriminator 2)
        outptr[gindex] = colormap[1][t];
    818d:	49 8b 54 24 08       	mov    0x8(%r12),%rdx
    8192:	0f b6 3c 02          	movzbl (%rdx,%rax,1),%edi
    8196:	4c 89 d2             	mov    %r10,%rdx
/home/tenebris/Disk/Racing-code/examples/23-libjpeg-divide-by-zero/libjpeg-turbo-2.0.90/rdbmp.c:205 (discriminator 2)
      for (col = cinfo->image_width; col > 0; col--) {
    8199:	49 01 f2             	add    %rsi,%r10
    819c:	48 29 ca             	sub    %rcx,%rdx
/home/tenebris/Disk/Racing-code/examples/23-libjpeg-divide-by-zero/libjpeg-turbo-2.0.90/rdbmp.c:210 (discriminator 2)
        outptr[gindex] = colormap[1][t];
    819f:	42 88 3c 0a          	mov    %dil,(%rdx,%r9,1)
/home/tenebris/Disk/Racing-code/examples/23-libjpeg-divide-by-zero/libjpeg-turbo-2.0.90/rdbmp.c:211 (discriminator 2)
        outptr[bindex] = colormap[2][t];
    81a3:	49 8b 7c 24 10       	mov    0x10(%r12),%rdi
    81a8:	0f b6 04 07          	movzbl (%rdi,%rax,1),%eax
    81ac:	42 88 04 02          	mov    %al,(%rdx,%r8,1)
/home/tenebris/Disk/Racing-code/examples/23-libjpeg-divide-by-zero/libjpeg-turbo-2.0.90/rdbmp.c:205 (discriminator 2)
      for (col = cinfo->image_width; col > 0; col--) {
    81b0:	4c 39 fd             	cmp    %r15,%rbp
    81b3:	0f 85 77 ff ff ff    	jne    8130 <get_8bit_row+0x3d0>
    81b9:	e9 fc fc ff ff       	jmp    7eba <get_8bit_row+0x15a>
    81be:	66 90                	xchg   %ax,%ax

00000000000081c0 <get_24bit_row>:
get_24bit_row():
/home/tenebris/Disk/Racing-code/examples/23-libjpeg-divide-by-zero/libjpeg-turbo-2.0.90/rdbmp.c:224
{
    81c0:	f3 0f 1e fa          	endbr64 
    81c4:	55                   	push   %rbp
    81c5:	48 89 fd             	mov    %rdi,%rbp
    81c8:	53                   	push   %rbx
    81c9:	48 89 f3             	mov    %rsi,%rbx
    81cc:	48 83 ec 08          	sub    $0x8,%rsp
/home/tenebris/Disk/Racing-code/examples/23-libjpeg-divide-by-zero/libjpeg-turbo-2.0.90/rdbmp.c:230
  if (source->use_inversion_array) {
    81d0:	8b 46 58             	mov    0x58(%rsi),%eax
    81d3:	85 c0                	test   %eax,%eax
    81d5:	0f 84 e5 00 00 00    	je     82c0 <get_24bit_row+0x100>
/home/tenebris/Disk/Racing-code/examples/23-libjpeg-divide-by-zero/libjpeg-turbo-2.0.90/rdbmp.c:232
    source->source_row--;
    81db:	8b 46 48             	mov    0x48(%rsi),%eax
/home/tenebris/Disk/Racing-code/examples/23-libjpeg-divide-by-zero/libjpeg-turbo-2.0.90/rdbmp.c:233
    image_ptr = (*cinfo->mem->access_virt_sarray)
    81de:	45 31 c0             	xor    %r8d,%r8d
    81e1:	b9 01 00 00 00       	mov    $0x1,%ecx
/home/tenebris/Disk/Racing-code/examples/23-libjpeg-divide-by-zero/libjpeg-turbo-2.0.90/rdbmp.c:232
    source->source_row--;
    81e6:	8d 50 ff             	lea    -0x1(%rax),%edx
/home/tenebris/Disk/Racing-code/examples/23-libjpeg-divide-by-zero/libjpeg-turbo-2.0.90/rdbmp.c:233
    image_ptr = (*cinfo->mem->access_virt_sarray)
    81e9:	48 8b 47 08          	mov    0x8(%rdi),%rax
/home/tenebris/Disk/Racing-code/examples/23-libjpeg-divide-by-zero/libjpeg-turbo-2.0.90/rdbmp.c:232
    source->source_row--;
    81ed:	89 56 48             	mov    %edx,0x48(%rsi)
/home/tenebris/Disk/Racing-code/examples/23-libjpeg-divide-by-zero/libjpeg-turbo-2.0.90/rdbmp.c:233
    image_ptr = (*cinfo->mem->access_virt_sarray)
    81f0:	48 8b 76 40          	mov    0x40(%rsi),%rsi
    81f4:	ff 50 38             	call   *0x38(%rax)
/home/tenebris/Disk/Racing-code/examples/23-libjpeg-divide-by-zero/libjpeg-turbo-2.0.90/rdbmp.c:236
    inptr = image_ptr[0];
    81f7:	48 8b 30             	mov    (%rax),%rsi
/home/tenebris/Disk/Racing-code/examples/23-libjpeg-divide-by-zero/libjpeg-turbo-2.0.90/rdbmp.c:246
  outptr = source->pub.buffer[0];
    81fa:	48 8b 43 20          	mov    0x20(%rbx),%rax
    81fe:	48 8b 38             	mov    (%rax),%rdi
/home/tenebris/Disk/Racing-code/examples/23-libjpeg-divide-by-zero/libjpeg-turbo-2.0.90/rdbmp.c:247
  if (cinfo->in_color_space == JCS_EXT_BGR) {
    8201:	8b 45 3c             	mov    0x3c(%rbp),%eax
    8204:	83 f8 08             	cmp    $0x8,%eax
    8207:	0f 84 f7 00 00 00    	je     8304 <get_24bit_row+0x144>
/home/tenebris/Disk/Racing-code/examples/23-libjpeg-divide-by-zero/libjpeg-turbo-2.0.90/rdbmp.c:250
    for (col = cinfo->image_width; col > 0; col--) {
    820d:	44 8b 45 30          	mov    0x30(%rbp),%r8d
/home/tenebris/Disk/Racing-code/examples/23-libjpeg-divide-by-zero/libjpeg-turbo-2.0.90/rdbmp.c:249
  } else if (cinfo->in_color_space == JCS_CMYK) {
    8211:	83 f8 04             	cmp    $0x4,%eax
    8214:	0f 84 66 01 00 00    	je     8380 <get_24bit_row+0x1c0>
/home/tenebris/Disk/Racing-code/examples/23-libjpeg-divide-by-zero/libjpeg-turbo-2.0.90/rdbmp.c:256
    register int rindex = rgb_red[cinfo->in_color_space];
    821a:	48 8d 15 ff 45 00 00 	lea    0x45ff(%rip),%rdx        # c820 <rgb_red>
/home/tenebris/Disk/Racing-code/examples/23-libjpeg-divide-by-zero/libjpeg-turbo-2.0.90/rdbmp.c:259
    register int aindex = alpha_index[cinfo->in_color_space];
    8221:	4c 8d 0d 78 44 00 00 	lea    0x4478(%rip),%r9        # c6a0 <alpha_index>
/home/tenebris/Disk/Racing-code/examples/23-libjpeg-divide-by-zero/libjpeg-turbo-2.0.90/rdbmp.c:256
    register int rindex = rgb_red[cinfo->in_color_space];
    8228:	4c 63 14 82          	movslq (%rdx,%rax,4),%r10
/home/tenebris/Disk/Racing-code/examples/23-libjpeg-divide-by-zero/libjpeg-turbo-2.0.90/rdbmp.c:259
    register int aindex = alpha_index[cinfo->in_color_space];
    822c:	4d 63 1c 81          	movslq (%r9,%rax,4),%r11
/home/tenebris/Disk/Racing-code/examples/23-libjpeg-divide-by-zero/libjpeg-turbo-2.0.90/rdbmp.c:257
    register int gindex = rgb_green[cinfo->in_color_space];
    8230:	48 8d 15 89 45 00 00 	lea    0x4589(%rip),%rdx        # c7c0 <rgb_green>
/home/tenebris/Disk/Racing-code/examples/23-libjpeg-divide-by-zero/libjpeg-turbo-2.0.90/rdbmp.c:260
    register int ps = rgb_pixelsize[cinfo->in_color_space];
    8237:	4c 8d 0d c2 44 00 00 	lea    0x44c2(%rip),%r9        # c700 <rgb_pixelsize>
/home/tenebris/Disk/Racing-code/examples/23-libjpeg-divide-by-zero/libjpeg-turbo-2.0.90/rdbmp.c:257
    register int gindex = rgb_green[cinfo->in_color_space];
    823e:	48 63 0c 82          	movslq (%rdx,%rax,4),%rcx
/home/tenebris/Disk/Racing-code/examples/23-libjpeg-divide-by-zero/libjpeg-turbo-2.0.90/rdbmp.c:258
    register int bindex = rgb_blue[cinfo->in_color_space];
    8242:	48 8d 15 17 45 00 00 	lea    0x4517(%rip),%rdx        # c760 <rgb_blue>
    8249:	48 63 14 82          	movslq (%rdx,%rax,4),%rdx
/home/tenebris/Disk/Racing-code/examples/23-libjpeg-divide-by-zero/libjpeg-turbo-2.0.90/rdbmp.c:260
    register int ps = rgb_pixelsize[cinfo->in_color_space];
    824d:	41 8b 04 81          	mov    (%r9,%rax,4),%eax
/home/tenebris/Disk/Racing-code/examples/23-libjpeg-divide-by-zero/libjpeg-turbo-2.0.90/rdbmp.c:262
    if (aindex >= 0) {
    8251:	45 85 db             	test   %r11d,%r11d
    8254:	0f 88 c6 00 00 00    	js     8320 <get_24bit_row+0x160>
/home/tenebris/Disk/Racing-code/examples/23-libjpeg-divide-by-zero/libjpeg-turbo-2.0.90/rdbmp.c:263
      for (col = cinfo->image_width; col > 0; col--) {
    825a:	45 85 c0             	test   %r8d,%r8d
    825d:	74 4e                	je     82ad <get_24bit_row+0xed>
/home/tenebris/Disk/Racing-code/examples/23-libjpeg-divide-by-zero/libjpeg-turbo-2.0.90/rdbmp.c:268
        outptr += ps;
    825f:	48 63 d8             	movslq %eax,%rbx
    8262:	48 01 d7             	add    %rdx,%rdi
    8265:	83 f8 01             	cmp    $0x1,%eax
    8268:	44 89 c0             	mov    %r8d,%eax
/home/tenebris/Disk/Racing-code/examples/23-libjpeg-divide-by-zero/libjpeg-turbo-2.0.90/rdbmp.c:265
        outptr[gindex] = *inptr++;
    826b:	4c 63 c9             	movslq %ecx,%r9
    826e:	4c 8d 04 40          	lea    (%rax,%rax,2),%r8
    8272:	0f 85 68 02 00 00    	jne    84e0 <get_24bit_row+0x320>
    8278:	49 01 f0             	add    %rsi,%r8
    827b:	0f 1f 44 00 00       	nopl   0x0(%rax,%rax,1)
/home/tenebris/Disk/Racing-code/examples/23-libjpeg-divide-by-zero/libjpeg-turbo-2.0.90/rdbmp.c:264
        outptr[bindex] = *inptr++;
    8280:	0f b6 06             	movzbl (%rsi),%eax
    8283:	48 83 c6 03          	add    $0x3,%rsi
    8287:	88 07                	mov    %al,(%rdi)
/home/tenebris/Disk/Racing-code/examples/23-libjpeg-divide-by-zero/libjpeg-turbo-2.0.90/rdbmp.c:265
        outptr[gindex] = *inptr++;
    8289:	48 89 f8             	mov    %rdi,%rax
    828c:	0f b6 4e fe          	movzbl -0x2(%rsi),%ecx
/home/tenebris/Disk/Racing-code/examples/23-libjpeg-divide-by-zero/libjpeg-turbo-2.0.90/rdbmp.c:263
      for (col = cinfo->image_width; col > 0; col--) {
    8290:	48 83 c7 01          	add    $0x1,%rdi
    8294:	48 29 d0             	sub    %rdx,%rax
/home/tenebris/Disk/Racing-code/examples/23-libjpeg-divide-by-zero/libjpeg-turbo-2.0.90/rdbmp.c:265
        outptr[gindex] = *inptr++;
    8297:	42 88 0c 08          	mov    %cl,(%rax,%r9,1)
/home/tenebris/Disk/Racing-code/examples/23-libjpeg-divide-by-zero/libjpeg-turbo-2.0.90/rdbmp.c:266
        outptr[rindex] = *inptr++;
    829b:	0f b6 4e ff          	movzbl -0x1(%rsi),%ecx
    829f:	42 88 0c 10          	mov    %cl,(%rax,%r10,1)
/home/tenebris/Disk/Racing-code/examples/23-libjpeg-divide-by-zero/libjpeg-turbo-2.0.90/rdbmp.c:267
        outptr[aindex] = 0xFF;
    82a3:	42 c6 04 18 ff       	movb   $0xff,(%rax,%r11,1)
/home/tenebris/Disk/Racing-code/examples/23-libjpeg-divide-by-zero/libjpeg-turbo-2.0.90/rdbmp.c:263
      for (col = cinfo->image_width; col > 0; col--) {
    82a8:	4c 39 c6             	cmp    %r8,%rsi
    82ab:	75 d3                	jne    8280 <get_24bit_row+0xc0>
/home/tenebris/Disk/Racing-code/examples/23-libjpeg-divide-by-zero/libjpeg-turbo-2.0.90/rdbmp.c:281
}
    82ad:	48 83 c4 08          	add    $0x8,%rsp
    82b1:	b8 01 00 00 00       	mov    $0x1,%eax
    82b6:	5b                   	pop    %rbx
    82b7:	5d                   	pop    %rbp
    82b8:	c3                   	ret    
    82b9:	0f 1f 80 00 00 00 00 	nopl   0x0(%rax)
/home/tenebris/Disk/Racing-code/examples/23-libjpeg-divide-by-zero/libjpeg-turbo-2.0.90/rdbmp.c:238
    if (!ReadOK(source->pub.input_file, source->iobuffer, source->row_width))
    82c0:	8b 56 4c             	mov    0x4c(%rsi),%edx
fread():
/usr/include/x86_64-linux-gnu/bits/stdio2.h:293
    82c3:	48 8b 4e 18          	mov    0x18(%rsi),%rcx
    82c7:	48 8b 7e 60          	mov    0x60(%rsi),%rdi
    82cb:	be 01 00 00 00       	mov    $0x1,%esi
    82d0:	e8 bb 9f ff ff       	call   2290 <fread@plt>
get_24bit_row():
/home/tenebris/Disk/Racing-code/examples/23-libjpeg-divide-by-zero/libjpeg-turbo-2.0.90/rdbmp.c:238
    82d5:	8b 53 4c             	mov    0x4c(%rbx),%edx
    82d8:	48 39 c2             	cmp    %rax,%rdx
    82db:	74 10                	je     82ed <get_24bit_row+0x12d>
/home/tenebris/Disk/Racing-code/examples/23-libjpeg-divide-by-zero/libjpeg-turbo-2.0.90/rdbmp.c:239
      ERREXIT(cinfo, JERR_INPUT_EOF);
    82dd:	48 8b 45 00          	mov    0x0(%rbp),%rax
    82e1:	48 89 ef             	mov    %rbp,%rdi
    82e4:	c7 40 28 2b 00 00 00 	movl   $0x2b,0x28(%rax)
    82eb:	ff 10                	call   *(%rax)
/home/tenebris/Disk/Racing-code/examples/23-libjpeg-divide-by-zero/libjpeg-turbo-2.0.90/rdbmp.c:246
  outptr = source->pub.buffer[0];
    82ed:	48 8b 43 20          	mov    0x20(%rbx),%rax
/home/tenebris/Disk/Racing-code/examples/23-libjpeg-divide-by-zero/libjpeg-turbo-2.0.90/rdbmp.c:240
    inptr = source->iobuffer;
    82f1:	48 8b 73 60          	mov    0x60(%rbx),%rsi
/home/tenebris/Disk/Racing-code/examples/23-libjpeg-divide-by-zero/libjpeg-turbo-2.0.90/rdbmp.c:246
  outptr = source->pub.buffer[0];
    82f5:	48 8b 38             	mov    (%rax),%rdi
/home/tenebris/Disk/Racing-code/examples/23-libjpeg-divide-by-zero/libjpeg-turbo-2.0.90/rdbmp.c:247
  if (cinfo->in_color_space == JCS_EXT_BGR) {
    82f8:	8b 45 3c             	mov    0x3c(%rbp),%eax
    82fb:	83 f8 08             	cmp    $0x8,%eax
    82fe:	0f 85 09 ff ff ff    	jne    820d <get_24bit_row+0x4d>
/home/tenebris/Disk/Racing-code/examples/23-libjpeg-divide-by-zero/libjpeg-turbo-2.0.90/rdbmp.c:248
    MEMCOPY(outptr, inptr, source->row_width);
    8304:	8b 53 4c             	mov    0x4c(%rbx),%edx
memcpy():
/usr/include/x86_64-linux-gnu/bits/string_fortified.h:29
    8307:	e8 14 a0 ff ff       	call   2320 <memcpy@plt>
get_24bit_row():
/home/tenebris/Disk/Racing-code/examples/23-libjpeg-divide-by-zero/libjpeg-turbo-2.0.90/rdbmp.c:281
}
    830c:	48 83 c4 08          	add    $0x8,%rsp
    8310:	b8 01 00 00 00       	mov    $0x1,%eax
    8315:	5b                   	pop    %rbx
    8316:	5d                   	pop    %rbp
    8317:	c3                   	ret    
    8318:	0f 1f 84 00 00 00 00 	nopl   0x0(%rax,%rax,1)
    831f:	00 
/home/tenebris/Disk/Racing-code/examples/23-libjpeg-divide-by-zero/libjpeg-turbo-2.0.90/rdbmp.c:271
      for (col = cinfo->image_width; col > 0; col--) {
    8320:	45 85 c0             	test   %r8d,%r8d
    8323:	74 88                	je     82ad <get_24bit_row+0xed>
    8325:	48 01 d7             	add    %rdx,%rdi
    8328:	83 f8 01             	cmp    $0x1,%eax
/home/tenebris/Disk/Racing-code/examples/23-libjpeg-divide-by-zero/libjpeg-turbo-2.0.90/rdbmp.c:268
        outptr += ps;
    832b:	4c 63 c8             	movslq %eax,%r9
    832e:	44 89 c0             	mov    %r8d,%eax
    8331:	0f 85 e9 01 00 00    	jne    8520 <get_24bit_row+0x360>
    8337:	4c 8d 0c 40          	lea    (%rax,%rax,2),%r9
    833b:	49 01 f1             	add    %rsi,%r9
    833e:	66 90                	xchg   %ax,%ax
/home/tenebris/Disk/Racing-code/examples/23-libjpeg-divide-by-zero/libjpeg-turbo-2.0.90/rdbmp.c:272
        outptr[bindex] = *inptr++;
    8340:	0f b6 06             	movzbl (%rsi),%eax
    8343:	48 83 c6 03          	add    $0x3,%rsi
    8347:	88 07                	mov    %al,(%rdi)
/home/tenebris/Disk/Racing-code/examples/23-libjpeg-divide-by-zero/libjpeg-turbo-2.0.90/rdbmp.c:273
        outptr[gindex] = *inptr++;
    8349:	48 89 f8             	mov    %rdi,%rax
    834c:	44 0f b6 46 fe       	movzbl -0x2(%rsi),%r8d
/home/tenebris/Disk/Racing-code/examples/23-libjpeg-divide-by-zero/libjpeg-turbo-2.0.90/rdbmp.c:271
      for (col = cinfo->image_width; col > 0; col--) {
    8351:	48 83 c7 01          	add    $0x1,%rdi
    8355:	48 29 d0             	sub    %rdx,%rax
/home/tenebris/Disk/Racing-code/examples/23-libjpeg-divide-by-zero/libjpeg-turbo-2.0.90/rdbmp.c:273
        outptr[gindex] = *inptr++;
    8358:	44 88 04 08          	mov    %r8b,(%rax,%rcx,1)
/home/tenebris/Disk/Racing-code/examples/23-libjpeg-divide-by-zero/libjpeg-turbo-2.0.90/rdbmp.c:274
        outptr[rindex] = *inptr++;
    835c:	44 0f b6 46 ff       	movzbl -0x1(%rsi),%r8d
    8361:	46 88 04 10          	mov    %r8b,(%rax,%r10,1)
/home/tenebris/Disk/Racing-code/examples/23-libjpeg-divide-by-zero/libjpeg-turbo-2.0.90/rdbmp.c:271
      for (col = cinfo->image_width; col > 0; col--) {
    8365:	4c 39 ce             	cmp    %r9,%rsi
    8368:	75 d6                	jne    8340 <get_24bit_row+0x180>
/home/tenebris/Disk/Racing-code/examples/23-libjpeg-divide-by-zero/libjpeg-turbo-2.0.90/rdbmp.c:281
}
    836a:	48 83 c4 08          	add    $0x8,%rsp
    836e:	b8 01 00 00 00       	mov    $0x1,%eax
    8373:	5b                   	pop    %rbx
    8374:	5d                   	pop    %rbp
    8375:	c3                   	ret    
    8376:	66 2e 0f 1f 84 00 00 	cs nopw 0x0(%rax,%rax,1)
    837d:	00 00 00 
/home/tenebris/Disk/Racing-code/examples/23-libjpeg-divide-by-zero/libjpeg-turbo-2.0.90/rdbmp.c:250
    for (col = cinfo->image_width; col > 0; col--) {
    8380:	45 85 c0             	test   %r8d,%r8d
    8383:	0f 84 24 ff ff ff    	je     82ad <get_24bit_row+0xed>
    8389:	44 89 c0             	mov    %r8d,%eax
    838c:	f2 0f 10 0d 54 3f 00 	movsd  0x3f54(%rip),%xmm1        # c2e8 <rgb_red+0x48>
    8393:	00 
    8394:	f2 0f 10 2d 54 3f 00 	movsd  0x3f54(%rip),%xmm5        # c2f0 <rgb_red+0x50>
    839b:	00 
rgb_to_cmyk():
/home/tenebris/Disk/Racing-code/examples/23-libjpeg-divide-by-zero/libjpeg-turbo-2.0.90/cmyk.h:41
  *c = (JSAMPLE)(255.0 - ctmp * 255.0 + 0.5);
    839c:	f2 0f 10 35 54 3f 00 	movsd  0x3f54(%rip),%xmm6        # c2f8 <rgb_red+0x58>
    83a3:	00 
    83a4:	48 8d 0c 87          	lea    (%rdi,%rax,4),%rcx
    83a8:	0f 1f 84 00 00 00 00 	nopl   0x0(%rax,%rax,1)
    83af:	00 
get_24bit_row():
/home/tenebris/Disk/Racing-code/examples/23-libjpeg-divide-by-zero/libjpeg-turbo-2.0.90/rdbmp.c:251 (discriminator 3)
      JSAMPLE b = *inptr++, g = *inptr++, r = *inptr++;
    83b0:	0f b6 06             	movzbl (%rsi),%eax
    83b3:	0f b6 56 01          	movzbl 0x1(%rsi),%edx
rgb_to_cmyk():
/home/tenebris/Disk/Racing-code/examples/23-libjpeg-divide-by-zero/libjpeg-turbo-2.0.90/cmyk.h:30 (discriminator 3)
  double ctmp = 1.0 - ((double)r / 255.0);
    83b7:	66 0f ef c0          	pxor   %xmm0,%xmm0
    83bb:	66 0f 28 e5          	movapd %xmm5,%xmm4
    83bf:	44 0f b6 46 02       	movzbl 0x2(%rsi),%r8d
/home/tenebris/Disk/Racing-code/examples/23-libjpeg-divide-by-zero/libjpeg-turbo-2.0.90/cmyk.h:31 (discriminator 3)
  double mtmp = 1.0 - ((double)g / 255.0);
    83c4:	66 0f 28 dd          	movapd %xmm5,%xmm3
/home/tenebris/Disk/Racing-code/examples/23-libjpeg-divide-by-zero/libjpeg-turbo-2.0.90/cmyk.h:32 (discriminator 3)
  double ytmp = 1.0 - ((double)b / 255.0);
    83c8:	66 0f 28 d5          	movapd %xmm5,%xmm2
    83cc:	48 83 c6 03          	add    $0x3,%rsi
/home/tenebris/Disk/Racing-code/examples/23-libjpeg-divide-by-zero/libjpeg-turbo-2.0.90/cmyk.h:30 (discriminator 3)
  double ctmp = 1.0 - ((double)r / 255.0);
    83d0:	f2 41 0f 2a c0       	cvtsi2sd %r8d,%xmm0
    83d5:	f2 0f 5e c1          	divsd  %xmm1,%xmm0
    83d9:	f2 0f 5c e0          	subsd  %xmm0,%xmm4
/home/tenebris/Disk/Racing-code/examples/23-libjpeg-divide-by-zero/libjpeg-turbo-2.0.90/cmyk.h:31 (discriminator 3)
  double mtmp = 1.0 - ((double)g / 255.0);
    83dd:	66 0f ef c0          	pxor   %xmm0,%xmm0
    83e1:	f2 0f 2a c2          	cvtsi2sd %edx,%xmm0
    83e5:	f2 0f 5e c1          	divsd  %xmm1,%xmm0
    83e9:	f2 0f 5c d8          	subsd  %xmm0,%xmm3
/home/tenebris/Disk/Racing-code/examples/23-libjpeg-divide-by-zero/libjpeg-turbo-2.0.90/cmyk.h:32 (discriminator 3)
  double ytmp = 1.0 - ((double)b / 255.0);
    83ed:	66 0f ef c0          	pxor   %xmm0,%xmm0
    83f1:	f2 0f 2a c0          	cvtsi2sd %eax,%xmm0
    83f5:	f2 0f 5e c1          	divsd  %xmm1,%xmm0
    83f9:	f2 0f 5c d0          	subsd  %xmm0,%xmm2
/home/tenebris/Disk/Racing-code/examples/23-libjpeg-divide-by-zero/libjpeg-turbo-2.0.90/cmyk.h:33 (discriminator 3)
  double ktmp = MIN(MIN(ctmp, mtmp), ytmp);
    83fd:	66 0f 28 c4          	movapd %xmm4,%xmm0
    8401:	f2 0f 5d c3          	minsd  %xmm3,%xmm0
    8405:	f2 0f 5d c2          	minsd  %xmm2,%xmm0
/home/tenebris/Disk/Racing-code/examples/23-libjpeg-divide-by-zero/libjpeg-turbo-2.0.90/cmyk.h:35 (discriminator 3)
  if (ktmp == 1.0) ctmp = mtmp = ytmp = 0.0;
    8409:	66 0f 2e c5          	ucomisd %xmm5,%xmm0
    840d:	7a 06                	jp     8415 <get_24bit_row+0x255>
/home/tenebris/Disk/Racing-code/examples/23-libjpeg-divide-by-zero/libjpeg-turbo-2.0.90/cmyk.h:35
    840f:	0f 84 9b 00 00 00    	je     84b0 <get_24bit_row+0x2f0>
/home/tenebris/Disk/Racing-code/examples/23-libjpeg-divide-by-zero/libjpeg-turbo-2.0.90/cmyk.h:37
    ctmp = (ctmp - ktmp) / (1.0 - ktmp);
    8415:	66 0f 28 fd          	movapd %xmm5,%xmm7
    8419:	f2 0f 5c e0          	subsd  %xmm0,%xmm4
/home/tenebris/Disk/Racing-code/examples/23-libjpeg-divide-by-zero/libjpeg-turbo-2.0.90/cmyk.h:38
    mtmp = (mtmp - ktmp) / (1.0 - ktmp);
    841d:	f2 0f 5c d8          	subsd  %xmm0,%xmm3
get_24bit_row():
/home/tenebris/Disk/Racing-code/examples/23-libjpeg-divide-by-zero/libjpeg-turbo-2.0.90/rdbmp.c:253
      outptr += 4;
    8421:	48 83 c7 04          	add    $0x4,%rdi
rgb_to_cmyk():
/home/tenebris/Disk/Racing-code/examples/23-libjpeg-divide-by-zero/libjpeg-turbo-2.0.90/cmyk.h:37
    ctmp = (ctmp - ktmp) / (1.0 - ktmp);
    8425:	f2 0f 5c f8          	subsd  %xmm0,%xmm7
/home/tenebris/Disk/Racing-code/examples/23-libjpeg-divide-by-zero/libjpeg-turbo-2.0.90/cmyk.h:39
    ytmp = (ytmp - ktmp) / (1.0 - ktmp);
    8429:	f2 0f 5c d0          	subsd  %xmm0,%xmm2
/home/tenebris/Disk/Racing-code/examples/23-libjpeg-divide-by-zero/libjpeg-turbo-2.0.90/cmyk.h:41
  *c = (JSAMPLE)(255.0 - ctmp * 255.0 + 0.5);
    842d:	66 44 0f 28 c1       	movapd %xmm1,%xmm8
/home/tenebris/Disk/Racing-code/examples/23-libjpeg-divide-by-zero/libjpeg-turbo-2.0.90/cmyk.h:44
  *k = (JSAMPLE)(255.0 - ktmp * 255.0 + 0.5);
    8432:	f2 0f 59 c1          	mulsd  %xmm1,%xmm0
/home/tenebris/Disk/Racing-code/examples/23-libjpeg-divide-by-zero/libjpeg-turbo-2.0.90/cmyk.h:37
    ctmp = (ctmp - ktmp) / (1.0 - ktmp);
    8436:	f2 0f 5e e7          	divsd  %xmm7,%xmm4
/home/tenebris/Disk/Racing-code/examples/23-libjpeg-divide-by-zero/libjpeg-turbo-2.0.90/cmyk.h:38
    mtmp = (mtmp - ktmp) / (1.0 - ktmp);
    843a:	f2 0f 5e df          	divsd  %xmm7,%xmm3
/home/tenebris/Disk/Racing-code/examples/23-libjpeg-divide-by-zero/libjpeg-turbo-2.0.90/cmyk.h:41
  *c = (JSAMPLE)(255.0 - ctmp * 255.0 + 0.5);
    843e:	f2 0f 59 e1          	mulsd  %xmm1,%xmm4
    8442:	f2 44 0f 5c c4       	subsd  %xmm4,%xmm8
/home/tenebris/Disk/Racing-code/examples/23-libjpeg-divide-by-zero/libjpeg-turbo-2.0.90/cmyk.h:42
  *m = (JSAMPLE)(255.0 - mtmp * 255.0 + 0.5);
    8447:	66 0f 28 e1          	movapd %xmm1,%xmm4
/home/tenebris/Disk/Racing-code/examples/23-libjpeg-divide-by-zero/libjpeg-turbo-2.0.90/cmyk.h:41
  *c = (JSAMPLE)(255.0 - ctmp * 255.0 + 0.5);
    844b:	f2 44 0f 58 c6       	addsd  %xmm6,%xmm8
    8450:	f2 41 0f 2c c0       	cvttsd2si %xmm8,%eax
/home/tenebris/Disk/Racing-code/examples/23-libjpeg-divide-by-zero/libjpeg-turbo-2.0.90/cmyk.h:39
    ytmp = (ytmp - ktmp) / (1.0 - ktmp);
    8455:	f2 0f 5e d7          	divsd  %xmm7,%xmm2
/home/tenebris/Disk/Racing-code/examples/23-libjpeg-divide-by-zero/libjpeg-turbo-2.0.90/cmyk.h:41
  *c = (JSAMPLE)(255.0 - ctmp * 255.0 + 0.5);
    8459:	88 47 fc             	mov    %al,-0x4(%rdi)
/home/tenebris/Disk/Racing-code/examples/23-libjpeg-divide-by-zero/libjpeg-turbo-2.0.90/cmyk.h:42
  *m = (JSAMPLE)(255.0 - mtmp * 255.0 + 0.5);
    845c:	f2 0f 59 d9          	mulsd  %xmm1,%xmm3
    8460:	f2 0f 5c e3          	subsd  %xmm3,%xmm4
/home/tenebris/Disk/Racing-code/examples/23-libjpeg-divide-by-zero/libjpeg-turbo-2.0.90/cmyk.h:43
  *y = (JSAMPLE)(255.0 - ytmp * 255.0 + 0.5);
    8464:	66 0f 28 d9          	movapd %xmm1,%xmm3
/home/tenebris/Disk/Racing-code/examples/23-libjpeg-divide-by-zero/libjpeg-turbo-2.0.90/cmyk.h:42
  *m = (JSAMPLE)(255.0 - mtmp * 255.0 + 0.5);
    8468:	f2 0f 58 e6          	addsd  %xmm6,%xmm4
    846c:	f2 0f 2c c4          	cvttsd2si %xmm4,%eax
    8470:	88 47 fd             	mov    %al,-0x3(%rdi)
/home/tenebris/Disk/Racing-code/examples/23-libjpeg-divide-by-zero/libjpeg-turbo-2.0.90/cmyk.h:43
  *y = (JSAMPLE)(255.0 - ytmp * 255.0 + 0.5);
    8473:	f2 0f 59 d1          	mulsd  %xmm1,%xmm2
    8477:	f2 0f 5c da          	subsd  %xmm2,%xmm3
/home/tenebris/Disk/Racing-code/examples/23-libjpeg-divide-by-zero/libjpeg-turbo-2.0.90/cmyk.h:44
  *k = (JSAMPLE)(255.0 - ktmp * 255.0 + 0.5);
    847b:	66 0f 28 d1          	movapd %xmm1,%xmm2
    847f:	f2 0f 5c d0          	subsd  %xmm0,%xmm2
/home/tenebris/Disk/Racing-code/examples/23-libjpeg-divide-by-zero/libjpeg-turbo-2.0.90/cmyk.h:43
  *y = (JSAMPLE)(255.0 - ytmp * 255.0 + 0.5);
    8483:	f2 0f 58 de          	addsd  %xmm6,%xmm3
/home/tenebris/Disk/Racing-code/examples/23-libjpeg-divide-by-zero/libjpeg-turbo-2.0.90/cmyk.h:44
  *k = (JSAMPLE)(255.0 - ktmp * 255.0 + 0.5);
    8487:	f2 0f 58 d6          	addsd  %xmm6,%xmm2
/home/tenebris/Disk/Racing-code/examples/23-libjpeg-divide-by-zero/libjpeg-turbo-2.0.90/cmyk.h:43
  *y = (JSAMPLE)(255.0 - ytmp * 255.0 + 0.5);
    848b:	f2 0f 2c c3          	cvttsd2si %xmm3,%eax
    848f:	88 47 fe             	mov    %al,-0x2(%rdi)
/home/tenebris/Disk/Racing-code/examples/23-libjpeg-divide-by-zero/libjpeg-turbo-2.0.90/cmyk.h:44
  *k = (JSAMPLE)(255.0 - ktmp * 255.0 + 0.5);
    8492:	f2 0f 2c c2          	cvttsd2si %xmm2,%eax
    8496:	88 47 ff             	mov    %al,-0x1(%rdi)
get_24bit_row():
/home/tenebris/Disk/Racing-code/examples/23-libjpeg-divide-by-zero/libjpeg-turbo-2.0.90/rdbmp.c:250
    for (col = cinfo->image_width; col > 0; col--) {
    8499:	48 39 cf             	cmp    %rcx,%rdi
    849c:	0f 85 0e ff ff ff    	jne    83b0 <get_24bit_row+0x1f0>
/home/tenebris/Disk/Racing-code/examples/23-libjpeg-divide-by-zero/libjpeg-turbo-2.0.90/rdbmp.c:281
}
    84a2:	48 83 c4 08          	add    $0x8,%rsp
    84a6:	b8 01 00 00 00       	mov    $0x1,%eax
    84ab:	5b                   	pop    %rbx
    84ac:	5d                   	pop    %rbp
    84ad:	c3                   	ret    
    84ae:	66 90                	xchg   %ax,%ax
rgb_to_cmyk():
/home/tenebris/Disk/Racing-code/examples/23-libjpeg-divide-by-zero/libjpeg-turbo-2.0.90/cmyk.h:41
  *c = (JSAMPLE)(255.0 - ctmp * 255.0 + 0.5);
    84b0:	c6 07 ff             	movb   $0xff,(%rdi)
get_24bit_row():
/home/tenebris/Disk/Racing-code/examples/23-libjpeg-divide-by-zero/libjpeg-turbo-2.0.90/rdbmp.c:253
      outptr += 4;
    84b3:	48 83 c7 04          	add    $0x4,%rdi
rgb_to_cmyk():
/home/tenebris/Disk/Racing-code/examples/23-libjpeg-divide-by-zero/libjpeg-turbo-2.0.90/cmyk.h:42
  *m = (JSAMPLE)(255.0 - mtmp * 255.0 + 0.5);
    84b7:	c6 47 fd ff          	movb   $0xff,-0x3(%rdi)
/home/tenebris/Disk/Racing-code/examples/23-libjpeg-divide-by-zero/libjpeg-turbo-2.0.90/cmyk.h:43
  *y = (JSAMPLE)(255.0 - ytmp * 255.0 + 0.5);
    84bb:	c6 47 fe ff          	movb   $0xff,-0x2(%rdi)
/home/tenebris/Disk/Racing-code/examples/23-libjpeg-divide-by-zero/libjpeg-turbo-2.0.90/cmyk.h:44
  *k = (JSAMPLE)(255.0 - ktmp * 255.0 + 0.5);
    84bf:	c6 47 ff 00          	movb   $0x0,-0x1(%rdi)
get_24bit_row():
/home/tenebris/Disk/Racing-code/examples/23-libjpeg-divide-by-zero/libjpeg-turbo-2.0.90/rdbmp.c:250
    for (col = cinfo->image_width; col > 0; col--) {
    84c3:	48 39 cf             	cmp    %rcx,%rdi
    84c6:	0f 85 e4 fe ff ff    	jne    83b0 <get_24bit_row+0x1f0>
/home/tenebris/Disk/Racing-code/examples/23-libjpeg-divide-by-zero/libjpeg-turbo-2.0.90/rdbmp.c:281
}
    84cc:	48 83 c4 08          	add    $0x8,%rsp
    84d0:	b8 01 00 00 00       	mov    $0x1,%eax
    84d5:	5b                   	pop    %rbx
    84d6:	5d                   	pop    %rbp
    84d7:	c3                   	ret    
    84d8:	0f 1f 84 00 00 00 00 	nopl   0x0(%rax,%rax,1)
    84df:	00 
    84e0:	49 01 f0             	add    %rsi,%r8
    84e3:	0f 1f 44 00 00       	nopl   0x0(%rax,%rax,1)
/home/tenebris/Disk/Racing-code/examples/23-libjpeg-divide-by-zero/libjpeg-turbo-2.0.90/rdbmp.c:264 (discriminator 3)
        outptr[bindex] = *inptr++;
    84e8:	0f b6 06             	movzbl (%rsi),%eax
    84eb:	48 83 c6 03          	add    $0x3,%rsi
    84ef:	88 07                	mov    %al,(%rdi)
/home/tenebris/Disk/Racing-code/examples/23-libjpeg-divide-by-zero/libjpeg-turbo-2.0.90/rdbmp.c:265 (discriminator 3)
        outptr[gindex] = *inptr++;
    84f1:	48 89 f8             	mov    %rdi,%rax
    84f4:	0f b6 4e fe          	movzbl -0x2(%rsi),%ecx
/home/tenebris/Disk/Racing-code/examples/23-libjpeg-divide-by-zero/libjpeg-turbo-2.0.90/rdbmp.c:263 (discriminator 3)
      for (col = cinfo->image_width; col > 0; col--) {
    84f8:	48 01 df             	add    %rbx,%rdi
    84fb:	48 29 d0             	sub    %rdx,%rax
/home/tenebris/Disk/Racing-code/examples/23-libjpeg-divide-by-zero/libjpeg-turbo-2.0.90/rdbmp.c:265 (discriminator 3)
        outptr[gindex] = *inptr++;
    84fe:	42 88 0c 08          	mov    %cl,(%rax,%r9,1)
/home/tenebris/Disk/Racing-code/examples/23-libjpeg-divide-by-zero/libjpeg-turbo-2.0.90/rdbmp.c:266 (discriminator 3)
        outptr[rindex] = *inptr++;
    8502:	0f b6 4e ff          	movzbl -0x1(%rsi),%ecx
    8506:	42 88 0c 10          	mov    %cl,(%rax,%r10,1)
/home/tenebris/Disk/Racing-code/examples/23-libjpeg-divide-by-zero/libjpeg-turbo-2.0.90/rdbmp.c:267 (discriminator 3)
        outptr[aindex] = 0xFF;
    850a:	42 c6 04 18 ff       	movb   $0xff,(%rax,%r11,1)
/home/tenebris/Disk/Racing-code/examples/23-libjpeg-divide-by-zero/libjpeg-turbo-2.0.90/rdbmp.c:263 (discriminator 3)
      for (col = cinfo->image_width; col > 0; col--) {
    850f:	4c 39 c6             	cmp    %r8,%rsi
    8512:	75 d4                	jne    84e8 <get_24bit_row+0x328>
    8514:	e9 94 fd ff ff       	jmp    82ad <get_24bit_row+0xed>
    8519:	0f 1f 80 00 00 00 00 	nopl   0x0(%rax)
    8520:	4c 8d 1c 40          	lea    (%rax,%rax,2),%r11
    8524:	49 01 f3             	add    %rsi,%r11
    8527:	66 0f 1f 84 00 00 00 	nopw   0x0(%rax,%rax,1)
    852e:	00 00 
/home/tenebris/Disk/Racing-code/examples/23-libjpeg-divide-by-zero/libjpeg-turbo-2.0.90/rdbmp.c:272 (discriminator 3)
        outptr[bindex] = *inptr++;
    8530:	0f b6 06             	movzbl (%rsi),%eax
    8533:	48 83 c6 03          	add    $0x3,%rsi
    8537:	88 07                	mov    %al,(%rdi)
/home/tenebris/Disk/Racing-code/examples/23-libjpeg-divide-by-zero/libjpeg-turbo-2.0.90/rdbmp.c:273 (discriminator 3)
        outptr[gindex] = *inptr++;
    8539:	48 89 f8             	mov    %rdi,%rax
    853c:	44 0f b6 46 fe       	movzbl -0x2(%rsi),%r8d
/home/tenebris/Disk/Racing-code/examples/23-libjpeg-divide-by-zero/libjpeg-turbo-2.0.90/rdbmp.c:271 (discriminator 3)
      for (col = cinfo->image_width; col > 0; col--) {
    8541:	4c 01 cf             	add    %r9,%rdi
    8544:	48 29 d0             	sub    %rdx,%rax
/home/tenebris/Disk/Racing-code/examples/23-libjpeg-divide-by-zero/libjpeg-turbo-2.0.90/rdbmp.c:273 (discriminator 3)
        outptr[gindex] = *inptr++;
    8547:	44 88 04 08          	mov    %r8b,(%rax,%rcx,1)
/home/tenebris/Disk/Racing-code/examples/23-libjpeg-divide-by-zero/libjpeg-turbo-2.0.90/rdbmp.c:274 (discriminator 3)
        outptr[rindex] = *inptr++;
    854b:	44 0f b6 46 ff       	movzbl -0x1(%rsi),%r8d
    8550:	46 88 04 10          	mov    %r8b,(%rax,%r10,1)
/home/tenebris/Disk/Racing-code/examples/23-libjpeg-divide-by-zero/libjpeg-turbo-2.0.90/rdbmp.c:271 (discriminator 3)
      for (col = cinfo->image_width; col > 0; col--) {
    8554:	49 39 f3             	cmp    %rsi,%r11
    8557:	75 d7                	jne    8530 <get_24bit_row+0x370>
    8559:	e9 4f fd ff ff       	jmp    82ad <get_24bit_row+0xed>
    855e:	66 90                	xchg   %ax,%ax

0000000000008560 <get_32bit_row>:
get_32bit_row():
/home/tenebris/Disk/Racing-code/examples/23-libjpeg-divide-by-zero/libjpeg-turbo-2.0.90/rdbmp.c:287
{
    8560:	f3 0f 1e fa          	endbr64 
    8564:	55                   	push   %rbp
    8565:	48 89 fd             	mov    %rdi,%rbp
    8568:	53                   	push   %rbx
    8569:	48 89 f3             	mov    %rsi,%rbx
    856c:	48 83 ec 08          	sub    $0x8,%rsp
/home/tenebris/Disk/Racing-code/examples/23-libjpeg-divide-by-zero/libjpeg-turbo-2.0.90/rdbmp.c:293
  if (source->use_inversion_array) {
    8570:	8b 46 58             	mov    0x58(%rsi),%eax
    8573:	85 c0                	test   %eax,%eax
    8575:	0f 84 e5 00 00 00    	je     8660 <get_32bit_row+0x100>
/home/tenebris/Disk/Racing-code/examples/23-libjpeg-divide-by-zero/libjpeg-turbo-2.0.90/rdbmp.c:295
    source->source_row--;
    857b:	8b 46 48             	mov    0x48(%rsi),%eax
/home/tenebris/Disk/Racing-code/examples/23-libjpeg-divide-by-zero/libjpeg-turbo-2.0.90/rdbmp.c:296
    image_ptr = (*cinfo->mem->access_virt_sarray)
    857e:	45 31 c0             	xor    %r8d,%r8d
    8581:	b9 01 00 00 00       	mov    $0x1,%ecx
/home/tenebris/Disk/Racing-code/examples/23-libjpeg-divide-by-zero/libjpeg-turbo-2.0.90/rdbmp.c:295
    source->source_row--;
    8586:	8d 50 ff             	lea    -0x1(%rax),%edx
/home/tenebris/Disk/Racing-code/examples/23-libjpeg-divide-by-zero/libjpeg-turbo-2.0.90/rdbmp.c:296
    image_ptr = (*cinfo->mem->access_virt_sarray)
    8589:	48 8b 47 08          	mov    0x8(%rdi),%rax
/home/tenebris/Disk/Racing-code/examples/23-libjpeg-divide-by-zero/libjpeg-turbo-2.0.90/rdbmp.c:295
    source->source_row--;
    858d:	89 56 48             	mov    %edx,0x48(%rsi)
/home/tenebris/Disk/Racing-code/examples/23-libjpeg-divide-by-zero/libjpeg-turbo-2.0.90/rdbmp.c:296
    image_ptr = (*cinfo->mem->access_virt_sarray)
    8590:	48 8b 76 40          	mov    0x40(%rsi),%rsi
    8594:	ff 50 38             	call   *0x38(%rax)
/home/tenebris/Disk/Racing-code/examples/23-libjpeg-divide-by-zero/libjpeg-turbo-2.0.90/rdbmp.c:299
    inptr = image_ptr[0];
    8597:	48 8b 30             	mov    (%rax),%rsi
/home/tenebris/Disk/Racing-code/examples/23-libjpeg-divide-by-zero/libjpeg-turbo-2.0.90/rdbmp.c:309
  outptr = source->pub.buffer[0];
    859a:	48 8b 43 20          	mov    0x20(%rbx),%rax
    859e:	48 8b 38             	mov    (%rax),%rdi
/home/tenebris/Disk/Racing-code/examples/23-libjpeg-divide-by-zero/libjpeg-turbo-2.0.90/rdbmp.c:310
  if (cinfo->in_color_space == JCS_EXT_BGRX ||
    85a1:	8b 45 3c             	mov    0x3c(%rbp),%eax
    85a4:	89 c2                	mov    %eax,%edx
    85a6:	83 e2 fb             	and    $0xfffffffb,%edx
    85a9:	83 fa 09             	cmp    $0x9,%edx
    85ac:	0f 84 7e 02 00 00    	je     8830 <get_32bit_row+0x2d0>
/home/tenebris/Disk/Racing-code/examples/23-libjpeg-divide-by-zero/libjpeg-turbo-2.0.90/rdbmp.c:314
    for (col = cinfo->image_width; col > 0; col--) {
    85b2:	44 8b 5d 30          	mov    0x30(%rbp),%r11d
/home/tenebris/Disk/Racing-code/examples/23-libjpeg-divide-by-zero/libjpeg-turbo-2.0.90/rdbmp.c:313
  } else if (cinfo->in_color_space == JCS_CMYK) {
    85b6:	83 f8 04             	cmp    $0x4,%eax
    85b9:	0f 84 19 01 00 00    	je     86d8 <get_32bit_row+0x178>
/home/tenebris/Disk/Racing-code/examples/23-libjpeg-divide-by-zero/libjpeg-turbo-2.0.90/rdbmp.c:321
    register int rindex = rgb_red[cinfo->in_color_space];
    85bf:	48 8d 15 5a 42 00 00 	lea    0x425a(%rip),%rdx        # c820 <rgb_red>
/home/tenebris/Disk/Racing-code/examples/23-libjpeg-divide-by-zero/libjpeg-turbo-2.0.90/rdbmp.c:324
    register int aindex = alpha_index[cinfo->in_color_space];
    85c6:	4c 8d 05 d3 40 00 00 	lea    0x40d3(%rip),%r8        # c6a0 <alpha_index>
/home/tenebris/Disk/Racing-code/examples/23-libjpeg-divide-by-zero/libjpeg-turbo-2.0.90/rdbmp.c:321
    register int rindex = rgb_red[cinfo->in_color_space];
    85cd:	4c 63 0c 82          	movslq (%rdx,%rax,4),%r9
/home/tenebris/Disk/Racing-code/examples/23-libjpeg-divide-by-zero/libjpeg-turbo-2.0.90/rdbmp.c:324
    register int aindex = alpha_index[cinfo->in_color_space];
    85d1:	4d 63 14 80          	movslq (%r8,%rax,4),%r10
/home/tenebris/Disk/Racing-code/examples/23-libjpeg-divide-by-zero/libjpeg-turbo-2.0.90/rdbmp.c:322
    register int gindex = rgb_green[cinfo->in_color_space];
    85d5:	48 8d 15 e4 41 00 00 	lea    0x41e4(%rip),%rdx        # c7c0 <rgb_green>
/home/tenebris/Disk/Racing-code/examples/23-libjpeg-divide-by-zero/libjpeg-turbo-2.0.90/rdbmp.c:325
    register int ps = rgb_pixelsize[cinfo->in_color_space];
    85dc:	4c 8d 05 1d 41 00 00 	lea    0x411d(%rip),%r8        # c700 <rgb_pixelsize>
/home/tenebris/Disk/Racing-code/examples/23-libjpeg-divide-by-zero/libjpeg-turbo-2.0.90/rdbmp.c:322
    register int gindex = rgb_green[cinfo->in_color_space];
    85e3:	48 63 0c 82          	movslq (%rdx,%rax,4),%rcx
/home/tenebris/Disk/Racing-code/examples/23-libjpeg-divide-by-zero/libjpeg-turbo-2.0.90/rdbmp.c:323
    register int bindex = rgb_blue[cinfo->in_color_space];
    85e7:	48 8d 15 72 41 00 00 	lea    0x4172(%rip),%rdx        # c760 <rgb_blue>
    85ee:	48 63 14 82          	movslq (%rdx,%rax,4),%rdx
/home/tenebris/Disk/Racing-code/examples/23-libjpeg-divide-by-zero/libjpeg-turbo-2.0.90/rdbmp.c:325
    register int ps = rgb_pixelsize[cinfo->in_color_space];
    85f2:	41 8b 04 80          	mov    (%r8,%rax,4),%eax
/home/tenebris/Disk/Racing-code/examples/23-libjpeg-divide-by-zero/libjpeg-turbo-2.0.90/rdbmp.c:327
    if (aindex >= 0) {
    85f6:	45 85 d2             	test   %r10d,%r10d
    85f9:	0f 88 49 02 00 00    	js     8848 <get_32bit_row+0x2e8>
/home/tenebris/Disk/Racing-code/examples/23-libjpeg-divide-by-zero/libjpeg-turbo-2.0.90/rdbmp.c:328
      for (col = cinfo->image_width; col > 0; col--) {
    85ff:	45 85 db             	test   %r11d,%r11d
    8602:	74 4c                	je     8650 <get_32bit_row+0xf0>
/home/tenebris/Disk/Racing-code/examples/23-libjpeg-divide-by-zero/libjpeg-turbo-2.0.90/rdbmp.c:333
        outptr += ps;
    8604:	48 63 d8             	movslq %eax,%rbx
    8607:	48 01 d7             	add    %rdx,%rdi
    860a:	83 f8 01             	cmp    $0x1,%eax
    860d:	44 89 d8             	mov    %r11d,%eax
/home/tenebris/Disk/Racing-code/examples/23-libjpeg-divide-by-zero/libjpeg-turbo-2.0.90/rdbmp.c:330
        outptr[gindex] = *inptr++;
    8610:	4c 63 c1             	movslq %ecx,%r8
    8613:	4c 8d 1c 86          	lea    (%rsi,%rax,4),%r11
    8617:	0f 85 83 00 00 00    	jne    86a0 <get_32bit_row+0x140>
    861d:	0f 1f 00             	nopl   (%rax)
/home/tenebris/Disk/Racing-code/examples/23-libjpeg-divide-by-zero/libjpeg-turbo-2.0.90/rdbmp.c:329
        outptr[bindex] = *inptr++;
    8620:	0f b6 06             	movzbl (%rsi),%eax
    8623:	48 83 c6 04          	add    $0x4,%rsi
    8627:	88 07                	mov    %al,(%rdi)
/home/tenebris/Disk/Racing-code/examples/23-libjpeg-divide-by-zero/libjpeg-turbo-2.0.90/rdbmp.c:330
        outptr[gindex] = *inptr++;
    8629:	48 89 f8             	mov    %rdi,%rax
    862c:	0f b6 4e fd          	movzbl -0x3(%rsi),%ecx
/home/tenebris/Disk/Racing-code/examples/23-libjpeg-divide-by-zero/libjpeg-turbo-2.0.90/rdbmp.c:328
      for (col = cinfo->image_width; col > 0; col--) {
    8630:	48 83 c7 01          	add    $0x1,%rdi
    8634:	48 29 d0             	sub    %rdx,%rax
/home/tenebris/Disk/Racing-code/examples/23-libjpeg-divide-by-zero/libjpeg-turbo-2.0.90/rdbmp.c:330
        outptr[gindex] = *inptr++;
    8637:	42 88 0c 00          	mov    %cl,(%rax,%r8,1)
/home/tenebris/Disk/Racing-code/examples/23-libjpeg-divide-by-zero/libjpeg-turbo-2.0.90/rdbmp.c:331
        outptr[rindex] = *inptr++;
    863b:	0f b6 4e fe          	movzbl -0x2(%rsi),%ecx
    863f:	42 88 0c 08          	mov    %cl,(%rax,%r9,1)
/home/tenebris/Disk/Racing-code/examples/23-libjpeg-divide-by-zero/libjpeg-turbo-2.0.90/rdbmp.c:332
        outptr[aindex] = *inptr++;
    8643:	0f b6 4e ff          	movzbl -0x1(%rsi),%ecx
    8647:	42 88 0c 10          	mov    %cl,(%rax,%r10,1)
/home/tenebris/Disk/Racing-code/examples/23-libjpeg-divide-by-zero/libjpeg-turbo-2.0.90/rdbmp.c:328
      for (col = cinfo->image_width; col > 0; col--) {
    864b:	4c 39 de             	cmp    %r11,%rsi
    864e:	75 d0                	jne    8620 <get_32bit_row+0xc0>
/home/tenebris/Disk/Racing-code/examples/23-libjpeg-divide-by-zero/libjpeg-turbo-2.0.90/rdbmp.c:347
}
    8650:	48 83 c4 08          	add    $0x8,%rsp
    8654:	b8 01 00 00 00       	mov    $0x1,%eax
    8659:	5b                   	pop    %rbx
    865a:	5d                   	pop    %rbp
    865b:	c3                   	ret    
    865c:	0f 1f 40 00          	nopl   0x0(%rax)
/home/tenebris/Disk/Racing-code/examples/23-libjpeg-divide-by-zero/libjpeg-turbo-2.0.90/rdbmp.c:301
    if (!ReadOK(source->pub.input_file, source->iobuffer, source->row_width))
    8660:	8b 56 4c             	mov    0x4c(%rsi),%edx
fread():
/usr/include/x86_64-linux-gnu/bits/stdio2.h:293
    8663:	48 8b 4e 18          	mov    0x18(%rsi),%rcx
    8667:	48 8b 7e 60          	mov    0x60(%rsi),%rdi
    866b:	be 01 00 00 00       	mov    $0x1,%esi
    8670:	e8 1b 9c ff ff       	call   2290 <fread@plt>
get_32bit_row():
/home/tenebris/Disk/Racing-code/examples/23-libjpeg-divide-by-zero/libjpeg-turbo-2.0.90/rdbmp.c:301
    8675:	8b 53 4c             	mov    0x4c(%rbx),%edx
    8678:	48 39 c2             	cmp    %rax,%rdx
    867b:	74 10                	je     868d <get_32bit_row+0x12d>
/home/tenebris/Disk/Racing-code/examples/23-libjpeg-divide-by-zero/libjpeg-turbo-2.0.90/rdbmp.c:302
      ERREXIT(cinfo, JERR_INPUT_EOF);
    867d:	48 8b 45 00          	mov    0x0(%rbp),%rax
    8681:	48 89 ef             	mov    %rbp,%rdi
    8684:	c7 40 28 2b 00 00 00 	movl   $0x2b,0x28(%rax)
    868b:	ff 10                	call   *(%rax)
/home/tenebris/Disk/Racing-code/examples/23-libjpeg-divide-by-zero/libjpeg-turbo-2.0.90/rdbmp.c:303
    inptr = source->iobuffer;
    868d:	48 8b 73 60          	mov    0x60(%rbx),%rsi
    8691:	e9 04 ff ff ff       	jmp    859a <get_32bit_row+0x3a>
    8696:	66 2e 0f 1f 84 00 00 	cs nopw 0x0(%rax,%rax,1)
    869d:	00 00 00 
/home/tenebris/Disk/Racing-code/examples/23-libjpeg-divide-by-zero/libjpeg-turbo-2.0.90/rdbmp.c:329 (discriminator 3)
        outptr[bindex] = *inptr++;
    86a0:	0f b6 06             	movzbl (%rsi),%eax
    86a3:	48 83 c6 04          	add    $0x4,%rsi
    86a7:	88 07                	mov    %al,(%rdi)
/home/tenebris/Disk/Racing-code/examples/23-libjpeg-divide-by-zero/libjpeg-turbo-2.0.90/rdbmp.c:330 (discriminator 3)
        outptr[gindex] = *inptr++;
    86a9:	48 89 f8             	mov    %rdi,%rax
    86ac:	0f b6 4e fd          	movzbl -0x3(%rsi),%ecx
/home/tenebris/Disk/Racing-code/examples/23-libjpeg-divide-by-zero/libjpeg-turbo-2.0.90/rdbmp.c:328 (discriminator 3)
      for (col = cinfo->image_width; col > 0; col--) {
    86b0:	48 01 df             	add    %rbx,%rdi
    86b3:	48 29 d0             	sub    %rdx,%rax
/home/tenebris/Disk/Racing-code/examples/23-libjpeg-divide-by-zero/libjpeg-turbo-2.0.90/rdbmp.c:330 (discriminator 3)
        outptr[gindex] = *inptr++;
    86b6:	42 88 0c 00          	mov    %cl,(%rax,%r8,1)
/home/tenebris/Disk/Racing-code/examples/23-libjpeg-divide-by-zero/libjpeg-turbo-2.0.90/rdbmp.c:331 (discriminator 3)
        outptr[rindex] = *inptr++;
    86ba:	0f b6 4e fe          	movzbl -0x2(%rsi),%ecx
    86be:	42 88 0c 08          	mov    %cl,(%rax,%r9,1)
/home/tenebris/Disk/Racing-code/examples/23-libjpeg-divide-by-zero/libjpeg-turbo-2.0.90/rdbmp.c:332 (discriminator 3)
        outptr[aindex] = *inptr++;
    86c2:	0f b6 4e ff          	movzbl -0x1(%rsi),%ecx
    86c6:	42 88 0c 10          	mov    %cl,(%rax,%r10,1)
/home/tenebris/Disk/Racing-code/examples/23-libjpeg-divide-by-zero/libjpeg-turbo-2.0.90/rdbmp.c:328 (discriminator 3)
      for (col = cinfo->image_width; col > 0; col--) {
    86ca:	4c 39 de             	cmp    %r11,%rsi
    86cd:	75 d1                	jne    86a0 <get_32bit_row+0x140>
    86cf:	e9 7c ff ff ff       	jmp    8650 <get_32bit_row+0xf0>
    86d4:	0f 1f 40 00          	nopl   0x0(%rax)
/home/tenebris/Disk/Racing-code/examples/23-libjpeg-divide-by-zero/libjpeg-turbo-2.0.90/rdbmp.c:314
    for (col = cinfo->image_width; col > 0; col--) {
    86d8:	45 85 db             	test   %r11d,%r11d
    86db:	0f 84 6f ff ff ff    	je     8650 <get_32bit_row+0xf0>
    86e1:	44 89 d8             	mov    %r11d,%eax
    86e4:	f2 0f 10 0d fc 3b 00 	movsd  0x3bfc(%rip),%xmm1        # c2e8 <rgb_red+0x48>
    86eb:	00 
    86ec:	f2 0f 10 2d fc 3b 00 	movsd  0x3bfc(%rip),%xmm5        # c2f0 <rgb_red+0x50>
    86f3:	00 
rgb_to_cmyk():
/home/tenebris/Disk/Racing-code/examples/23-libjpeg-divide-by-zero/libjpeg-turbo-2.0.90/cmyk.h:41
  *c = (JSAMPLE)(255.0 - ctmp * 255.0 + 0.5);
    86f4:	f2 0f 10 35 fc 3b 00 	movsd  0x3bfc(%rip),%xmm6        # c2f8 <rgb_red+0x58>
    86fb:	00 
    86fc:	48 8d 14 87          	lea    (%rdi,%rax,4),%rdx
/home/tenebris/Disk/Racing-code/examples/23-libjpeg-divide-by-zero/libjpeg-turbo-2.0.90/cmyk.h:30 (discriminator 3)
  double ctmp = 1.0 - ((double)r / 255.0);
    8700:	0f b6 46 02          	movzbl 0x2(%rsi),%eax
    8704:	66 0f ef c0          	pxor   %xmm0,%xmm0
    8708:	66 0f 28 e5          	movapd %xmm5,%xmm4
/home/tenebris/Disk/Racing-code/examples/23-libjpeg-divide-by-zero/libjpeg-turbo-2.0.90/cmyk.h:31 (discriminator 3)
  double mtmp = 1.0 - ((double)g / 255.0);
    870c:	66 0f 28 dd          	movapd %xmm5,%xmm3
/home/tenebris/Disk/Racing-code/examples/23-libjpeg-divide-by-zero/libjpeg-turbo-2.0.90/cmyk.h:32 (discriminator 3)
  double ytmp = 1.0 - ((double)b / 255.0);
    8710:	66 0f 28 d5          	movapd %xmm5,%xmm2
/home/tenebris/Disk/Racing-code/examples/23-libjpeg-divide-by-zero/libjpeg-turbo-2.0.90/cmyk.h:30 (discriminator 3)
  double ctmp = 1.0 - ((double)r / 255.0);
    8714:	f2 0f 2a c0          	cvtsi2sd %eax,%xmm0
/home/tenebris/Disk/Racing-code/examples/23-libjpeg-divide-by-zero/libjpeg-turbo-2.0.90/cmyk.h:31 (discriminator 3)
  double mtmp = 1.0 - ((double)g / 255.0);
    8718:	0f b6 46 01          	movzbl 0x1(%rsi),%eax
/home/tenebris/Disk/Racing-code/examples/23-libjpeg-divide-by-zero/libjpeg-turbo-2.0.90/cmyk.h:30 (discriminator 3)
  double ctmp = 1.0 - ((double)r / 255.0);
    871c:	f2 0f 5e c1          	divsd  %xmm1,%xmm0
    8720:	f2 0f 5c e0          	subsd  %xmm0,%xmm4
/home/tenebris/Disk/Racing-code/examples/23-libjpeg-divide-by-zero/libjpeg-turbo-2.0.90/cmyk.h:31 (discriminator 3)
  double mtmp = 1.0 - ((double)g / 255.0);
    8724:	66 0f ef c0          	pxor   %xmm0,%xmm0
    8728:	f2 0f 2a c0          	cvtsi2sd %eax,%xmm0
/home/tenebris/Disk/Racing-code/examples/23-libjpeg-divide-by-zero/libjpeg-turbo-2.0.90/cmyk.h:32 (discriminator 3)
  double ytmp = 1.0 - ((double)b / 255.0);
    872c:	0f b6 06             	movzbl (%rsi),%eax
/home/tenebris/Disk/Racing-code/examples/23-libjpeg-divide-by-zero/libjpeg-turbo-2.0.90/cmyk.h:31 (discriminator 3)
  double mtmp = 1.0 - ((double)g / 255.0);
    872f:	f2 0f 5e c1          	divsd  %xmm1,%xmm0
    8733:	f2 0f 5c d8          	subsd  %xmm0,%xmm3
/home/tenebris/Disk/Racing-code/examples/23-libjpeg-divide-by-zero/libjpeg-turbo-2.0.90/cmyk.h:32 (discriminator 3)
  double ytmp = 1.0 - ((double)b / 255.0);
    8737:	66 0f ef c0          	pxor   %xmm0,%xmm0
    873b:	f2 0f 2a c0          	cvtsi2sd %eax,%xmm0
    873f:	f2 0f 5e c1          	divsd  %xmm1,%xmm0
    8743:	f2 0f 5c d0          	subsd  %xmm0,%xmm2
/home/tenebris/Disk/Racing-code/examples/23-libjpeg-divide-by-zero/libjpeg-turbo-2.0.90/cmyk.h:33 (discriminator 3)
  double ktmp = MIN(MIN(ctmp, mtmp), ytmp);
    8747:	66 0f 28 c4          	movapd %xmm4,%xmm0
    874b:	f2 0f 5d c3          	minsd  %xmm3,%xmm0
    874f:	f2 0f 5d c2          	minsd  %xmm2,%xmm0
/home/tenebris/Disk/Racing-code/examples/23-libjpeg-divide-by-zero/libjpeg-turbo-2.0.90/cmyk.h:35 (discriminator 3)
  if (ktmp == 1.0) ctmp = mtmp = ytmp = 0.0;
    8753:	66 0f 2e c5          	ucomisd %xmm5,%xmm0
    8757:	7a 06                	jp     875f <get_32bit_row+0x1ff>
/home/tenebris/Disk/Racing-code/examples/23-libjpeg-divide-by-zero/libjpeg-turbo-2.0.90/cmyk.h:35
    8759:	0f 84 a1 00 00 00    	je     8800 <get_32bit_row+0x2a0>
/home/tenebris/Disk/Racing-code/examples/23-libjpeg-divide-by-zero/libjpeg-turbo-2.0.90/cmyk.h:37
    ctmp = (ctmp - ktmp) / (1.0 - ktmp);
    875f:	66 0f 28 fd          	movapd %xmm5,%xmm7
    8763:	f2 0f 5c e0          	subsd  %xmm0,%xmm4
/home/tenebris/Disk/Racing-code/examples/23-libjpeg-divide-by-zero/libjpeg-turbo-2.0.90/cmyk.h:38
    mtmp = (mtmp - ktmp) / (1.0 - ktmp);
    8767:	f2 0f 5c d8          	subsd  %xmm0,%xmm3
get_32bit_row():
/home/tenebris/Disk/Racing-code/examples/23-libjpeg-divide-by-zero/libjpeg-turbo-2.0.90/rdbmp.c:318
      outptr += 4;
    876b:	48 83 c7 04          	add    $0x4,%rdi
rgb_to_cmyk():
/home/tenebris/Disk/Racing-code/examples/23-libjpeg-divide-by-zero/libjpeg-turbo-2.0.90/cmyk.h:37
    ctmp = (ctmp - ktmp) / (1.0 - ktmp);
    876f:	f2 0f 5c f8          	subsd  %xmm0,%xmm7
/home/tenebris/Disk/Racing-code/examples/23-libjpeg-divide-by-zero/libjpeg-turbo-2.0.90/cmyk.h:39
    ytmp = (ytmp - ktmp) / (1.0 - ktmp);
    8773:	f2 0f 5c d0          	subsd  %xmm0,%xmm2
/home/tenebris/Disk/Racing-code/examples/23-libjpeg-divide-by-zero/libjpeg-turbo-2.0.90/cmyk.h:44
  *k = (JSAMPLE)(255.0 - ktmp * 255.0 + 0.5);
    8777:	f2 0f 59 c1          	mulsd  %xmm1,%xmm0
    877b:	48 83 c6 04          	add    $0x4,%rsi
/home/tenebris/Disk/Racing-code/examples/23-libjpeg-divide-by-zero/libjpeg-turbo-2.0.90/cmyk.h:41
  *c = (JSAMPLE)(255.0 - ctmp * 255.0 + 0.5);
    877f:	66 44 0f 28 c1       	movapd %xmm1,%xmm8
/home/tenebris/Disk/Racing-code/examples/23-libjpeg-divide-by-zero/libjpeg-turbo-2.0.90/cmyk.h:37
    ctmp = (ctmp - ktmp) / (1.0 - ktmp);
    8784:	f2 0f 5e e7          	divsd  %xmm7,%xmm4
/home/tenebris/Disk/Racing-code/examples/23-libjpeg-divide-by-zero/libjpeg-turbo-2.0.90/cmyk.h:38
    mtmp = (mtmp - ktmp) / (1.0 - ktmp);
    8788:	f2 0f 5e df          	divsd  %xmm7,%xmm3
/home/tenebris/Disk/Racing-code/examples/23-libjpeg-divide-by-zero/libjpeg-turbo-2.0.90/cmyk.h:41
  *c = (JSAMPLE)(255.0 - ctmp * 255.0 + 0.5);
    878c:	f2 0f 59 e1          	mulsd  %xmm1,%xmm4
    8790:	f2 44 0f 5c c4       	subsd  %xmm4,%xmm8
/home/tenebris/Disk/Racing-code/examples/23-libjpeg-divide-by-zero/libjpeg-turbo-2.0.90/cmyk.h:42
  *m = (JSAMPLE)(255.0 - mtmp * 255.0 + 0.5);
    8795:	66 0f 28 e1          	movapd %xmm1,%xmm4
/home/tenebris/Disk/Racing-code/examples/23-libjpeg-divide-by-zero/libjpeg-turbo-2.0.90/cmyk.h:41
  *c = (JSAMPLE)(255.0 - ctmp * 255.0 + 0.5);
    8799:	f2 44 0f 58 c6       	addsd  %xmm6,%xmm8
    879e:	f2 41 0f 2c c0       	cvttsd2si %xmm8,%eax
/home/tenebris/Disk/Racing-code/examples/23-libjpeg-divide-by-zero/libjpeg-turbo-2.0.90/cmyk.h:39
    ytmp = (ytmp - ktmp) / (1.0 - ktmp);
    87a3:	f2 0f 5e d7          	divsd  %xmm7,%xmm2
/home/tenebris/Disk/Racing-code/examples/23-libjpeg-divide-by-zero/libjpeg-turbo-2.0.90/cmyk.h:41
  *c = (JSAMPLE)(255.0 - ctmp * 255.0 + 0.5);
    87a7:	88 47 fc             	mov    %al,-0x4(%rdi)
/home/tenebris/Disk/Racing-code/examples/23-libjpeg-divide-by-zero/libjpeg-turbo-2.0.90/cmyk.h:42
  *m = (JSAMPLE)(255.0 - mtmp * 255.0 + 0.5);
    87aa:	f2 0f 59 d9          	mulsd  %xmm1,%xmm3
    87ae:	f2 0f 5c e3          	subsd  %xmm3,%xmm4
/home/tenebris/Disk/Racing-code/examples/23-libjpeg-divide-by-zero/libjpeg-turbo-2.0.90/cmyk.h:43
  *y = (JSAMPLE)(255.0 - ytmp * 255.0 + 0.5);
    87b2:	66 0f 28 d9          	movapd %xmm1,%xmm3
/home/tenebris/Disk/Racing-code/examples/23-libjpeg-divide-by-zero/libjpeg-turbo-2.0.90/cmyk.h:42
  *m = (JSAMPLE)(255.0 - mtmp * 255.0 + 0.5);
    87b6:	f2 0f 58 e6          	addsd  %xmm6,%xmm4
    87ba:	f2 0f 2c c4          	cvttsd2si %xmm4,%eax
    87be:	88 47 fd             	mov    %al,-0x3(%rdi)
/home/tenebris/Disk/Racing-code/examples/23-libjpeg-divide-by-zero/libjpeg-turbo-2.0.90/cmyk.h:43
  *y = (JSAMPLE)(255.0 - ytmp * 255.0 + 0.5);
    87c1:	f2 0f 59 d1          	mulsd  %xmm1,%xmm2
    87c5:	f2 0f 5c da          	subsd  %xmm2,%xmm3
/home/tenebris/Disk/Racing-code/examples/23-libjpeg-divide-by-zero/libjpeg-turbo-2.0.90/cmyk.h:44
  *k = (JSAMPLE)(255.0 - ktmp * 255.0 + 0.5);
    87c9:	66 0f 28 d1          	movapd %xmm1,%xmm2
    87cd:	f2 0f 5c d0          	subsd  %xmm0,%xmm2
/home/tenebris/Disk/Racing-code/examples/23-libjpeg-divide-by-zero/libjpeg-turbo-2.0.90/cmyk.h:43
  *y = (JSAMPLE)(255.0 - ytmp * 255.0 + 0.5);
    87d1:	f2 0f 58 de          	addsd  %xmm6,%xmm3
/home/tenebris/Disk/Racing-code/examples/23-libjpeg-divide-by-zero/libjpeg-turbo-2.0.90/cmyk.h:44
  *k = (JSAMPLE)(255.0 - ktmp * 255.0 + 0.5);
    87d5:	f2 0f 58 d6          	addsd  %xmm6,%xmm2
/home/tenebris/Disk/Racing-code/examples/23-libjpeg-divide-by-zero/libjpeg-turbo-2.0.90/cmyk.h:43
  *y = (JSAMPLE)(255.0 - ytmp * 255.0 + 0.5);
    87d9:	f2 0f 2c c3          	cvttsd2si %xmm3,%eax
    87dd:	88 47 fe             	mov    %al,-0x2(%rdi)
/home/tenebris/Disk/Racing-code/examples/23-libjpeg-divide-by-zero/libjpeg-turbo-2.0.90/cmyk.h:44
  *k = (JSAMPLE)(255.0 - ktmp * 255.0 + 0.5);
    87e0:	f2 0f 2c c2          	cvttsd2si %xmm2,%eax
    87e4:	88 47 ff             	mov    %al,-0x1(%rdi)
get_32bit_row():
/home/tenebris/Disk/Racing-code/examples/23-libjpeg-divide-by-zero/libjpeg-turbo-2.0.90/rdbmp.c:314
    for (col = cinfo->image_width; col > 0; col--) {
    87e7:	48 39 d7             	cmp    %rdx,%rdi
    87ea:	0f 85 10 ff ff ff    	jne    8700 <get_32bit_row+0x1a0>
/home/tenebris/Disk/Racing-code/examples/23-libjpeg-divide-by-zero/libjpeg-turbo-2.0.90/rdbmp.c:347
}
    87f0:	48 83 c4 08          	add    $0x8,%rsp
    87f4:	b8 01 00 00 00       	mov    $0x1,%eax
    87f9:	5b                   	pop    %rbx
    87fa:	5d                   	pop    %rbp
    87fb:	c3                   	ret    
    87fc:	0f 1f 40 00          	nopl   0x0(%rax)
rgb_to_cmyk():
/home/tenebris/Disk/Racing-code/examples/23-libjpeg-divide-by-zero/libjpeg-turbo-2.0.90/cmyk.h:41
  *c = (JSAMPLE)(255.0 - ctmp * 255.0 + 0.5);
    8800:	c6 07 ff             	movb   $0xff,(%rdi)
get_32bit_row():
/home/tenebris/Disk/Racing-code/examples/23-libjpeg-divide-by-zero/libjpeg-turbo-2.0.90/rdbmp.c:318
      outptr += 4;
    8803:	48 83 c7 04          	add    $0x4,%rdi
    8807:	48 83 c6 04          	add    $0x4,%rsi
rgb_to_cmyk():
/home/tenebris/Disk/Racing-code/examples/23-libjpeg-divide-by-zero/libjpeg-turbo-2.0.90/cmyk.h:42
  *m = (JSAMPLE)(255.0 - mtmp * 255.0 + 0.5);
    880b:	c6 47 fd ff          	movb   $0xff,-0x3(%rdi)
/home/tenebris/Disk/Racing-code/examples/23-libjpeg-divide-by-zero/libjpeg-turbo-2.0.90/cmyk.h:43
  *y = (JSAMPLE)(255.0 - ytmp * 255.0 + 0.5);
    880f:	c6 47 fe ff          	movb   $0xff,-0x2(%rdi)
/home/tenebris/Disk/Racing-code/examples/23-libjpeg-divide-by-zero/libjpeg-turbo-2.0.90/cmyk.h:44
  *k = (JSAMPLE)(255.0 - ktmp * 255.0 + 0.5);
    8813:	c6 47 ff 00          	movb   $0x0,-0x1(%rdi)
get_32bit_row():
/home/tenebris/Disk/Racing-code/examples/23-libjpeg-divide-by-zero/libjpeg-turbo-2.0.90/rdbmp.c:314
    for (col = cinfo->image_width; col > 0; col--) {
    8817:	48 39 d7             	cmp    %rdx,%rdi
    881a:	0f 85 e0 fe ff ff    	jne    8700 <get_32bit_row+0x1a0>
/home/tenebris/Disk/Racing-code/examples/23-libjpeg-divide-by-zero/libjpeg-turbo-2.0.90/rdbmp.c:347
}
    8820:	48 83 c4 08          	add    $0x8,%rsp
    8824:	b8 01 00 00 00       	mov    $0x1,%eax
    8829:	5b                   	pop    %rbx
    882a:	5d                   	pop    %rbp
    882b:	c3                   	ret    
    882c:	0f 1f 40 00          	nopl   0x0(%rax)
/home/tenebris/Disk/Racing-code/examples/23-libjpeg-divide-by-zero/libjpeg-turbo-2.0.90/rdbmp.c:312
    MEMCOPY(outptr, inptr, source->row_width);
    8830:	8b 53 4c             	mov    0x4c(%rbx),%edx
memcpy():
/usr/include/x86_64-linux-gnu/bits/string_fortified.h:29
    8833:	e8 e8 9a ff ff       	call   2320 <memcpy@plt>
get_32bit_row():
/home/tenebris/Disk/Racing-code/examples/23-libjpeg-divide-by-zero/libjpeg-turbo-2.0.90/rdbmp.c:347
}
    8838:	48 83 c4 08          	add    $0x8,%rsp
    883c:	b8 01 00 00 00       	mov    $0x1,%eax
    8841:	5b                   	pop    %rbx
    8842:	5d                   	pop    %rbp
    8843:	c3                   	ret    
    8844:	0f 1f 40 00          	nopl   0x0(%rax)
/home/tenebris/Disk/Racing-code/examples/23-libjpeg-divide-by-zero/libjpeg-turbo-2.0.90/rdbmp.c:336
      for (col = cinfo->image_width; col > 0; col--) {
    8848:	45 85 db             	test   %r11d,%r11d
    884b:	0f 84 ff fd ff ff    	je     8650 <get_32bit_row+0xf0>
    8851:	48 01 d7             	add    %rdx,%rdi
    8854:	83 f8 01             	cmp    $0x1,%eax
/home/tenebris/Disk/Racing-code/examples/23-libjpeg-divide-by-zero/libjpeg-turbo-2.0.90/rdbmp.c:333
        outptr += ps;
    8857:	4c 63 d0             	movslq %eax,%r10
    885a:	44 89 d8             	mov    %r11d,%eax
    885d:	75 41                	jne    88a0 <get_32bit_row+0x340>
    885f:	4c 8d 14 86          	lea    (%rsi,%rax,4),%r10
    8863:	0f 1f 44 00 00       	nopl   0x0(%rax,%rax,1)
/home/tenebris/Disk/Racing-code/examples/23-libjpeg-divide-by-zero/libjpeg-turbo-2.0.90/rdbmp.c:337
        outptr[bindex] = *inptr++;
    8868:	0f b6 06             	movzbl (%rsi),%eax
    886b:	48 83 c6 04          	add    $0x4,%rsi
    886f:	88 07                	mov    %al,(%rdi)
/home/tenebris/Disk/Racing-code/examples/23-libjpeg-divide-by-zero/libjpeg-turbo-2.0.90/rdbmp.c:338
        outptr[gindex] = *inptr++;
    8871:	48 89 f8             	mov    %rdi,%rax
    8874:	44 0f b6 46 fd       	movzbl -0x3(%rsi),%r8d
/home/tenebris/Disk/Racing-code/examples/23-libjpeg-divide-by-zero/libjpeg-turbo-2.0.90/rdbmp.c:336
      for (col = cinfo->image_width; col > 0; col--) {
    8879:	48 83 c7 01          	add    $0x1,%rdi
    887d:	48 29 d0             	sub    %rdx,%rax
/home/tenebris/Disk/Racing-code/examples/23-libjpeg-divide-by-zero/libjpeg-turbo-2.0.90/rdbmp.c:338
        outptr[gindex] = *inptr++;
    8880:	44 88 04 08          	mov    %r8b,(%rax,%rcx,1)
/home/tenebris/Disk/Racing-code/examples/23-libjpeg-divide-by-zero/libjpeg-turbo-2.0.90/rdbmp.c:339
        outptr[rindex] = *inptr++;
    8884:	44 0f b6 46 fe       	movzbl -0x2(%rsi),%r8d
    8889:	46 88 04 08          	mov    %r8b,(%rax,%r9,1)
/home/tenebris/Disk/Racing-code/examples/23-libjpeg-divide-by-zero/libjpeg-turbo-2.0.90/rdbmp.c:336
      for (col = cinfo->image_width; col > 0; col--) {
    888d:	4c 39 d6             	cmp    %r10,%rsi
    8890:	75 d6                	jne    8868 <get_32bit_row+0x308>
/home/tenebris/Disk/Racing-code/examples/23-libjpeg-divide-by-zero/libjpeg-turbo-2.0.90/rdbmp.c:347
}
    8892:	48 83 c4 08          	add    $0x8,%rsp
    8896:	b8 01 00 00 00       	mov    $0x1,%eax
    889b:	5b                   	pop    %rbx
    889c:	5d                   	pop    %rbp
    889d:	c3                   	ret    
    889e:	66 90                	xchg   %ax,%ax
    88a0:	4c 8d 1c 86          	lea    (%rsi,%rax,4),%r11
    88a4:	0f 1f 40 00          	nopl   0x0(%rax)
/home/tenebris/Disk/Racing-code/examples/23-libjpeg-divide-by-zero/libjpeg-turbo-2.0.90/rdbmp.c:337 (discriminator 3)
        outptr[bindex] = *inptr++;
    88a8:	0f b6 06             	movzbl (%rsi),%eax
    88ab:	48 83 c6 04          	add    $0x4,%rsi
    88af:	88 07                	mov    %al,(%rdi)
/home/tenebris/Disk/Racing-code/examples/23-libjpeg-divide-by-zero/libjpeg-turbo-2.0.90/rdbmp.c:338 (discriminator 3)
        outptr[gindex] = *inptr++;
    88b1:	48 89 f8             	mov    %rdi,%rax
    88b4:	44 0f b6 46 fd       	movzbl -0x3(%rsi),%r8d
/home/tenebris/Disk/Racing-code/examples/23-libjpeg-divide-by-zero/libjpeg-turbo-2.0.90/rdbmp.c:336 (discriminator 3)
      for (col = cinfo->image_width; col > 0; col--) {
    88b9:	4c 01 d7             	add    %r10,%rdi
    88bc:	48 29 d0             	sub    %rdx,%rax
/home/tenebris/Disk/Racing-code/examples/23-libjpeg-divide-by-zero/libjpeg-turbo-2.0.90/rdbmp.c:338 (discriminator 3)
        outptr[gindex] = *inptr++;
    88bf:	44 88 04 08          	mov    %r8b,(%rax,%rcx,1)
/home/tenebris/Disk/Racing-code/examples/23-libjpeg-divide-by-zero/libjpeg-turbo-2.0.90/rdbmp.c:339 (discriminator 3)
        outptr[rindex] = *inptr++;
    88c3:	44 0f b6 46 fe       	movzbl -0x2(%rsi),%r8d
    88c8:	46 88 04 08          	mov    %r8b,(%rax,%r9,1)
/home/tenebris/Disk/Racing-code/examples/23-libjpeg-divide-by-zero/libjpeg-turbo-2.0.90/rdbmp.c:336 (discriminator 3)
      for (col = cinfo->image_width; col > 0; col--) {
    88cc:	49 39 f3             	cmp    %rsi,%r11
    88cf:	75 d7                	jne    88a8 <get_32bit_row+0x348>
    88d1:	e9 7a fd ff ff       	jmp    8650 <get_32bit_row+0xf0>
    88d6:	66 2e 0f 1f 84 00 00 	cs nopw 0x0(%rax,%rax,1)
    88dd:	00 00 00 

00000000000088e0 <preload_image>:
preload_image():
/home/tenebris/Disk/Racing-code/examples/23-libjpeg-divide-by-zero/libjpeg-turbo-2.0.90/rdbmp.c:358
{
    88e0:	f3 0f 1e fa          	endbr64 
    88e4:	41 56                	push   %r14
    88e6:	41 55                	push   %r13
    88e8:	41 54                	push   %r12
    88ea:	49 89 f4             	mov    %rsi,%r12
    88ed:	55                   	push   %rbp
    88ee:	48 89 fd             	mov    %rdi,%rbp
    88f1:	53                   	push   %rbx
/home/tenebris/Disk/Racing-code/examples/23-libjpeg-divide-by-zero/libjpeg-turbo-2.0.90/rdbmp.c:367
  for (row = 0; row < cinfo->image_height; row++) {
    88f2:	8b 47 34             	mov    0x34(%rdi),%eax
    88f5:	31 db                	xor    %ebx,%ebx
/home/tenebris/Disk/Racing-code/examples/23-libjpeg-divide-by-zero/libjpeg-turbo-2.0.90/rdbmp.c:360
  register FILE *infile = source->pub.input_file;
    88f7:	4c 8b 76 18          	mov    0x18(%rsi),%r14
/home/tenebris/Disk/Racing-code/examples/23-libjpeg-divide-by-zero/libjpeg-turbo-2.0.90/rdbmp.c:364
  cd_progress_ptr progress = (cd_progress_ptr)cinfo->progress;
    88fb:	4c 8b 6f 10          	mov    0x10(%rdi),%r13
/home/tenebris/Disk/Racing-code/examples/23-libjpeg-divide-by-zero/libjpeg-turbo-2.0.90/rdbmp.c:367
  for (row = 0; row < cinfo->image_height; row++) {
    88ff:	85 c0                	test   %eax,%eax
    8901:	75 27                	jne    892a <preload_image+0x4a>
    8903:	e9 ab 00 00 00       	jmp    89b3 <preload_image+0xd3>
    8908:	0f 1f 84 00 00 00 00 	nopl   0x0(%rax,%rax,1)
    890f:	00 
/home/tenebris/Disk/Racing-code/examples/23-libjpeg-divide-by-zero/libjpeg-turbo-2.0.90/rdbmp.c:378
        ERREXIT(cinfo, JERR_INPUT_EOF);
    8910:	c7 40 28 2b 00 00 00 	movl   $0x2b,0x28(%rax)
    8917:	48 89 ef             	mov    %rbp,%rdi
    891a:	ff 10                	call   *(%rax)
/home/tenebris/Disk/Racing-code/examples/23-libjpeg-divide-by-zero/libjpeg-turbo-2.0.90/rdbmp.c:367 (discriminator 2)
  for (row = 0; row < cinfo->image_height; row++) {
    891c:	8b 45 34             	mov    0x34(%rbp),%eax
    891f:	83 c3 01             	add    $0x1,%ebx
    8922:	39 d8                	cmp    %ebx,%eax
    8924:	0f 86 89 00 00 00    	jbe    89b3 <preload_image+0xd3>
/home/tenebris/Disk/Racing-code/examples/23-libjpeg-divide-by-zero/libjpeg-turbo-2.0.90/rdbmp.c:368
    if (progress != NULL) {
    892a:	4d 85 ed             	test   %r13,%r13
    892d:	74 1b                	je     894a <preload_image+0x6a>
/home/tenebris/Disk/Racing-code/examples/23-libjpeg-divide-by-zero/libjpeg-turbo-2.0.90/rdbmp.c:369
      progress->pub.pass_counter = (long)row;
    892f:	89 da                	mov    %ebx,%edx
/home/tenebris/Disk/Racing-code/examples/23-libjpeg-divide-by-zero/libjpeg-turbo-2.0.90/rdbmp.c:370
      progress->pub.pass_limit = (long)cinfo->image_height;
    8931:	66 0f 6e c0          	movd   %eax,%xmm0
/home/tenebris/Disk/Racing-code/examples/23-libjpeg-divide-by-zero/libjpeg-turbo-2.0.90/rdbmp.c:371
      (*progress->pub.progress_monitor) ((j_common_ptr)cinfo);
    8935:	48 89 ef             	mov    %rbp,%rdi
/home/tenebris/Disk/Racing-code/examples/23-libjpeg-divide-by-zero/libjpeg-turbo-2.0.90/rdbmp.c:369
      progress->pub.pass_counter = (long)row;
    8938:	66 48 0f 6e ca       	movq   %rdx,%xmm1
    893d:	66 0f 6c c8          	punpcklqdq %xmm0,%xmm1
    8941:	41 0f 11 4d 08       	movups %xmm1,0x8(%r13)
/home/tenebris/Disk/Racing-code/examples/23-libjpeg-divide-by-zero/libjpeg-turbo-2.0.90/rdbmp.c:371
      (*progress->pub.progress_monitor) ((j_common_ptr)cinfo);
    8946:	41 ff 55 00          	call   *0x0(%r13)
/home/tenebris/Disk/Racing-code/examples/23-libjpeg-divide-by-zero/libjpeg-turbo-2.0.90/rdbmp.c:373
    image_ptr = (*cinfo->mem->access_virt_sarray)
    894a:	48 8b 45 08          	mov    0x8(%rbp),%rax
    894e:	49 8b 74 24 40       	mov    0x40(%r12),%rsi
    8953:	b9 01 00 00 00       	mov    $0x1,%ecx
    8958:	89 da                	mov    %ebx,%edx
    895a:	41 b8 01 00 00 00    	mov    $0x1,%r8d
    8960:	48 89 ef             	mov    %rbp,%rdi
    8963:	ff 50 38             	call   *0x38(%rax)
/home/tenebris/Disk/Racing-code/examples/23-libjpeg-divide-by-zero/libjpeg-turbo-2.0.90/rdbmp.c:376
    if (fread(out_ptr, 1, source->row_width, infile) != source->row_width) {
    8966:	41 8b 54 24 4c       	mov    0x4c(%r12),%edx
fread():
/usr/include/x86_64-linux-gnu/bits/stdio2.h:293
    896b:	4c 89 f1             	mov    %r14,%rcx
    896e:	be 01 00 00 00       	mov    $0x1,%esi
    8973:	48 8b 38             	mov    (%rax),%rdi
    8976:	e8 15 99 ff ff       	call   2290 <fread@plt>
preload_image():
/home/tenebris/Disk/Racing-code/examples/23-libjpeg-divide-by-zero/libjpeg-turbo-2.0.90/rdbmp.c:376
    897b:	41 8b 54 24 4c       	mov    0x4c(%r12),%edx
    8980:	48 39 c2             	cmp    %rax,%rdx
    8983:	74 97                	je     891c <preload_image+0x3c>
/home/tenebris/Disk/Racing-code/examples/23-libjpeg-divide-by-zero/libjpeg-turbo-2.0.90/rdbmp.c:377
      if (feof(infile))
    8985:	4c 89 f7             	mov    %r14,%rdi
    8988:	e8 73 99 ff ff       	call   2300 <feof@plt>
    898d:	85 c0                	test   %eax,%eax
/home/tenebris/Disk/Racing-code/examples/23-libjpeg-divide-by-zero/libjpeg-turbo-2.0.90/rdbmp.c:378
        ERREXIT(cinfo, JERR_INPUT_EOF);
    898f:	48 8b 45 00          	mov    0x0(%rbp),%rax
/home/tenebris/Disk/Racing-code/examples/23-libjpeg-divide-by-zero/libjpeg-turbo-2.0.90/rdbmp.c:377
      if (feof(infile))
    8993:	0f 85 77 ff ff ff    	jne    8910 <preload_image+0x30>
/home/tenebris/Disk/Racing-code/examples/23-libjpeg-divide-by-zero/libjpeg-turbo-2.0.90/rdbmp.c:380
        ERREXIT(cinfo, JERR_FILE_READ);
    8999:	c7 40 28 24 00 00 00 	movl   $0x24,0x28(%rax)
    89a0:	48 89 ef             	mov    %rbp,%rdi
/home/tenebris/Disk/Racing-code/examples/23-libjpeg-divide-by-zero/libjpeg-turbo-2.0.90/rdbmp.c:367
  for (row = 0; row < cinfo->image_height; row++) {
    89a3:	83 c3 01             	add    $0x1,%ebx
/home/tenebris/Disk/Racing-code/examples/23-libjpeg-divide-by-zero/libjpeg-turbo-2.0.90/rdbmp.c:380
        ERREXIT(cinfo, JERR_FILE_READ);
    89a6:	ff 10                	call   *(%rax)
/home/tenebris/Disk/Racing-code/examples/23-libjpeg-divide-by-zero/libjpeg-turbo-2.0.90/rdbmp.c:367
  for (row = 0; row < cinfo->image_height; row++) {
    89a8:	8b 45 34             	mov    0x34(%rbp),%eax
    89ab:	39 d8                	cmp    %ebx,%eax
    89ad:	0f 87 77 ff ff ff    	ja     892a <preload_image+0x4a>
/home/tenebris/Disk/Racing-code/examples/23-libjpeg-divide-by-zero/libjpeg-turbo-2.0.90/rdbmp.c:383
  if (progress != NULL)
    89b3:	4d 85 ed             	test   %r13,%r13
    89b6:	74 05                	je     89bd <preload_image+0xdd>
/home/tenebris/Disk/Racing-code/examples/23-libjpeg-divide-by-zero/libjpeg-turbo-2.0.90/rdbmp.c:384
    progress->completed_extra_passes++;
    89b8:	41 83 45 20 01       	addl   $0x1,0x20(%r13)
/home/tenebris/Disk/Racing-code/examples/23-libjpeg-divide-by-zero/libjpeg-turbo-2.0.90/rdbmp.c:387
  switch (source->bits_per_pixel) {
    89bd:	41 8b 54 24 50       	mov    0x50(%r12),%edx
    89c2:	83 fa 18             	cmp    $0x18,%edx
    89c5:	74 39                	je     8a00 <preload_image+0x120>
    89c7:	83 fa 20             	cmp    $0x20,%edx
    89ca:	74 54                	je     8a20 <preload_image+0x140>
    89cc:	83 fa 08             	cmp    $0x8,%edx
    89cf:	74 3f                	je     8a10 <preload_image+0x130>
/home/tenebris/Disk/Racing-code/examples/23-libjpeg-divide-by-zero/libjpeg-turbo-2.0.90/rdbmp.c:398
    ERREXIT(cinfo, JERR_BMP_BADDEPTH);
    89d1:	48 8b 45 00          	mov    0x0(%rbp),%rax
    89d5:	48 89 ef             	mov    %rbp,%rdi
    89d8:	c7 40 28 ea 03 00 00 	movl   $0x3ea,0x28(%rax)
    89df:	ff 10                	call   *(%rax)
/home/tenebris/Disk/Racing-code/examples/23-libjpeg-divide-by-zero/libjpeg-turbo-2.0.90/rdbmp.c:403
  return (*source->pub.get_pixel_rows) (cinfo, sinfo);
    89e1:	49 8b 54 24 08       	mov    0x8(%r12),%rdx
    89e6:	8b 45 34             	mov    0x34(%rbp),%eax
/home/tenebris/Disk/Racing-code/examples/23-libjpeg-divide-by-zero/libjpeg-turbo-2.0.90/rdbmp.c:404
}
    89e9:	5b                   	pop    %rbx
/home/tenebris/Disk/Racing-code/examples/23-libjpeg-divide-by-zero/libjpeg-turbo-2.0.90/rdbmp.c:400
  source->source_row = cinfo->image_height;
    89ea:	41 89 44 24 48       	mov    %eax,0x48(%r12)
/home/tenebris/Disk/Racing-code/examples/23-libjpeg-divide-by-zero/libjpeg-turbo-2.0.90/rdbmp.c:403
  return (*source->pub.get_pixel_rows) (cinfo, sinfo);
    89ef:	4c 89 e6             	mov    %r12,%rsi
    89f2:	48 89 ef             	mov    %rbp,%rdi
/home/tenebris/Disk/Racing-code/examples/23-libjpeg-divide-by-zero/libjpeg-turbo-2.0.90/rdbmp.c:404
}
    89f5:	5d                   	pop    %rbp
    89f6:	41 5c                	pop    %r12
    89f8:	41 5d                	pop    %r13
    89fa:	41 5e                	pop    %r14
/home/tenebris/Disk/Racing-code/examples/23-libjpeg-divide-by-zero/libjpeg-turbo-2.0.90/rdbmp.c:403
  return (*source->pub.get_pixel_rows) (cinfo, sinfo);
    89fc:	ff e2                	jmp    *%rdx
    89fe:	66 90                	xchg   %ax,%ax
/home/tenebris/Disk/Racing-code/examples/23-libjpeg-divide-by-zero/libjpeg-turbo-2.0.90/rdbmp.c:392
    source->pub.get_pixel_rows = get_24bit_row;
    8a00:	48 8d 15 b9 f7 ff ff 	lea    -0x847(%rip),%rdx        # 81c0 <get_24bit_row>
    8a07:	49 89 54 24 08       	mov    %rdx,0x8(%r12)
/home/tenebris/Disk/Racing-code/examples/23-libjpeg-divide-by-zero/libjpeg-turbo-2.0.90/rdbmp.c:393
    break;
    8a0c:	eb db                	jmp    89e9 <preload_image+0x109>
    8a0e:	66 90                	xchg   %ax,%ax
/home/tenebris/Disk/Racing-code/examples/23-libjpeg-divide-by-zero/libjpeg-turbo-2.0.90/rdbmp.c:389
    source->pub.get_pixel_rows = get_8bit_row;
    8a10:	48 8d 15 49 f3 ff ff 	lea    -0xcb7(%rip),%rdx        # 7d60 <get_8bit_row>
    8a17:	49 89 54 24 08       	mov    %rdx,0x8(%r12)
/home/tenebris/Disk/Racing-code/examples/23-libjpeg-divide-by-zero/libjpeg-turbo-2.0.90/rdbmp.c:390
    break;
    8a1c:	eb cb                	jmp    89e9 <preload_image+0x109>
    8a1e:	66 90                	xchg   %ax,%ax
/home/tenebris/Disk/Racing-code/examples/23-libjpeg-divide-by-zero/libjpeg-turbo-2.0.90/rdbmp.c:395
    source->pub.get_pixel_rows = get_32bit_row;
    8a20:	48 8d 15 39 fb ff ff 	lea    -0x4c7(%rip),%rdx        # 8560 <get_32bit_row>
    8a27:	49 89 54 24 08       	mov    %rdx,0x8(%r12)
/home/tenebris/Disk/Racing-code/examples/23-libjpeg-divide-by-zero/libjpeg-turbo-2.0.90/rdbmp.c:396
    break;
    8a2c:	eb bb                	jmp    89e9 <preload_image+0x109>
    8a2e:	66 90                	xchg   %ax,%ax

0000000000008a30 <start_input_bmp>:
start_input_bmp():
/home/tenebris/Disk/Racing-code/examples/23-libjpeg-divide-by-zero/libjpeg-turbo-2.0.90/rdbmp.c:413
{
    8a30:	f3 0f 1e fa          	endbr64 
    8a34:	41 57                	push   %r15
fread():
/usr/include/x86_64-linux-gnu/bits/stdio2.h:293
    8a36:	ba 0e 00 00 00       	mov    $0xe,%edx
start_input_bmp():
/home/tenebris/Disk/Racing-code/examples/23-libjpeg-divide-by-zero/libjpeg-turbo-2.0.90/rdbmp.c:413
    8a3b:	41 56                	push   %r14
    8a3d:	49 89 f6             	mov    %rsi,%r14
    8a40:	41 55                	push   %r13
    8a42:	41 54                	push   %r12
    8a44:	55                   	push   %rbp
    8a45:	48 89 fd             	mov    %rdi,%rbp
    8a48:	53                   	push   %rbx
    8a49:	48 81 ec 98 00 00 00 	sub    $0x98,%rsp
fread():
/usr/include/x86_64-linux-gnu/bits/stdio2.h:293
    8a50:	48 8b 4e 18          	mov    0x18(%rsi),%rcx
    8a54:	be 01 00 00 00       	mov    $0x1,%esi
start_input_bmp():
/home/tenebris/Disk/Racing-code/examples/23-libjpeg-divide-by-zero/libjpeg-turbo-2.0.90/rdbmp.c:413
    8a59:	64 48 8b 04 25 28 00 	mov    %fs:0x28,%rax
    8a60:	00 00 
    8a62:	48 89 84 24 88 00 00 	mov    %rax,0x88(%rsp)
    8a69:	00 
    8a6a:	31 c0                	xor    %eax,%eax
fread():
/usr/include/x86_64-linux-gnu/bits/stdio2.h:293
    8a6c:	48 8d 7c 24 32       	lea    0x32(%rsp),%rdi
    8a71:	e8 1a 98 ff ff       	call   2290 <fread@plt>
start_input_bmp():
/home/tenebris/Disk/Racing-code/examples/23-libjpeg-divide-by-zero/libjpeg-turbo-2.0.90/rdbmp.c:440
  if (!ReadOK(source->pub.input_file, bmpfileheader, 14))
    8a76:	48 83 f8 0e          	cmp    $0xe,%rax
    8a7a:	74 10                	je     8a8c <start_input_bmp+0x5c>
/home/tenebris/Disk/Racing-code/examples/23-libjpeg-divide-by-zero/libjpeg-turbo-2.0.90/rdbmp.c:441
    ERREXIT(cinfo, JERR_INPUT_EOF);
    8a7c:	48 8b 45 00          	mov    0x0(%rbp),%rax
    8a80:	48 89 ef             	mov    %rbp,%rdi
    8a83:	c7 40 28 2b 00 00 00 	movl   $0x2b,0x28(%rax)
    8a8a:	ff 10                	call   *(%rax)
/home/tenebris/Disk/Racing-code/examples/23-libjpeg-divide-by-zero/libjpeg-turbo-2.0.90/rdbmp.c:442
  if (GET_2B(bmpfileheader, 0) != 0x4D42) /* 'BM' */
    8a8c:	0f b6 44 24 33       	movzbl 0x33(%rsp),%eax
    8a91:	0f b6 54 24 32       	movzbl 0x32(%rsp),%edx
    8a96:	c1 e0 08             	shl    $0x8,%eax
    8a99:	01 d0                	add    %edx,%eax
    8a9b:	3d 42 4d 00 00       	cmp    $0x4d42,%eax
    8aa0:	74 10                	je     8ab2 <start_input_bmp+0x82>
/home/tenebris/Disk/Racing-code/examples/23-libjpeg-divide-by-zero/libjpeg-turbo-2.0.90/rdbmp.c:443
    ERREXIT(cinfo, JERR_BMP_NOT);
    8aa2:	48 8b 45 00          	mov    0x0(%rbp),%rax
    8aa6:	48 89 ef             	mov    %rbp,%rdi
    8aa9:	c7 40 28 f0 03 00 00 	movl   $0x3f0,0x28(%rax)
    8ab0:	ff 10                	call   *(%rax)
/home/tenebris/Disk/Racing-code/examples/23-libjpeg-divide-by-zero/libjpeg-turbo-2.0.90/rdbmp.c:444
  bfOffBits = GET_4B(bmpfileheader, 10);
    8ab2:	0f b6 44 24 3c       	movzbl 0x3c(%rsp),%eax
fread():
/usr/include/x86_64-linux-gnu/bits/stdio2.h:293
    8ab7:	49 8b 4e 18          	mov    0x18(%r14),%rcx
    8abb:	48 8d 7c 24 40       	lea    0x40(%rsp),%rdi
    8ac0:	ba 04 00 00 00       	mov    $0x4,%edx
    8ac5:	be 01 00 00 00       	mov    $0x1,%esi
start_input_bmp():
/home/tenebris/Disk/Racing-code/examples/23-libjpeg-divide-by-zero/libjpeg-turbo-2.0.90/rdbmp.c:444
    8aca:	44 0f b6 6c 24 3f    	movzbl 0x3f(%rsp),%r13d
    8ad0:	88 44 24 18          	mov    %al,0x18(%rsp)
    8ad4:	0f b6 44 24 3d       	movzbl 0x3d(%rsp),%eax
    8ad9:	88 44 24 10          	mov    %al,0x10(%rsp)
    8add:	0f b6 44 24 3e       	movzbl 0x3e(%rsp),%eax
    8ae2:	88 44 24 21          	mov    %al,0x21(%rsp)
fread():
/usr/include/x86_64-linux-gnu/bits/stdio2.h:293
    8ae6:	e8 a5 97 ff ff       	call   2290 <fread@plt>
start_input_bmp():
/home/tenebris/Disk/Racing-code/examples/23-libjpeg-divide-by-zero/libjpeg-turbo-2.0.90/rdbmp.c:450
  if (!ReadOK(source->pub.input_file, bmpinfoheader, 4))
    8aeb:	48 83 f8 04          	cmp    $0x4,%rax
    8aef:	74 10                	je     8b01 <start_input_bmp+0xd1>
/home/tenebris/Disk/Racing-code/examples/23-libjpeg-divide-by-zero/libjpeg-turbo-2.0.90/rdbmp.c:451
    ERREXIT(cinfo, JERR_INPUT_EOF);
    8af1:	48 8b 45 00          	mov    0x0(%rbp),%rax
    8af5:	48 89 ef             	mov    %rbp,%rdi
    8af8:	c7 40 28 2b 00 00 00 	movl   $0x2b,0x28(%rax)
    8aff:	ff 10                	call   *(%rax)
/home/tenebris/Disk/Racing-code/examples/23-libjpeg-divide-by-zero/libjpeg-turbo-2.0.90/rdbmp.c:452
  headerSize = GET_4B(bmpinfoheader, 0);
    8b01:	44 0f b6 64 24 41    	movzbl 0x41(%rsp),%r12d
    8b07:	0f b6 44 24 42       	movzbl 0x42(%rsp),%eax
    8b0c:	41 c1 e4 08          	shl    $0x8,%r12d
    8b10:	c1 e0 10             	shl    $0x10,%eax
    8b13:	41 01 c4             	add    %eax,%r12d
    8b16:	0f b6 44 24 40       	movzbl 0x40(%rsp),%eax
    8b1b:	41 01 c4             	add    %eax,%r12d
    8b1e:	0f b6 44 24 43       	movzbl 0x43(%rsp),%eax
    8b23:	c1 e0 18             	shl    $0x18,%eax
    8b26:	41 01 c4             	add    %eax,%r12d
/home/tenebris/Disk/Racing-code/examples/23-libjpeg-divide-by-zero/libjpeg-turbo-2.0.90/rdbmp.c:453
  if (headerSize < 12 || headerSize > 64)
    8b29:	41 8d 44 24 f4       	lea    -0xc(%r12),%eax
/home/tenebris/Disk/Racing-code/examples/23-libjpeg-divide-by-zero/libjpeg-turbo-2.0.90/rdbmp.c:455
  if (!ReadOK(source->pub.input_file, bmpinfoheader + 4, headerSize - 4))
    8b2e:	41 8d 5c 24 fc       	lea    -0x4(%r12),%ebx
/home/tenebris/Disk/Racing-code/examples/23-libjpeg-divide-by-zero/libjpeg-turbo-2.0.90/rdbmp.c:453
  if (headerSize < 12 || headerSize > 64)
    8b33:	83 f8 34             	cmp    $0x34,%eax
    8b36:	0f 86 54 04 00 00    	jbe    8f90 <start_input_bmp+0x560>
/home/tenebris/Disk/Racing-code/examples/23-libjpeg-divide-by-zero/libjpeg-turbo-2.0.90/rdbmp.c:454
    ERREXIT(cinfo, JERR_BMP_BADHEADER);
    8b3c:	48 8b 45 00          	mov    0x0(%rbp),%rax
    8b40:	48 89 ef             	mov    %rbp,%rdi
    8b43:	c7 40 28 eb 03 00 00 	movl   $0x3eb,0x28(%rax)
    8b4a:	ff 10                	call   *(%rax)
fread():
/usr/include/x86_64-linux-gnu/bits/stdio2.h:296
  return __fread_chk (__ptr, sz, __size, __n, __stream);
    8b4c:	4d 8b 46 18          	mov    0x18(%r14),%r8
    8b50:	48 8d 7c 24 44       	lea    0x44(%rsp),%rdi
    8b55:	48 89 d9             	mov    %rbx,%rcx
    8b58:	ba 01 00 00 00       	mov    $0x1,%edx
    8b5d:	be 3c 00 00 00       	mov    $0x3c,%esi
    8b62:	e8 79 98 ff ff       	call   23e0 <__fread_chk@plt>
start_input_bmp():
/home/tenebris/Disk/Racing-code/examples/23-libjpeg-divide-by-zero/libjpeg-turbo-2.0.90/rdbmp.c:455
  if (!ReadOK(source->pub.input_file, bmpinfoheader + 4, headerSize - 4))
    8b67:	48 39 d8             	cmp    %rbx,%rax
    8b6a:	0f 84 98 02 00 00    	je     8e08 <start_input_bmp+0x3d8>
/home/tenebris/Disk/Racing-code/examples/23-libjpeg-divide-by-zero/libjpeg-turbo-2.0.90/rdbmp.c:456
    ERREXIT(cinfo, JERR_INPUT_EOF);
    8b70:	48 8b 45 00          	mov    0x0(%rbp),%rax
    8b74:	48 89 ef             	mov    %rbp,%rdi
    8b77:	c7 40 28 2b 00 00 00 	movl   $0x2b,0x28(%rax)
    8b7e:	ff 10                	call   *(%rax)
/home/tenebris/Disk/Racing-code/examples/23-libjpeg-divide-by-zero/libjpeg-turbo-2.0.90/rdbmp.c:469
      TRACEMS2(cinfo, 1, JTRC_BMP_OS2_MAPPED, biWidth, biHeight);
    8b80:	48 8b 45 00          	mov    0x0(%rbp),%rax
/home/tenebris/Disk/Racing-code/examples/23-libjpeg-divide-by-zero/libjpeg-turbo-2.0.90/rdbmp.c:458
  switch (headerSize) {
    8b84:	41 83 fc 28          	cmp    $0x28,%r12d
    8b88:	0f 84 3a 04 00 00    	je     8fc8 <start_input_bmp+0x598>
    8b8e:	41 83 fc 40          	cmp    $0x40,%r12d
    8b92:	0f 84 30 04 00 00    	je     8fc8 <start_input_bmp+0x598>
    8b98:	41 83 fc 0c          	cmp    $0xc,%r12d
    8b9c:	0f 85 6a 02 00 00    	jne    8e0c <start_input_bmp+0x3dc>
/home/tenebris/Disk/Racing-code/examples/23-libjpeg-divide-by-zero/libjpeg-turbo-2.0.90/rdbmp.c:461
    biWidth = (int)GET_2B(bmpinfoheader, 4);
    8ba2:	0f b6 54 24 45       	movzbl 0x45(%rsp),%edx
    8ba7:	0f b6 4c 24 44       	movzbl 0x44(%rsp),%ecx
    8bac:	c1 e2 08             	shl    $0x8,%edx
    8baf:	44 8d 3c 0a          	lea    (%rdx,%rcx,1),%r15d
/home/tenebris/Disk/Racing-code/examples/23-libjpeg-divide-by-zero/libjpeg-turbo-2.0.90/rdbmp.c:462
    biHeight = (int)GET_2B(bmpinfoheader, 6);
    8bb3:	0f b6 54 24 47       	movzbl 0x47(%rsp),%edx
    8bb8:	0f b6 4c 24 46       	movzbl 0x46(%rsp),%ecx
/home/tenebris/Disk/Racing-code/examples/23-libjpeg-divide-by-zero/libjpeg-turbo-2.0.90/rdbmp.c:567
    row_width = (JDIMENSION)biWidth;
    8bbd:	44 89 7c 24 1c       	mov    %r15d,0x1c(%rsp)
/home/tenebris/Disk/Racing-code/examples/23-libjpeg-divide-by-zero/libjpeg-turbo-2.0.90/rdbmp.c:462
    biHeight = (int)GET_2B(bmpinfoheader, 6);
    8bc2:	c1 e2 08             	shl    $0x8,%edx
    8bc5:	8d 1c 0a             	lea    (%rdx,%rcx,1),%ebx
/home/tenebris/Disk/Racing-code/examples/23-libjpeg-divide-by-zero/libjpeg-turbo-2.0.90/rdbmp.c:463
    biPlanes = GET_2B(bmpinfoheader, 8);
    8bc8:	0f b6 54 24 49       	movzbl 0x49(%rsp),%edx
    8bcd:	0f b6 4c 24 48       	movzbl 0x48(%rsp),%ecx
/home/tenebris/Disk/Racing-code/examples/23-libjpeg-divide-by-zero/libjpeg-turbo-2.0.90/rdbmp.c:599
    source->whole_image = (*cinfo->mem->request_virt_sarray)
    8bd2:	89 5c 24 0c          	mov    %ebx,0xc(%rsp)
/home/tenebris/Disk/Racing-code/examples/23-libjpeg-divide-by-zero/libjpeg-turbo-2.0.90/rdbmp.c:463
    biPlanes = GET_2B(bmpinfoheader, 8);
    8bd6:	c1 e2 08             	shl    $0x8,%edx
    8bd9:	8d 34 0a             	lea    (%rdx,%rcx,1),%esi
/home/tenebris/Disk/Racing-code/examples/23-libjpeg-divide-by-zero/libjpeg-turbo-2.0.90/rdbmp.c:464
    source->bits_per_pixel = (int)GET_2B(bmpinfoheader, 10);
    8bdc:	0f b6 54 24 4b       	movzbl 0x4b(%rsp),%edx
    8be1:	0f b6 4c 24 4a       	movzbl 0x4a(%rsp),%ecx
/home/tenebris/Disk/Racing-code/examples/23-libjpeg-divide-by-zero/libjpeg-turbo-2.0.90/rdbmp.c:463
    biPlanes = GET_2B(bmpinfoheader, 8);
    8be6:	66 89 74 24 22       	mov    %si,0x22(%rsp)
/home/tenebris/Disk/Racing-code/examples/23-libjpeg-divide-by-zero/libjpeg-turbo-2.0.90/rdbmp.c:464
    source->bits_per_pixel = (int)GET_2B(bmpinfoheader, 10);
    8beb:	c1 e2 08             	shl    $0x8,%edx
    8bee:	01 ca                	add    %ecx,%edx
    8bf0:	8d 4a e8             	lea    -0x18(%rdx),%ecx
    8bf3:	41 89 56 50          	mov    %edx,0x50(%r14)
/home/tenebris/Disk/Racing-code/examples/23-libjpeg-divide-by-zero/libjpeg-turbo-2.0.90/rdbmp.c:466
    switch (source->bits_per_pixel) {
    8bf7:	83 e1 f7             	and    $0xfffffff7,%ecx
    8bfa:	89 4c 24 08          	mov    %ecx,0x8(%rsp)
    8bfe:	0f 84 ea 07 00 00    	je     93ee <start_input_bmp+0x9be>
    8c04:	83 fa 08             	cmp    $0x8,%edx
    8c07:	0f 84 b3 07 00 00    	je     93c0 <start_input_bmp+0x990>
/home/tenebris/Disk/Racing-code/examples/23-libjpeg-divide-by-zero/libjpeg-turbo-2.0.90/rdbmp.c:477
      ERREXIT(cinfo, JERR_BMP_BADDEPTH);
    8c0d:	c7 40 28 ea 03 00 00 	movl   $0x3ea,0x28(%rax)
    8c14:	48 89 ef             	mov    %rbp,%rdi
    8c17:	ff 10                	call   *(%rax)
/home/tenebris/Disk/Racing-code/examples/23-libjpeg-divide-by-zero/libjpeg-turbo-2.0.90/rdbmp.c:435
  int mapentrysize = 0;         /* 0 indicates no colormap */
    8c19:	c7 44 24 04 00 00 00 	movl   $0x0,0x4(%rsp)
    8c20:	00 
/home/tenebris/Disk/Racing-code/examples/23-libjpeg-divide-by-zero/libjpeg-turbo-2.0.90/rdbmp.c:434
  unsigned int biClrUsed = 0;
    8c21:	c7 44 24 08 00 00 00 	movl   $0x0,0x8(%rsp)
    8c28:	00 
/home/tenebris/Disk/Racing-code/examples/23-libjpeg-divide-by-zero/libjpeg-turbo-2.0.90/rdbmp.c:523
  if (biWidth <= 0 || biHeight <= 0)
    8c29:	45 85 ff             	test   %r15d,%r15d
    8c2c:	0f 8e 4e 05 00 00    	jle    9180 <start_input_bmp+0x750>
    8c32:	85 db                	test   %ebx,%ebx
    8c34:	0f 8e 46 05 00 00    	jle    9180 <start_input_bmp+0x750>
/home/tenebris/Disk/Racing-code/examples/23-libjpeg-divide-by-zero/libjpeg-turbo-2.0.90/rdbmp.c:525
  if (biPlanes != 1)
    8c3a:	66 83 7c 24 22 01    	cmpw   $0x1,0x22(%rsp)
    8c40:	74 10                	je     8c52 <start_input_bmp+0x222>
/home/tenebris/Disk/Racing-code/examples/23-libjpeg-divide-by-zero/libjpeg-turbo-2.0.90/rdbmp.c:526
    ERREXIT(cinfo, JERR_BMP_BADPLANES);
    8c42:	48 8b 45 00          	mov    0x0(%rbp),%rax
    8c46:	48 89 ef             	mov    %rbp,%rdi
    8c49:	c7 40 28 ec 03 00 00 	movl   $0x3ec,0x28(%rax)
    8c50:	ff 10                	call   *(%rax)
/home/tenebris/Disk/Racing-code/examples/23-libjpeg-divide-by-zero/libjpeg-turbo-2.0.90/rdbmp.c:444
  bfOffBits = GET_4B(bmpfileheader, 10);
    8c52:	0f b6 44 24 10       	movzbl 0x10(%rsp),%eax
    8c57:	0f b6 54 24 18       	movzbl 0x18(%rsp),%edx
/home/tenebris/Disk/Racing-code/examples/23-libjpeg-divide-by-zero/libjpeg-turbo-2.0.90/rdbmp.c:532
  if (mapentrysize > 0) {
    8c5c:	44 8b 44 24 04       	mov    0x4(%rsp),%r8d
/home/tenebris/Disk/Racing-code/examples/23-libjpeg-divide-by-zero/libjpeg-turbo-2.0.90/rdbmp.c:444
  bfOffBits = GET_4B(bmpfileheader, 10);
    8c61:	c1 e0 08             	shl    $0x8,%eax
/home/tenebris/Disk/Racing-code/examples/23-libjpeg-divide-by-zero/libjpeg-turbo-2.0.90/rdbmp.c:529
  bPad = bfOffBits - (headerSize + 14);
    8c64:	8d 5c 10 f2          	lea    -0xe(%rax,%rdx,1),%ebx
/home/tenebris/Disk/Racing-code/examples/23-libjpeg-divide-by-zero/libjpeg-turbo-2.0.90/rdbmp.c:444
  bfOffBits = GET_4B(bmpfileheader, 10);
    8c68:	0f b6 44 24 21       	movzbl 0x21(%rsp),%eax
    8c6d:	c1 e0 10             	shl    $0x10,%eax
/home/tenebris/Disk/Racing-code/examples/23-libjpeg-divide-by-zero/libjpeg-turbo-2.0.90/rdbmp.c:529
  bPad = bfOffBits - (headerSize + 14);
    8c70:	01 c3                	add    %eax,%ebx
/home/tenebris/Disk/Racing-code/examples/23-libjpeg-divide-by-zero/libjpeg-turbo-2.0.90/rdbmp.c:444
  bfOffBits = GET_4B(bmpfileheader, 10);
    8c72:	44 89 e8             	mov    %r13d,%eax
    8c75:	c1 e0 18             	shl    $0x18,%eax
/home/tenebris/Disk/Racing-code/examples/23-libjpeg-divide-by-zero/libjpeg-turbo-2.0.90/rdbmp.c:529
  bPad = bfOffBits - (headerSize + 14);
    8c78:	01 c3                	add    %eax,%ebx
    8c7a:	44 29 e3             	sub    %r12d,%ebx
/home/tenebris/Disk/Racing-code/examples/23-libjpeg-divide-by-zero/libjpeg-turbo-2.0.90/rdbmp.c:532
  if (mapentrysize > 0) {
    8c7d:	45 85 c0             	test   %r8d,%r8d
    8c80:	0f 84 f1 01 00 00    	je     8e77 <start_input_bmp+0x447>
/home/tenebris/Disk/Racing-code/examples/23-libjpeg-divide-by-zero/libjpeg-turbo-2.0.90/rdbmp.c:533
    if (biClrUsed <= 0)
    8c86:	8b 44 24 08          	mov    0x8(%rsp),%eax
    8c8a:	85 c0                	test   %eax,%eax
    8c8c:	0f 84 a6 05 00 00    	je     9238 <start_input_bmp+0x808>
/home/tenebris/Disk/Racing-code/examples/23-libjpeg-divide-by-zero/libjpeg-turbo-2.0.90/rdbmp.c:540
    source->cmap_length = (int)biClrUsed;
    8c92:	41 89 c0             	mov    %eax,%r8d
/home/tenebris/Disk/Racing-code/examples/23-libjpeg-divide-by-zero/libjpeg-turbo-2.0.90/rdbmp.c:535
    else if (biClrUsed > 256)
    8c95:	3d 00 01 00 00       	cmp    $0x100,%eax
    8c9a:	76 19                	jbe    8cb5 <start_input_bmp+0x285>
    8c9c:	89 44 24 18          	mov    %eax,0x18(%rsp)
/home/tenebris/Disk/Racing-code/examples/23-libjpeg-divide-by-zero/libjpeg-turbo-2.0.90/rdbmp.c:536
      ERREXIT(cinfo, JERR_BMP_BADCMAP);
    8ca0:	48 8b 45 00          	mov    0x0(%rbp),%rax
    8ca4:	48 89 ef             	mov    %rbp,%rdi
    8ca7:	c7 40 28 e9 03 00 00 	movl   $0x3e9,0x28(%rax)
    8cae:	ff 10                	call   *(%rax)
    8cb0:	44 8b 44 24 18       	mov    0x18(%rsp),%r8d
/home/tenebris/Disk/Racing-code/examples/23-libjpeg-divide-by-zero/libjpeg-turbo-2.0.90/rdbmp.c:538
    source->colormap = (*cinfo->mem->alloc_sarray)
    8cb5:	44 8b 6c 24 08       	mov    0x8(%rsp),%r13d
    8cba:	48 8b 45 08          	mov    0x8(%rbp),%rax
    8cbe:	44 89 44 24 18       	mov    %r8d,0x18(%rsp)
    8cc3:	48 89 ef             	mov    %rbp,%rdi
    8cc6:	b9 03 00 00 00       	mov    $0x3,%ecx
    8ccb:	be 01 00 00 00       	mov    $0x1,%esi
    8cd0:	44 89 ea             	mov    %r13d,%edx
    8cd3:	ff 50 10             	call   *0x10(%rax)
read_colormap():
/home/tenebris/Disk/Racing-code/examples/23-libjpeg-divide-by-zero/libjpeg-turbo-2.0.90/rdbmp.c:99
  switch (mapentrysize) {
    8cd6:	83 7c 24 04 03       	cmpl   $0x3,0x4(%rsp)
start_input_bmp():
/home/tenebris/Disk/Racing-code/examples/23-libjpeg-divide-by-zero/libjpeg-turbo-2.0.90/rdbmp.c:540
    source->cmap_length = (int)biClrUsed;
    8cdb:	45 89 6e 54          	mov    %r13d,0x54(%r14)
/home/tenebris/Disk/Racing-code/examples/23-libjpeg-divide-by-zero/libjpeg-turbo-2.0.90/rdbmp.c:538
    source->colormap = (*cinfo->mem->alloc_sarray)
    8cdf:	49 89 46 38          	mov    %rax,0x38(%r14)
read_colormap():
/home/tenebris/Disk/Racing-code/examples/23-libjpeg-divide-by-zero/libjpeg-turbo-2.0.90/rdbmp.c:99
  switch (mapentrysize) {
    8ce3:	44 8b 44 24 18       	mov    0x18(%rsp),%r8d
    8ce8:	0f 84 d6 08 00 00    	je     95c4 <start_input_bmp+0xb94>
    8cee:	83 7c 24 04 04       	cmpl   $0x4,0x4(%rsp)
    8cf3:	0f 85 97 07 00 00    	jne    9490 <start_input_bmp+0xa60>
/home/tenebris/Disk/Racing-code/examples/23-libjpeg-divide-by-zero/libjpeg-turbo-2.0.90/rdbmp.c:113
    for (i = 0; i < cmaplen; i++) {
    8cf9:	49 63 c0             	movslq %r8d,%rax
    8cfc:	45 31 e4             	xor    %r12d,%r12d
/home/tenebris/Disk/Racing-code/examples/23-libjpeg-divide-by-zero/libjpeg-turbo-2.0.90/rdbmp.c:97
  int i, gray = 1;
    8cff:	41 bd 01 00 00 00    	mov    $0x1,%r13d
/home/tenebris/Disk/Racing-code/examples/23-libjpeg-divide-by-zero/libjpeg-turbo-2.0.90/rdbmp.c:113
    for (i = 0; i < cmaplen; i++) {
    8d05:	45 85 c0             	test   %r8d,%r8d
    8d08:	0f 8e c2 08 00 00    	jle    95d0 <start_input_bmp+0xba0>
    8d0e:	89 5c 24 18          	mov    %ebx,0x18(%rsp)
    8d12:	48 89 c3             	mov    %rax,%rbx
    8d15:	48 89 6c 24 10       	mov    %rbp,0x10(%rsp)
    8d1a:	4c 89 f5             	mov    %r14,%rbp
    8d1d:	eb 11                	jmp    8d30 <start_input_bmp+0x300>
    8d1f:	90                   	nop
/home/tenebris/Disk/Racing-code/examples/23-libjpeg-divide-by-zero/libjpeg-turbo-2.0.90/rdbmp.c:120
        gray = 0;
    8d20:	45 31 ed             	xor    %r13d,%r13d
/home/tenebris/Disk/Racing-code/examples/23-libjpeg-divide-by-zero/libjpeg-turbo-2.0.90/rdbmp.c:113
    for (i = 0; i < cmaplen; i++) {
    8d23:	49 83 c4 01          	add    $0x1,%r12
    8d27:	49 39 dc             	cmp    %rbx,%r12
    8d2a:	0f 84 18 01 00 00    	je     8e48 <start_input_bmp+0x418>
read_byte():
/home/tenebris/Disk/Racing-code/examples/23-libjpeg-divide-by-zero/libjpeg-turbo-2.0.90/rdbmp.c:87
  if ((c = getc(infile)) == EOF)
    8d30:	48 8b 7d 18          	mov    0x18(%rbp),%rdi
    8d34:	e8 37 97 ff ff       	call   2470 <getc@plt>
    8d39:	41 89 c6             	mov    %eax,%r14d
    8d3c:	83 f8 ff             	cmp    $0xffffffff,%eax
    8d3f:	75 10                	jne    8d51 <start_input_bmp+0x321>
    8d41:	48 8b 7d 30          	mov    0x30(%rbp),%rdi
/home/tenebris/Disk/Racing-code/examples/23-libjpeg-divide-by-zero/libjpeg-turbo-2.0.90/rdbmp.c:88
    ERREXIT(sinfo->cinfo, JERR_INPUT_EOF);
    8d45:	48 8b 0f             	mov    (%rdi),%rcx
    8d48:	c7 41 28 2b 00 00 00 	movl   $0x2b,0x28(%rcx)
    8d4f:	ff 11                	call   *(%rcx)
read_colormap():
/home/tenebris/Disk/Racing-code/examples/23-libjpeg-divide-by-zero/libjpeg-turbo-2.0.90/rdbmp.c:114
      sinfo->colormap[2][i] = (JSAMPLE)read_byte(sinfo);
    8d51:	48 8b 4d 38          	mov    0x38(%rbp),%rcx
    8d55:	48 8b 49 10          	mov    0x10(%rcx),%rcx
    8d59:	46 88 34 21          	mov    %r14b,(%rcx,%r12,1)
read_byte():
/home/tenebris/Disk/Racing-code/examples/23-libjpeg-divide-by-zero/libjpeg-turbo-2.0.90/rdbmp.c:87
  if ((c = getc(infile)) == EOF)
    8d5d:	48 8b 7d 18          	mov    0x18(%rbp),%rdi
    8d61:	e8 0a 97 ff ff       	call   2470 <getc@plt>
    8d66:	41 89 c6             	mov    %eax,%r14d
    8d69:	83 f8 ff             	cmp    $0xffffffff,%eax
    8d6c:	75 10                	jne    8d7e <start_input_bmp+0x34e>
    8d6e:	48 8b 7d 30          	mov    0x30(%rbp),%rdi
/home/tenebris/Disk/Racing-code/examples/23-libjpeg-divide-by-zero/libjpeg-turbo-2.0.90/rdbmp.c:88
    ERREXIT(sinfo->cinfo, JERR_INPUT_EOF);
    8d72:	48 8b 0f             	mov    (%rdi),%rcx
    8d75:	c7 41 28 2b 00 00 00 	movl   $0x2b,0x28(%rcx)
    8d7c:	ff 11                	call   *(%rcx)
read_colormap():
/home/tenebris/Disk/Racing-code/examples/23-libjpeg-divide-by-zero/libjpeg-turbo-2.0.90/rdbmp.c:115
      sinfo->colormap[1][i] = (JSAMPLE)read_byte(sinfo);
    8d7e:	48 8b 4d 38          	mov    0x38(%rbp),%rcx
    8d82:	48 8b 49 08          	mov    0x8(%rcx),%rcx
    8d86:	46 88 34 21          	mov    %r14b,(%rcx,%r12,1)
read_byte():
/home/tenebris/Disk/Racing-code/examples/23-libjpeg-divide-by-zero/libjpeg-turbo-2.0.90/rdbmp.c:87
  if ((c = getc(infile)) == EOF)
    8d8a:	48 8b 7d 18          	mov    0x18(%rbp),%rdi
    8d8e:	e8 dd 96 ff ff       	call   2470 <getc@plt>
    8d93:	41 89 c6             	mov    %eax,%r14d
    8d96:	83 f8 ff             	cmp    $0xffffffff,%eax
    8d99:	75 10                	jne    8dab <start_input_bmp+0x37b>
    8d9b:	48 8b 7d 30          	mov    0x30(%rbp),%rdi
/home/tenebris/Disk/Racing-code/examples/23-libjpeg-divide-by-zero/libjpeg-turbo-2.0.90/rdbmp.c:88
    ERREXIT(sinfo->cinfo, JERR_INPUT_EOF);
    8d9f:	48 8b 0f             	mov    (%rdi),%rcx
    8da2:	c7 41 28 2b 00 00 00 	movl   $0x2b,0x28(%rcx)
    8da9:	ff 11                	call   *(%rcx)
read_colormap():
/home/tenebris/Disk/Racing-code/examples/23-libjpeg-divide-by-zero/libjpeg-turbo-2.0.90/rdbmp.c:116
      sinfo->colormap[0][i] = (JSAMPLE)read_byte(sinfo);
    8dab:	48 8b 4d 38          	mov    0x38(%rbp),%rcx
    8daf:	48 8b 09             	mov    (%rcx),%rcx
    8db2:	46 88 34 21          	mov    %r14b,(%rcx,%r12,1)
read_byte():
/home/tenebris/Disk/Racing-code/examples/23-libjpeg-divide-by-zero/libjpeg-turbo-2.0.90/rdbmp.c:87
  if ((c = getc(infile)) == EOF)
    8db6:	48 8b 7d 18          	mov    0x18(%rbp),%rdi
    8dba:	e8 b1 96 ff ff       	call   2470 <getc@plt>
    8dbf:	83 f8 ff             	cmp    $0xffffffff,%eax
    8dc2:	75 10                	jne    8dd4 <start_input_bmp+0x3a4>
    8dc4:	48 8b 7d 30          	mov    0x30(%rbp),%rdi
/home/tenebris/Disk/Racing-code/examples/23-libjpeg-divide-by-zero/libjpeg-turbo-2.0.90/rdbmp.c:88
    ERREXIT(sinfo->cinfo, JERR_INPUT_EOF);
    8dc8:	48 8b 07             	mov    (%rdi),%rax
    8dcb:	c7 40 28 2b 00 00 00 	movl   $0x2b,0x28(%rax)
    8dd2:	ff 10                	call   *(%rax)
read_colormap():
/home/tenebris/Disk/Racing-code/examples/23-libjpeg-divide-by-zero/libjpeg-turbo-2.0.90/rdbmp.c:118
      if (sinfo->colormap[2][i] != sinfo->colormap[1][i] ||
    8dd4:	48 8b 45 38          	mov    0x38(%rbp),%rax
    8dd8:	48 8b 48 08          	mov    0x8(%rax),%rcx
    8ddc:	48 8b 70 10          	mov    0x10(%rax),%rsi
    8de0:	42 0f b6 0c 21       	movzbl (%rcx,%r12,1),%ecx
    8de5:	42 38 0c 26          	cmp    %cl,(%rsi,%r12,1)
    8de9:	0f 85 31 ff ff ff    	jne    8d20 <start_input_bmp+0x2f0>
/home/tenebris/Disk/Racing-code/examples/23-libjpeg-divide-by-zero/libjpeg-turbo-2.0.90/rdbmp.c:119
          sinfo->colormap[1][i] != sinfo->colormap[0][i])
    8def:	48 8b 00             	mov    (%rax),%rax
/home/tenebris/Disk/Racing-code/examples/23-libjpeg-divide-by-zero/libjpeg-turbo-2.0.90/rdbmp.c:120
        gray = 0;
    8df2:	42 3a 0c 20          	cmp    (%rax,%r12,1),%cl
    8df6:	b8 00 00 00 00       	mov    $0x0,%eax
    8dfb:	44 0f 45 e8          	cmovne %eax,%r13d
    8dff:	e9 1f ff ff ff       	jmp    8d23 <start_input_bmp+0x2f3>
    8e04:	0f 1f 40 00          	nopl   0x0(%rax)
    8e08:	48 8b 45 00          	mov    0x0(%rbp),%rax
start_input_bmp():
/home/tenebris/Disk/Racing-code/examples/23-libjpeg-divide-by-zero/libjpeg-turbo-2.0.90/rdbmp.c:519
    ERREXIT(cinfo, JERR_BMP_BADHEADER);
    8e0c:	c7 40 28 eb 03 00 00 	movl   $0x3eb,0x28(%rax)
    8e13:	48 89 ef             	mov    %rbp,%rdi
    8e16:	ff 10                	call   *(%rax)
/home/tenebris/Disk/Racing-code/examples/23-libjpeg-divide-by-zero/libjpeg-turbo-2.0.90/rdbmp.c:640
}
    8e18:	48 8b 84 24 88 00 00 	mov    0x88(%rsp),%rax
    8e1f:	00 
    8e20:	64 48 2b 04 25 28 00 	sub    %fs:0x28,%rax
    8e27:	00 00 
    8e29:	0f 85 e5 07 00 00    	jne    9614 <start_input_bmp+0xbe4>
    8e2f:	48 81 c4 98 00 00 00 	add    $0x98,%rsp
    8e36:	5b                   	pop    %rbx
    8e37:	5d                   	pop    %rbp
    8e38:	41 5c                	pop    %r12
    8e3a:	41 5d                	pop    %r13
    8e3c:	41 5e                	pop    %r14
    8e3e:	41 5f                	pop    %r15
    8e40:	c3                   	ret    
    8e41:	0f 1f 80 00 00 00 00 	nopl   0x0(%rax)
read_colormap():
/home/tenebris/Disk/Racing-code/examples/23-libjpeg-divide-by-zero/libjpeg-turbo-2.0.90/rdbmp.c:640
    8e48:	49 89 ee             	mov    %rbp,%r14
    8e4b:	8b 5c 24 18          	mov    0x18(%rsp),%ebx
    8e4f:	48 8b 6c 24 10       	mov    0x10(%rsp),%rbp
/home/tenebris/Disk/Racing-code/examples/23-libjpeg-divide-by-zero/libjpeg-turbo-2.0.90/rdbmp.c:128
  if (sinfo->cinfo->in_color_space == JCS_UNKNOWN && gray)
    8e54:	49 8b 7e 30          	mov    0x30(%r14),%rdi
    8e58:	8b 47 3c             	mov    0x3c(%rdi),%eax
    8e5b:	85 c0                	test   %eax,%eax
    8e5d:	0f 85 5d 06 00 00    	jne    94c0 <start_input_bmp+0xa90>
    8e63:	45 85 ed             	test   %r13d,%r13d
    8e66:	0f 85 43 06 00 00    	jne    94af <start_input_bmp+0xa7f>
start_input_bmp():
/home/tenebris/Disk/Racing-code/examples/23-libjpeg-divide-by-zero/libjpeg-turbo-2.0.90/rdbmp.c:544
    bPad -= biClrUsed * mapentrysize;
    8e6c:	8b 44 24 04          	mov    0x4(%rsp),%eax
    8e70:	0f af 44 24 08       	imul   0x8(%rsp),%eax
    8e75:	29 c3                	sub    %eax,%ebx
/home/tenebris/Disk/Racing-code/examples/23-libjpeg-divide-by-zero/libjpeg-turbo-2.0.90/rdbmp.c:548
  if (bPad < 0)                 /* incorrect bfOffBits value? */
    8e77:	85 db                	test   %ebx,%ebx
    8e79:	0f 88 61 03 00 00    	js     91e0 <start_input_bmp+0x7b0>
/home/tenebris/Disk/Racing-code/examples/23-libjpeg-divide-by-zero/libjpeg-turbo-2.0.90/rdbmp.c:550
  while (--bPad >= 0) {
    8e7f:	44 8d 63 ff          	lea    -0x1(%rbx),%r12d
    8e83:	74 27                	je     8eac <start_input_bmp+0x47c>
    8e85:	0f 1f 00             	nopl   (%rax)
read_byte():
/home/tenebris/Disk/Racing-code/examples/23-libjpeg-divide-by-zero/libjpeg-turbo-2.0.90/rdbmp.c:87
  if ((c = getc(infile)) == EOF)
    8e88:	49 8b 7e 18          	mov    0x18(%r14),%rdi
    8e8c:	e8 df 95 ff ff       	call   2470 <getc@plt>
    8e91:	83 f8 ff             	cmp    $0xffffffff,%eax
    8e94:	75 10                	jne    8ea6 <start_input_bmp+0x476>
    8e96:	49 8b 7e 30          	mov    0x30(%r14),%rdi
/home/tenebris/Disk/Racing-code/examples/23-libjpeg-divide-by-zero/libjpeg-turbo-2.0.90/rdbmp.c:88
    ERREXIT(sinfo->cinfo, JERR_INPUT_EOF);
    8e9a:	48 8b 07             	mov    (%rdi),%rax
    8e9d:	c7 40 28 2b 00 00 00 	movl   $0x2b,0x28(%rax)
    8ea4:	ff 10                	call   *(%rax)
start_input_bmp():
/home/tenebris/Disk/Racing-code/examples/23-libjpeg-divide-by-zero/libjpeg-turbo-2.0.90/rdbmp.c:550
  while (--bPad >= 0) {
    8ea6:	41 83 ec 01          	sub    $0x1,%r12d
    8eaa:	73 dc                	jae    8e88 <start_input_bmp+0x458>
/home/tenebris/Disk/Racing-code/examples/23-libjpeg-divide-by-zero/libjpeg-turbo-2.0.90/rdbmp.c:555
  switch (source->bits_per_pixel) {
    8eac:	41 8b 46 50          	mov    0x50(%r14),%eax
    8eb0:	83 f8 18             	cmp    $0x18,%eax
    8eb3:	0f 84 44 03 00 00    	je     91fd <start_input_bmp+0x7cd>
    8eb9:	83 f8 20             	cmp    $0x20,%eax
    8ebc:	0f 84 9e 04 00 00    	je     9360 <start_input_bmp+0x930>
    8ec2:	83 f8 08             	cmp    $0x8,%eax
    8ec5:	0f 84 cd 04 00 00    	je     9398 <start_input_bmp+0x968>
/home/tenebris/Disk/Racing-code/examples/23-libjpeg-divide-by-zero/libjpeg-turbo-2.0.90/rdbmp.c:592
    ERREXIT(cinfo, JERR_BMP_BADDEPTH);
    8ecb:	48 8b 45 00          	mov    0x0(%rbp),%rax
    8ecf:	48 89 ef             	mov    %rbp,%rdi
    8ed2:	c7 40 28 ea 03 00 00 	movl   $0x3ea,0x28(%rax)
    8ed9:	ff 10                	call   *(%rax)
/home/tenebris/Disk/Racing-code/examples/23-libjpeg-divide-by-zero/libjpeg-turbo-2.0.90/rdbmp.c:437
  JDIMENSION row_width = 0;
    8edb:	31 c9                	xor    %ecx,%ecx
/home/tenebris/Disk/Racing-code/examples/23-libjpeg-divide-by-zero/libjpeg-turbo-2.0.90/rdbmp.c:597
  if (source->use_inversion_array) {
    8edd:	41 8b 56 58          	mov    0x58(%r14),%edx
/home/tenebris/Disk/Racing-code/examples/23-libjpeg-divide-by-zero/libjpeg-turbo-2.0.90/rdbmp.c:599
    source->whole_image = (*cinfo->mem->request_virt_sarray)
    8ee1:	48 8b 45 08          	mov    0x8(%rbp),%rax
/home/tenebris/Disk/Racing-code/examples/23-libjpeg-divide-by-zero/libjpeg-turbo-2.0.90/rdbmp.c:595
  source->row_width = row_width;
    8ee5:	41 89 4e 4c          	mov    %ecx,0x4c(%r14)
/home/tenebris/Disk/Racing-code/examples/23-libjpeg-divide-by-zero/libjpeg-turbo-2.0.90/rdbmp.c:597
  if (source->use_inversion_array) {
    8ee9:	85 d2                	test   %edx,%edx
    8eeb:	0f 84 a7 02 00 00    	je     9198 <start_input_bmp+0x768>
/home/tenebris/Disk/Racing-code/examples/23-libjpeg-divide-by-zero/libjpeg-turbo-2.0.90/rdbmp.c:599
    source->whole_image = (*cinfo->mem->request_virt_sarray)
    8ef1:	44 8b 44 24 0c       	mov    0xc(%rsp),%r8d
    8ef6:	41 b9 01 00 00 00    	mov    $0x1,%r9d
    8efc:	31 d2                	xor    %edx,%edx
    8efe:	48 89 ef             	mov    %rbp,%rdi
    8f01:	be 01 00 00 00       	mov    $0x1,%esi
    8f06:	ff 50 20             	call   *0x20(%rax)
    8f09:	49 89 46 40          	mov    %rax,0x40(%r14)
/home/tenebris/Disk/Racing-code/examples/23-libjpeg-divide-by-zero/libjpeg-turbo-2.0.90/rdbmp.c:602
    source->pub.get_pixel_rows = preload_image;
    8f0d:	48 8d 05 cc f9 ff ff 	lea    -0x634(%rip),%rax        # 88e0 <preload_image>
    8f14:	49 89 46 08          	mov    %rax,0x8(%r14)
/home/tenebris/Disk/Racing-code/examples/23-libjpeg-divide-by-zero/libjpeg-turbo-2.0.90/rdbmp.c:603
    if (cinfo->progress != NULL) {
    8f18:	48 8b 45 10          	mov    0x10(%rbp),%rax
    8f1c:	48 85 c0             	test   %rax,%rax
    8f1f:	74 04                	je     8f25 <start_input_bmp+0x4f5>
/home/tenebris/Disk/Racing-code/examples/23-libjpeg-divide-by-zero/libjpeg-turbo-2.0.90/rdbmp.c:605
      progress->total_extra_passes++; /* count file input as separate pass */
    8f21:	83 40 24 01          	addl   $0x1,0x24(%rax)
/home/tenebris/Disk/Racing-code/examples/23-libjpeg-divide-by-zero/libjpeg-turbo-2.0.90/rdbmp.c:629
      (unsigned long long)cinfo->input_components > 0xFFFFFFFFULL)
    8f25:	48 63 4d 38          	movslq 0x38(%rbp),%rcx
/home/tenebris/Disk/Racing-code/examples/23-libjpeg-divide-by-zero/libjpeg-turbo-2.0.90/rdbmp.c:628
  if ((unsigned long long)biWidth *
    8f29:	49 63 c7             	movslq %r15d,%rax
    8f2c:	48 0f af c1          	imul   %rcx,%rax
/home/tenebris/Disk/Racing-code/examples/23-libjpeg-divide-by-zero/libjpeg-turbo-2.0.90/rdbmp.c:629
      (unsigned long long)cinfo->input_components > 0xFFFFFFFFULL)
    8f30:	48 89 ca             	mov    %rcx,%rdx
/home/tenebris/Disk/Racing-code/examples/23-libjpeg-divide-by-zero/libjpeg-turbo-2.0.90/rdbmp.c:628
  if ((unsigned long long)biWidth *
    8f33:	48 c1 e8 20          	shr    $0x20,%rax
    8f37:	74 13                	je     8f4c <start_input_bmp+0x51c>
/home/tenebris/Disk/Racing-code/examples/23-libjpeg-divide-by-zero/libjpeg-turbo-2.0.90/rdbmp.c:630
    ERREXIT(cinfo, JERR_WIDTH_OVERFLOW);
    8f39:	48 8b 45 00          	mov    0x0(%rbp),%rax
    8f3d:	48 89 ef             	mov    %rbp,%rdi
    8f40:	c7 40 28 46 00 00 00 	movl   $0x46,0x28(%rax)
    8f47:	ff 10                	call   *(%rax)
/home/tenebris/Disk/Racing-code/examples/23-libjpeg-divide-by-zero/libjpeg-turbo-2.0.90/rdbmp.c:634
     (JDIMENSION)(biWidth * cinfo->input_components), (JDIMENSION)1);
    8f49:	8b 55 38             	mov    0x38(%rbp),%edx
/home/tenebris/Disk/Racing-code/examples/23-libjpeg-divide-by-zero/libjpeg-turbo-2.0.90/rdbmp.c:632
  source->pub.buffer = (*cinfo->mem->alloc_sarray)
    8f4c:	48 8b 45 08          	mov    0x8(%rbp),%rax
/home/tenebris/Disk/Racing-code/examples/23-libjpeg-divide-by-zero/libjpeg-turbo-2.0.90/rdbmp.c:634
     (JDIMENSION)(biWidth * cinfo->input_components), (JDIMENSION)1);
    8f50:	41 0f af d7          	imul   %r15d,%edx
/home/tenebris/Disk/Racing-code/examples/23-libjpeg-divide-by-zero/libjpeg-turbo-2.0.90/rdbmp.c:632
  source->pub.buffer = (*cinfo->mem->alloc_sarray)
    8f54:	b9 01 00 00 00       	mov    $0x1,%ecx
    8f59:	48 89 ef             	mov    %rbp,%rdi
    8f5c:	be 01 00 00 00       	mov    $0x1,%esi
    8f61:	ff 50 10             	call   *0x10(%rax)
/home/tenebris/Disk/Racing-code/examples/23-libjpeg-divide-by-zero/libjpeg-turbo-2.0.90/rdbmp.c:635
  source->pub.buffer_height = 1;
    8f64:	41 c7 46 28 01 00 00 	movl   $0x1,0x28(%r14)
    8f6b:	00 
/home/tenebris/Disk/Racing-code/examples/23-libjpeg-divide-by-zero/libjpeg-turbo-2.0.90/rdbmp.c:632
  source->pub.buffer = (*cinfo->mem->alloc_sarray)
    8f6c:	49 89 46 20          	mov    %rax,0x20(%r14)
/home/tenebris/Disk/Racing-code/examples/23-libjpeg-divide-by-zero/libjpeg-turbo-2.0.90/rdbmp.c:638
  cinfo->image_width = (JDIMENSION)biWidth;
    8f70:	8b 44 24 1c          	mov    0x1c(%rsp),%eax
/home/tenebris/Disk/Racing-code/examples/23-libjpeg-divide-by-zero/libjpeg-turbo-2.0.90/rdbmp.c:637
  cinfo->data_precision = 8;
    8f74:	c7 45 48 08 00 00 00 	movl   $0x8,0x48(%rbp)
/home/tenebris/Disk/Racing-code/examples/23-libjpeg-divide-by-zero/libjpeg-turbo-2.0.90/rdbmp.c:638
  cinfo->image_width = (JDIMENSION)biWidth;
    8f7b:	89 45 30             	mov    %eax,0x30(%rbp)
/home/tenebris/Disk/Racing-code/examples/23-libjpeg-divide-by-zero/libjpeg-turbo-2.0.90/rdbmp.c:639
  cinfo->image_height = (JDIMENSION)biHeight;
    8f7e:	8b 44 24 0c          	mov    0xc(%rsp),%eax
    8f82:	89 45 34             	mov    %eax,0x34(%rbp)
    8f85:	e9 8e fe ff ff       	jmp    8e18 <start_input_bmp+0x3e8>
    8f8a:	66 0f 1f 44 00 00    	nopw   0x0(%rax,%rax,1)
fread():
/usr/include/x86_64-linux-gnu/bits/stdio2.h:296
    8f90:	4d 8b 46 18          	mov    0x18(%r14),%r8
    8f94:	48 8d 7c 24 44       	lea    0x44(%rsp),%rdi
    8f99:	48 89 d9             	mov    %rbx,%rcx
    8f9c:	ba 01 00 00 00       	mov    $0x1,%edx
    8fa1:	be 3c 00 00 00       	mov    $0x3c,%esi
    8fa6:	e8 35 94 ff ff       	call   23e0 <__fread_chk@plt>
start_input_bmp():
/home/tenebris/Disk/Racing-code/examples/23-libjpeg-divide-by-zero/libjpeg-turbo-2.0.90/rdbmp.c:455
  if (!ReadOK(source->pub.input_file, bmpinfoheader + 4, headerSize - 4))
    8fab:	48 39 d8             	cmp    %rbx,%rax
    8fae:	0f 85 bc fb ff ff    	jne    8b70 <start_input_bmp+0x140>
/home/tenebris/Disk/Racing-code/examples/23-libjpeg-divide-by-zero/libjpeg-turbo-2.0.90/rdbmp.c:469
      TRACEMS2(cinfo, 1, JTRC_BMP_OS2_MAPPED, biWidth, biHeight);
    8fb4:	48 8b 45 00          	mov    0x0(%rbp),%rax
/home/tenebris/Disk/Racing-code/examples/23-libjpeg-divide-by-zero/libjpeg-turbo-2.0.90/rdbmp.c:458
  switch (headerSize) {
    8fb8:	41 83 fc 28          	cmp    $0x28,%r12d
    8fbc:	0f 85 cc fb ff ff    	jne    8b8e <start_input_bmp+0x15e>
    8fc2:	66 0f 1f 44 00 00    	nopw   0x0(%rax,%rax,1)
/home/tenebris/Disk/Racing-code/examples/23-libjpeg-divide-by-zero/libjpeg-turbo-2.0.90/rdbmp.c:485
    biWidth = (int)GET_4B(bmpinfoheader, 4);
    8fc8:	0f b6 54 24 45       	movzbl 0x45(%rsp),%edx
    8fcd:	0f b6 4c 24 46       	movzbl 0x46(%rsp),%ecx
    8fd2:	c1 e2 08             	shl    $0x8,%edx
    8fd5:	c1 e1 10             	shl    $0x10,%ecx
    8fd8:	01 ca                	add    %ecx,%edx
    8fda:	0f b6 4c 24 44       	movzbl 0x44(%rsp),%ecx
    8fdf:	01 ca                	add    %ecx,%edx
    8fe1:	0f b6 4c 24 47       	movzbl 0x47(%rsp),%ecx
    8fe6:	c1 e1 18             	shl    $0x18,%ecx
    8fe9:	8d 3c 0a             	lea    (%rdx,%rcx,1),%edi
/home/tenebris/Disk/Racing-code/examples/23-libjpeg-divide-by-zero/libjpeg-turbo-2.0.90/rdbmp.c:486
    biHeight = (int)GET_4B(bmpinfoheader, 8);
    8fec:	0f b6 54 24 49       	movzbl 0x49(%rsp),%edx
    8ff1:	0f b6 4c 24 4a       	movzbl 0x4a(%rsp),%ecx
/home/tenebris/Disk/Racing-code/examples/23-libjpeg-divide-by-zero/libjpeg-turbo-2.0.90/rdbmp.c:485
    biWidth = (int)GET_4B(bmpinfoheader, 4);
    8ff6:	89 7c 24 1c          	mov    %edi,0x1c(%rsp)
    8ffa:	41 89 ff             	mov    %edi,%r15d
/home/tenebris/Disk/Racing-code/examples/23-libjpeg-divide-by-zero/libjpeg-turbo-2.0.90/rdbmp.c:486
    biHeight = (int)GET_4B(bmpinfoheader, 8);
    8ffd:	c1 e1 10             	shl    $0x10,%ecx
    9000:	c1 e2 08             	shl    $0x8,%edx
    9003:	01 ca                	add    %ecx,%edx
    9005:	0f b6 4c 24 48       	movzbl 0x48(%rsp),%ecx
    900a:	01 ca                	add    %ecx,%edx
    900c:	0f b6 4c 24 4b       	movzbl 0x4b(%rsp),%ecx
    9011:	c1 e1 18             	shl    $0x18,%ecx
    9014:	44 8d 14 0a          	lea    (%rdx,%rcx,1),%r10d
/home/tenebris/Disk/Racing-code/examples/23-libjpeg-divide-by-zero/libjpeg-turbo-2.0.90/rdbmp.c:487
    biPlanes = GET_2B(bmpinfoheader, 12);
    9018:	0f b6 54 24 4d       	movzbl 0x4d(%rsp),%edx
    901d:	0f b6 4c 24 4c       	movzbl 0x4c(%rsp),%ecx
/home/tenebris/Disk/Racing-code/examples/23-libjpeg-divide-by-zero/libjpeg-turbo-2.0.90/rdbmp.c:486
    biHeight = (int)GET_4B(bmpinfoheader, 8);
    9022:	44 89 54 24 0c       	mov    %r10d,0xc(%rsp)
    9027:	44 89 d3             	mov    %r10d,%ebx
/home/tenebris/Disk/Racing-code/examples/23-libjpeg-divide-by-zero/libjpeg-turbo-2.0.90/rdbmp.c:487
    biPlanes = GET_2B(bmpinfoheader, 12);
    902a:	c1 e2 08             	shl    $0x8,%edx
    902d:	8d 34 0a             	lea    (%rdx,%rcx,1),%esi
/home/tenebris/Disk/Racing-code/examples/23-libjpeg-divide-by-zero/libjpeg-turbo-2.0.90/rdbmp.c:488
    source->bits_per_pixel = (int)GET_2B(bmpinfoheader, 14);
    9030:	0f b6 54 24 4f       	movzbl 0x4f(%rsp),%edx
    9035:	0f b6 4c 24 4e       	movzbl 0x4e(%rsp),%ecx
/home/tenebris/Disk/Racing-code/examples/23-libjpeg-divide-by-zero/libjpeg-turbo-2.0.90/rdbmp.c:487
    biPlanes = GET_2B(bmpinfoheader, 12);
    903a:	66 89 74 24 22       	mov    %si,0x22(%rsp)
/home/tenebris/Disk/Racing-code/examples/23-libjpeg-divide-by-zero/libjpeg-turbo-2.0.90/rdbmp.c:489
    biCompression = GET_4B(bmpinfoheader, 16);
    903f:	0f b6 74 24 52       	movzbl 0x52(%rsp),%esi
/home/tenebris/Disk/Racing-code/examples/23-libjpeg-divide-by-zero/libjpeg-turbo-2.0.90/rdbmp.c:488
    source->bits_per_pixel = (int)GET_2B(bmpinfoheader, 14);
    9044:	c1 e2 08             	shl    $0x8,%edx
    9047:	01 ca                	add    %ecx,%edx
/home/tenebris/Disk/Racing-code/examples/23-libjpeg-divide-by-zero/libjpeg-turbo-2.0.90/rdbmp.c:489
    biCompression = GET_4B(bmpinfoheader, 16);
    9049:	0f b6 4c 24 51       	movzbl 0x51(%rsp),%ecx
    904e:	c1 e6 10             	shl    $0x10,%esi
/home/tenebris/Disk/Racing-code/examples/23-libjpeg-divide-by-zero/libjpeg-turbo-2.0.90/rdbmp.c:488
    source->bits_per_pixel = (int)GET_2B(bmpinfoheader, 14);
    9051:	41 89 56 50          	mov    %edx,0x50(%r14)
/home/tenebris/Disk/Racing-code/examples/23-libjpeg-divide-by-zero/libjpeg-turbo-2.0.90/rdbmp.c:489
    biCompression = GET_4B(bmpinfoheader, 16);
    9055:	c1 e1 08             	shl    $0x8,%ecx
    9058:	01 f1                	add    %esi,%ecx
    905a:	0f b6 74 24 50       	movzbl 0x50(%rsp),%esi
    905f:	01 f1                	add    %esi,%ecx
    9061:	0f b6 74 24 53       	movzbl 0x53(%rsp),%esi
    9066:	c1 e6 18             	shl    $0x18,%esi
    9069:	01 ce                	add    %ecx,%esi
/home/tenebris/Disk/Racing-code/examples/23-libjpeg-divide-by-zero/libjpeg-turbo-2.0.90/rdbmp.c:490
    biXPelsPerMeter = (int)GET_4B(bmpinfoheader, 24);
    906b:	0f b6 4c 24 59       	movzbl 0x59(%rsp),%ecx
/home/tenebris/Disk/Racing-code/examples/23-libjpeg-divide-by-zero/libjpeg-turbo-2.0.90/rdbmp.c:489
    biCompression = GET_4B(bmpinfoheader, 16);
    9070:	89 74 24 24          	mov    %esi,0x24(%rsp)
/home/tenebris/Disk/Racing-code/examples/23-libjpeg-divide-by-zero/libjpeg-turbo-2.0.90/rdbmp.c:490
    biXPelsPerMeter = (int)GET_4B(bmpinfoheader, 24);
    9074:	0f b6 74 24 5a       	movzbl 0x5a(%rsp),%esi
    9079:	c1 e1 08             	shl    $0x8,%ecx
    907c:	c1 e6 10             	shl    $0x10,%esi
    907f:	01 f1                	add    %esi,%ecx
    9081:	0f b6 74 24 58       	movzbl 0x58(%rsp),%esi
    9086:	01 f1                	add    %esi,%ecx
    9088:	0f b6 74 24 5b       	movzbl 0x5b(%rsp),%esi
    908d:	c1 e6 18             	shl    $0x18,%esi
    9090:	01 ce                	add    %ecx,%esi
/home/tenebris/Disk/Racing-code/examples/23-libjpeg-divide-by-zero/libjpeg-turbo-2.0.90/rdbmp.c:491
    biYPelsPerMeter = (int)GET_4B(bmpinfoheader, 28);
    9092:	0f b6 4c 24 5d       	movzbl 0x5d(%rsp),%ecx
/home/tenebris/Disk/Racing-code/examples/23-libjpeg-divide-by-zero/libjpeg-turbo-2.0.90/rdbmp.c:490
    biXPelsPerMeter = (int)GET_4B(bmpinfoheader, 24);
    9097:	89 74 24 28          	mov    %esi,0x28(%rsp)
/home/tenebris/Disk/Racing-code/examples/23-libjpeg-divide-by-zero/libjpeg-turbo-2.0.90/rdbmp.c:491
    biYPelsPerMeter = (int)GET_4B(bmpinfoheader, 28);
    909b:	0f b6 74 24 5e       	movzbl 0x5e(%rsp),%esi
    90a0:	c1 e1 08             	shl    $0x8,%ecx
    90a3:	c1 e6 10             	shl    $0x10,%esi
    90a6:	01 f1                	add    %esi,%ecx
    90a8:	0f b6 74 24 5c       	movzbl 0x5c(%rsp),%esi
    90ad:	01 f1                	add    %esi,%ecx
    90af:	0f b6 74 24 5f       	movzbl 0x5f(%rsp),%esi
    90b4:	c1 e6 18             	shl    $0x18,%esi
    90b7:	01 ce                	add    %ecx,%esi
/home/tenebris/Disk/Racing-code/examples/23-libjpeg-divide-by-zero/libjpeg-turbo-2.0.90/rdbmp.c:492
    biClrUsed = GET_4B(bmpinfoheader, 32);
    90b9:	0f b6 4c 24 61       	movzbl 0x61(%rsp),%ecx
/home/tenebris/Disk/Racing-code/examples/23-libjpeg-divide-by-zero/libjpeg-turbo-2.0.90/rdbmp.c:491
    biYPelsPerMeter = (int)GET_4B(bmpinfoheader, 28);
    90be:	89 74 24 2c          	mov    %esi,0x2c(%rsp)
/home/tenebris/Disk/Racing-code/examples/23-libjpeg-divide-by-zero/libjpeg-turbo-2.0.90/rdbmp.c:492
    biClrUsed = GET_4B(bmpinfoheader, 32);
    90c2:	0f b6 74 24 62       	movzbl 0x62(%rsp),%esi
    90c7:	c1 e1 08             	shl    $0x8,%ecx
    90ca:	c1 e6 10             	shl    $0x10,%esi
    90cd:	01 f1                	add    %esi,%ecx
    90cf:	0f b6 74 24 60       	movzbl 0x60(%rsp),%esi
    90d4:	01 f1                	add    %esi,%ecx
    90d6:	0f b6 74 24 63       	movzbl 0x63(%rsp),%esi
    90db:	c1 e6 18             	shl    $0x18,%esi
    90de:	01 ce                	add    %ecx,%esi
    90e0:	8d 4a e8             	lea    -0x18(%rdx),%ecx
    90e3:	83 e1 f7             	and    $0xfffffff7,%ecx
    90e6:	89 74 24 08          	mov    %esi,0x8(%rsp)
/home/tenebris/Disk/Racing-code/examples/23-libjpeg-divide-by-zero/libjpeg-turbo-2.0.90/rdbmp.c:495
    switch (source->bits_per_pixel) {
    90ea:	0f 84 64 03 00 00    	je     9454 <start_input_bmp+0xa24>
    90f0:	83 fa 08             	cmp    $0x8,%edx
    90f3:	0f 84 27 03 00 00    	je     9420 <start_input_bmp+0x9f0>
/home/tenebris/Disk/Racing-code/examples/23-libjpeg-divide-by-zero/libjpeg-turbo-2.0.90/rdbmp.c:505
      ERREXIT(cinfo, JERR_BMP_BADDEPTH);
    90f9:	c7 40 28 ea 03 00 00 	movl   $0x3ea,0x28(%rax)
    9100:	48 89 ef             	mov    %rbp,%rdi
    9103:	ff 10                	call   *(%rax)
/home/tenebris/Disk/Racing-code/examples/23-libjpeg-divide-by-zero/libjpeg-turbo-2.0.90/rdbmp.c:508
    if (biCompression != 0)
    9105:	44 8b 4c 24 24       	mov    0x24(%rsp),%r9d
/home/tenebris/Disk/Racing-code/examples/23-libjpeg-divide-by-zero/libjpeg-turbo-2.0.90/rdbmp.c:435
  int mapentrysize = 0;         /* 0 indicates no colormap */
    910a:	c7 44 24 04 00 00 00 	movl   $0x0,0x4(%rsp)
    9111:	00 
/home/tenebris/Disk/Racing-code/examples/23-libjpeg-divide-by-zero/libjpeg-turbo-2.0.90/rdbmp.c:508
    if (biCompression != 0)
    9112:	45 85 c9             	test   %r9d,%r9d
    9115:	0f 85 05 01 00 00    	jne    9220 <start_input_bmp+0x7f0>
    911b:	0f 1f 44 00 00       	nopl   0x0(%rax,%rax,1)
/home/tenebris/Disk/Racing-code/examples/23-libjpeg-divide-by-zero/libjpeg-turbo-2.0.90/rdbmp.c:511
    if (biXPelsPerMeter > 0 && biYPelsPerMeter > 0) {
    9120:	8b 74 24 28          	mov    0x28(%rsp),%esi
    9124:	85 f6                	test   %esi,%esi
    9126:	0f 8e fd fa ff ff    	jle    8c29 <start_input_bmp+0x1f9>
    912c:	8b 7c 24 2c          	mov    0x2c(%rsp),%edi
    9130:	85 ff                	test   %edi,%edi
    9132:	0f 8e f1 fa ff ff    	jle    8c29 <start_input_bmp+0x1f9>
/home/tenebris/Disk/Racing-code/examples/23-libjpeg-divide-by-zero/libjpeg-turbo-2.0.90/rdbmp.c:513
      cinfo->X_density = (UINT16)(biXPelsPerMeter / 100); /* 100 cm per meter */
    9138:	48 63 c6             	movslq %esi,%rax
/home/tenebris/Disk/Racing-code/examples/23-libjpeg-divide-by-zero/libjpeg-turbo-2.0.90/rdbmp.c:514
      cinfo->Y_density = (UINT16)(biYPelsPerMeter / 100);
    913b:	48 63 d7             	movslq %edi,%rdx
/home/tenebris/Disk/Racing-code/examples/23-libjpeg-divide-by-zero/libjpeg-turbo-2.0.90/rdbmp.c:513
      cinfo->X_density = (UINT16)(biXPelsPerMeter / 100); /* 100 cm per meter */
    913e:	c1 fe 1f             	sar    $0x1f,%esi
/home/tenebris/Disk/Racing-code/examples/23-libjpeg-divide-by-zero/libjpeg-turbo-2.0.90/rdbmp.c:515
      cinfo->density_unit = 2;  /* dots/cm */
    9141:	c6 85 26 01 00 00 02 	movb   $0x2,0x126(%rbp)
/home/tenebris/Disk/Racing-code/examples/23-libjpeg-divide-by-zero/libjpeg-turbo-2.0.90/rdbmp.c:513
      cinfo->X_density = (UINT16)(biXPelsPerMeter / 100); /* 100 cm per meter */
    9148:	48 69 c0 1f 85 eb 51 	imul   $0x51eb851f,%rax,%rax
/home/tenebris/Disk/Racing-code/examples/23-libjpeg-divide-by-zero/libjpeg-turbo-2.0.90/rdbmp.c:514
      cinfo->Y_density = (UINT16)(biYPelsPerMeter / 100);
    914f:	c1 ff 1f             	sar    $0x1f,%edi
    9152:	48 69 d2 1f 85 eb 51 	imul   $0x51eb851f,%rdx,%rdx
/home/tenebris/Disk/Racing-code/examples/23-libjpeg-divide-by-zero/libjpeg-turbo-2.0.90/rdbmp.c:513
      cinfo->X_density = (UINT16)(biXPelsPerMeter / 100); /* 100 cm per meter */
    9159:	48 c1 f8 25          	sar    $0x25,%rax
/home/tenebris/Disk/Racing-code/examples/23-libjpeg-divide-by-zero/libjpeg-turbo-2.0.90/rdbmp.c:514
      cinfo->Y_density = (UINT16)(biYPelsPerMeter / 100);
    915d:	48 c1 fa 25          	sar    $0x25,%rdx
/home/tenebris/Disk/Racing-code/examples/23-libjpeg-divide-by-zero/libjpeg-turbo-2.0.90/rdbmp.c:513
      cinfo->X_density = (UINT16)(biXPelsPerMeter / 100); /* 100 cm per meter */
    9161:	29 f0                	sub    %esi,%eax
/home/tenebris/Disk/Racing-code/examples/23-libjpeg-divide-by-zero/libjpeg-turbo-2.0.90/rdbmp.c:514
      cinfo->Y_density = (UINT16)(biYPelsPerMeter / 100);
    9163:	29 fa                	sub    %edi,%edx
/home/tenebris/Disk/Racing-code/examples/23-libjpeg-divide-by-zero/libjpeg-turbo-2.0.90/rdbmp.c:513
      cinfo->X_density = (UINT16)(biXPelsPerMeter / 100); /* 100 cm per meter */
    9165:	0f b7 c0             	movzwl %ax,%eax
    9168:	c1 e2 10             	shl    $0x10,%edx
    916b:	09 d0                	or     %edx,%eax
    916d:	89 85 28 01 00 00    	mov    %eax,0x128(%rbp)
/home/tenebris/Disk/Racing-code/examples/23-libjpeg-divide-by-zero/libjpeg-turbo-2.0.90/rdbmp.c:523
  if (biWidth <= 0 || biHeight <= 0)
    9173:	45 85 ff             	test   %r15d,%r15d
    9176:	0f 8f b6 fa ff ff    	jg     8c32 <start_input_bmp+0x202>
    917c:	0f 1f 40 00          	nopl   0x0(%rax)
/home/tenebris/Disk/Racing-code/examples/23-libjpeg-divide-by-zero/libjpeg-turbo-2.0.90/rdbmp.c:524
    ERREXIT(cinfo, JERR_BMP_EMPTY);
    9180:	48 8b 45 00          	mov    0x0(%rbp),%rax
    9184:	48 89 ef             	mov    %rbp,%rdi
    9187:	c7 40 28 ef 03 00 00 	movl   $0x3ef,0x28(%rax)
    918e:	ff 10                	call   *(%rax)
    9190:	e9 a5 fa ff ff       	jmp    8c3a <start_input_bmp+0x20a>
    9195:	0f 1f 00             	nopl   (%rax)
/home/tenebris/Disk/Racing-code/examples/23-libjpeg-divide-by-zero/libjpeg-turbo-2.0.90/rdbmp.c:609
      (*cinfo->mem->alloc_small) ((j_common_ptr)cinfo, JPOOL_IMAGE, row_width);
    9198:	89 ca                	mov    %ecx,%edx
    919a:	be 01 00 00 00       	mov    $0x1,%esi
    919f:	48 89 ef             	mov    %rbp,%rdi
    91a2:	ff 10                	call   *(%rax)
/home/tenebris/Disk/Racing-code/examples/23-libjpeg-divide-by-zero/libjpeg-turbo-2.0.90/rdbmp.c:608
    source->iobuffer = (U_CHAR *)
    91a4:	49 89 46 60          	mov    %rax,0x60(%r14)
/home/tenebris/Disk/Racing-code/examples/23-libjpeg-divide-by-zero/libjpeg-turbo-2.0.90/rdbmp.c:610
    switch (source->bits_per_pixel) {
    91a8:	41 8b 46 50          	mov    0x50(%r14),%eax
    91ac:	83 f8 18             	cmp    $0x18,%eax
    91af:	0f 84 cb 03 00 00    	je     9580 <start_input_bmp+0xb50>
    91b5:	83 f8 20             	cmp    $0x20,%eax
    91b8:	0f 84 42 03 00 00    	je     9500 <start_input_bmp+0xad0>
    91be:	83 f8 08             	cmp    $0x8,%eax
    91c1:	0f 84 21 03 00 00    	je     94e8 <start_input_bmp+0xab8>
/home/tenebris/Disk/Racing-code/examples/23-libjpeg-divide-by-zero/libjpeg-turbo-2.0.90/rdbmp.c:621
      ERREXIT(cinfo, JERR_BMP_BADDEPTH);
    91c7:	48 8b 45 00          	mov    0x0(%rbp),%rax
    91cb:	48 89 ef             	mov    %rbp,%rdi
    91ce:	c7 40 28 ea 03 00 00 	movl   $0x3ea,0x28(%rax)
    91d5:	ff 10                	call   *(%rax)
    91d7:	e9 49 fd ff ff       	jmp    8f25 <start_input_bmp+0x4f5>
    91dc:	0f 1f 40 00          	nopl   0x0(%rax)
/home/tenebris/Disk/Racing-code/examples/23-libjpeg-divide-by-zero/libjpeg-turbo-2.0.90/rdbmp.c:549
    ERREXIT(cinfo, JERR_BMP_BADHEADER);
    91e0:	48 8b 45 00          	mov    0x0(%rbp),%rax
    91e4:	48 89 ef             	mov    %rbp,%rdi
    91e7:	c7 40 28 eb 03 00 00 	movl   $0x3eb,0x28(%rax)
    91ee:	ff 10                	call   *(%rax)
/home/tenebris/Disk/Racing-code/examples/23-libjpeg-divide-by-zero/libjpeg-turbo-2.0.90/rdbmp.c:555
  switch (source->bits_per_pixel) {
    91f0:	41 8b 46 50          	mov    0x50(%r14),%eax
    91f4:	83 f8 18             	cmp    $0x18,%eax
    91f7:	0f 85 bc fc ff ff    	jne    8eb9 <start_input_bmp+0x489>
/home/tenebris/Disk/Racing-code/examples/23-libjpeg-divide-by-zero/libjpeg-turbo-2.0.90/rdbmp.c:570
    if (cinfo->in_color_space == JCS_UNKNOWN)
    91fd:	8b 45 3c             	mov    0x3c(%rbp),%eax
    9200:	85 c0                	test   %eax,%eax
    9202:	0f 85 40 03 00 00    	jne    9548 <start_input_bmp+0xb18>
/home/tenebris/Disk/Racing-code/examples/23-libjpeg-divide-by-zero/libjpeg-turbo-2.0.90/rdbmp.c:571
      cinfo->in_color_space = JCS_EXT_BGR;
    9208:	c7 45 3c 08 00 00 00 	movl   $0x8,0x3c(%rbp)
    920f:	b8 03 00 00 00       	mov    $0x3,%eax
/home/tenebris/Disk/Racing-code/examples/23-libjpeg-divide-by-zero/libjpeg-turbo-2.0.90/rdbmp.c:573
      cinfo->input_components = rgb_pixelsize[cinfo->in_color_space];
    9214:	89 45 38             	mov    %eax,0x38(%rbp)
/home/tenebris/Disk/Racing-code/examples/23-libjpeg-divide-by-zero/libjpeg-turbo-2.0.90/rdbmp.c:578
    row_width = (JDIMENSION)(biWidth * 3);
    9217:	43 8d 0c 7f          	lea    (%r15,%r15,2),%ecx
/home/tenebris/Disk/Racing-code/examples/23-libjpeg-divide-by-zero/libjpeg-turbo-2.0.90/rdbmp.c:579
    break;
    921b:	e9 6b 01 00 00       	jmp    938b <start_input_bmp+0x95b>
/home/tenebris/Disk/Racing-code/examples/23-libjpeg-divide-by-zero/libjpeg-turbo-2.0.90/rdbmp.c:509
      ERREXIT(cinfo, JERR_BMP_COMPRESSED);
    9220:	48 8b 45 00          	mov    0x0(%rbp),%rax
    9224:	48 89 ef             	mov    %rbp,%rdi
    9227:	c7 40 28 ee 03 00 00 	movl   $0x3ee,0x28(%rax)
    922e:	ff 10                	call   *(%rax)
    9230:	e9 eb fe ff ff       	jmp    9120 <start_input_bmp+0x6f0>
    9235:	0f 1f 00             	nopl   (%rax)
/home/tenebris/Disk/Racing-code/examples/23-libjpeg-divide-by-zero/libjpeg-turbo-2.0.90/rdbmp.c:538
    source->colormap = (*cinfo->mem->alloc_sarray)
    9238:	48 8b 45 08          	mov    0x8(%rbp),%rax
    923c:	b9 03 00 00 00       	mov    $0x3,%ecx
    9241:	ba 00 01 00 00       	mov    $0x100,%edx
    9246:	48 89 ef             	mov    %rbp,%rdi
    9249:	be 01 00 00 00       	mov    $0x1,%esi
    924e:	ff 50 10             	call   *0x10(%rax)
read_colormap():
/home/tenebris/Disk/Racing-code/examples/23-libjpeg-divide-by-zero/libjpeg-turbo-2.0.90/rdbmp.c:99
  switch (mapentrysize) {
    9251:	83 7c 24 04 03       	cmpl   $0x3,0x4(%rsp)
    9256:	41 b8 00 01 00 00    	mov    $0x100,%r8d
start_input_bmp():
/home/tenebris/Disk/Racing-code/examples/23-libjpeg-divide-by-zero/libjpeg-turbo-2.0.90/rdbmp.c:540
    source->cmap_length = (int)biClrUsed;
    925c:	41 c7 46 54 00 01 00 	movl   $0x100,0x54(%r14)
    9263:	00 
/home/tenebris/Disk/Racing-code/examples/23-libjpeg-divide-by-zero/libjpeg-turbo-2.0.90/rdbmp.c:538
    source->colormap = (*cinfo->mem->alloc_sarray)
    9264:	49 89 46 38          	mov    %rax,0x38(%r14)
/home/tenebris/Disk/Racing-code/examples/23-libjpeg-divide-by-zero/libjpeg-turbo-2.0.90/rdbmp.c:534
      biClrUsed = 256;          /* assume it's 256 */
    9268:	c7 44 24 08 00 01 00 	movl   $0x100,0x8(%rsp)
    926f:	00 
read_colormap():
/home/tenebris/Disk/Racing-code/examples/23-libjpeg-divide-by-zero/libjpeg-turbo-2.0.90/rdbmp.c:99
  switch (mapentrysize) {
    9270:	0f 85 78 fa ff ff    	jne    8cee <start_input_bmp+0x2be>
    9276:	49 63 c0             	movslq %r8d,%rax
/home/tenebris/Disk/Racing-code/examples/23-libjpeg-divide-by-zero/libjpeg-turbo-2.0.90/rdbmp.c:108
        gray = 0;
    9279:	89 5c 24 18          	mov    %ebx,0x18(%rsp)
start_input_bmp():
/home/tenebris/Disk/Racing-code/examples/23-libjpeg-divide-by-zero/libjpeg-turbo-2.0.90/rdbmp.c:534
      biClrUsed = 256;          /* assume it's 256 */
    927d:	45 31 e4             	xor    %r12d,%r12d
read_colormap():
/home/tenebris/Disk/Racing-code/examples/23-libjpeg-divide-by-zero/libjpeg-turbo-2.0.90/rdbmp.c:97
  int i, gray = 1;
    9280:	41 bd 01 00 00 00    	mov    $0x1,%r13d
/home/tenebris/Disk/Racing-code/examples/23-libjpeg-divide-by-zero/libjpeg-turbo-2.0.90/rdbmp.c:108
        gray = 0;
    9286:	48 89 6c 24 10       	mov    %rbp,0x10(%rsp)
    928b:	48 89 c3             	mov    %rax,%rbx
    928e:	4c 89 f5             	mov    %r14,%rbp
    9291:	eb 15                	jmp    92a8 <start_input_bmp+0x878>
    9293:	0f 1f 44 00 00       	nopl   0x0(%rax,%rax,1)
    9298:	45 31 ed             	xor    %r13d,%r13d
/home/tenebris/Disk/Racing-code/examples/23-libjpeg-divide-by-zero/libjpeg-turbo-2.0.90/rdbmp.c:102
    for (i = 0; i < cmaplen; i++) {
    929b:	49 83 c4 01          	add    $0x1,%r12
    929f:	49 39 dc             	cmp    %rbx,%r12
    92a2:	0f 84 a0 fb ff ff    	je     8e48 <start_input_bmp+0x418>
read_byte():
/home/tenebris/Disk/Racing-code/examples/23-libjpeg-divide-by-zero/libjpeg-turbo-2.0.90/rdbmp.c:87
  if ((c = getc(infile)) == EOF)
    92a8:	48 8b 7d 18          	mov    0x18(%rbp),%rdi
    92ac:	e8 bf 91 ff ff       	call   2470 <getc@plt>
    92b1:	41 89 c6             	mov    %eax,%r14d
    92b4:	83 f8 ff             	cmp    $0xffffffff,%eax
    92b7:	75 10                	jne    92c9 <start_input_bmp+0x899>
    92b9:	48 8b 7d 30          	mov    0x30(%rbp),%rdi
/home/tenebris/Disk/Racing-code/examples/23-libjpeg-divide-by-zero/libjpeg-turbo-2.0.90/rdbmp.c:88
    ERREXIT(sinfo->cinfo, JERR_INPUT_EOF);
    92bd:	48 8b 0f             	mov    (%rdi),%rcx
    92c0:	c7 41 28 2b 00 00 00 	movl   $0x2b,0x28(%rcx)
    92c7:	ff 11                	call   *(%rcx)
read_colormap():
/home/tenebris/Disk/Racing-code/examples/23-libjpeg-divide-by-zero/libjpeg-turbo-2.0.90/rdbmp.c:103
      sinfo->colormap[2][i] = (JSAMPLE)read_byte(sinfo);
    92c9:	48 8b 4d 38          	mov    0x38(%rbp),%rcx
    92cd:	48 8b 49 10          	mov    0x10(%rcx),%rcx
    92d1:	46 88 34 21          	mov    %r14b,(%rcx,%r12,1)
read_byte():
/home/tenebris/Disk/Racing-code/examples/23-libjpeg-divide-by-zero/libjpeg-turbo-2.0.90/rdbmp.c:87
  if ((c = getc(infile)) == EOF)
    92d5:	48 8b 7d 18          	mov    0x18(%rbp),%rdi
    92d9:	e8 92 91 ff ff       	call   2470 <getc@plt>
    92de:	41 89 c6             	mov    %eax,%r14d
    92e1:	83 f8 ff             	cmp    $0xffffffff,%eax
    92e4:	75 10                	jne    92f6 <start_input_bmp+0x8c6>
    92e6:	48 8b 7d 30          	mov    0x30(%rbp),%rdi
/home/tenebris/Disk/Racing-code/examples/23-libjpeg-divide-by-zero/libjpeg-turbo-2.0.90/rdbmp.c:88
    ERREXIT(sinfo->cinfo, JERR_INPUT_EOF);
    92ea:	48 8b 0f             	mov    (%rdi),%rcx
    92ed:	c7 41 28 2b 00 00 00 	movl   $0x2b,0x28(%rcx)
    92f4:	ff 11                	call   *(%rcx)
read_colormap():
/home/tenebris/Disk/Racing-code/examples/23-libjpeg-divide-by-zero/libjpeg-turbo-2.0.90/rdbmp.c:104
      sinfo->colormap[1][i] = (JSAMPLE)read_byte(sinfo);
    92f6:	48 8b 4d 38          	mov    0x38(%rbp),%rcx
    92fa:	48 8b 49 08          	mov    0x8(%rcx),%rcx
    92fe:	46 88 34 21          	mov    %r14b,(%rcx,%r12,1)
read_byte():
/home/tenebris/Disk/Racing-code/examples/23-libjpeg-divide-by-zero/libjpeg-turbo-2.0.90/rdbmp.c:87
  if ((c = getc(infile)) == EOF)
    9302:	48 8b 7d 18          	mov    0x18(%rbp),%rdi
    9306:	e8 65 91 ff ff       	call   2470 <getc@plt>
    930b:	41 89 c6             	mov    %eax,%r14d
    930e:	83 f8 ff             	cmp    $0xffffffff,%eax
    9311:	75 10                	jne    9323 <start_input_bmp+0x8f3>
    9313:	48 8b 7d 30          	mov    0x30(%rbp),%rdi
/home/tenebris/Disk/Racing-code/examples/23-libjpeg-divide-by-zero/libjpeg-turbo-2.0.90/rdbmp.c:88
    ERREXIT(sinfo->cinfo, JERR_INPUT_EOF);
    9317:	48 8b 0f             	mov    (%rdi),%rcx
    931a:	c7 41 28 2b 00 00 00 	movl   $0x2b,0x28(%rcx)
    9321:	ff 11                	call   *(%rcx)
read_colormap():
/home/tenebris/Disk/Racing-code/examples/23-libjpeg-divide-by-zero/libjpeg-turbo-2.0.90/rdbmp.c:105
      sinfo->colormap[0][i] = (JSAMPLE)read_byte(sinfo);
    9323:	48 8b 4d 38          	mov    0x38(%rbp),%rcx
    9327:	48 8b 09             	mov    (%rcx),%rcx
    932a:	46 88 34 21          	mov    %r14b,(%rcx,%r12,1)
/home/tenebris/Disk/Racing-code/examples/23-libjpeg-divide-by-zero/libjpeg-turbo-2.0.90/rdbmp.c:106
      if (sinfo->colormap[2][i] != sinfo->colormap[1][i] ||
    932e:	48 8b 45 38          	mov    0x38(%rbp),%rax
    9332:	48 8b 48 08          	mov    0x8(%rax),%rcx
    9336:	48 8b 70 10          	mov    0x10(%rax),%rsi
    933a:	42 0f b6 0c 21       	movzbl (%rcx,%r12,1),%ecx
    933f:	42 38 0c 26          	cmp    %cl,(%rsi,%r12,1)
    9343:	0f 85 4f ff ff ff    	jne    9298 <start_input_bmp+0x868>
/home/tenebris/Disk/Racing-code/examples/23-libjpeg-divide-by-zero/libjpeg-turbo-2.0.90/rdbmp.c:107
          sinfo->colormap[1][i] != sinfo->colormap[0][i])
    9349:	48 8b 00             	mov    (%rax),%rax
/home/tenebris/Disk/Racing-code/examples/23-libjpeg-divide-by-zero/libjpeg-turbo-2.0.90/rdbmp.c:108
        gray = 0;
    934c:	42 3a 0c 20          	cmp    (%rax,%r12,1),%cl
    9350:	b8 00 00 00 00       	mov    $0x0,%eax
    9355:	44 0f 45 e8          	cmovne %eax,%r13d
    9359:	e9 3d ff ff ff       	jmp    929b <start_input_bmp+0x86b>
    935e:	66 90                	xchg   %ax,%ax
start_input_bmp():
/home/tenebris/Disk/Racing-code/examples/23-libjpeg-divide-by-zero/libjpeg-turbo-2.0.90/rdbmp.c:581
    if (cinfo->in_color_space == JCS_UNKNOWN)
    9360:	8b 45 3c             	mov    0x3c(%rbp),%eax
    9363:	85 c0                	test   %eax,%eax
    9365:	0f 85 a5 01 00 00    	jne    9510 <start_input_bmp+0xae0>
/home/tenebris/Disk/Racing-code/examples/23-libjpeg-divide-by-zero/libjpeg-turbo-2.0.90/rdbmp.c:582
      cinfo->in_color_space = JCS_EXT_BGRA;
    936b:	c7 45 3c 0d 00 00 00 	movl   $0xd,0x3c(%rbp)
    9372:	b8 04 00 00 00       	mov    $0x4,%eax
/home/tenebris/Disk/Racing-code/examples/23-libjpeg-divide-by-zero/libjpeg-turbo-2.0.90/rdbmp.c:584
      cinfo->input_components = rgb_pixelsize[cinfo->in_color_space];
    9377:	89 45 38             	mov    %eax,0x38(%rbp)
/home/tenebris/Disk/Racing-code/examples/23-libjpeg-divide-by-zero/libjpeg-turbo-2.0.90/rdbmp.c:589
    row_width = (JDIMENSION)(biWidth * 4);
    937a:	42 8d 0c bd 00 00 00 	lea    0x0(,%r15,4),%ecx
    9381:	00 
/home/tenebris/Disk/Racing-code/examples/23-libjpeg-divide-by-zero/libjpeg-turbo-2.0.90/rdbmp.c:590
    break;
    9382:	eb 07                	jmp    938b <start_input_bmp+0x95b>
    9384:	0f 1f 40 00          	nopl   0x0(%rax)
/home/tenebris/Disk/Racing-code/examples/23-libjpeg-divide-by-zero/libjpeg-turbo-2.0.90/rdbmp.c:594 (discriminator 2)
  while ((row_width & 3) != 0) row_width++;
    9388:	83 c1 01             	add    $0x1,%ecx
    938b:	f6 c1 03             	test   $0x3,%cl
    938e:	75 f8                	jne    9388 <start_input_bmp+0x958>
    9390:	e9 48 fb ff ff       	jmp    8edd <start_input_bmp+0x4ad>
    9395:	0f 1f 00             	nopl   (%rax)
/home/tenebris/Disk/Racing-code/examples/23-libjpeg-divide-by-zero/libjpeg-turbo-2.0.90/rdbmp.c:557
    if (cinfo->in_color_space == JCS_UNKNOWN)
    9398:	8b 45 3c             	mov    0x3c(%rbp),%eax
    939b:	85 c0                	test   %eax,%eax
    939d:	0f 85 ed 01 00 00    	jne    9590 <start_input_bmp+0xb60>
/home/tenebris/Disk/Racing-code/examples/23-libjpeg-divide-by-zero/libjpeg-turbo-2.0.90/rdbmp.c:558
      cinfo->in_color_space = JCS_EXT_RGB;
    93a3:	c7 45 3c 06 00 00 00 	movl   $0x6,0x3c(%rbp)
    93aa:	b8 03 00 00 00       	mov    $0x3,%eax
/home/tenebris/Disk/Racing-code/examples/23-libjpeg-divide-by-zero/libjpeg-turbo-2.0.90/rdbmp.c:560
      cinfo->input_components = rgb_pixelsize[cinfo->in_color_space];
    93af:	89 45 38             	mov    %eax,0x38(%rbp)
/home/tenebris/Disk/Racing-code/examples/23-libjpeg-divide-by-zero/libjpeg-turbo-2.0.90/rdbmp.c:567
    row_width = (JDIMENSION)biWidth;
    93b2:	8b 4c 24 1c          	mov    0x1c(%rsp),%ecx
/home/tenebris/Disk/Racing-code/examples/23-libjpeg-divide-by-zero/libjpeg-turbo-2.0.90/rdbmp.c:568
    break;
    93b6:	eb d3                	jmp    938b <start_input_bmp+0x95b>
    93b8:	0f 1f 84 00 00 00 00 	nopl   0x0(%rax,%rax,1)
    93bf:	00 
/home/tenebris/Disk/Racing-code/examples/23-libjpeg-divide-by-zero/libjpeg-turbo-2.0.90/rdbmp.c:469
      TRACEMS2(cinfo, 1, JTRC_BMP_OS2_MAPPED, biWidth, biHeight);
    93c0:	c7 40 28 f5 03 00 00 	movl   $0x3f5,0x28(%rax)
    93c7:	be 01 00 00 00       	mov    $0x1,%esi
    93cc:	48 89 ef             	mov    %rbp,%rdi
    93cf:	44 89 78 2c          	mov    %r15d,0x2c(%rax)
    93d3:	89 58 30             	mov    %ebx,0x30(%rax)
    93d6:	ff 50 08             	call   *0x8(%rax)
/home/tenebris/Disk/Racing-code/examples/23-libjpeg-divide-by-zero/libjpeg-turbo-2.0.90/rdbmp.c:468
      mapentrysize = 3;         /* OS/2 uses RGBTRIPLE colormap */
    93d9:	c7 44 24 04 03 00 00 	movl   $0x3,0x4(%rsp)
    93e0:	00 
/home/tenebris/Disk/Racing-code/examples/23-libjpeg-divide-by-zero/libjpeg-turbo-2.0.90/rdbmp.c:434
  unsigned int biClrUsed = 0;
    93e1:	c7 44 24 08 00 00 00 	movl   $0x0,0x8(%rsp)
    93e8:	00 
/home/tenebris/Disk/Racing-code/examples/23-libjpeg-divide-by-zero/libjpeg-turbo-2.0.90/rdbmp.c:470
      break;
    93e9:	e9 3b f8 ff ff       	jmp    8c29 <start_input_bmp+0x1f9>
/home/tenebris/Disk/Racing-code/examples/23-libjpeg-divide-by-zero/libjpeg-turbo-2.0.90/rdbmp.c:473
      TRACEMS3(cinfo, 1, JTRC_BMP_OS2, biWidth, biHeight,
    93ee:	44 89 78 2c          	mov    %r15d,0x2c(%rax)
    93f2:	be 01 00 00 00       	mov    $0x1,%esi
    93f7:	48 89 ef             	mov    %rbp,%rdi
    93fa:	89 58 30             	mov    %ebx,0x30(%rax)
    93fd:	41 8b 56 50          	mov    0x50(%r14),%edx
    9401:	c7 40 28 f4 03 00 00 	movl   $0x3f4,0x28(%rax)
    9408:	89 50 34             	mov    %edx,0x34(%rax)
    940b:	ff 50 08             	call   *0x8(%rax)
/home/tenebris/Disk/Racing-code/examples/23-libjpeg-divide-by-zero/libjpeg-turbo-2.0.90/rdbmp.c:435
  int mapentrysize = 0;         /* 0 indicates no colormap */
    940e:	c7 44 24 04 00 00 00 	movl   $0x0,0x4(%rsp)
    9415:	00 
/home/tenebris/Disk/Racing-code/examples/23-libjpeg-divide-by-zero/libjpeg-turbo-2.0.90/rdbmp.c:475
      break;
    9416:	e9 0e f8 ff ff       	jmp    8c29 <start_input_bmp+0x1f9>
    941b:	0f 1f 44 00 00       	nopl   0x0(%rax,%rax,1)
/home/tenebris/Disk/Racing-code/examples/23-libjpeg-divide-by-zero/libjpeg-turbo-2.0.90/rdbmp.c:498
      TRACEMS2(cinfo, 1, JTRC_BMP_MAPPED, biWidth, biHeight);
    9420:	89 78 2c             	mov    %edi,0x2c(%rax)
    9423:	be 01 00 00 00       	mov    $0x1,%esi
    9428:	48 89 ef             	mov    %rbp,%rdi
    942b:	c7 40 28 f3 03 00 00 	movl   $0x3f3,0x28(%rax)
    9432:	44 89 50 30          	mov    %r10d,0x30(%rax)
    9436:	ff 50 08             	call   *0x8(%rax)
/home/tenebris/Disk/Racing-code/examples/23-libjpeg-divide-by-zero/libjpeg-turbo-2.0.90/rdbmp.c:508
    if (biCompression != 0)
    9439:	44 8b 4c 24 24       	mov    0x24(%rsp),%r9d
/home/tenebris/Disk/Racing-code/examples/23-libjpeg-divide-by-zero/libjpeg-turbo-2.0.90/rdbmp.c:497
      mapentrysize = 4;         /* Windows uses RGBQUAD colormap */
    943e:	c7 44 24 04 04 00 00 	movl   $0x4,0x4(%rsp)
    9445:	00 
/home/tenebris/Disk/Racing-code/examples/23-libjpeg-divide-by-zero/libjpeg-turbo-2.0.90/rdbmp.c:508
    if (biCompression != 0)
    9446:	45 85 c9             	test   %r9d,%r9d
    9449:	0f 84 d1 fc ff ff    	je     9120 <start_input_bmp+0x6f0>
    944f:	e9 cc fd ff ff       	jmp    9220 <start_input_bmp+0x7f0>
/home/tenebris/Disk/Racing-code/examples/23-libjpeg-divide-by-zero/libjpeg-turbo-2.0.90/rdbmp.c:502
      TRACEMS3(cinfo, 1, JTRC_BMP, biWidth, biHeight, source->bits_per_pixel);
    9454:	89 78 2c             	mov    %edi,0x2c(%rax)
    9457:	be 01 00 00 00       	mov    $0x1,%esi
    945c:	48 89 ef             	mov    %rbp,%rdi
    945f:	44 89 50 30          	mov    %r10d,0x30(%rax)
    9463:	41 8b 56 50          	mov    0x50(%r14),%edx
    9467:	c7 40 28 f2 03 00 00 	movl   $0x3f2,0x28(%rax)
    946e:	89 50 34             	mov    %edx,0x34(%rax)
    9471:	ff 50 08             	call   *0x8(%rax)
/home/tenebris/Disk/Racing-code/examples/23-libjpeg-divide-by-zero/libjpeg-turbo-2.0.90/rdbmp.c:508
    if (biCompression != 0)
    9474:	44 8b 4c 24 24       	mov    0x24(%rsp),%r9d
/home/tenebris/Disk/Racing-code/examples/23-libjpeg-divide-by-zero/libjpeg-turbo-2.0.90/rdbmp.c:435
  int mapentrysize = 0;         /* 0 indicates no colormap */
    9479:	c7 44 24 04 00 00 00 	movl   $0x0,0x4(%rsp)
    9480:	00 
/home/tenebris/Disk/Racing-code/examples/23-libjpeg-divide-by-zero/libjpeg-turbo-2.0.90/rdbmp.c:508
    if (biCompression != 0)
    9481:	45 85 c9             	test   %r9d,%r9d
    9484:	0f 84 96 fc ff ff    	je     9120 <start_input_bmp+0x6f0>
    948a:	e9 91 fd ff ff       	jmp    9220 <start_input_bmp+0x7f0>
    948f:	90                   	nop
read_colormap():
/home/tenebris/Disk/Racing-code/examples/23-libjpeg-divide-by-zero/libjpeg-turbo-2.0.90/rdbmp.c:124
    ERREXIT(sinfo->cinfo, JERR_BMP_BADCMAP);
    9490:	49 8b 7e 30          	mov    0x30(%r14),%rdi
    9494:	48 8b 07             	mov    (%rdi),%rax
    9497:	c7 40 28 e9 03 00 00 	movl   $0x3e9,0x28(%rax)
    949e:	ff 10                	call   *(%rax)
/home/tenebris/Disk/Racing-code/examples/23-libjpeg-divide-by-zero/libjpeg-turbo-2.0.90/rdbmp.c:128
  if (sinfo->cinfo->in_color_space == JCS_UNKNOWN && gray)
    94a0:	49 8b 7e 30          	mov    0x30(%r14),%rdi
    94a4:	8b 77 3c             	mov    0x3c(%rdi),%esi
    94a7:	85 f6                	test   %esi,%esi
    94a9:	0f 85 bd f9 ff ff    	jne    8e6c <start_input_bmp+0x43c>
/home/tenebris/Disk/Racing-code/examples/23-libjpeg-divide-by-zero/libjpeg-turbo-2.0.90/rdbmp.c:129
    sinfo->cinfo->in_color_space = JCS_GRAYSCALE;
    94af:	c7 47 3c 01 00 00 00 	movl   $0x1,0x3c(%rdi)
    94b6:	e9 b1 f9 ff ff       	jmp    8e6c <start_input_bmp+0x43c>
    94bb:	0f 1f 44 00 00       	nopl   0x0(%rax,%rax,1)
/home/tenebris/Disk/Racing-code/examples/23-libjpeg-divide-by-zero/libjpeg-turbo-2.0.90/rdbmp.c:131
  if (sinfo->cinfo->in_color_space == JCS_GRAYSCALE && !gray)
    94c0:	83 f8 01             	cmp    $0x1,%eax
    94c3:	0f 85 a3 f9 ff ff    	jne    8e6c <start_input_bmp+0x43c>
    94c9:	41 83 e5 01          	and    $0x1,%r13d
    94cd:	0f 85 99 f9 ff ff    	jne    8e6c <start_input_bmp+0x43c>
/home/tenebris/Disk/Racing-code/examples/23-libjpeg-divide-by-zero/libjpeg-turbo-2.0.90/rdbmp.c:132
    ERREXIT(sinfo->cinfo, JERR_BAD_IN_COLORSPACE);
    94d3:	48 8b 07             	mov    (%rdi),%rax
    94d6:	c7 40 28 09 00 00 00 	movl   $0x9,0x28(%rax)
    94dd:	ff 10                	call   *(%rax)
    94df:	e9 88 f9 ff ff       	jmp    8e6c <start_input_bmp+0x43c>
    94e4:	0f 1f 40 00          	nopl   0x0(%rax)
start_input_bmp():
/home/tenebris/Disk/Racing-code/examples/23-libjpeg-divide-by-zero/libjpeg-turbo-2.0.90/rdbmp.c:612
      source->pub.get_pixel_rows = get_8bit_row;
    94e8:	48 8d 05 71 e8 ff ff 	lea    -0x178f(%rip),%rax        # 7d60 <get_8bit_row>
    94ef:	49 89 46 08          	mov    %rax,0x8(%r14)
/home/tenebris/Disk/Racing-code/examples/23-libjpeg-divide-by-zero/libjpeg-turbo-2.0.90/rdbmp.c:613
      break;
    94f3:	e9 2d fa ff ff       	jmp    8f25 <start_input_bmp+0x4f5>
    94f8:	0f 1f 84 00 00 00 00 	nopl   0x0(%rax,%rax,1)
    94ff:	00 
/home/tenebris/Disk/Racing-code/examples/23-libjpeg-divide-by-zero/libjpeg-turbo-2.0.90/rdbmp.c:618
      source->pub.get_pixel_rows = get_32bit_row;
    9500:	48 8d 05 59 f0 ff ff 	lea    -0xfa7(%rip),%rax        # 8560 <get_32bit_row>
    9507:	49 89 46 08          	mov    %rax,0x8(%r14)
/home/tenebris/Disk/Racing-code/examples/23-libjpeg-divide-by-zero/libjpeg-turbo-2.0.90/rdbmp.c:619
      break;
    950b:	e9 15 fa ff ff       	jmp    8f25 <start_input_bmp+0x4f5>
/home/tenebris/Disk/Racing-code/examples/23-libjpeg-divide-by-zero/libjpeg-turbo-2.0.90/rdbmp.c:583
    if (IsExtRGB(cinfo->in_color_space))
    9510:	8d 50 fa             	lea    -0x6(%rax),%edx
    9513:	83 fa 09             	cmp    $0x9,%edx
    9516:	0f 86 fd 00 00 00    	jbe    9619 <start_input_bmp+0xbe9>
    951c:	83 f8 02             	cmp    $0x2,%eax
    951f:	0f 84 f4 00 00 00    	je     9619 <start_input_bmp+0xbe9>
/home/tenebris/Disk/Racing-code/examples/23-libjpeg-divide-by-zero/libjpeg-turbo-2.0.90/rdbmp.c:585
    else if (cinfo->in_color_space == JCS_CMYK)
    9525:	83 f8 04             	cmp    $0x4,%eax
    9528:	0f 84 c2 00 00 00    	je     95f0 <start_input_bmp+0xbc0>
/home/tenebris/Disk/Racing-code/examples/23-libjpeg-divide-by-zero/libjpeg-turbo-2.0.90/rdbmp.c:588
      ERREXIT(cinfo, JERR_BAD_IN_COLORSPACE);
    952e:	48 8b 45 00          	mov    0x0(%rbp),%rax
    9532:	48 89 ef             	mov    %rbp,%rdi
    9535:	c7 40 28 09 00 00 00 	movl   $0x9,0x28(%rax)
    953c:	ff 10                	call   *(%rax)
    953e:	e9 37 fe ff ff       	jmp    937a <start_input_bmp+0x94a>
    9543:	0f 1f 44 00 00       	nopl   0x0(%rax,%rax,1)
/home/tenebris/Disk/Racing-code/examples/23-libjpeg-divide-by-zero/libjpeg-turbo-2.0.90/rdbmp.c:572
    if (IsExtRGB(cinfo->in_color_space))
    9548:	8d 50 fa             	lea    -0x6(%rax),%edx
    954b:	83 fa 09             	cmp    $0x9,%edx
    954e:	0f 86 e3 00 00 00    	jbe    9637 <start_input_bmp+0xc07>
    9554:	83 f8 02             	cmp    $0x2,%eax
    9557:	0f 84 da 00 00 00    	je     9637 <start_input_bmp+0xc07>
/home/tenebris/Disk/Racing-code/examples/23-libjpeg-divide-by-zero/libjpeg-turbo-2.0.90/rdbmp.c:574
    else if (cinfo->in_color_space == JCS_CMYK)
    955d:	83 f8 04             	cmp    $0x4,%eax
    9560:	0f 84 a2 00 00 00    	je     9608 <start_input_bmp+0xbd8>
/home/tenebris/Disk/Racing-code/examples/23-libjpeg-divide-by-zero/libjpeg-turbo-2.0.90/rdbmp.c:577
      ERREXIT(cinfo, JERR_BAD_IN_COLORSPACE);
    9566:	48 8b 45 00          	mov    0x0(%rbp),%rax
    956a:	48 89 ef             	mov    %rbp,%rdi
    956d:	c7 40 28 09 00 00 00 	movl   $0x9,0x28(%rax)
    9574:	ff 10                	call   *(%rax)
    9576:	e9 9c fc ff ff       	jmp    9217 <start_input_bmp+0x7e7>
    957b:	0f 1f 44 00 00       	nopl   0x0(%rax,%rax,1)
/home/tenebris/Disk/Racing-code/examples/23-libjpeg-divide-by-zero/libjpeg-turbo-2.0.90/rdbmp.c:615
      source->pub.get_pixel_rows = get_24bit_row;
    9580:	48 8d 05 39 ec ff ff 	lea    -0x13c7(%rip),%rax        # 81c0 <get_24bit_row>
    9587:	49 89 46 08          	mov    %rax,0x8(%r14)
/home/tenebris/Disk/Racing-code/examples/23-libjpeg-divide-by-zero/libjpeg-turbo-2.0.90/rdbmp.c:616
      break;
    958b:	e9 95 f9 ff ff       	jmp    8f25 <start_input_bmp+0x4f5>
/home/tenebris/Disk/Racing-code/examples/23-libjpeg-divide-by-zero/libjpeg-turbo-2.0.90/rdbmp.c:559
    if (IsExtRGB(cinfo->in_color_space))
    9590:	8d 50 fa             	lea    -0x6(%rax),%edx
    9593:	83 fa 09             	cmp    $0x9,%edx
    9596:	0f 86 8c 00 00 00    	jbe    9628 <start_input_bmp+0xbf8>
    959c:	83 f8 02             	cmp    $0x2,%eax
    959f:	0f 84 83 00 00 00    	je     9628 <start_input_bmp+0xbf8>
/home/tenebris/Disk/Racing-code/examples/23-libjpeg-divide-by-zero/libjpeg-turbo-2.0.90/rdbmp.c:561
    else if (cinfo->in_color_space == JCS_GRAYSCALE)
    95a5:	83 f8 01             	cmp    $0x1,%eax
    95a8:	74 52                	je     95fc <start_input_bmp+0xbcc>
/home/tenebris/Disk/Racing-code/examples/23-libjpeg-divide-by-zero/libjpeg-turbo-2.0.90/rdbmp.c:563
    else if (cinfo->in_color_space == JCS_CMYK)
    95aa:	83 f8 04             	cmp    $0x4,%eax
    95ad:	74 35                	je     95e4 <start_input_bmp+0xbb4>
/home/tenebris/Disk/Racing-code/examples/23-libjpeg-divide-by-zero/libjpeg-turbo-2.0.90/rdbmp.c:566
      ERREXIT(cinfo, JERR_BAD_IN_COLORSPACE);
    95af:	48 8b 45 00          	mov    0x0(%rbp),%rax
    95b3:	48 89 ef             	mov    %rbp,%rdi
    95b6:	c7 40 28 09 00 00 00 	movl   $0x9,0x28(%rax)
    95bd:	ff 10                	call   *(%rax)
    95bf:	e9 ee fd ff ff       	jmp    93b2 <start_input_bmp+0x982>
read_colormap():
/home/tenebris/Disk/Racing-code/examples/23-libjpeg-divide-by-zero/libjpeg-turbo-2.0.90/rdbmp.c:102
    for (i = 0; i < cmaplen; i++) {
    95c4:	8b 7c 24 08          	mov    0x8(%rsp),%edi
    95c8:	85 ff                	test   %edi,%edi
    95ca:	0f 8f a6 fc ff ff    	jg     9276 <start_input_bmp+0x846>
/home/tenebris/Disk/Racing-code/examples/23-libjpeg-divide-by-zero/libjpeg-turbo-2.0.90/rdbmp.c:128
  if (sinfo->cinfo->in_color_space == JCS_UNKNOWN && gray)
    95d0:	49 8b 7e 30          	mov    0x30(%r14),%rdi
    95d4:	8b 4f 3c             	mov    0x3c(%rdi),%ecx
    95d7:	85 c9                	test   %ecx,%ecx
    95d9:	0f 84 d0 fe ff ff    	je     94af <start_input_bmp+0xa7f>
    95df:	e9 88 f8 ff ff       	jmp    8e6c <start_input_bmp+0x43c>
start_input_bmp():
/home/tenebris/Disk/Racing-code/examples/23-libjpeg-divide-by-zero/libjpeg-turbo-2.0.90/rdbmp.c:564
      cinfo->input_components = 4;
    95e4:	c7 45 38 04 00 00 00 	movl   $0x4,0x38(%rbp)
    95eb:	e9 c2 fd ff ff       	jmp    93b2 <start_input_bmp+0x982>
/home/tenebris/Disk/Racing-code/examples/23-libjpeg-divide-by-zero/libjpeg-turbo-2.0.90/rdbmp.c:586
      cinfo->input_components = 4;
    95f0:	c7 45 38 04 00 00 00 	movl   $0x4,0x38(%rbp)
    95f7:	e9 7e fd ff ff       	jmp    937a <start_input_bmp+0x94a>
/home/tenebris/Disk/Racing-code/examples/23-libjpeg-divide-by-zero/libjpeg-turbo-2.0.90/rdbmp.c:562
      cinfo->input_components = 1;
    95fc:	c7 45 38 01 00 00 00 	movl   $0x1,0x38(%rbp)
    9603:	e9 aa fd ff ff       	jmp    93b2 <start_input_bmp+0x982>
/home/tenebris/Disk/Racing-code/examples/23-libjpeg-divide-by-zero/libjpeg-turbo-2.0.90/rdbmp.c:575
      cinfo->input_components = 4;
    9608:	c7 45 38 04 00 00 00 	movl   $0x4,0x38(%rbp)
    960f:	e9 03 fc ff ff       	jmp    9217 <start_input_bmp+0x7e7>
/home/tenebris/Disk/Racing-code/examples/23-libjpeg-divide-by-zero/libjpeg-turbo-2.0.90/rdbmp.c:640
}
    9614:	e8 a7 8c ff ff       	call   22c0 <__stack_chk_fail@plt>
/home/tenebris/Disk/Racing-code/examples/23-libjpeg-divide-by-zero/libjpeg-turbo-2.0.90/rdbmp.c:560
      cinfo->input_components = rgb_pixelsize[cinfo->in_color_space];
    9619:	48 8d 15 e0 30 00 00 	lea    0x30e0(%rip),%rdx        # c700 <rgb_pixelsize>
    9620:	8b 04 82             	mov    (%rdx,%rax,4),%eax
    9623:	e9 4f fd ff ff       	jmp    9377 <start_input_bmp+0x947>
    9628:	48 8d 15 d1 30 00 00 	lea    0x30d1(%rip),%rdx        # c700 <rgb_pixelsize>
    962f:	8b 04 82             	mov    (%rdx,%rax,4),%eax
    9632:	e9 78 fd ff ff       	jmp    93af <start_input_bmp+0x97f>
    9637:	48 8d 15 c2 30 00 00 	lea    0x30c2(%rip),%rdx        # c700 <rgb_pixelsize>
    963e:	8b 04 82             	mov    (%rdx,%rax,4),%eax
    9641:	e9 ce fb ff ff       	jmp    9214 <start_input_bmp+0x7e4>
    9646:	66 2e 0f 1f 84 00 00 	cs nopw 0x0(%rax,%rax,1)
    964d:	00 00 00 

0000000000009650 <jinit_read_bmp>:
jinit_read_bmp():
/home/tenebris/Disk/Racing-code/examples/23-libjpeg-divide-by-zero/libjpeg-turbo-2.0.90/rdbmp.c:660
 * The module selection routine for BMP format input.
 */

GLOBAL(cjpeg_source_ptr)
jinit_read_bmp(j_compress_ptr cinfo, boolean use_inversion_array)
{
    9650:	f3 0f 1e fa          	endbr64 
    9654:	55                   	push   %rbp
/home/tenebris/Disk/Racing-code/examples/23-libjpeg-divide-by-zero/libjpeg-turbo-2.0.90/rdbmp.c:665
  bmp_source_ptr source;

  /* Create module interface object */
  source = (bmp_source_ptr)
    (*cinfo->mem->alloc_small) ((j_common_ptr)cinfo, JPOOL_IMAGE,
    9655:	ba 68 00 00 00       	mov    $0x68,%edx
/home/tenebris/Disk/Racing-code/examples/23-libjpeg-divide-by-zero/libjpeg-turbo-2.0.90/rdbmp.c:660
{
    965a:	89 f5                	mov    %esi,%ebp
/home/tenebris/Disk/Racing-code/examples/23-libjpeg-divide-by-zero/libjpeg-turbo-2.0.90/rdbmp.c:665
    (*cinfo->mem->alloc_small) ((j_common_ptr)cinfo, JPOOL_IMAGE,
    965c:	be 01 00 00 00       	mov    $0x1,%esi
/home/tenebris/Disk/Racing-code/examples/23-libjpeg-divide-by-zero/libjpeg-turbo-2.0.90/rdbmp.c:660
{
    9661:	53                   	push   %rbx
    9662:	48 89 fb             	mov    %rdi,%rbx
    9665:	48 83 ec 08          	sub    $0x8,%rsp
/home/tenebris/Disk/Racing-code/examples/23-libjpeg-divide-by-zero/libjpeg-turbo-2.0.90/rdbmp.c:665
    (*cinfo->mem->alloc_small) ((j_common_ptr)cinfo, JPOOL_IMAGE,
    9669:	48 8b 47 08          	mov    0x8(%rdi),%rax
    966d:	ff 10                	call   *(%rax)
/home/tenebris/Disk/Racing-code/examples/23-libjpeg-divide-by-zero/libjpeg-turbo-2.0.90/rdbmp.c:669
                                sizeof(bmp_source_struct));
  source->cinfo = cinfo;        /* make back link for subroutines */
  /* Fill in method ptrs, except get_pixel_rows which start_input sets */
  source->pub.start_input = start_input_bmp;
    966f:	48 8d 0d ba f3 ff ff 	lea    -0xc46(%rip),%rcx        # 8a30 <start_input_bmp>
/home/tenebris/Disk/Racing-code/examples/23-libjpeg-divide-by-zero/libjpeg-turbo-2.0.90/rdbmp.c:670
  source->pub.finish_input = finish_input_bmp;
    9676:	48 8d 15 d3 e6 ff ff 	lea    -0x192d(%rip),%rdx        # 7d50 <finish_input_bmp>
/home/tenebris/Disk/Racing-code/examples/23-libjpeg-divide-by-zero/libjpeg-turbo-2.0.90/rdbmp.c:667
  source->cinfo = cinfo;        /* make back link for subroutines */
    967d:	48 89 58 30          	mov    %rbx,0x30(%rax)
/home/tenebris/Disk/Racing-code/examples/23-libjpeg-divide-by-zero/libjpeg-turbo-2.0.90/rdbmp.c:669
  source->pub.start_input = start_input_bmp;
    9681:	48 89 08             	mov    %rcx,(%rax)
/home/tenebris/Disk/Racing-code/examples/23-libjpeg-divide-by-zero/libjpeg-turbo-2.0.90/rdbmp.c:670
  source->pub.finish_input = finish_input_bmp;
    9684:	48 89 50 10          	mov    %rdx,0x10(%rax)
/home/tenebris/Disk/Racing-code/examples/23-libjpeg-divide-by-zero/libjpeg-turbo-2.0.90/rdbmp.c:672

  source->use_inversion_array = use_inversion_array;
    9688:	89 68 58             	mov    %ebp,0x58(%rax)
/home/tenebris/Disk/Racing-code/examples/23-libjpeg-divide-by-zero/libjpeg-turbo-2.0.90/rdbmp.c:675

  return (cjpeg_source_ptr)source;
}
    968b:	48 83 c4 08          	add    $0x8,%rsp
    968f:	5b                   	pop    %rbx
    9690:	5d                   	pop    %rbp
    9691:	c3                   	ret    
    9692:	66 2e 0f 1f 84 00 00 	cs nopw 0x0(%rax,%rax,1)
    9699:	00 00 00 
    969c:	0f 1f 40 00          	nopl   0x0(%rax)

00000000000096a0 <get_8bit_gray_row>:
get_8bit_gray_row():
/home/tenebris/Disk/Racing-code/examples/23-libjpeg-divide-by-zero/libjpeg-turbo-2.0.90/rdtarga.c:169


METHODDEF(JDIMENSION)
get_8bit_gray_row(j_compress_ptr cinfo, cjpeg_source_ptr sinfo)
/* This version is for reading 8-bit grayscale pixels */
{
    96a0:	f3 0f 1e fa          	endbr64 
    96a4:	41 54                	push   %r12
/home/tenebris/Disk/Racing-code/examples/23-libjpeg-divide-by-zero/libjpeg-turbo-2.0.90/rdtarga.c:174
  tga_source_ptr source = (tga_source_ptr)sinfo;
  register JSAMPROW ptr;
  register JDIMENSION col;

  ptr = source->pub.buffer[0];
    96a6:	48 8b 46 20          	mov    0x20(%rsi),%rax
/home/tenebris/Disk/Racing-code/examples/23-libjpeg-divide-by-zero/libjpeg-turbo-2.0.90/rdtarga.c:169
{
    96aa:	55                   	push   %rbp
    96ab:	53                   	push   %rbx
/home/tenebris/Disk/Racing-code/examples/23-libjpeg-divide-by-zero/libjpeg-turbo-2.0.90/rdtarga.c:175
  for (col = cinfo->image_width; col > 0; col--) {
    96ac:	44 8b 67 30          	mov    0x30(%rdi),%r12d
/home/tenebris/Disk/Racing-code/examples/23-libjpeg-divide-by-zero/libjpeg-turbo-2.0.90/rdtarga.c:174
  ptr = source->pub.buffer[0];
    96b0:	48 8b 18             	mov    (%rax),%rbx
/home/tenebris/Disk/Racing-code/examples/23-libjpeg-divide-by-zero/libjpeg-turbo-2.0.90/rdtarga.c:175
  for (col = cinfo->image_width; col > 0; col--) {
    96b3:	45 85 e4             	test   %r12d,%r12d
    96b6:	74 1e                	je     96d6 <get_8bit_gray_row+0x36>
    96b8:	48 89 f5             	mov    %rsi,%rbp
    96bb:	49 01 dc             	add    %rbx,%r12
    96be:	66 90                	xchg   %ax,%ax
/home/tenebris/Disk/Racing-code/examples/23-libjpeg-divide-by-zero/libjpeg-turbo-2.0.90/rdtarga.c:176 (discriminator 3)
    (*source->read_pixel) (source); /* Load next pixel into tga_pixel */
    96c0:	48 89 ef             	mov    %rbp,%rdi
/home/tenebris/Disk/Racing-code/examples/23-libjpeg-divide-by-zero/libjpeg-turbo-2.0.90/rdtarga.c:177 (discriminator 3)
    *ptr++ = (JSAMPLE)UCH(source->tga_pixel[0]);
    96c3:	48 83 c3 01          	add    $0x1,%rbx
/home/tenebris/Disk/Racing-code/examples/23-libjpeg-divide-by-zero/libjpeg-turbo-2.0.90/rdtarga.c:176 (discriminator 3)
    (*source->read_pixel) (source); /* Load next pixel into tga_pixel */
    96c7:	ff 55 50             	call   *0x50(%rbp)
/home/tenebris/Disk/Racing-code/examples/23-libjpeg-divide-by-zero/libjpeg-turbo-2.0.90/rdtarga.c:177 (discriminator 3)
    *ptr++ = (JSAMPLE)UCH(source->tga_pixel[0]);
    96ca:	0f b6 45 58          	movzbl 0x58(%rbp),%eax
    96ce:	88 43 ff             	mov    %al,-0x1(%rbx)
/home/tenebris/Disk/Racing-code/examples/23-libjpeg-divide-by-zero/libjpeg-turbo-2.0.90/rdtarga.c:175 (discriminator 3)
  for (col = cinfo->image_width; col > 0; col--) {
    96d1:	4c 39 e3             	cmp    %r12,%rbx
    96d4:	75 ea                	jne    96c0 <get_8bit_gray_row+0x20>
/home/tenebris/Disk/Racing-code/examples/23-libjpeg-divide-by-zero/libjpeg-turbo-2.0.90/rdtarga.c:180
  }
  return 1;
}
    96d6:	5b                   	pop    %rbx
    96d7:	b8 01 00 00 00       	mov    $0x1,%eax
    96dc:	5d                   	pop    %rbp
    96dd:	41 5c                	pop    %r12
    96df:	c3                   	ret    

00000000000096e0 <get_8bit_row>:
get_8bit_row():
/home/tenebris/Disk/Racing-code/examples/23-libjpeg-divide-by-zero/libjpeg-turbo-2.0.90/rdtarga.c:185

METHODDEF(JDIMENSION)
get_8bit_row(j_compress_ptr cinfo, cjpeg_source_ptr sinfo)
/* This version is for reading 8-bit colormap indexes */
{
    96e0:	f3 0f 1e fa          	endbr64 
    96e4:	41 57                	push   %r15
    96e6:	41 56                	push   %r14
    96e8:	41 55                	push   %r13
    96ea:	41 54                	push   %r12
    96ec:	55                   	push   %rbp
    96ed:	53                   	push   %rbx
    96ee:	48 83 ec 18          	sub    $0x18,%rsp
/home/tenebris/Disk/Racing-code/examples/23-libjpeg-divide-by-zero/libjpeg-turbo-2.0.90/rdtarga.c:191
  tga_source_ptr source = (tga_source_ptr)sinfo;
  register int t;
  register JSAMPROW ptr;
  register JDIMENSION col;
  register JSAMPARRAY colormap = source->colormap;
  int cmaplen = source->cmap_length;
    96f2:	8b 46 60             	mov    0x60(%rsi),%eax
/home/tenebris/Disk/Racing-code/examples/23-libjpeg-divide-by-zero/libjpeg-turbo-2.0.90/rdtarga.c:190
  register JSAMPARRAY colormap = source->colormap;
    96f5:	4c 8b 76 38          	mov    0x38(%rsi),%r14
/home/tenebris/Disk/Racing-code/examples/23-libjpeg-divide-by-zero/libjpeg-turbo-2.0.90/rdtarga.c:191
  int cmaplen = source->cmap_length;
    96f9:	89 44 24 0c          	mov    %eax,0xc(%rsp)
/home/tenebris/Disk/Racing-code/examples/23-libjpeg-divide-by-zero/libjpeg-turbo-2.0.90/rdtarga.c:193

  ptr = source->pub.buffer[0];
    96fd:	48 8b 46 20          	mov    0x20(%rsi),%rax
    9701:	48 8b 28             	mov    (%rax),%rbp
/home/tenebris/Disk/Racing-code/examples/23-libjpeg-divide-by-zero/libjpeg-turbo-2.0.90/rdtarga.c:194
  for (col = cinfo->image_width; col > 0; col--) {
    9704:	8b 47 30             	mov    0x30(%rdi),%eax
    9707:	85 c0                	test   %eax,%eax
    9709:	74 65                	je     9770 <get_8bit_row+0x90>
    970b:	4c 8d 2c 40          	lea    (%rax,%rax,2),%r13
    970f:	49 89 fc             	mov    %rdi,%r12
    9712:	49 89 f7             	mov    %rsi,%r15
    9715:	49 01 ed             	add    %rbp,%r13
    9718:	0f 1f 84 00 00 00 00 	nopl   0x0(%rax,%rax,1)
    971f:	00 
/home/tenebris/Disk/Racing-code/examples/23-libjpeg-divide-by-zero/libjpeg-turbo-2.0.90/rdtarga.c:195
    (*source->read_pixel) (source); /* Load next pixel into tga_pixel */
    9720:	4c 89 ff             	mov    %r15,%rdi
    9723:	41 ff 57 50          	call   *0x50(%r15)
/home/tenebris/Disk/Racing-code/examples/23-libjpeg-divide-by-zero/libjpeg-turbo-2.0.90/rdtarga.c:196
    t = UCH(source->tga_pixel[0]);
    9727:	41 0f b6 47 58       	movzbl 0x58(%r15),%eax
    972c:	89 c3                	mov    %eax,%ebx
/home/tenebris/Disk/Racing-code/examples/23-libjpeg-divide-by-zero/libjpeg-turbo-2.0.90/rdtarga.c:197
    if (t >= cmaplen)
    972e:	39 44 24 0c          	cmp    %eax,0xc(%rsp)
    9732:	7f 10                	jg     9744 <get_8bit_row+0x64>
/home/tenebris/Disk/Racing-code/examples/23-libjpeg-divide-by-zero/libjpeg-turbo-2.0.90/rdtarga.c:198
      ERREXIT(cinfo, JERR_TGA_BADPARMS);
    9734:	49 8b 04 24          	mov    (%r12),%rax
    9738:	4c 89 e7             	mov    %r12,%rdi
    973b:	c7 40 28 0c 04 00 00 	movl   $0x40c,0x28(%rax)
    9742:	ff 10                	call   *(%rax)
/home/tenebris/Disk/Racing-code/examples/23-libjpeg-divide-by-zero/libjpeg-turbo-2.0.90/rdtarga.c:199 (discriminator 2)
    *ptr++ = colormap[0][t];
    9744:	49 8b 0e             	mov    (%r14),%rcx
    9747:	0f b6 c3             	movzbl %bl,%eax
    974a:	48 83 c5 03          	add    $0x3,%rbp
    974e:	0f b6 0c 01          	movzbl (%rcx,%rax,1),%ecx
    9752:	88 4d fd             	mov    %cl,-0x3(%rbp)
/home/tenebris/Disk/Racing-code/examples/23-libjpeg-divide-by-zero/libjpeg-turbo-2.0.90/rdtarga.c:200 (discriminator 2)
    *ptr++ = colormap[1][t];
    9755:	49 8b 4e 08          	mov    0x8(%r14),%rcx
    9759:	0f b6 0c 01          	movzbl (%rcx,%rax,1),%ecx
    975d:	88 4d fe             	mov    %cl,-0x2(%rbp)
/home/tenebris/Disk/Racing-code/examples/23-libjpeg-divide-by-zero/libjpeg-turbo-2.0.90/rdtarga.c:201 (discriminator 2)
    *ptr++ = colormap[2][t];
    9760:	49 8b 4e 10          	mov    0x10(%r14),%rcx
    9764:	0f b6 04 01          	movzbl (%rcx,%rax,1),%eax
    9768:	88 45 ff             	mov    %al,-0x1(%rbp)
/home/tenebris/Disk/Racing-code/examples/23-libjpeg-divide-by-zero/libjpeg-turbo-2.0.90/rdtarga.c:194 (discriminator 2)
  for (col = cinfo->image_width; col > 0; col--) {
    976b:	49 39 ed             	cmp    %rbp,%r13
    976e:	75 b0                	jne    9720 <get_8bit_row+0x40>
/home/tenebris/Disk/Racing-code/examples/23-libjpeg-divide-by-zero/libjpeg-turbo-2.0.90/rdtarga.c:204
  }
  return 1;
}
    9770:	48 83 c4 18          	add    $0x18,%rsp
    9774:	b8 01 00 00 00       	mov    $0x1,%eax
    9779:	5b                   	pop    %rbx
    977a:	5d                   	pop    %rbp
    977b:	41 5c                	pop    %r12
    977d:	41 5d                	pop    %r13
    977f:	41 5e                	pop    %r14
    9781:	41 5f                	pop    %r15
    9783:	c3                   	ret    
    9784:	66 66 2e 0f 1f 84 00 	data16 cs nopw 0x0(%rax,%rax,1)
    978b:	00 00 00 00 
    978f:	90                   	nop

0000000000009790 <get_16bit_row>:
get_16bit_row():
/home/tenebris/Disk/Racing-code/examples/23-libjpeg-divide-by-zero/libjpeg-turbo-2.0.90/rdtarga.c:209

METHODDEF(JDIMENSION)
get_16bit_row(j_compress_ptr cinfo, cjpeg_source_ptr sinfo)
/* This version is for reading 16-bit pixels */
{
    9790:	f3 0f 1e fa          	endbr64 
    9794:	41 55                	push   %r13
    9796:	41 54                	push   %r12
    9798:	55                   	push   %rbp
    9799:	53                   	push   %rbx
    979a:	48 83 ec 08          	sub    $0x8,%rsp
/home/tenebris/Disk/Racing-code/examples/23-libjpeg-divide-by-zero/libjpeg-turbo-2.0.90/rdtarga.c:215
  tga_source_ptr source = (tga_source_ptr)sinfo;
  register int t;
  register JSAMPROW ptr;
  register JDIMENSION col;

  ptr = source->pub.buffer[0];
    979e:	48 8b 46 20          	mov    0x20(%rsi),%rax
    97a2:	48 8b 18             	mov    (%rax),%rbx
/home/tenebris/Disk/Racing-code/examples/23-libjpeg-divide-by-zero/libjpeg-turbo-2.0.90/rdtarga.c:216
  for (col = cinfo->image_width; col > 0; col--) {
    97a5:	8b 47 30             	mov    0x30(%rdi),%eax
    97a8:	85 c0                	test   %eax,%eax
    97aa:	74 62                	je     980e <get_16bit_row+0x7e>
    97ac:	48 8d 2c 40          	lea    (%rax,%rax,2),%rbp
    97b0:	49 89 f4             	mov    %rsi,%r12
    97b3:	4c 8d 2d c6 30 00 00 	lea    0x30c6(%rip),%r13        # c880 <c5to8bits>
    97ba:	48 01 dd             	add    %rbx,%rbp
    97bd:	0f 1f 00             	nopl   (%rax)
/home/tenebris/Disk/Racing-code/examples/23-libjpeg-divide-by-zero/libjpeg-turbo-2.0.90/rdtarga.c:217 (discriminator 3)
    (*source->read_pixel) (source); /* Load next pixel into tga_pixel */
    97c0:	4c 89 e7             	mov    %r12,%rdi
/home/tenebris/Disk/Racing-code/examples/23-libjpeg-divide-by-zero/libjpeg-turbo-2.0.90/rdtarga.c:229 (discriminator 3)
    ptr[2] = (JSAMPLE)c5to8bits[t & 0x1F];
    t >>= 5;
    ptr[1] = (JSAMPLE)c5to8bits[t & 0x1F];
    t >>= 5;
    ptr[0] = (JSAMPLE)c5to8bits[t & 0x1F];
    ptr += 3;
    97c3:	48 83 c3 03          	add    $0x3,%rbx
/home/tenebris/Disk/Racing-code/examples/23-libjpeg-divide-by-zero/libjpeg-turbo-2.0.90/rdtarga.c:217 (discriminator 3)
    (*source->read_pixel) (source); /* Load next pixel into tga_pixel */
    97c7:	41 ff 54 24 50       	call   *0x50(%r12)
/home/tenebris/Disk/Racing-code/examples/23-libjpeg-divide-by-zero/libjpeg-turbo-2.0.90/rdtarga.c:219 (discriminator 3)
    t += UCH(source->tga_pixel[1]) << 8;
    97cc:	41 0f b6 44 24 59    	movzbl 0x59(%r12),%eax
/home/tenebris/Disk/Racing-code/examples/23-libjpeg-divide-by-zero/libjpeg-turbo-2.0.90/rdtarga.c:218 (discriminator 3)
    t = UCH(source->tga_pixel[0]);
    97d2:	41 0f b6 54 24 58    	movzbl 0x58(%r12),%edx
/home/tenebris/Disk/Racing-code/examples/23-libjpeg-divide-by-zero/libjpeg-turbo-2.0.90/rdtarga.c:219 (discriminator 3)
    t += UCH(source->tga_pixel[1]) << 8;
    97d8:	c1 e0 08             	shl    $0x8,%eax
    97db:	01 d0                	add    %edx,%eax
/home/tenebris/Disk/Racing-code/examples/23-libjpeg-divide-by-zero/libjpeg-turbo-2.0.90/rdtarga.c:224 (discriminator 3)
    ptr[2] = (JSAMPLE)c5to8bits[t & 0x1F];
    97dd:	83 e2 1f             	and    $0x1f,%edx
    97e0:	41 0f b6 54 15 00    	movzbl 0x0(%r13,%rdx,1),%edx
    97e6:	88 53 ff             	mov    %dl,-0x1(%rbx)
/home/tenebris/Disk/Racing-code/examples/23-libjpeg-divide-by-zero/libjpeg-turbo-2.0.90/rdtarga.c:225 (discriminator 3)
    t >>= 5;
    97e9:	89 c2                	mov    %eax,%edx
/home/tenebris/Disk/Racing-code/examples/23-libjpeg-divide-by-zero/libjpeg-turbo-2.0.90/rdtarga.c:227 (discriminator 3)
    t >>= 5;
    97eb:	c1 f8 0a             	sar    $0xa,%eax
/home/tenebris/Disk/Racing-code/examples/23-libjpeg-divide-by-zero/libjpeg-turbo-2.0.90/rdtarga.c:225 (discriminator 3)
    t >>= 5;
    97ee:	c1 fa 05             	sar    $0x5,%edx
/home/tenebris/Disk/Racing-code/examples/23-libjpeg-divide-by-zero/libjpeg-turbo-2.0.90/rdtarga.c:228 (discriminator 3)
    ptr[0] = (JSAMPLE)c5to8bits[t & 0x1F];
    97f1:	83 e0 1f             	and    $0x1f,%eax
/home/tenebris/Disk/Racing-code/examples/23-libjpeg-divide-by-zero/libjpeg-turbo-2.0.90/rdtarga.c:226 (discriminator 3)
    ptr[1] = (JSAMPLE)c5to8bits[t & 0x1F];
    97f4:	83 e2 1f             	and    $0x1f,%edx
/home/tenebris/Disk/Racing-code/examples/23-libjpeg-divide-by-zero/libjpeg-turbo-2.0.90/rdtarga.c:228 (discriminator 3)
    ptr[0] = (JSAMPLE)c5to8bits[t & 0x1F];
    97f7:	41 0f b6 44 05 00    	movzbl 0x0(%r13,%rax,1),%eax
/home/tenebris/Disk/Racing-code/examples/23-libjpeg-divide-by-zero/libjpeg-turbo-2.0.90/rdtarga.c:226 (discriminator 3)
    ptr[1] = (JSAMPLE)c5to8bits[t & 0x1F];
    97fd:	41 0f b6 54 15 00    	movzbl 0x0(%r13,%rdx,1),%edx
/home/tenebris/Disk/Racing-code/examples/23-libjpeg-divide-by-zero/libjpeg-turbo-2.0.90/rdtarga.c:228 (discriminator 3)
    ptr[0] = (JSAMPLE)c5to8bits[t & 0x1F];
    9803:	88 43 fd             	mov    %al,-0x3(%rbx)
/home/tenebris/Disk/Racing-code/examples/23-libjpeg-divide-by-zero/libjpeg-turbo-2.0.90/rdtarga.c:226 (discriminator 3)
    ptr[1] = (JSAMPLE)c5to8bits[t & 0x1F];
    9806:	88 53 fe             	mov    %dl,-0x2(%rbx)
/home/tenebris/Disk/Racing-code/examples/23-libjpeg-divide-by-zero/libjpeg-turbo-2.0.90/rdtarga.c:216 (discriminator 3)
  for (col = cinfo->image_width; col > 0; col--) {
    9809:	48 39 eb             	cmp    %rbp,%rbx
    980c:	75 b2                	jne    97c0 <get_16bit_row+0x30>
/home/tenebris/Disk/Racing-code/examples/23-libjpeg-divide-by-zero/libjpeg-turbo-2.0.90/rdtarga.c:232
  }
  return 1;
}
    980e:	48 83 c4 08          	add    $0x8,%rsp
    9812:	b8 01 00 00 00       	mov    $0x1,%eax
    9817:	5b                   	pop    %rbx
    9818:	5d                   	pop    %rbp
    9819:	41 5c                	pop    %r12
    981b:	41 5d                	pop    %r13
    981d:	c3                   	ret    
    981e:	66 90                	xchg   %ax,%ax

0000000000009820 <get_24bit_row>:
get_24bit_row():
/home/tenebris/Disk/Racing-code/examples/23-libjpeg-divide-by-zero/libjpeg-turbo-2.0.90/rdtarga.c:237

METHODDEF(JDIMENSION)
get_24bit_row(j_compress_ptr cinfo, cjpeg_source_ptr sinfo)
/* This version is for reading 24-bit pixels */
{
    9820:	f3 0f 1e fa          	endbr64 
/home/tenebris/Disk/Racing-code/examples/23-libjpeg-divide-by-zero/libjpeg-turbo-2.0.90/rdtarga.c:242
  tga_source_ptr source = (tga_source_ptr)sinfo;
  register JSAMPROW ptr;
  register JDIMENSION col;

  ptr = source->pub.buffer[0];
    9824:	48 8b 46 20          	mov    0x20(%rsi),%rax
/home/tenebris/Disk/Racing-code/examples/23-libjpeg-divide-by-zero/libjpeg-turbo-2.0.90/rdtarga.c:237
{
    9828:	41 54                	push   %r12
    982a:	55                   	push   %rbp
    982b:	53                   	push   %rbx
/home/tenebris/Disk/Racing-code/examples/23-libjpeg-divide-by-zero/libjpeg-turbo-2.0.90/rdtarga.c:242
  ptr = source->pub.buffer[0];
    982c:	48 8b 18             	mov    (%rax),%rbx
/home/tenebris/Disk/Racing-code/examples/23-libjpeg-divide-by-zero/libjpeg-turbo-2.0.90/rdtarga.c:243
  for (col = cinfo->image_width; col > 0; col--) {
    982f:	8b 47 30             	mov    0x30(%rdi),%eax
    9832:	85 c0                	test   %eax,%eax
    9834:	74 2e                	je     9864 <get_24bit_row+0x44>
    9836:	4c 8d 24 40          	lea    (%rax,%rax,2),%r12
    983a:	48 89 f5             	mov    %rsi,%rbp
    983d:	49 01 dc             	add    %rbx,%r12
/home/tenebris/Disk/Racing-code/examples/23-libjpeg-divide-by-zero/libjpeg-turbo-2.0.90/rdtarga.c:244 (discriminator 3)
    (*source->read_pixel) (source); /* Load next pixel into tga_pixel */
    9840:	48 89 ef             	mov    %rbp,%rdi
    9843:	48 83 c3 03          	add    $0x3,%rbx
    9847:	ff 55 50             	call   *0x50(%rbp)
/home/tenebris/Disk/Racing-code/examples/23-libjpeg-divide-by-zero/libjpeg-turbo-2.0.90/rdtarga.c:245 (discriminator 3)
    *ptr++ = (JSAMPLE)UCH(source->tga_pixel[2]); /* change BGR to RGB order */
    984a:	0f b6 45 5a          	movzbl 0x5a(%rbp),%eax
    984e:	88 43 fd             	mov    %al,-0x3(%rbx)
/home/tenebris/Disk/Racing-code/examples/23-libjpeg-divide-by-zero/libjpeg-turbo-2.0.90/rdtarga.c:246 (discriminator 3)
    *ptr++ = (JSAMPLE)UCH(source->tga_pixel[1]);
    9851:	0f b6 45 59          	movzbl 0x59(%rbp),%eax
    9855:	88 43 fe             	mov    %al,-0x2(%rbx)
/home/tenebris/Disk/Racing-code/examples/23-libjpeg-divide-by-zero/libjpeg-turbo-2.0.90/rdtarga.c:247 (discriminator 3)
    *ptr++ = (JSAMPLE)UCH(source->tga_pixel[0]);
    9858:	0f b6 45 58          	movzbl 0x58(%rbp),%eax
    985c:	88 43 ff             	mov    %al,-0x1(%rbx)
/home/tenebris/Disk/Racing-code/examples/23-libjpeg-divide-by-zero/libjpeg-turbo-2.0.90/rdtarga.c:243 (discriminator 3)
  for (col = cinfo->image_width; col > 0; col--) {
    985f:	49 39 dc             	cmp    %rbx,%r12
    9862:	75 dc                	jne    9840 <get_24bit_row+0x20>
/home/tenebris/Disk/Racing-code/examples/23-libjpeg-divide-by-zero/libjpeg-turbo-2.0.90/rdtarga.c:250
  }
  return 1;
}
    9864:	5b                   	pop    %rbx
    9865:	b8 01 00 00 00       	mov    $0x1,%eax
    986a:	5d                   	pop    %rbp
    986b:	41 5c                	pop    %r12
    986d:	c3                   	ret    
    986e:	66 90                	xchg   %ax,%ax

0000000000009870 <get_memory_row>:
get_memory_row():
/home/tenebris/Disk/Racing-code/examples/23-libjpeg-divide-by-zero/libjpeg-turbo-2.0.90/rdtarga.c:270
 * with proper conversion of pixel format, but it's in a funny row order.
 */

METHODDEF(JDIMENSION)
get_memory_row(j_compress_ptr cinfo, cjpeg_source_ptr sinfo)
{
    9870:	f3 0f 1e fa          	endbr64 
/home/tenebris/Disk/Racing-code/examples/23-libjpeg-divide-by-zero/libjpeg-turbo-2.0.90/rdtarga.c:277
  JDIMENSION source_row;

  /* Compute row of source that maps to current_row of normal order */
  /* For now, assume image is bottom-up and not interlaced. */
  /* NEEDS WORK to support interlaced images! */
  source_row = cinfo->image_height - source->current_row - 1;
    9874:	8b 47 34             	mov    0x34(%rdi),%eax
/home/tenebris/Disk/Racing-code/examples/23-libjpeg-divide-by-zero/libjpeg-turbo-2.0.90/rdtarga.c:270
{
    9877:	53                   	push   %rbx
/home/tenebris/Disk/Racing-code/examples/23-libjpeg-divide-by-zero/libjpeg-turbo-2.0.90/rdtarga.c:280

  /* Fetch that row from virtual array */
  source->pub.buffer = (*cinfo->mem->access_virt_sarray)
    9878:	45 31 c0             	xor    %r8d,%r8d
/home/tenebris/Disk/Racing-code/examples/23-libjpeg-divide-by-zero/libjpeg-turbo-2.0.90/rdtarga.c:270
{
    987b:	48 89 f3             	mov    %rsi,%rbx
/home/tenebris/Disk/Racing-code/examples/23-libjpeg-divide-by-zero/libjpeg-turbo-2.0.90/rdtarga.c:280
  source->pub.buffer = (*cinfo->mem->access_virt_sarray)
    987e:	b9 01 00 00 00       	mov    $0x1,%ecx
/home/tenebris/Disk/Racing-code/examples/23-libjpeg-divide-by-zero/libjpeg-turbo-2.0.90/rdtarga.c:277
  source_row = cinfo->image_height - source->current_row - 1;
    9883:	8d 50 ff             	lea    -0x1(%rax),%edx
/home/tenebris/Disk/Racing-code/examples/23-libjpeg-divide-by-zero/libjpeg-turbo-2.0.90/rdtarga.c:280
  source->pub.buffer = (*cinfo->mem->access_virt_sarray)
    9886:	48 8b 47 08          	mov    0x8(%rdi),%rax
/home/tenebris/Disk/Racing-code/examples/23-libjpeg-divide-by-zero/libjpeg-turbo-2.0.90/rdtarga.c:277
  source_row = cinfo->image_height - source->current_row - 1;
    988a:	2b 56 48             	sub    0x48(%rsi),%edx
/home/tenebris/Disk/Racing-code/examples/23-libjpeg-divide-by-zero/libjpeg-turbo-2.0.90/rdtarga.c:280
  source->pub.buffer = (*cinfo->mem->access_virt_sarray)
    988d:	48 8b 76 40          	mov    0x40(%rsi),%rsi
    9891:	ff 50 38             	call   *0x38(%rax)
/home/tenebris/Disk/Racing-code/examples/23-libjpeg-divide-by-zero/libjpeg-turbo-2.0.90/rdtarga.c:284
    ((j_common_ptr)cinfo, source->whole_image,
     source_row, (JDIMENSION)1, FALSE);

  source->current_row++;
    9894:	83 43 48 01          	addl   $0x1,0x48(%rbx)
/home/tenebris/Disk/Racing-code/examples/23-libjpeg-divide-by-zero/libjpeg-turbo-2.0.90/rdtarga.c:280
  source->pub.buffer = (*cinfo->mem->access_virt_sarray)
    9898:	48 89 43 20          	mov    %rax,0x20(%rbx)
/home/tenebris/Disk/Racing-code/examples/23-libjpeg-divide-by-zero/libjpeg-turbo-2.0.90/rdtarga.c:286
  return 1;
}
    989c:	b8 01 00 00 00       	mov    $0x1,%eax
    98a1:	5b                   	pop    %rbx
    98a2:	c3                   	ret    
    98a3:	66 66 2e 0f 1f 84 00 	data16 cs nopw 0x0(%rax,%rax,1)
    98aa:	00 00 00 00 
    98ae:	66 90                	xchg   %ax,%ax

00000000000098b0 <preload_image>:
preload_image():
/home/tenebris/Disk/Racing-code/examples/23-libjpeg-divide-by-zero/libjpeg-turbo-2.0.90/rdtarga.c:297
 * get_memory_row on subsequent calls.
 */

METHODDEF(JDIMENSION)
preload_image(j_compress_ptr cinfo, cjpeg_source_ptr sinfo)
{
    98b0:	f3 0f 1e fa          	endbr64 
    98b4:	41 55                	push   %r13
    98b6:	41 54                	push   %r12
    98b8:	55                   	push   %rbp
    98b9:	48 89 fd             	mov    %rdi,%rbp
    98bc:	53                   	push   %rbx
    98bd:	48 89 f3             	mov    %rsi,%rbx
    98c0:	48 83 ec 08          	sub    $0x8,%rsp
/home/tenebris/Disk/Racing-code/examples/23-libjpeg-divide-by-zero/libjpeg-turbo-2.0.90/rdtarga.c:303
  tga_source_ptr source = (tga_source_ptr)sinfo;
  JDIMENSION row;
  cd_progress_ptr progress = (cd_progress_ptr)cinfo->progress;

  /* Read the data into a virtual array in input-file row order. */
  for (row = 0; row < cinfo->image_height; row++) {
    98c4:	8b 57 34             	mov    0x34(%rdi),%edx
/home/tenebris/Disk/Racing-code/examples/23-libjpeg-divide-by-zero/libjpeg-turbo-2.0.90/rdtarga.c:300
  cd_progress_ptr progress = (cd_progress_ptr)cinfo->progress;
    98c7:	4c 8b 67 10          	mov    0x10(%rdi),%r12
/home/tenebris/Disk/Racing-code/examples/23-libjpeg-divide-by-zero/libjpeg-turbo-2.0.90/rdtarga.c:303
  for (row = 0; row < cinfo->image_height; row++) {
    98cb:	85 d2                	test   %edx,%edx
    98cd:	0f 84 ed 00 00 00    	je     99c0 <preload_image+0x110>
    98d3:	45 31 ed             	xor    %r13d,%r13d
    98d6:	4d 85 e4             	test   %r12,%r12
    98d9:	0f 84 a1 00 00 00    	je     9980 <preload_image+0xd0>
    98df:	90                   	nop
/home/tenebris/Disk/Racing-code/examples/23-libjpeg-divide-by-zero/libjpeg-turbo-2.0.90/rdtarga.c:306
    if (progress != NULL) {
      progress->pub.pass_counter = (long)row;
      progress->pub.pass_limit = (long)cinfo->image_height;
    98e0:	66 0f 6e c2          	movd   %edx,%xmm0
/home/tenebris/Disk/Racing-code/examples/23-libjpeg-divide-by-zero/libjpeg-turbo-2.0.90/rdtarga.c:305
      progress->pub.pass_counter = (long)row;
    98e4:	66 41 0f 6e cd       	movd   %r13d,%xmm1
/home/tenebris/Disk/Racing-code/examples/23-libjpeg-divide-by-zero/libjpeg-turbo-2.0.90/rdtarga.c:307
      (*progress->pub.progress_monitor) ((j_common_ptr)cinfo);
    98e9:	48 89 ef             	mov    %rbp,%rdi
/home/tenebris/Disk/Racing-code/examples/23-libjpeg-divide-by-zero/libjpeg-turbo-2.0.90/rdtarga.c:305
      progress->pub.pass_counter = (long)row;
    98ec:	66 0f 6c c8          	punpcklqdq %xmm0,%xmm1
    98f0:	41 0f 11 4c 24 08    	movups %xmm1,0x8(%r12)
/home/tenebris/Disk/Racing-code/examples/23-libjpeg-divide-by-zero/libjpeg-turbo-2.0.90/rdtarga.c:307
      (*progress->pub.progress_monitor) ((j_common_ptr)cinfo);
    98f6:	41 ff 14 24          	call   *(%r12)
/home/tenebris/Disk/Racing-code/examples/23-libjpeg-divide-by-zero/libjpeg-turbo-2.0.90/rdtarga.c:309
    }
    source->pub.buffer = (*cinfo->mem->access_virt_sarray)
    98fa:	48 8b 45 08          	mov    0x8(%rbp),%rax
    98fe:	44 89 ea             	mov    %r13d,%edx
    9901:	48 8b 73 40          	mov    0x40(%rbx),%rsi
    9905:	41 b8 01 00 00 00    	mov    $0x1,%r8d
    990b:	b9 01 00 00 00       	mov    $0x1,%ecx
    9910:	48 89 ef             	mov    %rbp,%rdi
/home/tenebris/Disk/Racing-code/examples/23-libjpeg-divide-by-zero/libjpeg-turbo-2.0.90/rdtarga.c:303
  for (row = 0; row < cinfo->image_height; row++) {
    9913:	41 83 c5 01          	add    $0x1,%r13d
/home/tenebris/Disk/Racing-code/examples/23-libjpeg-divide-by-zero/libjpeg-turbo-2.0.90/rdtarga.c:309
    source->pub.buffer = (*cinfo->mem->access_virt_sarray)
    9917:	ff 50 38             	call   *0x38(%rax)
/home/tenebris/Disk/Racing-code/examples/23-libjpeg-divide-by-zero/libjpeg-turbo-2.0.90/rdtarga.c:311
      ((j_common_ptr)cinfo, source->whole_image, row, (JDIMENSION)1, TRUE);
    (*source->get_pixel_rows) (cinfo, sinfo);
    991a:	48 89 de             	mov    %rbx,%rsi
    991d:	48 89 ef             	mov    %rbp,%rdi
/home/tenebris/Disk/Racing-code/examples/23-libjpeg-divide-by-zero/libjpeg-turbo-2.0.90/rdtarga.c:309
    source->pub.buffer = (*cinfo->mem->access_virt_sarray)
    9920:	48 89 43 20          	mov    %rax,0x20(%rbx)
/home/tenebris/Disk/Racing-code/examples/23-libjpeg-divide-by-zero/libjpeg-turbo-2.0.90/rdtarga.c:311
    (*source->get_pixel_rows) (cinfo, sinfo);
    9924:	ff 53 70             	call   *0x70(%rbx)
/home/tenebris/Disk/Racing-code/examples/23-libjpeg-divide-by-zero/libjpeg-turbo-2.0.90/rdtarga.c:303
  for (row = 0; row < cinfo->image_height; row++) {
    9927:	8b 55 34             	mov    0x34(%rbp),%edx
    992a:	44 39 ea             	cmp    %r13d,%edx
    992d:	77 b1                	ja     98e0 <preload_image+0x30>
get_memory_row():
/home/tenebris/Disk/Racing-code/examples/23-libjpeg-divide-by-zero/libjpeg-turbo-2.0.90/rdtarga.c:277
  source_row = cinfo->image_height - source->current_row - 1;
    992f:	83 ea 01             	sub    $0x1,%edx
preload_image():
/home/tenebris/Disk/Racing-code/examples/23-libjpeg-divide-by-zero/libjpeg-turbo-2.0.90/rdtarga.c:313
  }
  if (progress != NULL)
    9932:	4d 85 e4             	test   %r12,%r12
    9935:	74 06                	je     993d <preload_image+0x8d>
/home/tenebris/Disk/Racing-code/examples/23-libjpeg-divide-by-zero/libjpeg-turbo-2.0.90/rdtarga.c:314
    progress->completed_extra_passes++;
    9937:	41 83 44 24 20 01    	addl   $0x1,0x20(%r12)
get_memory_row():
/home/tenebris/Disk/Racing-code/examples/23-libjpeg-divide-by-zero/libjpeg-turbo-2.0.90/rdtarga.c:280
  source->pub.buffer = (*cinfo->mem->access_virt_sarray)
    993d:	48 8b 73 40          	mov    0x40(%rbx),%rsi
    9941:	48 89 ef             	mov    %rbp,%rdi
    9944:	45 31 c0             	xor    %r8d,%r8d
    9947:	b9 01 00 00 00       	mov    $0x1,%ecx
preload_image():
/home/tenebris/Disk/Racing-code/examples/23-libjpeg-divide-by-zero/libjpeg-turbo-2.0.90/rdtarga.c:317

  /* Set up to read from the virtual array in unscrambled order */
  source->pub.get_pixel_rows = get_memory_row;
    994c:	48 8d 05 1d ff ff ff 	lea    -0xe3(%rip),%rax        # 9870 <get_memory_row>
/home/tenebris/Disk/Racing-code/examples/23-libjpeg-divide-by-zero/libjpeg-turbo-2.0.90/rdtarga.c:318
  source->current_row = 0;
    9953:	c7 43 48 00 00 00 00 	movl   $0x0,0x48(%rbx)
/home/tenebris/Disk/Racing-code/examples/23-libjpeg-divide-by-zero/libjpeg-turbo-2.0.90/rdtarga.c:317
  source->pub.get_pixel_rows = get_memory_row;
    995a:	48 89 43 08          	mov    %rax,0x8(%rbx)
get_memory_row():
/home/tenebris/Disk/Racing-code/examples/23-libjpeg-divide-by-zero/libjpeg-turbo-2.0.90/rdtarga.c:280
  source->pub.buffer = (*cinfo->mem->access_virt_sarray)
    995e:	48 8b 45 08          	mov    0x8(%rbp),%rax
    9962:	ff 50 38             	call   *0x38(%rax)
/home/tenebris/Disk/Racing-code/examples/23-libjpeg-divide-by-zero/libjpeg-turbo-2.0.90/rdtarga.c:284
  source->current_row++;
    9965:	83 43 48 01          	addl   $0x1,0x48(%rbx)
/home/tenebris/Disk/Racing-code/examples/23-libjpeg-divide-by-zero/libjpeg-turbo-2.0.90/rdtarga.c:280
  source->pub.buffer = (*cinfo->mem->access_virt_sarray)
    9969:	48 89 43 20          	mov    %rax,0x20(%rbx)
preload_image():
/home/tenebris/Disk/Racing-code/examples/23-libjpeg-divide-by-zero/libjpeg-turbo-2.0.90/rdtarga.c:321
  /* And read the first row */
  return get_memory_row(cinfo, sinfo);
}
    996d:	48 83 c4 08          	add    $0x8,%rsp
    9971:	b8 01 00 00 00       	mov    $0x1,%eax
    9976:	5b                   	pop    %rbx
    9977:	5d                   	pop    %rbp
    9978:	41 5c                	pop    %r12
    997a:	41 5d                	pop    %r13
    997c:	c3                   	ret    
    997d:	0f 1f 00             	nopl   (%rax)
/home/tenebris/Disk/Racing-code/examples/23-libjpeg-divide-by-zero/libjpeg-turbo-2.0.90/rdtarga.c:309
    source->pub.buffer = (*cinfo->mem->access_virt_sarray)
    9980:	48 8b 45 08          	mov    0x8(%rbp),%rax
    9984:	44 89 ea             	mov    %r13d,%edx
    9987:	48 8b 73 40          	mov    0x40(%rbx),%rsi
    998b:	b9 01 00 00 00       	mov    $0x1,%ecx
    9990:	41 b8 01 00 00 00    	mov    $0x1,%r8d
    9996:	48 89 ef             	mov    %rbp,%rdi
/home/tenebris/Disk/Racing-code/examples/23-libjpeg-divide-by-zero/libjpeg-turbo-2.0.90/rdtarga.c:303
  for (row = 0; row < cinfo->image_height; row++) {
    9999:	41 83 c5 01          	add    $0x1,%r13d
/home/tenebris/Disk/Racing-code/examples/23-libjpeg-divide-by-zero/libjpeg-turbo-2.0.90/rdtarga.c:309
    source->pub.buffer = (*cinfo->mem->access_virt_sarray)
    999d:	ff 50 38             	call   *0x38(%rax)
/home/tenebris/Disk/Racing-code/examples/23-libjpeg-divide-by-zero/libjpeg-turbo-2.0.90/rdtarga.c:311
    (*source->get_pixel_rows) (cinfo, sinfo);
    99a0:	48 89 de             	mov    %rbx,%rsi
    99a3:	48 89 ef             	mov    %rbp,%rdi
/home/tenebris/Disk/Racing-code/examples/23-libjpeg-divide-by-zero/libjpeg-turbo-2.0.90/rdtarga.c:309
    source->pub.buffer = (*cinfo->mem->access_virt_sarray)
    99a6:	48 89 43 20          	mov    %rax,0x20(%rbx)
/home/tenebris/Disk/Racing-code/examples/23-libjpeg-divide-by-zero/libjpeg-turbo-2.0.90/rdtarga.c:311
    (*source->get_pixel_rows) (cinfo, sinfo);
    99aa:	ff 53 70             	call   *0x70(%rbx)
/home/tenebris/Disk/Racing-code/examples/23-libjpeg-divide-by-zero/libjpeg-turbo-2.0.90/rdtarga.c:303
  for (row = 0; row < cinfo->image_height; row++) {
    99ad:	8b 55 34             	mov    0x34(%rbp),%edx
    99b0:	41 39 d5             	cmp    %edx,%r13d
    99b3:	72 cb                	jb     9980 <preload_image+0xd0>
    99b5:	e9 75 ff ff ff       	jmp    992f <preload_image+0x7f>
    99ba:	66 0f 1f 44 00 00    	nopw   0x0(%rax,%rax,1)
    99c0:	ba ff ff ff ff       	mov    $0xffffffff,%edx
    99c5:	e9 68 ff ff ff       	jmp    9932 <preload_image+0x82>
    99ca:	66 0f 1f 44 00 00    	nopw   0x0(%rax,%rax,1)

00000000000099d0 <finish_input_tga>:
finish_input_tga():
/home/tenebris/Disk/Racing-code/examples/23-libjpeg-divide-by-zero/libjpeg-turbo-2.0.90/rdtarga.c:474
 * Finish up at the end of the file.
 */

METHODDEF(void)
finish_input_tga(j_compress_ptr cinfo, cjpeg_source_ptr sinfo)
{
    99d0:	f3 0f 1e fa          	endbr64 
/home/tenebris/Disk/Racing-code/examples/23-libjpeg-divide-by-zero/libjpeg-turbo-2.0.90/rdtarga.c:476
  /* no work */
}
    99d4:	c3                   	ret    
    99d5:	66 66 2e 0f 1f 84 00 	data16 cs nopw 0x0(%rax,%rax,1)
    99dc:	00 00 00 00 

00000000000099e0 <read_non_rle_pixel>:
read_non_rle_pixel():
/home/tenebris/Disk/Racing-code/examples/23-libjpeg-divide-by-zero/libjpeg-turbo-2.0.90/rdtarga.c:120
{
    99e0:	f3 0f 1e fa          	endbr64 
/home/tenebris/Disk/Racing-code/examples/23-libjpeg-divide-by-zero/libjpeg-turbo-2.0.90/rdtarga.c:123
  for (i = 0; i < sinfo->pixel_size; i++) {
    99e4:	8b 47 5c             	mov    0x5c(%rdi),%eax
    99e7:	85 c0                	test   %eax,%eax
    99e9:	7e 5d                	jle    9a48 <read_non_rle_pixel+0x68>
/home/tenebris/Disk/Racing-code/examples/23-libjpeg-divide-by-zero/libjpeg-turbo-2.0.90/rdtarga.c:120
{
    99eb:	55                   	push   %rbp
/home/tenebris/Disk/Racing-code/examples/23-libjpeg-divide-by-zero/libjpeg-turbo-2.0.90/rdtarga.c:123
  for (i = 0; i < sinfo->pixel_size; i++) {
    99ec:	31 ed                	xor    %ebp,%ebp
/home/tenebris/Disk/Racing-code/examples/23-libjpeg-divide-by-zero/libjpeg-turbo-2.0.90/rdtarga.c:120
{
    99ee:	53                   	push   %rbx
    99ef:	48 89 fb             	mov    %rdi,%rbx
    99f2:	48 83 ec 08          	sub    $0x8,%rsp
read_byte():
/home/tenebris/Disk/Racing-code/examples/23-libjpeg-divide-by-zero/libjpeg-turbo-2.0.90/rdtarga.c:89
  if ((c = getc(infile)) == EOF)
    99f6:	48 8b 7b 18          	mov    0x18(%rbx),%rdi
    99fa:	e8 71 8a ff ff       	call   2470 <getc@plt>
    99ff:	83 f8 ff             	cmp    $0xffffffff,%eax
    9a02:	74 1c                	je     9a20 <read_non_rle_pixel+0x40>
read_non_rle_pixel():
/home/tenebris/Disk/Racing-code/examples/23-libjpeg-divide-by-zero/libjpeg-turbo-2.0.90/rdtarga.c:124
    sinfo->tga_pixel[i] = (U_CHAR)read_byte(sinfo);
    9a04:	88 44 2b 58          	mov    %al,0x58(%rbx,%rbp,1)
/home/tenebris/Disk/Racing-code/examples/23-libjpeg-divide-by-zero/libjpeg-turbo-2.0.90/rdtarga.c:123
  for (i = 0; i < sinfo->pixel_size; i++) {
    9a08:	48 83 c5 01          	add    $0x1,%rbp
    9a0c:	39 6b 5c             	cmp    %ebp,0x5c(%rbx)
    9a0f:	7f e5                	jg     99f6 <read_non_rle_pixel+0x16>
/home/tenebris/Disk/Racing-code/examples/23-libjpeg-divide-by-zero/libjpeg-turbo-2.0.90/rdtarga.c:126
}
    9a11:	48 83 c4 08          	add    $0x8,%rsp
    9a15:	5b                   	pop    %rbx
    9a16:	5d                   	pop    %rbp
    9a17:	c3                   	ret    
    9a18:	0f 1f 84 00 00 00 00 	nopl   0x0(%rax,%rax,1)
    9a1f:	00 
    9a20:	48 8b 7b 30          	mov    0x30(%rbx),%rdi
read_byte():
/home/tenebris/Disk/Racing-code/examples/23-libjpeg-divide-by-zero/libjpeg-turbo-2.0.90/rdtarga.c:90
    ERREXIT(sinfo->cinfo, JERR_INPUT_EOF);
    9a24:	48 8b 07             	mov    (%rdi),%rax
    9a27:	c7 40 28 2b 00 00 00 	movl   $0x2b,0x28(%rax)
    9a2e:	ff 10                	call   *(%rax)
read_non_rle_pixel():
/home/tenebris/Disk/Racing-code/examples/23-libjpeg-divide-by-zero/libjpeg-turbo-2.0.90/rdtarga.c:124
    sinfo->tga_pixel[i] = (U_CHAR)read_byte(sinfo);
    9a30:	c6 44 2b 58 ff       	movb   $0xff,0x58(%rbx,%rbp,1)
/home/tenebris/Disk/Racing-code/examples/23-libjpeg-divide-by-zero/libjpeg-turbo-2.0.90/rdtarga.c:123
  for (i = 0; i < sinfo->pixel_size; i++) {
    9a35:	48 83 c5 01          	add    $0x1,%rbp
    9a39:	39 6b 5c             	cmp    %ebp,0x5c(%rbx)
    9a3c:	7f b8                	jg     99f6 <read_non_rle_pixel+0x16>
/home/tenebris/Disk/Racing-code/examples/23-libjpeg-divide-by-zero/libjpeg-turbo-2.0.90/rdtarga.c:126
}
    9a3e:	48 83 c4 08          	add    $0x8,%rsp
    9a42:	5b                   	pop    %rbx
    9a43:	5d                   	pop    %rbp
    9a44:	c3                   	ret    
    9a45:	0f 1f 00             	nopl   (%rax)
    9a48:	c3                   	ret    
    9a49:	0f 1f 80 00 00 00 00 	nopl   0x0(%rax)

0000000000009a50 <read_rle_pixel>:
read_rle_pixel():
/home/tenebris/Disk/Racing-code/examples/23-libjpeg-divide-by-zero/libjpeg-turbo-2.0.90/rdtarga.c:132
{
    9a50:	f3 0f 1e fa          	endbr64 
    9a54:	55                   	push   %rbp
    9a55:	53                   	push   %rbx
    9a56:	48 89 fb             	mov    %rdi,%rbx
    9a59:	48 83 ec 08          	sub    $0x8,%rsp
/home/tenebris/Disk/Racing-code/examples/23-libjpeg-divide-by-zero/libjpeg-turbo-2.0.90/rdtarga.c:136
  if (sinfo->dup_pixel_count > 0) {
    9a5d:	8b 47 68             	mov    0x68(%rdi),%eax
    9a60:	85 c0                	test   %eax,%eax
    9a62:	7f 5c                	jg     9ac0 <read_rle_pixel+0x70>
/home/tenebris/Disk/Racing-code/examples/23-libjpeg-divide-by-zero/libjpeg-turbo-2.0.90/rdtarga.c:142
  if (--sinfo->block_count < 0) { /* decrement pixels remaining in block */
    9a64:	83 6f 64 01          	subl   $0x1,0x64(%rdi)
    9a68:	78 66                	js     9ad0 <read_rle_pixel+0x80>
/home/tenebris/Disk/Racing-code/examples/23-libjpeg-divide-by-zero/libjpeg-turbo-2.0.90/rdtarga.c:153
  for (i = 0; i < sinfo->pixel_size; i++) {
    9a6a:	8b 43 5c             	mov    0x5c(%rbx),%eax
    9a6d:	31 ed                	xor    %ebp,%ebp
    9a6f:	85 c0                	test   %eax,%eax
    9a71:	7e 1b                	jle    9a8e <read_rle_pixel+0x3e>
read_byte():
/home/tenebris/Disk/Racing-code/examples/23-libjpeg-divide-by-zero/libjpeg-turbo-2.0.90/rdtarga.c:89
  if ((c = getc(infile)) == EOF)
    9a73:	48 8b 7b 18          	mov    0x18(%rbx),%rdi
    9a77:	e8 f4 89 ff ff       	call   2470 <getc@plt>
    9a7c:	83 f8 ff             	cmp    $0xffffffff,%eax
    9a7f:	74 17                	je     9a98 <read_rle_pixel+0x48>
read_rle_pixel():
/home/tenebris/Disk/Racing-code/examples/23-libjpeg-divide-by-zero/libjpeg-turbo-2.0.90/rdtarga.c:154
    sinfo->tga_pixel[i] = (U_CHAR)read_byte(sinfo);
    9a81:	88 44 2b 58          	mov    %al,0x58(%rbx,%rbp,1)
/home/tenebris/Disk/Racing-code/examples/23-libjpeg-divide-by-zero/libjpeg-turbo-2.0.90/rdtarga.c:153
  for (i = 0; i < sinfo->pixel_size; i++) {
    9a85:	48 83 c5 01          	add    $0x1,%rbp
    9a89:	39 6b 5c             	cmp    %ebp,0x5c(%rbx)
    9a8c:	7f e5                	jg     9a73 <read_rle_pixel+0x23>
/home/tenebris/Disk/Racing-code/examples/23-libjpeg-divide-by-zero/libjpeg-turbo-2.0.90/rdtarga.c:156
}
    9a8e:	48 83 c4 08          	add    $0x8,%rsp
    9a92:	5b                   	pop    %rbx
    9a93:	5d                   	pop    %rbp
    9a94:	c3                   	ret    
    9a95:	0f 1f 00             	nopl   (%rax)
    9a98:	48 8b 7b 30          	mov    0x30(%rbx),%rdi
read_byte():
/home/tenebris/Disk/Racing-code/examples/23-libjpeg-divide-by-zero/libjpeg-turbo-2.0.90/rdtarga.c:90
    ERREXIT(sinfo->cinfo, JERR_INPUT_EOF);
    9a9c:	48 8b 07             	mov    (%rdi),%rax
    9a9f:	c7 40 28 2b 00 00 00 	movl   $0x2b,0x28(%rax)
    9aa6:	ff 10                	call   *(%rax)
read_rle_pixel():
/home/tenebris/Disk/Racing-code/examples/23-libjpeg-divide-by-zero/libjpeg-turbo-2.0.90/rdtarga.c:154
    sinfo->tga_pixel[i] = (U_CHAR)read_byte(sinfo);
    9aa8:	c6 44 2b 58 ff       	movb   $0xff,0x58(%rbx,%rbp,1)
/home/tenebris/Disk/Racing-code/examples/23-libjpeg-divide-by-zero/libjpeg-turbo-2.0.90/rdtarga.c:153
  for (i = 0; i < sinfo->pixel_size; i++) {
    9aad:	48 83 c5 01          	add    $0x1,%rbp
    9ab1:	39 6b 5c             	cmp    %ebp,0x5c(%rbx)
    9ab4:	7f bd                	jg     9a73 <read_rle_pixel+0x23>
/home/tenebris/Disk/Racing-code/examples/23-libjpeg-divide-by-zero/libjpeg-turbo-2.0.90/rdtarga.c:156
}
    9ab6:	48 83 c4 08          	add    $0x8,%rsp
    9aba:	5b                   	pop    %rbx
    9abb:	5d                   	pop    %rbp
    9abc:	c3                   	ret    
    9abd:	0f 1f 00             	nopl   (%rax)
/home/tenebris/Disk/Racing-code/examples/23-libjpeg-divide-by-zero/libjpeg-turbo-2.0.90/rdtarga.c:137
    sinfo->dup_pixel_count--;
    9ac0:	83 e8 01             	sub    $0x1,%eax
    9ac3:	89 47 68             	mov    %eax,0x68(%rdi)
/home/tenebris/Disk/Racing-code/examples/23-libjpeg-divide-by-zero/libjpeg-turbo-2.0.90/rdtarga.c:156
}
    9ac6:	48 83 c4 08          	add    $0x8,%rsp
    9aca:	5b                   	pop    %rbx
    9acb:	5d                   	pop    %rbp
    9acc:	c3                   	ret    
    9acd:	0f 1f 00             	nopl   (%rax)
read_byte():
/home/tenebris/Disk/Racing-code/examples/23-libjpeg-divide-by-zero/libjpeg-turbo-2.0.90/rdtarga.c:89
  if ((c = getc(infile)) == EOF)
    9ad0:	48 8b 7f 18          	mov    0x18(%rdi),%rdi
    9ad4:	e8 97 89 ff ff       	call   2470 <getc@plt>
    9ad9:	89 c5                	mov    %eax,%ebp
    9adb:	83 f8 ff             	cmp    $0xffffffff,%eax
    9ade:	74 18                	je     9af8 <read_rle_pixel+0xa8>
read_rle_pixel():
/home/tenebris/Disk/Racing-code/examples/23-libjpeg-divide-by-zero/libjpeg-turbo-2.0.90/rdtarga.c:148
      sinfo->block_count = i & 0x7F; /* number of pixels after this one */
    9ae0:	83 e0 7f             	and    $0x7f,%eax
/home/tenebris/Disk/Racing-code/examples/23-libjpeg-divide-by-zero/libjpeg-turbo-2.0.90/rdtarga.c:144
    if (i & 0x80) {             /* Start of duplicate-pixel block? */
    9ae3:	40 f6 c5 80          	test   $0x80,%bpl
    9ae7:	75 1f                	jne    9b08 <read_rle_pixel+0xb8>
/home/tenebris/Disk/Racing-code/examples/23-libjpeg-divide-by-zero/libjpeg-turbo-2.0.90/rdtarga.c:148
      sinfo->block_count = i & 0x7F; /* number of pixels after this one */
    9ae9:	89 43 64             	mov    %eax,0x64(%rbx)
    9aec:	e9 79 ff ff ff       	jmp    9a6a <read_rle_pixel+0x1a>
    9af1:	0f 1f 80 00 00 00 00 	nopl   0x0(%rax)
    9af8:	48 8b 7b 30          	mov    0x30(%rbx),%rdi
read_byte():
/home/tenebris/Disk/Racing-code/examples/23-libjpeg-divide-by-zero/libjpeg-turbo-2.0.90/rdtarga.c:90
    ERREXIT(sinfo->cinfo, JERR_INPUT_EOF);
    9afc:	48 8b 07             	mov    (%rdi),%rax
    9aff:	c7 40 28 2b 00 00 00 	movl   $0x2b,0x28(%rax)
    9b06:	ff 10                	call   *(%rax)
read_rle_pixel():
/home/tenebris/Disk/Racing-code/examples/23-libjpeg-divide-by-zero/libjpeg-turbo-2.0.90/rdtarga.c:145
      sinfo->dup_pixel_count = i & 0x7F; /* number of dups after this one */
    9b08:	83 e5 7f             	and    $0x7f,%ebp
/home/tenebris/Disk/Racing-code/examples/23-libjpeg-divide-by-zero/libjpeg-turbo-2.0.90/rdtarga.c:146
      sinfo->block_count = 0;   /* then read new block header */
    9b0b:	c7 43 64 00 00 00 00 	movl   $0x0,0x64(%rbx)
/home/tenebris/Disk/Racing-code/examples/23-libjpeg-divide-by-zero/libjpeg-turbo-2.0.90/rdtarga.c:145
      sinfo->dup_pixel_count = i & 0x7F; /* number of dups after this one */
    9b12:	89 6b 68             	mov    %ebp,0x68(%rbx)
/home/tenebris/Disk/Racing-code/examples/23-libjpeg-divide-by-zero/libjpeg-turbo-2.0.90/rdtarga.c:146
      sinfo->block_count = 0;   /* then read new block header */
    9b15:	e9 50 ff ff ff       	jmp    9a6a <read_rle_pixel+0x1a>
    9b1a:	66 0f 1f 44 00 00    	nopw   0x0(%rax,%rax,1)

0000000000009b20 <start_input_tga>:
start_input_tga():
/home/tenebris/Disk/Racing-code/examples/23-libjpeg-divide-by-zero/libjpeg-turbo-2.0.90/rdtarga.c:330
{
    9b20:	f3 0f 1e fa          	endbr64 
    9b24:	41 57                	push   %r15
fread():
/usr/include/x86_64-linux-gnu/bits/stdio2.h:293
    return __fread_alias (__ptr, __size, __n, __stream);
    9b26:	ba 12 00 00 00       	mov    $0x12,%edx
start_input_tga():
/home/tenebris/Disk/Racing-code/examples/23-libjpeg-divide-by-zero/libjpeg-turbo-2.0.90/rdtarga.c:330
    9b2b:	41 56                	push   %r14
    9b2d:	49 89 f6             	mov    %rsi,%r14
    9b30:	41 55                	push   %r13
    9b32:	41 54                	push   %r12
    9b34:	55                   	push   %rbp
    9b35:	48 89 fd             	mov    %rdi,%rbp
    9b38:	53                   	push   %rbx
    9b39:	48 83 ec 38          	sub    $0x38,%rsp
fread():
/usr/include/x86_64-linux-gnu/bits/stdio2.h:293
    9b3d:	48 8b 4e 18          	mov    0x18(%rsi),%rcx
    9b41:	be 01 00 00 00       	mov    $0x1,%esi
start_input_tga():
/home/tenebris/Disk/Racing-code/examples/23-libjpeg-divide-by-zero/libjpeg-turbo-2.0.90/rdtarga.c:330
    9b46:	64 48 8b 04 25 28 00 	mov    %fs:0x28,%rax
    9b4d:	00 00 
    9b4f:	48 89 44 24 28       	mov    %rax,0x28(%rsp)
    9b54:	31 c0                	xor    %eax,%eax
fread():
/usr/include/x86_64-linux-gnu/bits/stdio2.h:293
    9b56:	48 8d 7c 24 10       	lea    0x10(%rsp),%rdi
    9b5b:	e8 30 87 ff ff       	call   2290 <fread@plt>
start_input_tga():
/home/tenebris/Disk/Racing-code/examples/23-libjpeg-divide-by-zero/libjpeg-turbo-2.0.90/rdtarga.c:341
  if (!ReadOK(source->pub.input_file, targaheader, 18))
    9b60:	48 83 f8 12          	cmp    $0x12,%rax
    9b64:	74 10                	je     9b76 <start_input_tga+0x56>
/home/tenebris/Disk/Racing-code/examples/23-libjpeg-divide-by-zero/libjpeg-turbo-2.0.90/rdtarga.c:342
    ERREXIT(cinfo, JERR_INPUT_EOF);
    9b66:	48 8b 45 00          	mov    0x0(%rbp),%rax
    9b6a:	48 89 ef             	mov    %rbp,%rdi
    9b6d:	c7 40 28 2b 00 00 00 	movl   $0x2b,0x28(%rax)
    9b74:	ff 10                	call   *(%rax)
/home/tenebris/Disk/Racing-code/examples/23-libjpeg-divide-by-zero/libjpeg-turbo-2.0.90/rdtarga.c:345
  if (targaheader[16] == 15)
    9b76:	0f b6 54 24 20       	movzbl 0x20(%rsp),%edx
    9b7b:	80 fa 0f             	cmp    $0xf,%dl
    9b7e:	0f 84 4c 03 00 00    	je     9ed0 <start_input_tga+0x3b0>
/home/tenebris/Disk/Racing-code/examples/23-libjpeg-divide-by-zero/libjpeg-turbo-2.0.90/rdtarga.c:354
  source->pixel_size = UCH(targaheader[16]) >> 3;
    9b84:	89 d0                	mov    %edx,%eax
    9b86:	c0 e8 03             	shr    $0x3,%al
    9b89:	0f b6 c8             	movzbl %al,%ecx
/home/tenebris/Disk/Racing-code/examples/23-libjpeg-divide-by-zero/libjpeg-turbo-2.0.90/rdtarga.c:360
  if (cmaptype > 1 ||           /* cmaptype must be 0 or 1 */
    9b8c:	83 e8 01             	sub    $0x1,%eax
    9b8f:	3c 03                	cmp    $0x3,%al
    9b91:	40 0f 97 c6          	seta   %sil
/home/tenebris/Disk/Racing-code/examples/23-libjpeg-divide-by-zero/libjpeg-turbo-2.0.90/rdtarga.c:351
  maplen = GET_2B(5);
    9b95:	44 0f b6 64 24 16    	movzbl 0x16(%rsp),%r12d
    9b9b:	0f b6 7c 24 15       	movzbl 0x15(%rsp),%edi
/home/tenebris/Disk/Racing-code/examples/23-libjpeg-divide-by-zero/libjpeg-turbo-2.0.90/rdtarga.c:354
  source->pixel_size = UCH(targaheader[16]) >> 3;
    9ba0:	41 89 4e 5c          	mov    %ecx,0x5c(%r14)
/home/tenebris/Disk/Racing-code/examples/23-libjpeg-divide-by-zero/libjpeg-turbo-2.0.90/rdtarga.c:352
  width = GET_2B(12);
    9ba4:	44 0f b6 6c 24 1d    	movzbl 0x1d(%rsp),%r13d
/home/tenebris/Disk/Racing-code/examples/23-libjpeg-divide-by-zero/libjpeg-turbo-2.0.90/rdtarga.c:353
  height = GET_2B(14);
    9baa:	0f b6 44 24 1f       	movzbl 0x1f(%rsp),%eax
/home/tenebris/Disk/Racing-code/examples/23-libjpeg-divide-by-zero/libjpeg-turbo-2.0.90/rdtarga.c:351
  maplen = GET_2B(5);
    9baf:	41 c1 e4 08          	shl    $0x8,%r12d
/home/tenebris/Disk/Racing-code/examples/23-libjpeg-divide-by-zero/libjpeg-turbo-2.0.90/rdtarga.c:355
  flags = UCH(targaheader[17]); /* Image Descriptor byte */
    9bb3:	0f b6 4c 24 21       	movzbl 0x21(%rsp),%ecx
/home/tenebris/Disk/Racing-code/examples/23-libjpeg-divide-by-zero/libjpeg-turbo-2.0.90/rdtarga.c:350
  subtype = UCH(targaheader[2]);
    9bb8:	0f b6 5c 24 12       	movzbl 0x12(%rsp),%ebx
/home/tenebris/Disk/Racing-code/examples/23-libjpeg-divide-by-zero/libjpeg-turbo-2.0.90/rdtarga.c:352
  width = GET_2B(12);
    9bbd:	41 c1 e5 08          	shl    $0x8,%r13d
/home/tenebris/Disk/Racing-code/examples/23-libjpeg-divide-by-zero/libjpeg-turbo-2.0.90/rdtarga.c:351
  maplen = GET_2B(5);
    9bc1:	41 01 fc             	add    %edi,%r12d
/home/tenebris/Disk/Racing-code/examples/23-libjpeg-divide-by-zero/libjpeg-turbo-2.0.90/rdtarga.c:352
  width = GET_2B(12);
    9bc4:	0f b6 7c 24 1c       	movzbl 0x1c(%rsp),%edi
/home/tenebris/Disk/Racing-code/examples/23-libjpeg-divide-by-zero/libjpeg-turbo-2.0.90/rdtarga.c:353
  height = GET_2B(14);
    9bc9:	c1 e0 08             	shl    $0x8,%eax
/home/tenebris/Disk/Racing-code/examples/23-libjpeg-divide-by-zero/libjpeg-turbo-2.0.90/rdtarga.c:349
  cmaptype = UCH(targaheader[1]);
    9bcc:	44 0f b6 54 24 11    	movzbl 0x11(%rsp),%r10d
/home/tenebris/Disk/Racing-code/examples/23-libjpeg-divide-by-zero/libjpeg-turbo-2.0.90/rdtarga.c:348
  idlen = UCH(targaheader[0]);
    9bd2:	44 0f b6 7c 24 10    	movzbl 0x10(%rsp),%r15d
/home/tenebris/Disk/Racing-code/examples/23-libjpeg-divide-by-zero/libjpeg-turbo-2.0.90/rdtarga.c:352
  width = GET_2B(12);
    9bd8:	41 01 fd             	add    %edi,%r13d
/home/tenebris/Disk/Racing-code/examples/23-libjpeg-divide-by-zero/libjpeg-turbo-2.0.90/rdtarga.c:353
  height = GET_2B(14);
    9bdb:	0f b6 7c 24 1e       	movzbl 0x1e(%rsp),%edi
/home/tenebris/Disk/Racing-code/examples/23-libjpeg-divide-by-zero/libjpeg-turbo-2.0.90/rdtarga.c:349
  cmaptype = UCH(targaheader[1]);
    9be0:	44 89 54 24 0c       	mov    %r10d,0xc(%rsp)
/home/tenebris/Disk/Racing-code/examples/23-libjpeg-divide-by-zero/libjpeg-turbo-2.0.90/rdtarga.c:353
  height = GET_2B(14);
    9be5:	01 f8                	add    %edi,%eax
    9be7:	89 04 24             	mov    %eax,(%rsp)
/home/tenebris/Disk/Racing-code/examples/23-libjpeg-divide-by-zero/libjpeg-turbo-2.0.90/rdtarga.c:357
  is_bottom_up = ((flags & 0x20) == 0); /* bit 5 set => top-down */
    9bea:	89 c8                	mov    %ecx,%eax
    9bec:	83 e0 20             	and    $0x20,%eax
    9bef:	88 44 24 07          	mov    %al,0x7(%rsp)
/home/tenebris/Disk/Racing-code/examples/23-libjpeg-divide-by-zero/libjpeg-turbo-2.0.90/rdtarga.c:361
      source->pixel_size < 1 || source->pixel_size > 4 ||
    9bf3:	41 83 fa 01          	cmp    $0x1,%r10d
    9bf7:	7f 09                	jg     9c02 <start_input_tga+0xe2>
    9bf9:	40 84 f6             	test   %sil,%sil
    9bfc:	0f 84 be 03 00 00    	je     9fc0 <start_input_tga+0x4a0>
/home/tenebris/Disk/Racing-code/examples/23-libjpeg-divide-by-zero/libjpeg-turbo-2.0.90/rdtarga.c:365
    ERREXIT(cinfo, JERR_TGA_BADPARMS);
    9c02:	48 8b 55 00          	mov    0x0(%rbp),%rdx
    9c06:	48 89 ef             	mov    %rbp,%rdi
    9c09:	c7 42 28 0c 04 00 00 	movl   $0x40c,0x28(%rdx)
    9c10:	ff 12                	call   *(%rdx)
/home/tenebris/Disk/Racing-code/examples/23-libjpeg-divide-by-zero/libjpeg-turbo-2.0.90/rdtarga.c:374
    source->read_pixel = read_non_rle_pixel;
    9c12:	48 8d 15 c7 fd ff ff 	lea    -0x239(%rip),%rdx        # 99e0 <read_non_rle_pixel>
/home/tenebris/Disk/Racing-code/examples/23-libjpeg-divide-by-zero/libjpeg-turbo-2.0.90/rdtarga.c:367
  if (subtype > 8) {
    9c19:	83 fb 08             	cmp    $0x8,%ebx
    9c1c:	7e 12                	jle    9c30 <start_input_tga+0x110>
/home/tenebris/Disk/Racing-code/examples/23-libjpeg-divide-by-zero/libjpeg-turbo-2.0.90/rdtarga.c:370
    source->block_count = source->dup_pixel_count = 0;
    9c1e:	49 c7 46 64 00 00 00 	movq   $0x0,0x64(%r14)
    9c25:	00 
/home/tenebris/Disk/Racing-code/examples/23-libjpeg-divide-by-zero/libjpeg-turbo-2.0.90/rdtarga.c:371
    subtype -= 8;
    9c26:	83 eb 08             	sub    $0x8,%ebx
/home/tenebris/Disk/Racing-code/examples/23-libjpeg-divide-by-zero/libjpeg-turbo-2.0.90/rdtarga.c:369
    source->read_pixel = read_rle_pixel;
    9c29:	48 8d 15 20 fe ff ff 	lea    -0x1e0(%rip),%rdx        # 9a50 <read_rle_pixel>
    9c30:	49 89 56 50          	mov    %rdx,0x50(%r14)
/home/tenebris/Disk/Racing-code/examples/23-libjpeg-divide-by-zero/libjpeg-turbo-2.0.90/rdtarga.c:386
      ERREXIT(cinfo, JERR_TGA_BADPARMS);
    9c34:	48 8b 55 00          	mov    0x0(%rbp),%rdx
/home/tenebris/Disk/Racing-code/examples/23-libjpeg-divide-by-zero/libjpeg-turbo-2.0.90/rdtarga.c:379
  cinfo->in_color_space = JCS_RGB;
    9c38:	c7 45 3c 02 00 00 00 	movl   $0x2,0x3c(%rbp)
/home/tenebris/Disk/Racing-code/examples/23-libjpeg-divide-by-zero/libjpeg-turbo-2.0.90/rdtarga.c:381
  switch (subtype) {
    9c3f:	83 fb 02             	cmp    $0x2,%ebx
    9c42:	0f 84 48 03 00 00    	je     9f90 <start_input_tga+0x470>
    9c48:	83 fb 03             	cmp    $0x3,%ebx
    9c4b:	0f 84 ef 02 00 00    	je     9f40 <start_input_tga+0x420>
    9c51:	83 fb 01             	cmp    $0x1,%ebx
    9c54:	0f 84 96 02 00 00    	je     9ef0 <start_input_tga+0x3d0>
/home/tenebris/Disk/Racing-code/examples/23-libjpeg-divide-by-zero/libjpeg-turbo-2.0.90/rdtarga.c:416
    ERREXIT(cinfo, JERR_TGA_BADPARMS);
    9c5a:	c7 42 28 0c 04 00 00 	movl   $0x40c,0x28(%rdx)
    9c61:	48 89 ef             	mov    %rbp,%rdi
    9c64:	ff 12                	call   *(%rdx)
/home/tenebris/Disk/Racing-code/examples/23-libjpeg-divide-by-zero/libjpeg-turbo-2.0.90/rdtarga.c:378
  components = 3;               /* until proven different */
    9c66:	c7 44 24 08 03 00 00 	movl   $0x3,0x8(%rsp)
    9c6d:	00 
/home/tenebris/Disk/Racing-code/examples/23-libjpeg-divide-by-zero/libjpeg-turbo-2.0.90/rdtarga.c:422
    source->whole_image = (*cinfo->mem->request_virt_sarray)
    9c6e:	43 8d 54 6d 00       	lea    0x0(%r13,%r13,2),%edx
/home/tenebris/Disk/Racing-code/examples/23-libjpeg-divide-by-zero/libjpeg-turbo-2.0.90/rdtarga.c:420
  if (is_bottom_up) {
    9c73:	80 7c 24 07 00       	cmpb   $0x0,0x7(%rsp)
/home/tenebris/Disk/Racing-code/examples/23-libjpeg-divide-by-zero/libjpeg-turbo-2.0.90/rdtarga.c:422
    source->whole_image = (*cinfo->mem->request_virt_sarray)
    9c78:	48 8b 45 08          	mov    0x8(%rbp),%rax
/home/tenebris/Disk/Racing-code/examples/23-libjpeg-divide-by-zero/libjpeg-turbo-2.0.90/rdtarga.c:420
  if (is_bottom_up) {
    9c7c:	0f 85 5e 01 00 00    	jne    9de0 <start_input_tga+0x2c0>
/home/tenebris/Disk/Racing-code/examples/23-libjpeg-divide-by-zero/libjpeg-turbo-2.0.90/rdtarga.c:422
    source->whole_image = (*cinfo->mem->request_virt_sarray)
    9c82:	89 d1                	mov    %edx,%ecx
    9c84:	44 8b 04 24          	mov    (%rsp),%r8d
    9c88:	41 b9 01 00 00 00    	mov    $0x1,%r9d
    9c8e:	31 d2                	xor    %edx,%edx
    9c90:	be 01 00 00 00       	mov    $0x1,%esi
    9c95:	48 89 ef             	mov    %rbp,%rdi
    9c98:	ff 50 20             	call   *0x20(%rax)
    9c9b:	49 89 46 40          	mov    %rax,0x40(%r14)
/home/tenebris/Disk/Racing-code/examples/23-libjpeg-divide-by-zero/libjpeg-turbo-2.0.90/rdtarga.c:425
    if (cinfo->progress != NULL) {
    9c9f:	48 8b 45 10          	mov    0x10(%rbp),%rax
    9ca3:	48 85 c0             	test   %rax,%rax
    9ca6:	74 04                	je     9cac <start_input_tga+0x18c>
/home/tenebris/Disk/Racing-code/examples/23-libjpeg-divide-by-zero/libjpeg-turbo-2.0.90/rdtarga.c:427
      progress->total_extra_passes++; /* count file input as separate pass */
    9ca8:	83 40 24 01          	addl   $0x1,0x24(%rax)
/home/tenebris/Disk/Racing-code/examples/23-libjpeg-divide-by-zero/libjpeg-turbo-2.0.90/rdtarga.c:430
    source->pub.buffer_height = 1; /* in case anyone looks at it */
    9cac:	41 c7 46 28 01 00 00 	movl   $0x1,0x28(%r14)
    9cb3:	00 
/home/tenebris/Disk/Racing-code/examples/23-libjpeg-divide-by-zero/libjpeg-turbo-2.0.90/rdtarga.c:431
    source->pub.get_pixel_rows = preload_image;
    9cb4:	48 8d 05 f5 fb ff ff 	lea    -0x40b(%rip),%rax        # 98b0 <preload_image>
    9cbb:	49 89 46 08          	mov    %rax,0x8(%r14)
/home/tenebris/Disk/Racing-code/examples/23-libjpeg-divide-by-zero/libjpeg-turbo-2.0.90/rdtarga.c:442
  while (idlen--)               /* Throw away ID field */
    9cbf:	41 0f b6 df          	movzbl %r15b,%ebx
    9cc3:	45 84 ff             	test   %r15b,%r15b
    9cc6:	74 2b                	je     9cf3 <start_input_tga+0x1d3>
    9cc8:	0f 1f 84 00 00 00 00 	nopl   0x0(%rax,%rax,1)
    9ccf:	00 
read_byte():
/home/tenebris/Disk/Racing-code/examples/23-libjpeg-divide-by-zero/libjpeg-turbo-2.0.90/rdtarga.c:89
  if ((c = getc(infile)) == EOF)
    9cd0:	49 8b 7e 18          	mov    0x18(%r14),%rdi
    9cd4:	e8 97 87 ff ff       	call   2470 <getc@plt>
    9cd9:	83 f8 ff             	cmp    $0xffffffff,%eax
    9cdc:	75 10                	jne    9cee <start_input_tga+0x1ce>
    9cde:	49 8b 7e 30          	mov    0x30(%r14),%rdi
/home/tenebris/Disk/Racing-code/examples/23-libjpeg-divide-by-zero/libjpeg-turbo-2.0.90/rdtarga.c:90
    ERREXIT(sinfo->cinfo, JERR_INPUT_EOF);
    9ce2:	48 8b 07             	mov    (%rdi),%rax
    9ce5:	c7 40 28 2b 00 00 00 	movl   $0x2b,0x28(%rax)
    9cec:	ff 10                	call   *(%rax)
start_input_tga():
/home/tenebris/Disk/Racing-code/examples/23-libjpeg-divide-by-zero/libjpeg-turbo-2.0.90/rdtarga.c:442
  while (idlen--)               /* Throw away ID field */
    9cee:	83 eb 01             	sub    $0x1,%ebx
    9cf1:	75 dd                	jne    9cd0 <start_input_tga+0x1b0>
/home/tenebris/Disk/Racing-code/examples/23-libjpeg-divide-by-zero/libjpeg-turbo-2.0.90/rdtarga.c:445
  if (maplen > 0) {
    9cf3:	45 85 e4             	test   %r12d,%r12d
    9cf6:	0f 84 14 01 00 00    	je     9e10 <start_input_tga+0x2f0>
/home/tenebris/Disk/Racing-code/examples/23-libjpeg-divide-by-zero/libjpeg-turbo-2.0.90/rdtarga.c:446
    if (maplen > 256 || GET_2B(3) != 0)
    9cfc:	41 81 fc 00 01 00 00 	cmp    $0x100,%r12d
    9d03:	0f 86 5f 01 00 00    	jbe    9e68 <start_input_tga+0x348>
/home/tenebris/Disk/Racing-code/examples/23-libjpeg-divide-by-zero/libjpeg-turbo-2.0.90/rdtarga.c:447
      ERREXIT(cinfo, JERR_TGA_BADCMAP);
    9d09:	48 8b 45 00          	mov    0x0(%rbp),%rax
    9d0d:	48 89 ef             	mov    %rbp,%rdi
    9d10:	c7 40 28 0b 04 00 00 	movl   $0x40b,0x28(%rax)
    9d17:	ff 10                	call   *(%rax)
/home/tenebris/Disk/Racing-code/examples/23-libjpeg-divide-by-zero/libjpeg-turbo-2.0.90/rdtarga.c:449
    source->colormap = (*cinfo->mem->alloc_sarray)
    9d19:	48 8b 45 08          	mov    0x8(%rbp),%rax
    9d1d:	b9 03 00 00 00       	mov    $0x3,%ecx
    9d22:	44 89 e2             	mov    %r12d,%edx
    9d25:	48 89 ef             	mov    %rbp,%rdi
    9d28:	be 01 00 00 00       	mov    $0x1,%esi
    9d2d:	ff 50 10             	call   *0x10(%rax)
read_colormap():
/home/tenebris/Disk/Racing-code/examples/23-libjpeg-divide-by-zero/libjpeg-turbo-2.0.90/rdtarga.c:102
  if (mapentrysize != 24)
    9d30:	80 7c 24 17 18       	cmpb   $0x18,0x17(%rsp)
start_input_tga():
/home/tenebris/Disk/Racing-code/examples/23-libjpeg-divide-by-zero/libjpeg-turbo-2.0.90/rdtarga.c:451
    source->cmap_length = (int)maplen;
    9d35:	45 89 66 60          	mov    %r12d,0x60(%r14)
/home/tenebris/Disk/Racing-code/examples/23-libjpeg-divide-by-zero/libjpeg-turbo-2.0.90/rdtarga.c:449
    source->colormap = (*cinfo->mem->alloc_sarray)
    9d39:	49 89 46 38          	mov    %rax,0x38(%r14)
read_colormap():
/home/tenebris/Disk/Racing-code/examples/23-libjpeg-divide-by-zero/libjpeg-turbo-2.0.90/rdtarga.c:102
  if (mapentrysize != 24)
    9d3d:	74 10                	je     9d4f <start_input_tga+0x22f>
/home/tenebris/Disk/Racing-code/examples/23-libjpeg-divide-by-zero/libjpeg-turbo-2.0.90/rdtarga.c:103
    ERREXIT(sinfo->cinfo, JERR_TGA_BADCMAP);
    9d3f:	49 8b 7e 30          	mov    0x30(%r14),%rdi
    9d43:	48 8b 07             	mov    (%rdi),%rax
    9d46:	c7 40 28 0b 04 00 00 	movl   $0x40b,0x28(%rax)
    9d4d:	ff 10                	call   *(%rax)
start_input_tga():
/home/tenebris/Disk/Racing-code/examples/23-libjpeg-divide-by-zero/libjpeg-turbo-2.0.90/rdtarga.c:103
    9d4f:	31 db                	xor    %ebx,%ebx
    9d51:	0f 1f 80 00 00 00 00 	nopl   0x0(%rax)
read_byte():
/home/tenebris/Disk/Racing-code/examples/23-libjpeg-divide-by-zero/libjpeg-turbo-2.0.90/rdtarga.c:89
  if ((c = getc(infile)) == EOF)
    9d58:	49 8b 7e 18          	mov    0x18(%r14),%rdi
    9d5c:	e8 0f 87 ff ff       	call   2470 <getc@plt>
    9d61:	41 89 c7             	mov    %eax,%r15d
    9d64:	83 f8 ff             	cmp    $0xffffffff,%eax
    9d67:	75 10                	jne    9d79 <start_input_tga+0x259>
    9d69:	49 8b 7e 30          	mov    0x30(%r14),%rdi
/home/tenebris/Disk/Racing-code/examples/23-libjpeg-divide-by-zero/libjpeg-turbo-2.0.90/rdtarga.c:90
    ERREXIT(sinfo->cinfo, JERR_INPUT_EOF);
    9d6d:	48 8b 07             	mov    (%rdi),%rax
    9d70:	c7 40 28 2b 00 00 00 	movl   $0x2b,0x28(%rax)
    9d77:	ff 10                	call   *(%rax)
read_colormap():
/home/tenebris/Disk/Racing-code/examples/23-libjpeg-divide-by-zero/libjpeg-turbo-2.0.90/rdtarga.c:106
    sinfo->colormap[2][i] = (JSAMPLE)read_byte(sinfo);
    9d79:	49 8b 46 38          	mov    0x38(%r14),%rax
    9d7d:	48 8b 40 10          	mov    0x10(%rax),%rax
    9d81:	44 88 3c 18          	mov    %r15b,(%rax,%rbx,1)
read_byte():
/home/tenebris/Disk/Racing-code/examples/23-libjpeg-divide-by-zero/libjpeg-turbo-2.0.90/rdtarga.c:89
  if ((c = getc(infile)) == EOF)
    9d85:	49 8b 7e 18          	mov    0x18(%r14),%rdi
    9d89:	e8 e2 86 ff ff       	call   2470 <getc@plt>
    9d8e:	41 89 c7             	mov    %eax,%r15d
    9d91:	83 f8 ff             	cmp    $0xffffffff,%eax
    9d94:	75 10                	jne    9da6 <start_input_tga+0x286>
    9d96:	49 8b 7e 30          	mov    0x30(%r14),%rdi
/home/tenebris/Disk/Racing-code/examples/23-libjpeg-divide-by-zero/libjpeg-turbo-2.0.90/rdtarga.c:90
    ERREXIT(sinfo->cinfo, JERR_INPUT_EOF);
    9d9a:	48 8b 07             	mov    (%rdi),%rax
    9d9d:	c7 40 28 2b 00 00 00 	movl   $0x2b,0x28(%rax)
    9da4:	ff 10                	call   *(%rax)
read_colormap():
/home/tenebris/Disk/Racing-code/examples/23-libjpeg-divide-by-zero/libjpeg-turbo-2.0.90/rdtarga.c:107
    sinfo->colormap[1][i] = (JSAMPLE)read_byte(sinfo);
    9da6:	49 8b 46 38          	mov    0x38(%r14),%rax
    9daa:	48 8b 40 08          	mov    0x8(%rax),%rax
    9dae:	44 88 3c 18          	mov    %r15b,(%rax,%rbx,1)
read_byte():
/home/tenebris/Disk/Racing-code/examples/23-libjpeg-divide-by-zero/libjpeg-turbo-2.0.90/rdtarga.c:89
  if ((c = getc(infile)) == EOF)
    9db2:	49 8b 7e 18          	mov    0x18(%r14),%rdi
    9db6:	e8 b5 86 ff ff       	call   2470 <getc@plt>
    9dbb:	83 f8 ff             	cmp    $0xffffffff,%eax
    9dbe:	0f 84 dc 00 00 00    	je     9ea0 <start_input_tga+0x380>
read_colormap():
/home/tenebris/Disk/Racing-code/examples/23-libjpeg-divide-by-zero/libjpeg-turbo-2.0.90/rdtarga.c:108
    sinfo->colormap[0][i] = (JSAMPLE)read_byte(sinfo);
    9dc4:	49 8b 56 38          	mov    0x38(%r14),%rdx
    9dc8:	48 8b 12             	mov    (%rdx),%rdx
    9dcb:	88 04 1a             	mov    %al,(%rdx,%rbx,1)
/home/tenebris/Disk/Racing-code/examples/23-libjpeg-divide-by-zero/libjpeg-turbo-2.0.90/rdtarga.c:105
  for (i = 0; i < cmaplen; i++) {
    9dce:	48 83 c3 01          	add    $0x1,%rbx
    9dd2:	41 39 dc             	cmp    %ebx,%r12d
    9dd5:	7f 81                	jg     9d58 <start_input_tga+0x238>
    9dd7:	eb 4f                	jmp    9e28 <start_input_tga+0x308>
    9dd9:	0f 1f 80 00 00 00 00 	nopl   0x0(%rax)
start_input_tga():
/home/tenebris/Disk/Racing-code/examples/23-libjpeg-divide-by-zero/libjpeg-turbo-2.0.90/rdtarga.c:434
    source->whole_image = NULL;
    9de0:	49 c7 46 40 00 00 00 	movq   $0x0,0x40(%r14)
    9de7:	00 
/home/tenebris/Disk/Racing-code/examples/23-libjpeg-divide-by-zero/libjpeg-turbo-2.0.90/rdtarga.c:435
    source->pub.buffer = (*cinfo->mem->alloc_sarray)
    9de8:	b9 01 00 00 00       	mov    $0x1,%ecx
    9ded:	be 01 00 00 00       	mov    $0x1,%esi
    9df2:	48 89 ef             	mov    %rbp,%rdi
    9df5:	ff 50 10             	call   *0x10(%rax)
/home/tenebris/Disk/Racing-code/examples/23-libjpeg-divide-by-zero/libjpeg-turbo-2.0.90/rdtarga.c:438
    source->pub.buffer_height = 1;
    9df8:	41 c7 46 28 01 00 00 	movl   $0x1,0x28(%r14)
    9dff:	00 
/home/tenebris/Disk/Racing-code/examples/23-libjpeg-divide-by-zero/libjpeg-turbo-2.0.90/rdtarga.c:435
    source->pub.buffer = (*cinfo->mem->alloc_sarray)
    9e00:	49 89 46 20          	mov    %rax,0x20(%r14)
/home/tenebris/Disk/Racing-code/examples/23-libjpeg-divide-by-zero/libjpeg-turbo-2.0.90/rdtarga.c:439
    source->pub.get_pixel_rows = source->get_pixel_rows;
    9e04:	49 8b 46 70          	mov    0x70(%r14),%rax
    9e08:	e9 ae fe ff ff       	jmp    9cbb <start_input_tga+0x19b>
    9e0d:	0f 1f 00             	nopl   (%rax)
/home/tenebris/Disk/Racing-code/examples/23-libjpeg-divide-by-zero/libjpeg-turbo-2.0.90/rdtarga.c:455
    if (cmaptype)               /* but you promised a cmap! */
    9e10:	8b 44 24 0c          	mov    0xc(%rsp),%eax
    9e14:	85 c0                	test   %eax,%eax
    9e16:	75 70                	jne    9e88 <start_input_tga+0x368>
/home/tenebris/Disk/Racing-code/examples/23-libjpeg-divide-by-zero/libjpeg-turbo-2.0.90/rdtarga.c:457
    source->colormap = NULL;
    9e18:	49 c7 46 38 00 00 00 	movq   $0x0,0x38(%r14)
    9e1f:	00 
/home/tenebris/Disk/Racing-code/examples/23-libjpeg-divide-by-zero/libjpeg-turbo-2.0.90/rdtarga.c:458
    source->cmap_length = 0;
    9e20:	41 c7 46 60 00 00 00 	movl   $0x0,0x60(%r14)
    9e27:	00 
/home/tenebris/Disk/Racing-code/examples/23-libjpeg-divide-by-zero/libjpeg-turbo-2.0.90/rdtarga.c:461
  cinfo->input_components = components;
    9e28:	8b 44 24 08          	mov    0x8(%rsp),%eax
/home/tenebris/Disk/Racing-code/examples/23-libjpeg-divide-by-zero/libjpeg-turbo-2.0.90/rdtarga.c:462
  cinfo->data_precision = 8;
    9e2c:	c7 45 48 08 00 00 00 	movl   $0x8,0x48(%rbp)
/home/tenebris/Disk/Racing-code/examples/23-libjpeg-divide-by-zero/libjpeg-turbo-2.0.90/rdtarga.c:463
  cinfo->image_width = width;
    9e33:	44 89 6d 30          	mov    %r13d,0x30(%rbp)
/home/tenebris/Disk/Racing-code/examples/23-libjpeg-divide-by-zero/libjpeg-turbo-2.0.90/rdtarga.c:461
  cinfo->input_components = components;
    9e37:	89 45 38             	mov    %eax,0x38(%rbp)
/home/tenebris/Disk/Racing-code/examples/23-libjpeg-divide-by-zero/libjpeg-turbo-2.0.90/rdtarga.c:464
  cinfo->image_height = height;
    9e3a:	8b 04 24             	mov    (%rsp),%eax
    9e3d:	89 45 34             	mov    %eax,0x34(%rbp)
/home/tenebris/Disk/Racing-code/examples/23-libjpeg-divide-by-zero/libjpeg-turbo-2.0.90/rdtarga.c:465
}
    9e40:	48 8b 44 24 28       	mov    0x28(%rsp),%rax
    9e45:	64 48 2b 04 25 28 00 	sub    %fs:0x28,%rax
    9e4c:	00 00 
    9e4e:	0f 85 d2 01 00 00    	jne    a026 <start_input_tga+0x506>
    9e54:	48 83 c4 38          	add    $0x38,%rsp
    9e58:	5b                   	pop    %rbx
    9e59:	5d                   	pop    %rbp
    9e5a:	41 5c                	pop    %r12
    9e5c:	41 5d                	pop    %r13
    9e5e:	41 5e                	pop    %r14
    9e60:	41 5f                	pop    %r15
    9e62:	c3                   	ret    
    9e63:	0f 1f 44 00 00       	nopl   0x0(%rax,%rax,1)
/home/tenebris/Disk/Racing-code/examples/23-libjpeg-divide-by-zero/libjpeg-turbo-2.0.90/rdtarga.c:446 (discriminator 1)
    if (maplen > 256 || GET_2B(3) != 0)
    9e68:	0f b6 44 24 14       	movzbl 0x14(%rsp),%eax
    9e6d:	0f b6 54 24 13       	movzbl 0x13(%rsp),%edx
    9e72:	c1 e0 08             	shl    $0x8,%eax
    9e75:	01 d0                	add    %edx,%eax
    9e77:	0f 84 9c fe ff ff    	je     9d19 <start_input_tga+0x1f9>
    9e7d:	e9 87 fe ff ff       	jmp    9d09 <start_input_tga+0x1e9>
    9e82:	66 0f 1f 44 00 00    	nopw   0x0(%rax,%rax,1)
/home/tenebris/Disk/Racing-code/examples/23-libjpeg-divide-by-zero/libjpeg-turbo-2.0.90/rdtarga.c:456
      ERREXIT(cinfo, JERR_TGA_BADPARMS);
    9e88:	48 8b 45 00          	mov    0x0(%rbp),%rax
    9e8c:	48 89 ef             	mov    %rbp,%rdi
    9e8f:	c7 40 28 0c 04 00 00 	movl   $0x40c,0x28(%rax)
    9e96:	ff 10                	call   *(%rax)
    9e98:	e9 7b ff ff ff       	jmp    9e18 <start_input_tga+0x2f8>
    9e9d:	0f 1f 00             	nopl   (%rax)
    9ea0:	49 8b 7e 30          	mov    0x30(%r14),%rdi
read_byte():
/home/tenebris/Disk/Racing-code/examples/23-libjpeg-divide-by-zero/libjpeg-turbo-2.0.90/rdtarga.c:90
    ERREXIT(sinfo->cinfo, JERR_INPUT_EOF);
    9ea4:	48 8b 07             	mov    (%rdi),%rax
    9ea7:	c7 40 28 2b 00 00 00 	movl   $0x2b,0x28(%rax)
    9eae:	ff 10                	call   *(%rax)
read_colormap():
/home/tenebris/Disk/Racing-code/examples/23-libjpeg-divide-by-zero/libjpeg-turbo-2.0.90/rdtarga.c:108
    sinfo->colormap[0][i] = (JSAMPLE)read_byte(sinfo);
    9eb0:	49 8b 46 38          	mov    0x38(%r14),%rax
    9eb4:	48 8b 00             	mov    (%rax),%rax
    9eb7:	c6 04 18 ff          	movb   $0xff,(%rax,%rbx,1)
/home/tenebris/Disk/Racing-code/examples/23-libjpeg-divide-by-zero/libjpeg-turbo-2.0.90/rdtarga.c:105
  for (i = 0; i < cmaplen; i++) {
    9ebb:	48 83 c3 01          	add    $0x1,%rbx
    9ebf:	41 39 dc             	cmp    %ebx,%r12d
    9ec2:	0f 8f 90 fe ff ff    	jg     9d58 <start_input_tga+0x238>
    9ec8:	e9 5b ff ff ff       	jmp    9e28 <start_input_tga+0x308>
    9ecd:	0f 1f 00             	nopl   (%rax)
start_input_tga():
/home/tenebris/Disk/Racing-code/examples/23-libjpeg-divide-by-zero/libjpeg-turbo-2.0.90/rdtarga.c:346
    targaheader[16] = 16;
    9ed0:	c6 44 24 20 10       	movb   $0x10,0x20(%rsp)
    9ed5:	31 f6                	xor    %esi,%esi
    9ed7:	b9 02 00 00 00       	mov    $0x2,%ecx
    9edc:	ba 10 00 00 00       	mov    $0x10,%edx
    9ee1:	e9 af fc ff ff       	jmp    9b95 <start_input_tga+0x75>
    9ee6:	66 2e 0f 1f 84 00 00 	cs nopw 0x0(%rax,%rax,1)
    9eed:	00 00 00 
/home/tenebris/Disk/Racing-code/examples/23-libjpeg-divide-by-zero/libjpeg-turbo-2.0.90/rdtarga.c:383
    if (source->pixel_size == 1 && cmaptype == 1)
    9ef0:	41 83 7e 5c 01       	cmpl   $0x1,0x5c(%r14)
    9ef5:	75 0b                	jne    9f02 <start_input_tga+0x3e2>
    9ef7:	83 7c 24 0c 01       	cmpl   $0x1,0xc(%rsp)
    9efc:	0f 84 14 01 00 00    	je     a016 <start_input_tga+0x4f6>
/home/tenebris/Disk/Racing-code/examples/23-libjpeg-divide-by-zero/libjpeg-turbo-2.0.90/rdtarga.c:386
      ERREXIT(cinfo, JERR_TGA_BADPARMS);
    9f02:	c7 42 28 0c 04 00 00 	movl   $0x40c,0x28(%rdx)
    9f09:	48 89 ef             	mov    %rbp,%rdi
    9f0c:	ff 12                	call   *(%rdx)
    9f0e:	48 8b 55 00          	mov    0x0(%rbp),%rdx
/home/tenebris/Disk/Racing-code/examples/23-libjpeg-divide-by-zero/libjpeg-turbo-2.0.90/rdtarga.c:387
    TRACEMS2(cinfo, 1, JTRC_TGA_MAPPED, width, height);
    9f12:	c7 42 28 10 04 00 00 	movl   $0x410,0x28(%rdx)
/home/tenebris/Disk/Racing-code/examples/23-libjpeg-divide-by-zero/libjpeg-turbo-2.0.90/rdtarga.c:404
    TRACEMS2(cinfo, 1, JTRC_TGA, width, height);
    9f19:	8b 04 24             	mov    (%rsp),%eax
    9f1c:	44 89 6a 2c          	mov    %r13d,0x2c(%rdx)
    9f20:	be 01 00 00 00       	mov    $0x1,%esi
    9f25:	48 89 ef             	mov    %rbp,%rdi
    9f28:	89 42 30             	mov    %eax,0x30(%rdx)
    9f2b:	ff 52 08             	call   *0x8(%rdx)
/home/tenebris/Disk/Racing-code/examples/23-libjpeg-divide-by-zero/libjpeg-turbo-2.0.90/rdtarga.c:378
  components = 3;               /* until proven different */
    9f2e:	c7 44 24 08 03 00 00 	movl   $0x3,0x8(%rsp)
    9f35:	00 
/home/tenebris/Disk/Racing-code/examples/23-libjpeg-divide-by-zero/libjpeg-turbo-2.0.90/rdtarga.c:422
    source->whole_image = (*cinfo->mem->request_virt_sarray)
    9f36:	43 8d 54 6d 00       	lea    0x0(%r13,%r13,2),%edx
/home/tenebris/Disk/Racing-code/examples/23-libjpeg-divide-by-zero/libjpeg-turbo-2.0.90/rdtarga.c:405
    break;
    9f3b:	e9 33 fd ff ff       	jmp    9c73 <start_input_tga+0x153>
/home/tenebris/Disk/Racing-code/examples/23-libjpeg-divide-by-zero/libjpeg-turbo-2.0.90/rdtarga.c:409
    if (source->pixel_size == 1)
    9f40:	41 83 7e 5c 01       	cmpl   $0x1,0x5c(%r14)
/home/tenebris/Disk/Racing-code/examples/23-libjpeg-divide-by-zero/libjpeg-turbo-2.0.90/rdtarga.c:408
    cinfo->in_color_space = JCS_GRAYSCALE;
    9f45:	c7 45 3c 01 00 00 00 	movl   $0x1,0x3c(%rbp)
/home/tenebris/Disk/Racing-code/examples/23-libjpeg-divide-by-zero/libjpeg-turbo-2.0.90/rdtarga.c:409
    if (source->pixel_size == 1)
    9f4c:	0f 84 95 00 00 00    	je     9fe7 <start_input_tga+0x4c7>
/home/tenebris/Disk/Racing-code/examples/23-libjpeg-divide-by-zero/libjpeg-turbo-2.0.90/rdtarga.c:412
      ERREXIT(cinfo, JERR_TGA_BADPARMS);
    9f52:	c7 42 28 0c 04 00 00 	movl   $0x40c,0x28(%rdx)
    9f59:	48 89 ef             	mov    %rbp,%rdi
    9f5c:	ff 12                	call   *(%rdx)
    9f5e:	48 8b 55 00          	mov    0x0(%rbp),%rdx
/home/tenebris/Disk/Racing-code/examples/23-libjpeg-divide-by-zero/libjpeg-turbo-2.0.90/rdtarga.c:413
    TRACEMS2(cinfo, 1, JTRC_TGA_GRAY, width, height);
    9f62:	8b 04 24             	mov    (%rsp),%eax
    9f65:	44 89 6a 2c          	mov    %r13d,0x2c(%rdx)
    9f69:	be 01 00 00 00       	mov    $0x1,%esi
    9f6e:	48 89 ef             	mov    %rbp,%rdi
    9f71:	c7 42 28 0f 04 00 00 	movl   $0x40f,0x28(%rdx)
    9f78:	89 42 30             	mov    %eax,0x30(%rdx)
    9f7b:	ff 52 08             	call   *0x8(%rdx)
/home/tenebris/Disk/Racing-code/examples/23-libjpeg-divide-by-zero/libjpeg-turbo-2.0.90/rdtarga.c:407
    components = 1;
    9f7e:	c7 44 24 08 01 00 00 	movl   $0x1,0x8(%rsp)
    9f85:	00 
/home/tenebris/Disk/Racing-code/examples/23-libjpeg-divide-by-zero/libjpeg-turbo-2.0.90/rdtarga.c:352
  width = GET_2B(12);
    9f86:	44 89 ea             	mov    %r13d,%edx
/home/tenebris/Disk/Racing-code/examples/23-libjpeg-divide-by-zero/libjpeg-turbo-2.0.90/rdtarga.c:414
    break;
    9f89:	e9 e5 fc ff ff       	jmp    9c73 <start_input_tga+0x153>
    9f8e:	66 90                	xchg   %ax,%ax
/home/tenebris/Disk/Racing-code/examples/23-libjpeg-divide-by-zero/libjpeg-turbo-2.0.90/rdtarga.c:390
    switch (source->pixel_size) {
    9f90:	41 8b 46 5c          	mov    0x5c(%r14),%eax
    9f94:	83 f8 02             	cmp    $0x2,%eax
    9f97:	74 5e                	je     9ff7 <start_input_tga+0x4d7>
    9f99:	83 e8 03             	sub    $0x3,%eax
    9f9c:	83 f8 01             	cmp    $0x1,%eax
    9f9f:	77 63                	ja     a004 <start_input_tga+0x4e4>
/home/tenebris/Disk/Racing-code/examples/23-libjpeg-divide-by-zero/libjpeg-turbo-2.0.90/rdtarga.c:395
      source->get_pixel_rows = get_24bit_row;
    9fa1:	48 8d 05 78 f8 ff ff 	lea    -0x788(%rip),%rax        # 9820 <get_24bit_row>
    9fa8:	49 89 46 70          	mov    %rax,0x70(%r14)
/home/tenebris/Disk/Racing-code/examples/23-libjpeg-divide-by-zero/libjpeg-turbo-2.0.90/rdtarga.c:404
    TRACEMS2(cinfo, 1, JTRC_TGA, width, height);
    9fac:	c7 42 28 0e 04 00 00 	movl   $0x40e,0x28(%rdx)
    9fb3:	e9 61 ff ff ff       	jmp    9f19 <start_input_tga+0x3f9>
    9fb8:	0f 1f 84 00 00 00 00 	nopl   0x0(%rax,%rax,1)
    9fbf:	00 
/home/tenebris/Disk/Racing-code/examples/23-libjpeg-divide-by-zero/libjpeg-turbo-2.0.90/rdtarga.c:362
      (UCH(targaheader[16]) & 7) != 0 || /* bits/pixel must be multiple of 8 */
    9fc0:	83 e2 07             	and    $0x7,%edx
/home/tenebris/Disk/Racing-code/examples/23-libjpeg-divide-by-zero/libjpeg-turbo-2.0.90/rdtarga.c:358
  interlace_type = flags >> 6;  /* bits 6/7 are interlace code */
    9fc3:	c1 f9 06             	sar    $0x6,%ecx
/home/tenebris/Disk/Racing-code/examples/23-libjpeg-divide-by-zero/libjpeg-turbo-2.0.90/rdtarga.c:362
      (UCH(targaheader[16]) & 7) != 0 || /* bits/pixel must be multiple of 8 */
    9fc6:	09 ca                	or     %ecx,%edx
    9fc8:	0f 85 34 fc ff ff    	jne    9c02 <start_input_tga+0xe2>
/home/tenebris/Disk/Racing-code/examples/23-libjpeg-divide-by-zero/libjpeg-turbo-2.0.90/rdtarga.c:364
      width == 0 || height == 0)  /* image width/height must be non-zero */
    9fce:	45 85 ed             	test   %r13d,%r13d
    9fd1:	0f 84 2b fc ff ff    	je     9c02 <start_input_tga+0xe2>
    9fd7:	8b 14 24             	mov    (%rsp),%edx
    9fda:	85 d2                	test   %edx,%edx
    9fdc:	0f 85 30 fc ff ff    	jne    9c12 <start_input_tga+0xf2>
    9fe2:	e9 1b fc ff ff       	jmp    9c02 <start_input_tga+0xe2>
/home/tenebris/Disk/Racing-code/examples/23-libjpeg-divide-by-zero/libjpeg-turbo-2.0.90/rdtarga.c:410
      source->get_pixel_rows = get_8bit_gray_row;
    9fe7:	48 8d 05 b2 f6 ff ff 	lea    -0x94e(%rip),%rax        # 96a0 <get_8bit_gray_row>
    9fee:	49 89 46 70          	mov    %rax,0x70(%r14)
    9ff2:	e9 6b ff ff ff       	jmp    9f62 <start_input_tga+0x442>
/home/tenebris/Disk/Racing-code/examples/23-libjpeg-divide-by-zero/libjpeg-turbo-2.0.90/rdtarga.c:392
      source->get_pixel_rows = get_16bit_row;
    9ff7:	48 8d 05 92 f7 ff ff 	lea    -0x86e(%rip),%rax        # 9790 <get_16bit_row>
    9ffe:	49 89 46 70          	mov    %rax,0x70(%r14)
/home/tenebris/Disk/Racing-code/examples/23-libjpeg-divide-by-zero/libjpeg-turbo-2.0.90/rdtarga.c:393
      break;
    a002:	eb a8                	jmp    9fac <start_input_tga+0x48c>
/home/tenebris/Disk/Racing-code/examples/23-libjpeg-divide-by-zero/libjpeg-turbo-2.0.90/rdtarga.c:401
      ERREXIT(cinfo, JERR_TGA_BADPARMS);
    a004:	c7 42 28 0c 04 00 00 	movl   $0x40c,0x28(%rdx)
    a00b:	48 89 ef             	mov    %rbp,%rdi
    a00e:	ff 12                	call   *(%rdx)
/home/tenebris/Disk/Racing-code/examples/23-libjpeg-divide-by-zero/libjpeg-turbo-2.0.90/rdtarga.c:402
      break;
    a010:	48 8b 55 00          	mov    0x0(%rbp),%rdx
    a014:	eb 96                	jmp    9fac <start_input_tga+0x48c>
/home/tenebris/Disk/Racing-code/examples/23-libjpeg-divide-by-zero/libjpeg-turbo-2.0.90/rdtarga.c:384
      source->get_pixel_rows = get_8bit_row;
    a016:	48 8d 05 c3 f6 ff ff 	lea    -0x93d(%rip),%rax        # 96e0 <get_8bit_row>
    a01d:	49 89 46 70          	mov    %rax,0x70(%r14)
    a021:	e9 ec fe ff ff       	jmp    9f12 <start_input_tga+0x3f2>
/home/tenebris/Disk/Racing-code/examples/23-libjpeg-divide-by-zero/libjpeg-turbo-2.0.90/rdtarga.c:465
}
    a026:	e8 95 82 ff ff       	call   22c0 <__stack_chk_fail@plt>
    a02b:	0f 1f 44 00 00       	nopl   0x0(%rax,%rax,1)

000000000000a030 <jinit_read_targa>:
jinit_read_targa():
/home/tenebris/Disk/Racing-code/examples/23-libjpeg-divide-by-zero/libjpeg-turbo-2.0.90/rdtarga.c:485
 * The module selection routine for Targa format input.
 */

GLOBAL(cjpeg_source_ptr)
jinit_read_targa(j_compress_ptr cinfo)
{
    a030:	f3 0f 1e fa          	endbr64 
/home/tenebris/Disk/Racing-code/examples/23-libjpeg-divide-by-zero/libjpeg-turbo-2.0.90/rdtarga.c:490
  tga_source_ptr source;

  /* Create module interface object */
  source = (tga_source_ptr)
    (*cinfo->mem->alloc_small) ((j_common_ptr)cinfo, JPOOL_IMAGE,
    a034:	48 8b 47 08          	mov    0x8(%rdi),%rax
/home/tenebris/Disk/Racing-code/examples/23-libjpeg-divide-by-zero/libjpeg-turbo-2.0.90/rdtarga.c:485
{
    a038:	53                   	push   %rbx
/home/tenebris/Disk/Racing-code/examples/23-libjpeg-divide-by-zero/libjpeg-turbo-2.0.90/rdtarga.c:490
    (*cinfo->mem->alloc_small) ((j_common_ptr)cinfo, JPOOL_IMAGE,
    a039:	ba 78 00 00 00       	mov    $0x78,%edx
/home/tenebris/Disk/Racing-code/examples/23-libjpeg-divide-by-zero/libjpeg-turbo-2.0.90/rdtarga.c:485
{
    a03e:	48 89 fb             	mov    %rdi,%rbx
/home/tenebris/Disk/Racing-code/examples/23-libjpeg-divide-by-zero/libjpeg-turbo-2.0.90/rdtarga.c:490
    (*cinfo->mem->alloc_small) ((j_common_ptr)cinfo, JPOOL_IMAGE,
    a041:	be 01 00 00 00       	mov    $0x1,%esi
    a046:	ff 10                	call   *(%rax)
/home/tenebris/Disk/Racing-code/examples/23-libjpeg-divide-by-zero/libjpeg-turbo-2.0.90/rdtarga.c:494
                                sizeof(tga_source_struct));
  source->cinfo = cinfo;        /* make back link for subroutines */
  /* Fill in method ptrs, except get_pixel_rows which start_input sets */
  source->pub.start_input = start_input_tga;
    a048:	48 8d 0d d1 fa ff ff 	lea    -0x52f(%rip),%rcx        # 9b20 <start_input_tga>
/home/tenebris/Disk/Racing-code/examples/23-libjpeg-divide-by-zero/libjpeg-turbo-2.0.90/rdtarga.c:495
  source->pub.finish_input = finish_input_tga;
    a04f:	48 8d 15 7a f9 ff ff 	lea    -0x686(%rip),%rdx        # 99d0 <finish_input_tga>
/home/tenebris/Disk/Racing-code/examples/23-libjpeg-divide-by-zero/libjpeg-turbo-2.0.90/rdtarga.c:492
  source->cinfo = cinfo;        /* make back link for subroutines */
    a056:	48 89 58 30          	mov    %rbx,0x30(%rax)
/home/tenebris/Disk/Racing-code/examples/23-libjpeg-divide-by-zero/libjpeg-turbo-2.0.90/rdtarga.c:494
  source->pub.start_input = start_input_tga;
    a05a:	48 89 08             	mov    %rcx,(%rax)
/home/tenebris/Disk/Racing-code/examples/23-libjpeg-divide-by-zero/libjpeg-turbo-2.0.90/rdtarga.c:495
  source->pub.finish_input = finish_input_tga;
    a05d:	48 89 50 10          	mov    %rdx,0x10(%rax)
/home/tenebris/Disk/Racing-code/examples/23-libjpeg-divide-by-zero/libjpeg-turbo-2.0.90/rdtarga.c:498

  return (cjpeg_source_ptr)source;
}
    a061:	5b                   	pop    %rbx
    a062:	c3                   	ret    

Disassembly of section .fini:

000000000000a064 <_fini>:
_fini():
    a064:	f3 0f 1e fa          	endbr64 
    a068:	48 83 ec 08          	sub    $0x8,%rsp
    a06c:	48 83 c4 08          	add    $0x8,%rsp
    a070:	c3                   	ret    
