
cjpeg_heap_buffer_overflow_trace:     file format elf64-x86-64


Disassembly of section .init:

0000000000002000 <_init>:
_init():
    2000:	f3 0f 1e fa          	endbr64 
    2004:	48 83 ec 08          	sub    $0x8,%rsp
    2008:	48 8b 05 c9 af 00 00 	mov    0xafc9(%rip),%rax        # cfd8 <__gmon_start__@Base>
    200f:	48 85 c0             	test   %rax,%rax
    2012:	74 02                	je     2016 <_init+0x16>
    2014:	ff d0                	call   *%rax
    2016:	48 83 c4 08          	add    $0x8,%rsp
    201a:	c3                   	ret    

Disassembly of section .plt:

0000000000002020 <.plt>:
    2020:	ff 35 82 ae 00 00    	push   0xae82(%rip)        # cea8 <_GLOBAL_OFFSET_TABLE_+0x8>
    2026:	f2 ff 25 83 ae 00 00 	bnd jmp *0xae83(%rip)        # ceb0 <_GLOBAL_OFFSET_TABLE_+0x10>
    202d:	0f 1f 00             	nopl   (%rax)
    2030:	f3 0f 1e fa          	endbr64 
    2034:	68 00 00 00 00       	push   $0x0
    2039:	f2 e9 e1 ff ff ff    	bnd jmp 2020 <_init+0x20>
    203f:	90                   	nop
    2040:	f3 0f 1e fa          	endbr64 
    2044:	68 01 00 00 00       	push   $0x1
    2049:	f2 e9 d1 ff ff ff    	bnd jmp 2020 <_init+0x20>
    204f:	90                   	nop
    2050:	f3 0f 1e fa          	endbr64 
    2054:	68 02 00 00 00       	push   $0x2
    2059:	f2 e9 c1 ff ff ff    	bnd jmp 2020 <_init+0x20>
    205f:	90                   	nop
    2060:	f3 0f 1e fa          	endbr64 
    2064:	68 03 00 00 00       	push   $0x3
    2069:	f2 e9 b1 ff ff ff    	bnd jmp 2020 <_init+0x20>
    206f:	90                   	nop
    2070:	f3 0f 1e fa          	endbr64 
    2074:	68 04 00 00 00       	push   $0x4
    2079:	f2 e9 a1 ff ff ff    	bnd jmp 2020 <_init+0x20>
    207f:	90                   	nop
    2080:	f3 0f 1e fa          	endbr64 
    2084:	68 05 00 00 00       	push   $0x5
    2089:	f2 e9 91 ff ff ff    	bnd jmp 2020 <_init+0x20>
    208f:	90                   	nop
    2090:	f3 0f 1e fa          	endbr64 
    2094:	68 06 00 00 00       	push   $0x6
    2099:	f2 e9 81 ff ff ff    	bnd jmp 2020 <_init+0x20>
    209f:	90                   	nop
    20a0:	f3 0f 1e fa          	endbr64 
    20a4:	68 07 00 00 00       	push   $0x7
    20a9:	f2 e9 71 ff ff ff    	bnd jmp 2020 <_init+0x20>
    20af:	90                   	nop
    20b0:	f3 0f 1e fa          	endbr64 
    20b4:	68 08 00 00 00       	push   $0x8
    20b9:	f2 e9 61 ff ff ff    	bnd jmp 2020 <_init+0x20>
    20bf:	90                   	nop
    20c0:	f3 0f 1e fa          	endbr64 
    20c4:	68 09 00 00 00       	push   $0x9
    20c9:	f2 e9 51 ff ff ff    	bnd jmp 2020 <_init+0x20>
    20cf:	90                   	nop
    20d0:	f3 0f 1e fa          	endbr64 
    20d4:	68 0a 00 00 00       	push   $0xa
    20d9:	f2 e9 41 ff ff ff    	bnd jmp 2020 <_init+0x20>
    20df:	90                   	nop
    20e0:	f3 0f 1e fa          	endbr64 
    20e4:	68 0b 00 00 00       	push   $0xb
    20e9:	f2 e9 31 ff ff ff    	bnd jmp 2020 <_init+0x20>
    20ef:	90                   	nop
    20f0:	f3 0f 1e fa          	endbr64 
    20f4:	68 0c 00 00 00       	push   $0xc
    20f9:	f2 e9 21 ff ff ff    	bnd jmp 2020 <_init+0x20>
    20ff:	90                   	nop
    2100:	f3 0f 1e fa          	endbr64 
    2104:	68 0d 00 00 00       	push   $0xd
    2109:	f2 e9 11 ff ff ff    	bnd jmp 2020 <_init+0x20>
    210f:	90                   	nop
    2110:	f3 0f 1e fa          	endbr64 
    2114:	68 0e 00 00 00       	push   $0xe
    2119:	f2 e9 01 ff ff ff    	bnd jmp 2020 <_init+0x20>
    211f:	90                   	nop
    2120:	f3 0f 1e fa          	endbr64 
    2124:	68 0f 00 00 00       	push   $0xf
    2129:	f2 e9 f1 fe ff ff    	bnd jmp 2020 <_init+0x20>
    212f:	90                   	nop
    2130:	f3 0f 1e fa          	endbr64 
    2134:	68 10 00 00 00       	push   $0x10
    2139:	f2 e9 e1 fe ff ff    	bnd jmp 2020 <_init+0x20>
    213f:	90                   	nop
    2140:	f3 0f 1e fa          	endbr64 
    2144:	68 11 00 00 00       	push   $0x11
    2149:	f2 e9 d1 fe ff ff    	bnd jmp 2020 <_init+0x20>
    214f:	90                   	nop
    2150:	f3 0f 1e fa          	endbr64 
    2154:	68 12 00 00 00       	push   $0x12
    2159:	f2 e9 c1 fe ff ff    	bnd jmp 2020 <_init+0x20>
    215f:	90                   	nop
    2160:	f3 0f 1e fa          	endbr64 
    2164:	68 13 00 00 00       	push   $0x13
    2169:	f2 e9 b1 fe ff ff    	bnd jmp 2020 <_init+0x20>
    216f:	90                   	nop
    2170:	f3 0f 1e fa          	endbr64 
    2174:	68 14 00 00 00       	push   $0x14
    2179:	f2 e9 a1 fe ff ff    	bnd jmp 2020 <_init+0x20>
    217f:	90                   	nop
    2180:	f3 0f 1e fa          	endbr64 
    2184:	68 15 00 00 00       	push   $0x15
    2189:	f2 e9 91 fe ff ff    	bnd jmp 2020 <_init+0x20>
    218f:	90                   	nop
    2190:	f3 0f 1e fa          	endbr64 
    2194:	68 16 00 00 00       	push   $0x16
    2199:	f2 e9 81 fe ff ff    	bnd jmp 2020 <_init+0x20>
    219f:	90                   	nop
    21a0:	f3 0f 1e fa          	endbr64 
    21a4:	68 17 00 00 00       	push   $0x17
    21a9:	f2 e9 71 fe ff ff    	bnd jmp 2020 <_init+0x20>
    21af:	90                   	nop
    21b0:	f3 0f 1e fa          	endbr64 
    21b4:	68 18 00 00 00       	push   $0x18
    21b9:	f2 e9 61 fe ff ff    	bnd jmp 2020 <_init+0x20>
    21bf:	90                   	nop
    21c0:	f3 0f 1e fa          	endbr64 
    21c4:	68 19 00 00 00       	push   $0x19
    21c9:	f2 e9 51 fe ff ff    	bnd jmp 2020 <_init+0x20>
    21cf:	90                   	nop
    21d0:	f3 0f 1e fa          	endbr64 
    21d4:	68 1a 00 00 00       	push   $0x1a
    21d9:	f2 e9 41 fe ff ff    	bnd jmp 2020 <_init+0x20>
    21df:	90                   	nop
    21e0:	f3 0f 1e fa          	endbr64 
    21e4:	68 1b 00 00 00       	push   $0x1b
    21e9:	f2 e9 31 fe ff ff    	bnd jmp 2020 <_init+0x20>
    21ef:	90                   	nop
    21f0:	f3 0f 1e fa          	endbr64 
    21f4:	68 1c 00 00 00       	push   $0x1c
    21f9:	f2 e9 21 fe ff ff    	bnd jmp 2020 <_init+0x20>
    21ff:	90                   	nop
    2200:	f3 0f 1e fa          	endbr64 
    2204:	68 1d 00 00 00       	push   $0x1d
    2209:	f2 e9 11 fe ff ff    	bnd jmp 2020 <_init+0x20>
    220f:	90                   	nop
    2210:	f3 0f 1e fa          	endbr64 
    2214:	68 1e 00 00 00       	push   $0x1e
    2219:	f2 e9 01 fe ff ff    	bnd jmp 2020 <_init+0x20>
    221f:	90                   	nop
    2220:	f3 0f 1e fa          	endbr64 
    2224:	68 1f 00 00 00       	push   $0x1f
    2229:	f2 e9 f1 fd ff ff    	bnd jmp 2020 <_init+0x20>
    222f:	90                   	nop
    2230:	f3 0f 1e fa          	endbr64 
    2234:	68 20 00 00 00       	push   $0x20
    2239:	f2 e9 e1 fd ff ff    	bnd jmp 2020 <_init+0x20>
    223f:	90                   	nop
    2240:	f3 0f 1e fa          	endbr64 
    2244:	68 21 00 00 00       	push   $0x21
    2249:	f2 e9 d1 fd ff ff    	bnd jmp 2020 <_init+0x20>
    224f:	90                   	nop

Disassembly of section .plt.got:

0000000000002250 <__cxa_finalize@plt>:
    2250:	f3 0f 1e fa          	endbr64 
    2254:	f2 ff 25 8d ad 00 00 	bnd jmp *0xad8d(%rip)        # cfe8 <__cxa_finalize@GLIBC_2.2.5>
    225b:	0f 1f 44 00 00       	nopl   0x0(%rax,%rax,1)

Disassembly of section .plt.sec:

0000000000002260 <free@plt>:
    2260:	f3 0f 1e fa          	endbr64 
    2264:	f2 ff 25 4d ac 00 00 	bnd jmp *0xac4d(%rip)        # ceb8 <free@GLIBC_2.2.5>
    226b:	0f 1f 44 00 00       	nopl   0x0(%rax,%rax,1)

0000000000002270 <jpeg_default_colorspace@plt>:
    2270:	f3 0f 1e fa          	endbr64 
    2274:	f2 ff 25 45 ac 00 00 	bnd jmp *0xac45(%rip)        # cec0 <jpeg_default_colorspace@LIBJPEG_6.2>
    227b:	0f 1f 44 00 00       	nopl   0x0(%rax,%rax,1)

0000000000002280 <fread@plt>:
    2280:	f3 0f 1e fa          	endbr64 
    2284:	f2 ff 25 3d ac 00 00 	bnd jmp *0xac3d(%rip)        # cec8 <fread@GLIBC_2.2.5>
    228b:	0f 1f 44 00 00       	nopl   0x0(%rax,%rax,1)

0000000000002290 <jpeg_add_quant_table@plt>:
    2290:	f3 0f 1e fa          	endbr64 
    2294:	f2 ff 25 35 ac 00 00 	bnd jmp *0xac35(%rip)        # ced0 <jpeg_add_quant_table@LIBJPEG_6.2>
    229b:	0f 1f 44 00 00       	nopl   0x0(%rax,%rax,1)

00000000000022a0 <fclose@plt>:
    22a0:	f3 0f 1e fa          	endbr64 
    22a4:	f2 ff 25 2d ac 00 00 	bnd jmp *0xac2d(%rip)        # ced8 <fclose@GLIBC_2.2.5>
    22ab:	0f 1f 44 00 00       	nopl   0x0(%rax,%rax,1)

00000000000022b0 <__stack_chk_fail@plt>:
    22b0:	f3 0f 1e fa          	endbr64 
    22b4:	f2 ff 25 25 ac 00 00 	bnd jmp *0xac25(%rip)        # cee0 <__stack_chk_fail@GLIBC_2.4>
    22bb:	0f 1f 44 00 00       	nopl   0x0(%rax,%rax,1)

00000000000022c0 <jpeg_simple_progression@plt>:
    22c0:	f3 0f 1e fa          	endbr64 
    22c4:	f2 ff 25 1d ac 00 00 	bnd jmp *0xac1d(%rip)        # cee8 <jpeg_simple_progression@LIBJPEG_6.2>
    22cb:	0f 1f 44 00 00       	nopl   0x0(%rax,%rax,1)

00000000000022d0 <jpeg_std_error@plt>:
    22d0:	f3 0f 1e fa          	endbr64 
    22d4:	f2 ff 25 15 ac 00 00 	bnd jmp *0xac15(%rip)        # cef0 <jpeg_std_error@LIBJPEG_6.2>
    22db:	0f 1f 44 00 00       	nopl   0x0(%rax,%rax,1)

00000000000022e0 <ftell@plt>:
    22e0:	f3 0f 1e fa          	endbr64 
    22e4:	f2 ff 25 0d ac 00 00 	bnd jmp *0xac0d(%rip)        # cef8 <ftell@GLIBC_2.2.5>
    22eb:	0f 1f 44 00 00       	nopl   0x0(%rax,%rax,1)

00000000000022f0 <feof@plt>:
    22f0:	f3 0f 1e fa          	endbr64 
    22f4:	f2 ff 25 05 ac 00 00 	bnd jmp *0xac05(%rip)        # cf00 <feof@GLIBC_2.2.5>
    22fb:	0f 1f 44 00 00       	nopl   0x0(%rax,%rax,1)

0000000000002300 <jpeg_finish_compress@plt>:
    2300:	f3 0f 1e fa          	endbr64 
    2304:	f2 ff 25 fd ab 00 00 	bnd jmp *0xabfd(%rip)        # cf08 <jpeg_finish_compress@LIBJPEG_6.2>
    230b:	0f 1f 44 00 00       	nopl   0x0(%rax,%rax,1)

0000000000002310 <memcpy@plt>:
    2310:	f3 0f 1e fa          	endbr64 
    2314:	f2 ff 25 f5 ab 00 00 	bnd jmp *0xabf5(%rip)        # cf10 <memcpy@GLIBC_2.14>
    231b:	0f 1f 44 00 00       	nopl   0x0(%rax,%rax,1)

0000000000002320 <jpeg_CreateCompress@plt>:
    2320:	f3 0f 1e fa          	endbr64 
    2324:	f2 ff 25 ed ab 00 00 	bnd jmp *0xabed(%rip)        # cf18 <jpeg_CreateCompress@LIBJPEG_6.2>
    232b:	0f 1f 44 00 00       	nopl   0x0(%rax,%rax,1)

0000000000002330 <jpeg_quality_scaling@plt>:
    2330:	f3 0f 1e fa          	endbr64 
    2334:	f2 ff 25 e5 ab 00 00 	bnd jmp *0xabe5(%rip)        # cf20 <jpeg_quality_scaling@LIBJPEG_6.2>
    233b:	0f 1f 44 00 00       	nopl   0x0(%rax,%rax,1)

0000000000002340 <malloc@plt>:
    2340:	f3 0f 1e fa          	endbr64 
    2344:	f2 ff 25 dd ab 00 00 	bnd jmp *0xabdd(%rip)        # cf28 <malloc@GLIBC_2.2.5>
    234b:	0f 1f 44 00 00       	nopl   0x0(%rax,%rax,1)

0000000000002350 <__isoc99_sscanf@plt>:
    2350:	f3 0f 1e fa          	endbr64 
    2354:	f2 ff 25 d5 ab 00 00 	bnd jmp *0xabd5(%rip)        # cf30 <__isoc99_sscanf@GLIBC_2.7>
    235b:	0f 1f 44 00 00       	nopl   0x0(%rax,%rax,1)

0000000000002360 <jpeg_start_compress@plt>:
    2360:	f3 0f 1e fa          	endbr64 
    2364:	f2 ff 25 cd ab 00 00 	bnd jmp *0xabcd(%rip)        # cf38 <jpeg_start_compress@LIBJPEG_6.2>
    236b:	0f 1f 44 00 00       	nopl   0x0(%rax,%rax,1)

0000000000002370 <ungetc@plt>:
    2370:	f3 0f 1e fa          	endbr64 
    2374:	f2 ff 25 c5 ab 00 00 	bnd jmp *0xabc5(%rip)        # cf40 <ungetc@GLIBC_2.2.5>
    237b:	0f 1f 44 00 00       	nopl   0x0(%rax,%rax,1)

0000000000002380 <fseek@plt>:
    2380:	f3 0f 1e fa          	endbr64 
    2384:	f2 ff 25 bd ab 00 00 	bnd jmp *0xabbd(%rip)        # cf48 <fseek@GLIBC_2.2.5>
    238b:	0f 1f 44 00 00       	nopl   0x0(%rax,%rax,1)

0000000000002390 <jpeg_mem_dest@plt>:
    2390:	f3 0f 1e fa          	endbr64 
    2394:	f2 ff 25 b5 ab 00 00 	bnd jmp *0xabb5(%rip)        # cf50 <jpeg_mem_dest@LIBJPEGTURBO_6.2>
    239b:	0f 1f 44 00 00       	nopl   0x0(%rax,%rax,1)

00000000000023a0 <jpeg_set_defaults@plt>:
    23a0:	f3 0f 1e fa          	endbr64 
    23a4:	f2 ff 25 ad ab 00 00 	bnd jmp *0xabad(%rip)        # cf58 <jpeg_set_defaults@LIBJPEG_6.2>
    23ab:	0f 1f 44 00 00       	nopl   0x0(%rax,%rax,1)

00000000000023b0 <jpeg_stdio_dest@plt>:
    23b0:	f3 0f 1e fa          	endbr64 
    23b4:	f2 ff 25 a5 ab 00 00 	bnd jmp *0xaba5(%rip)        # cf60 <jpeg_stdio_dest@LIBJPEG_6.2>
    23bb:	0f 1f 44 00 00       	nopl   0x0(%rax,%rax,1)

00000000000023c0 <__fread_chk@plt>:
    23c0:	f3 0f 1e fa          	endbr64 
    23c4:	f2 ff 25 9d ab 00 00 	bnd jmp *0xab9d(%rip)        # cf68 <__fread_chk@GLIBC_2.7>
    23cb:	0f 1f 44 00 00       	nopl   0x0(%rax,%rax,1)

00000000000023d0 <jpeg_destroy_compress@plt>:
    23d0:	f3 0f 1e fa          	endbr64 
    23d4:	f2 ff 25 95 ab 00 00 	bnd jmp *0xab95(%rip)        # cf70 <jpeg_destroy_compress@LIBJPEG_6.2>
    23db:	0f 1f 44 00 00       	nopl   0x0(%rax,%rax,1)

00000000000023e0 <fopen@plt>:
    23e0:	f3 0f 1e fa          	endbr64 
    23e4:	f2 ff 25 8d ab 00 00 	bnd jmp *0xab8d(%rip)        # cf78 <fopen@GLIBC_2.2.5>
    23eb:	0f 1f 44 00 00       	nopl   0x0(%rax,%rax,1)

00000000000023f0 <jpeg_write_icc_profile@plt>:
    23f0:	f3 0f 1e fa          	endbr64 
    23f4:	f2 ff 25 85 ab 00 00 	bnd jmp *0xab85(%rip)        # cf80 <jpeg_write_icc_profile@LIBJPEG_6.2>
    23fb:	0f 1f 44 00 00       	nopl   0x0(%rax,%rax,1)

0000000000002400 <jpeg_write_scanlines@plt>:
    2400:	f3 0f 1e fa          	endbr64 
    2404:	f2 ff 25 7d ab 00 00 	bnd jmp *0xab7d(%rip)        # cf88 <jpeg_write_scanlines@LIBJPEG_6.2>
    240b:	0f 1f 44 00 00       	nopl   0x0(%rax,%rax,1)

0000000000002410 <exit@plt>:
    2410:	f3 0f 1e fa          	endbr64 
    2414:	f2 ff 25 75 ab 00 00 	bnd jmp *0xab75(%rip)        # cf90 <exit@GLIBC_2.2.5>
    241b:	0f 1f 44 00 00       	nopl   0x0(%rax,%rax,1)

0000000000002420 <fwrite@plt>:
    2420:	f3 0f 1e fa          	endbr64 
    2424:	f2 ff 25 6d ab 00 00 	bnd jmp *0xab6d(%rip)        # cf98 <fwrite@GLIBC_2.2.5>
    242b:	0f 1f 44 00 00       	nopl   0x0(%rax,%rax,1)

0000000000002430 <__fprintf_chk@plt>:
    2430:	f3 0f 1e fa          	endbr64 
    2434:	f2 ff 25 65 ab 00 00 	bnd jmp *0xab65(%rip)        # cfa0 <__fprintf_chk@GLIBC_2.3.4>
    243b:	0f 1f 44 00 00       	nopl   0x0(%rax,%rax,1)

0000000000002440 <jpeg_set_colorspace@plt>:
    2440:	f3 0f 1e fa          	endbr64 
    2444:	f2 ff 25 5d ab 00 00 	bnd jmp *0xab5d(%rip)        # cfa8 <jpeg_set_colorspace@LIBJPEG_6.2>
    244b:	0f 1f 44 00 00       	nopl   0x0(%rax,%rax,1)

0000000000002450 <getc@plt>:
    2450:	f3 0f 1e fa          	endbr64 
    2454:	f2 ff 25 55 ab 00 00 	bnd jmp *0xab55(%rip)        # cfb0 <getc@GLIBC_2.2.5>
    245b:	0f 1f 44 00 00       	nopl   0x0(%rax,%rax,1)

0000000000002460 <__ctype_tolower_loc@plt>:
    2460:	f3 0f 1e fa          	endbr64 
    2464:	f2 ff 25 4d ab 00 00 	bnd jmp *0xab4d(%rip)        # cfb8 <__ctype_tolower_loc@GLIBC_2.3>
    246b:	0f 1f 44 00 00       	nopl   0x0(%rax,%rax,1)

0000000000002470 <__ctype_b_loc@plt>:
    2470:	f3 0f 1e fa          	endbr64 
    2474:	f2 ff 25 45 ab 00 00 	bnd jmp *0xab45(%rip)        # cfc0 <__ctype_b_loc@GLIBC_2.3>
    247b:	0f 1f 44 00 00       	nopl   0x0(%rax,%rax,1)

Disassembly of section .text:

0000000000002480 <main.cold>:
select_file_type():
/home/tenebris/Disk/Documents/RootCauseAnalysis/evaluation/test_bin/libjpeg/libjpeg_heap_buffer_overflow/libjpeg-turbo/cjpeg.c:129
#ifdef TARGA_SUPPORTED
  case 0x00:
    return jinit_read_targa(cinfo);
#endif
  default:
    ERREXIT(cinfo, JERR_UNKNOWN_FORMAT);
    2480:	48 8b 84 24 d0 00 00 	mov    0xd0(%rsp),%rax
    2487:	00 
    2488:	48 89 ef             	mov    %rbp,%rdi
    248b:	c7 40 28 13 04 00 00 	movl   $0x413,0x28(%rax)
    2492:	ff 10                	call   *(%rax)
main():
/home/tenebris/Disk/Documents/RootCauseAnalysis/evaluation/test_bin/libjpeg/libjpeg_heap_buffer_overflow/libjpeg-turbo/cjpeg.c:637
  start_progress_monitor((j_common_ptr)&cinfo, &progress);
#endif

  /* Figure out the input file format, and set up to read it. */
  src_mgr = select_file_type(&cinfo, input_file);
  src_mgr->input_file = input_file;
    2494:	48 8b 04 24          	mov    (%rsp),%rax
    2498:	48 89 04 25 18 00 00 	mov    %rax,0x18
    249f:	00 
    24a0:	0f 0b                	ud2    
main.cold():
    24a2:	66 2e 0f 1f 84 00 00 	cs nopw 0x0(%rax,%rax,1)
    24a9:	00 00 00 
    24ac:	0f 1f 40 00          	nopl   0x0(%rax)

00000000000024b0 <main>:
main():
/home/tenebris/Disk/Documents/RootCauseAnalysis/evaluation/test_bin/libjpeg/libjpeg_heap_buffer_overflow/libjpeg-turbo/cjpeg.c:505
{
    24b0:	f3 0f 1e fa          	endbr64 
    24b4:	41 57                	push   %r15
    24b6:	41 56                	push   %r14
    24b8:	41 55                	push   %r13
    24ba:	49 89 f5             	mov    %rsi,%r13
    24bd:	41 54                	push   %r12
    24bf:	41 89 fc             	mov    %edi,%r12d
    24c2:	55                   	push   %rbp
    24c3:	53                   	push   %rbx
    24c4:	48 81 ec e8 02 00 00 	sub    $0x2e8,%rsp
    24cb:	64 48 8b 04 25 28 00 	mov    %fs:0x28,%rax
    24d2:	00 00 
    24d4:	48 89 84 24 d8 02 00 	mov    %rax,0x2d8(%rsp)
    24db:	00 
    24dc:	31 c0                	xor    %eax,%eax
/home/tenebris/Disk/Documents/RootCauseAnalysis/evaluation/test_bin/libjpeg/libjpeg_heap_buffer_overflow/libjpeg-turbo/cjpeg.c:527
  progname = argv[0];
    24de:	48 8b 06             	mov    (%rsi),%rax
/home/tenebris/Disk/Documents/RootCauseAnalysis/evaluation/test_bin/libjpeg/libjpeg_heap_buffer_overflow/libjpeg-turbo/cjpeg.c:518
  unsigned char *outbuffer = NULL;
    24e1:	48 c7 44 24 10 00 00 	movq   $0x0,0x10(%rsp)
    24e8:	00 00 
/home/tenebris/Disk/Documents/RootCauseAnalysis/evaluation/test_bin/libjpeg/libjpeg_heap_buffer_overflow/libjpeg-turbo/cjpeg.c:519
  unsigned long outsize = 0;
    24ea:	48 c7 44 24 18 00 00 	movq   $0x0,0x18(%rsp)
    24f1:	00 00 
/home/tenebris/Disk/Documents/RootCauseAnalysis/evaluation/test_bin/libjpeg/libjpeg_heap_buffer_overflow/libjpeg-turbo/cjpeg.c:527
  progname = argv[0];
    24f3:	48 89 05 6e ab 00 00 	mov    %rax,0xab6e(%rip)        # d068 <progname>
/home/tenebris/Disk/Documents/RootCauseAnalysis/evaluation/test_bin/libjpeg/libjpeg_heap_buffer_overflow/libjpeg-turbo/cjpeg.c:528
  if (progname == NULL || progname[0] == 0)
    24fa:	48 85 c0             	test   %rax,%rax
    24fd:	0f 84 50 01 00 00    	je     2653 <main+0x1a3>
/home/tenebris/Disk/Documents/RootCauseAnalysis/evaluation/test_bin/libjpeg/libjpeg_heap_buffer_overflow/libjpeg-turbo/cjpeg.c:528 (discriminator 1)
    2503:	80 38 00             	cmpb   $0x0,(%rax)
    2506:	0f 84 47 01 00 00    	je     2653 <main+0x1a3>
/home/tenebris/Disk/Documents/RootCauseAnalysis/evaluation/test_bin/libjpeg/libjpeg_heap_buffer_overflow/libjpeg-turbo/cjpeg.c:533
  jpeg_create_compress(&cinfo);
    250c:	48 8d ac 24 d0 00 00 	lea    0xd0(%rsp),%rbp
    2513:	00 
/home/tenebris/Disk/Documents/RootCauseAnalysis/evaluation/test_bin/libjpeg/libjpeg_heap_buffer_overflow/libjpeg-turbo/cjpeg.c:532
  cinfo.err = jpeg_std_error(&jerr);
    2514:	48 8d 7c 24 20       	lea    0x20(%rsp),%rdi
    2519:	e8 b2 fd ff ff       	call   22d0 <jpeg_std_error@plt>
/home/tenebris/Disk/Documents/RootCauseAnalysis/evaluation/test_bin/libjpeg/libjpeg_heap_buffer_overflow/libjpeg-turbo/cjpeg.c:533
  jpeg_create_compress(&cinfo);
    251e:	ba 08 02 00 00       	mov    $0x208,%edx
    2523:	be 3e 00 00 00       	mov    $0x3e,%esi
    2528:	48 89 ef             	mov    %rbp,%rdi
/home/tenebris/Disk/Documents/RootCauseAnalysis/evaluation/test_bin/libjpeg/libjpeg_heap_buffer_overflow/libjpeg-turbo/cjpeg.c:532
  cinfo.err = jpeg_std_error(&jerr);
    252b:	48 89 84 24 d0 00 00 	mov    %rax,0xd0(%rsp)
    2532:	00 
/home/tenebris/Disk/Documents/RootCauseAnalysis/evaluation/test_bin/libjpeg/libjpeg_heap_buffer_overflow/libjpeg-turbo/cjpeg.c:533
  jpeg_create_compress(&cinfo);
    2533:	e8 e8 fd ff ff       	call   2320 <jpeg_CreateCompress@plt>
/home/tenebris/Disk/Documents/RootCauseAnalysis/evaluation/test_bin/libjpeg/libjpeg_heap_buffer_overflow/libjpeg-turbo/cjpeg.c:535
  jerr.addon_message_table = cdjpeg_message_table;
    2538:	48 8d 05 e1 a5 00 00 	lea    0xa5e1(%rip),%rax        # cb20 <cdjpeg_message_table>
/home/tenebris/Disk/Documents/RootCauseAnalysis/evaluation/test_bin/libjpeg/libjpeg_heap_buffer_overflow/libjpeg-turbo/cjpeg.c:546
  jpeg_set_defaults(&cinfo);
    253f:	48 89 ef             	mov    %rbp,%rdi
/home/tenebris/Disk/Documents/RootCauseAnalysis/evaluation/test_bin/libjpeg/libjpeg_heap_buffer_overflow/libjpeg-turbo/cjpeg.c:545
  cinfo.in_color_space = JCS_RGB; /* arbitrary guess */
    2542:	c7 84 24 0c 01 00 00 	movl   $0x2,0x10c(%rsp)
    2549:	02 00 00 00 
/home/tenebris/Disk/Documents/RootCauseAnalysis/evaluation/test_bin/libjpeg/libjpeg_heap_buffer_overflow/libjpeg-turbo/cjpeg.c:535
  jerr.addon_message_table = cdjpeg_message_table;
    254d:	48 89 84 24 b8 00 00 	mov    %rax,0xb8(%rsp)
    2554:	00 
/home/tenebris/Disk/Documents/RootCauseAnalysis/evaluation/test_bin/libjpeg/libjpeg_heap_buffer_overflow/libjpeg-turbo/cjpeg.c:536
  jerr.first_addon_message = JMSG_FIRSTADDONCODE;
    2555:	48 8b 05 6c 7a 00 00 	mov    0x7a6c(%rip),%rax        # 9fc8 <_IO_stdin_used+0xfc8>
    255c:	48 89 84 24 c0 00 00 	mov    %rax,0xc0(%rsp)
    2563:	00 
/home/tenebris/Disk/Documents/RootCauseAnalysis/evaluation/test_bin/libjpeg/libjpeg_heap_buffer_overflow/libjpeg-turbo/cjpeg.c:546
  jpeg_set_defaults(&cinfo);
    2564:	e8 37 fe ff ff       	call   23a0 <jpeg_set_defaults@plt>
/home/tenebris/Disk/Documents/RootCauseAnalysis/evaluation/test_bin/libjpeg/libjpeg_heap_buffer_overflow/libjpeg-turbo/cjpeg.c:554
  file_index = parse_switches(&cinfo, argc, argv, 0, FALSE);
    2569:	4c 89 ea             	mov    %r13,%rdx
    256c:	31 c9                	xor    %ecx,%ecx
    256e:	44 89 e6             	mov    %r12d,%esi
    2571:	48 89 ef             	mov    %rbp,%rdi
    2574:	e8 17 09 00 00       	call   2e90 <parse_switches.constprop.0>
/home/tenebris/Disk/Documents/RootCauseAnalysis/evaluation/test_bin/libjpeg/libjpeg_heap_buffer_overflow/libjpeg-turbo/cjpeg.c:576
  if (file_index < argc - 1) {
    2579:	41 8d 54 24 ff       	lea    -0x1(%r12),%edx
    257e:	39 c2                	cmp    %eax,%edx
    2580:	0f 8f 2f 01 00 00    	jg     26b5 <main+0x205>
/home/tenebris/Disk/Documents/RootCauseAnalysis/evaluation/test_bin/libjpeg/libjpeg_heap_buffer_overflow/libjpeg-turbo/cjpeg.c:583
  if (file_index < argc) {
    2586:	41 39 c4             	cmp    %eax,%r12d
    2589:	0f 8f d7 00 00 00    	jg     2666 <main+0x1b6>
/home/tenebris/Disk/Documents/RootCauseAnalysis/evaluation/test_bin/libjpeg/libjpeg_heap_buffer_overflow/libjpeg-turbo/cjpeg.c:590
    input_file = read_stdin();
    258f:	e8 0c 15 00 00       	call   3aa0 <read_stdin>
    2594:	48 89 04 24          	mov    %rax,(%rsp)
/home/tenebris/Disk/Documents/RootCauseAnalysis/evaluation/test_bin/libjpeg/libjpeg_heap_buffer_overflow/libjpeg-turbo/cjpeg.c:594
  if (outfilename != NULL) {
    2598:	4c 8b 35 b9 aa 00 00 	mov    0xaab9(%rip),%r14        # d058 <outfilename>
    259f:	4d 85 f6             	test   %r14,%r14
    25a2:	0f 84 33 01 00 00    	je     26db <main+0x22b>
/home/tenebris/Disk/Documents/RootCauseAnalysis/evaluation/test_bin/libjpeg/libjpeg_heap_buffer_overflow/libjpeg-turbo/cjpeg.c:595
    if ((output_file = fopen(outfilename, WRITE_BINARY)) == NULL) {
    25a8:	4c 89 f7             	mov    %r14,%rdi
    25ab:	48 8d 35 06 6c 00 00 	lea    0x6c06(%rip),%rsi        # 91b8 <_IO_stdin_used+0x1b8>
    25b2:	e8 29 fe ff ff       	call   23e0 <fopen@plt>
fprintf():
/usr/include/x86_64-linux-gnu/bits/stdio2.h:105

# ifdef __va_arg_pack
__fortify_function int
fprintf (FILE *__restrict __stream, const char *__restrict __fmt, ...)
{
  return __fprintf_chk (__stream, __USE_FORTIFY_LEVEL - 1, __fmt,
    25b7:	4c 8b 05 9a aa 00 00 	mov    0xaa9a(%rip),%r8        # d058 <outfilename>
main():
/home/tenebris/Disk/Documents/RootCauseAnalysis/evaluation/test_bin/libjpeg/libjpeg_heap_buffer_overflow/libjpeg-turbo/cjpeg.c:595
    25be:	49 89 c6             	mov    %rax,%r14
    25c1:	48 85 c0             	test   %rax,%rax
    25c4:	0f 84 0b 04 00 00    	je     29d5 <main+0x525>
/home/tenebris/Disk/Documents/RootCauseAnalysis/evaluation/test_bin/libjpeg/libjpeg_heap_buffer_overflow/libjpeg-turbo/cjpeg.c:604
  if (icc_filename != NULL) {
    25ca:	48 8b 1d 8f aa 00 00 	mov    0xaa8f(%rip),%rbx        # d060 <icc_filename>
    25d1:	48 85 db             	test   %rbx,%rbx
    25d4:	0f 84 1b 01 00 00    	je     26f5 <main+0x245>
/home/tenebris/Disk/Documents/RootCauseAnalysis/evaluation/test_bin/libjpeg/libjpeg_heap_buffer_overflow/libjpeg-turbo/cjpeg.c:605
    if ((icc_file = fopen(icc_filename, READ_BINARY)) == NULL) {
    25da:	48 8d 35 c1 6b 00 00 	lea    0x6bc1(%rip),%rsi        # 91a2 <_IO_stdin_used+0x1a2>
    25e1:	48 89 df             	mov    %rbx,%rdi
    25e4:	e8 f7 fd ff ff       	call   23e0 <fopen@plt>
    25e9:	49 89 c7             	mov    %rax,%r15
    25ec:	48 85 c0             	test   %rax,%rax
    25ef:	0f 84 d9 03 00 00    	je     29ce <main+0x51e>
/home/tenebris/Disk/Documents/RootCauseAnalysis/evaluation/test_bin/libjpeg/libjpeg_heap_buffer_overflow/libjpeg-turbo/cjpeg.c:609
    if (fseek(icc_file, 0, SEEK_END) < 0 ||
    25f5:	31 f6                	xor    %esi,%esi
    25f7:	ba 02 00 00 00       	mov    $0x2,%edx
    25fc:	48 89 c7             	mov    %rax,%rdi
    25ff:	e8 7c fd ff ff       	call   2380 <fseek@plt>
    2604:	85 c0                	test   %eax,%eax
    2606:	78 19                	js     2621 <main+0x171>
/home/tenebris/Disk/Documents/RootCauseAnalysis/evaluation/test_bin/libjpeg/libjpeg_heap_buffer_overflow/libjpeg-turbo/cjpeg.c:610 (discriminator 1)
        (icc_len = ftell(icc_file)) < 1 ||
    2608:	4c 89 ff             	mov    %r15,%rdi
    260b:	e8 d0 fc ff ff       	call   22e0 <ftell@plt>
    2610:	48 89 44 24 08       	mov    %rax,0x8(%rsp)
    2615:	48 89 c3             	mov    %rax,%rbx
/home/tenebris/Disk/Documents/RootCauseAnalysis/evaluation/test_bin/libjpeg/libjpeg_heap_buffer_overflow/libjpeg-turbo/cjpeg.c:609 (discriminator 1)
    if (fseek(icc_file, 0, SEEK_END) < 0 ||
    2618:	48 85 c0             	test   %rax,%rax
    261b:	0f 8f 3d 01 00 00    	jg     275e <main+0x2ae>
fprintf():
/usr/include/x86_64-linux-gnu/bits/stdio2.h:105
    2621:	4c 8b 05 38 aa 00 00 	mov    0xaa38(%rip),%r8        # d060 <icc_filename>
    2628:	48 8b 0d 39 aa 00 00 	mov    0xaa39(%rip),%rcx        # d068 <progname>
    262f:	48 8d 15 32 75 00 00 	lea    0x7532(%rip),%rdx        # 9b68 <_IO_stdin_used+0xb68>
    2636:	48 8b 3d 03 aa 00 00 	mov    0xaa03(%rip),%rdi        # d040 <stderr@GLIBC_2.2.5>
    263d:	be 01 00 00 00       	mov    $0x1,%esi
    2642:	31 c0                	xor    %eax,%eax
    2644:	e8 e7 fd ff ff       	call   2430 <__fprintf_chk@plt>
main():
/home/tenebris/Disk/Documents/RootCauseAnalysis/evaluation/test_bin/libjpeg/libjpeg_heap_buffer_overflow/libjpeg-turbo/cjpeg.c:607
      exit(EXIT_FAILURE);
    2649:	bf 01 00 00 00       	mov    $0x1,%edi
    264e:	e8 bd fd ff ff       	call   2410 <exit@plt>
/home/tenebris/Disk/Documents/RootCauseAnalysis/evaluation/test_bin/libjpeg/libjpeg_heap_buffer_overflow/libjpeg-turbo/cjpeg.c:529
    progname = "cjpeg";         /* in case C library doesn't provide it */
    2653:	48 8d 05 29 6b 00 00 	lea    0x6b29(%rip),%rax        # 9183 <_IO_stdin_used+0x183>
    265a:	48 89 05 07 aa 00 00 	mov    %rax,0xaa07(%rip)        # d068 <progname>
    2661:	e9 a6 fe ff ff       	jmp    250c <main+0x5c>
/home/tenebris/Disk/Documents/RootCauseAnalysis/evaluation/test_bin/libjpeg/libjpeg_heap_buffer_overflow/libjpeg-turbo/cjpeg.c:584
    if ((input_file = fopen(argv[file_index], READ_BINARY)) == NULL) {
    2666:	48 98                	cltq   
    2668:	48 8d 35 33 6b 00 00 	lea    0x6b33(%rip),%rsi        # 91a2 <_IO_stdin_used+0x1a2>
    266f:	49 8d 5c c5 00       	lea    0x0(%r13,%rax,8),%rbx
    2674:	48 8b 3b             	mov    (%rbx),%rdi
    2677:	e8 64 fd ff ff       	call   23e0 <fopen@plt>
    267c:	48 89 04 24          	mov    %rax,(%rsp)
    2680:	48 85 c0             	test   %rax,%rax
    2683:	0f 85 0f ff ff ff    	jne    2598 <main+0xe8>
fprintf():
/usr/include/x86_64-linux-gnu/bits/stdio2.h:105
    2689:	48 8b 3d b0 a9 00 00 	mov    0xa9b0(%rip),%rdi        # d040 <stderr@GLIBC_2.2.5>
    2690:	4c 8b 03             	mov    (%rbx),%r8
    2693:	48 8d 15 0b 6b 00 00 	lea    0x6b0b(%rip),%rdx        # 91a5 <_IO_stdin_used+0x1a5>
    269a:	be 01 00 00 00       	mov    $0x1,%esi
    269f:	48 8b 0d c2 a9 00 00 	mov    0xa9c2(%rip),%rcx        # d068 <progname>
    26a6:	e8 85 fd ff ff       	call   2430 <__fprintf_chk@plt>
main():
/home/tenebris/Disk/Documents/RootCauseAnalysis/evaluation/test_bin/libjpeg/libjpeg_heap_buffer_overflow/libjpeg-turbo/cjpeg.c:586
      exit(EXIT_FAILURE);
    26ab:	bf 01 00 00 00       	mov    $0x1,%edi
    26b0:	e8 5b fd ff ff       	call   2410 <exit@plt>
fprintf():
/usr/include/x86_64-linux-gnu/bits/stdio2.h:105
    26b5:	48 8b 0d ac a9 00 00 	mov    0xa9ac(%rip),%rcx        # d068 <progname>
    26bc:	48 8b 3d 7d a9 00 00 	mov    0xa97d(%rip),%rdi        # d040 <stderr@GLIBC_2.2.5>
    26c3:	48 8d 15 bf 6a 00 00 	lea    0x6abf(%rip),%rdx        # 9189 <_IO_stdin_used+0x189>
    26ca:	31 c0                	xor    %eax,%eax
    26cc:	be 01 00 00 00       	mov    $0x1,%esi
    26d1:	e8 5a fd ff ff       	call   2430 <__fprintf_chk@plt>
main():
/home/tenebris/Disk/Documents/RootCauseAnalysis/evaluation/test_bin/libjpeg/libjpeg_heap_buffer_overflow/libjpeg-turbo/cjpeg.c:578
    usage();
    26d6:	e8 45 04 00 00       	call   2b20 <usage>
/home/tenebris/Disk/Documents/RootCauseAnalysis/evaluation/test_bin/libjpeg/libjpeg_heap_buffer_overflow/libjpeg-turbo/cjpeg.c:599
  } else if (!memdst) {
    26db:	83 3d 6e a9 00 00 00 	cmpl   $0x0,0xa96e(%rip)        # d050 <memdst>
    26e2:	0f 85 e2 fe ff ff    	jne    25ca <main+0x11a>
/home/tenebris/Disk/Documents/RootCauseAnalysis/evaluation/test_bin/libjpeg/libjpeg_heap_buffer_overflow/libjpeg-turbo/cjpeg.c:601
    output_file = write_stdout();
    26e8:	e8 c3 13 00 00       	call   3ab0 <write_stdout>
    26ed:	49 89 c6             	mov    %rax,%r14
    26f0:	e9 d5 fe ff ff       	jmp    25ca <main+0x11a>
/home/tenebris/Disk/Documents/RootCauseAnalysis/evaluation/test_bin/libjpeg/libjpeg_heap_buffer_overflow/libjpeg-turbo/cjpeg.c:516
  long icc_len = 0;
    26f5:	48 c7 44 24 08 00 00 	movq   $0x0,0x8(%rsp)
    26fc:	00 00 
select_file_type():
/home/tenebris/Disk/Documents/RootCauseAnalysis/evaluation/test_bin/libjpeg/libjpeg_heap_buffer_overflow/libjpeg-turbo/cjpeg.c:94
  if (is_targa) {
    26fe:	83 3d 6b a9 00 00 00 	cmpl   $0x0,0xa96b(%rip)        # d070 <is_targa>
    2705:	0f 85 e2 00 00 00    	jne    27ed <main+0x33d>
/home/tenebris/Disk/Documents/RootCauseAnalysis/evaluation/test_bin/libjpeg/libjpeg_heap_buffer_overflow/libjpeg-turbo/cjpeg.c:102
  if ((c = getc(infile)) == EOF)
    270b:	48 8b 3c 24          	mov    (%rsp),%rdi
    270f:	e8 3c fd ff ff       	call   2450 <getc@plt>
    2714:	41 89 c7             	mov    %eax,%r15d
    2717:	83 f8 ff             	cmp    $0xffffffff,%eax
    271a:	0f 84 4a 02 00 00    	je     296a <main+0x4ba>
/home/tenebris/Disk/Documents/RootCauseAnalysis/evaluation/test_bin/libjpeg/libjpeg_heap_buffer_overflow/libjpeg-turbo/cjpeg.c:104
  if (ungetc(c, infile) == EOF)
    2720:	48 8b 34 24          	mov    (%rsp),%rsi
    2724:	89 c7                	mov    %eax,%edi
    2726:	e8 45 fc ff ff       	call   2370 <ungetc@plt>
    272b:	83 c0 01             	add    $0x1,%eax
    272e:	0f 84 5f 02 00 00    	je     2993 <main+0x4e3>
/home/tenebris/Disk/Documents/RootCauseAnalysis/evaluation/test_bin/libjpeg/libjpeg_heap_buffer_overflow/libjpeg-turbo/cjpeg.c:107
  switch (c) {
    2734:	41 83 ff 42          	cmp    $0x42,%r15d
    2738:	0f 84 6e 02 00 00    	je     29ac <main+0x4fc>
    273e:	0f 8e a0 00 00 00    	jle    27e4 <main+0x334>
    2744:	41 83 ff 47          	cmp    $0x47,%r15d
    2748:	0f 85 c2 01 00 00    	jne    2910 <main+0x460>
/home/tenebris/Disk/Documents/RootCauseAnalysis/evaluation/test_bin/libjpeg/libjpeg_heap_buffer_overflow/libjpeg-turbo/cjpeg.c:114
    return jinit_read_gif(cinfo);
    274e:	48 89 ef             	mov    %rbp,%rdi
    2751:	e8 6a 13 00 00       	call   3ac0 <jinit_read_gif>
    2756:	49 89 c7             	mov    %rax,%r15
    2759:	e9 9a 00 00 00       	jmp    27f8 <main+0x348>
main():
/home/tenebris/Disk/Documents/RootCauseAnalysis/evaluation/test_bin/libjpeg/libjpeg_heap_buffer_overflow/libjpeg-turbo/cjpeg.c:611
        fseek(icc_file, 0, SEEK_SET) < 0) {
    275e:	31 d2                	xor    %edx,%edx
    2760:	31 f6                	xor    %esi,%esi
    2762:	4c 89 ff             	mov    %r15,%rdi
    2765:	e8 16 fc ff ff       	call   2380 <fseek@plt>
/home/tenebris/Disk/Documents/RootCauseAnalysis/evaluation/test_bin/libjpeg/libjpeg_heap_buffer_overflow/libjpeg-turbo/cjpeg.c:610
        (icc_len = ftell(icc_file)) < 1 ||
    276a:	85 c0                	test   %eax,%eax
    276c:	0f 88 af fe ff ff    	js     2621 <main+0x171>
/home/tenebris/Disk/Documents/RootCauseAnalysis/evaluation/test_bin/libjpeg/libjpeg_heap_buffer_overflow/libjpeg-turbo/cjpeg.c:616
    if ((icc_profile = (JOCTET *)malloc(icc_len)) == NULL) {
    2772:	48 89 df             	mov    %rbx,%rdi
    2775:	e8 c6 fb ff ff       	call   2340 <malloc@plt>
    277a:	48 89 c3             	mov    %rax,%rbx
    277d:	48 85 c0             	test   %rax,%rax
    2780:	0f 84 62 02 00 00    	je     29e8 <main+0x538>
fread():
/usr/include/x86_64-linux-gnu/bits/stdio2.h:293
fread (void *__restrict __ptr, size_t __size, size_t __n,
       FILE *__restrict __stream)
{
  size_t sz = __glibc_objsize0 (__ptr);
  if (__glibc_safe_or_unknown_len (__n, __size, sz))
    return __fread_alias (__ptr, __size, __n, __stream);
    2786:	48 8b 74 24 08       	mov    0x8(%rsp),%rsi
    278b:	4c 89 f9             	mov    %r15,%rcx
    278e:	ba 01 00 00 00       	mov    $0x1,%edx
    2793:	48 89 c7             	mov    %rax,%rdi
    2796:	e8 e5 fa ff ff       	call   2280 <fread@plt>
main():
/home/tenebris/Disk/Documents/RootCauseAnalysis/evaluation/test_bin/libjpeg/libjpeg_heap_buffer_overflow/libjpeg-turbo/cjpeg.c:621
    if (fread(icc_profile, icc_len, 1, icc_file) < 1) {
    279b:	48 85 c0             	test   %rax,%rax
    279e:	0f 85 1d 02 00 00    	jne    29c1 <main+0x511>
fprintf():
/usr/include/x86_64-linux-gnu/bits/stdio2.h:105
  return __fprintf_chk (__stream, __USE_FORTIFY_LEVEL - 1, __fmt,
    27a4:	4c 8b 05 b5 a8 00 00 	mov    0xa8b5(%rip),%r8        # d060 <icc_filename>
    27ab:	48 8b 0d b6 a8 00 00 	mov    0xa8b6(%rip),%rcx        # d068 <progname>
    27b2:	48 8d 15 ff 73 00 00 	lea    0x73ff(%rip),%rdx        # 9bb8 <_IO_stdin_used+0xbb8>
    27b9:	be 01 00 00 00       	mov    $0x1,%esi
    27be:	48 8b 3d 7b a8 00 00 	mov    0xa87b(%rip),%rdi        # d040 <stderr@GLIBC_2.2.5>
    27c5:	e8 66 fc ff ff       	call   2430 <__fprintf_chk@plt>
main():
/home/tenebris/Disk/Documents/RootCauseAnalysis/evaluation/test_bin/libjpeg/libjpeg_heap_buffer_overflow/libjpeg-turbo/cjpeg.c:624
      free(icc_profile);
    27ca:	48 89 df             	mov    %rbx,%rdi
    27cd:	e8 8e fa ff ff       	call   2260 <free@plt>
/home/tenebris/Disk/Documents/RootCauseAnalysis/evaluation/test_bin/libjpeg/libjpeg_heap_buffer_overflow/libjpeg-turbo/cjpeg.c:625
      fclose(icc_file);
    27d2:	4c 89 ff             	mov    %r15,%rdi
    27d5:	e8 c6 fa ff ff       	call   22a0 <fclose@plt>
/home/tenebris/Disk/Documents/RootCauseAnalysis/evaluation/test_bin/libjpeg/libjpeg_heap_buffer_overflow/libjpeg-turbo/cjpeg.c:626
      exit(EXIT_FAILURE);
    27da:	bf 01 00 00 00       	mov    $0x1,%edi
    27df:	e8 2c fc ff ff       	call   2410 <exit@plt>
select_file_type():
/home/tenebris/Disk/Documents/RootCauseAnalysis/evaluation/test_bin/libjpeg/libjpeg_heap_buffer_overflow/libjpeg-turbo/cjpeg.c:107
  switch (c) {
    27e4:	45 85 ff             	test   %r15d,%r15d
    27e7:	0f 85 2e 02 00 00    	jne    2a1b <main+0x56b>
/home/tenebris/Disk/Documents/RootCauseAnalysis/evaluation/test_bin/libjpeg/libjpeg_heap_buffer_overflow/libjpeg-turbo/cjpeg.c:126
    return jinit_read_targa(cinfo);
    27ed:	48 89 ef             	mov    %rbp,%rdi
    27f0:	e8 4b 61 00 00       	call   8940 <jinit_read_targa>
    27f5:	49 89 c7             	mov    %rax,%r15
main():
/home/tenebris/Disk/Documents/RootCauseAnalysis/evaluation/test_bin/libjpeg/libjpeg_heap_buffer_overflow/libjpeg-turbo/cjpeg.c:637
  src_mgr->input_file = input_file;
    27f8:	48 8b 04 24          	mov    (%rsp),%rax
/home/tenebris/Disk/Documents/RootCauseAnalysis/evaluation/test_bin/libjpeg/libjpeg_heap_buffer_overflow/libjpeg-turbo/cjpeg.c:640

  /* Read the input file header to obtain file size & colorspace. */
  (*src_mgr->start_input) (&cinfo, src_mgr);
    27fc:	4c 89 fe             	mov    %r15,%rsi
    27ff:	48 89 ef             	mov    %rbp,%rdi
/home/tenebris/Disk/Documents/RootCauseAnalysis/evaluation/test_bin/libjpeg/libjpeg_heap_buffer_overflow/libjpeg-turbo/cjpeg.c:637
  src_mgr->input_file = input_file;
    2802:	49 89 47 18          	mov    %rax,0x18(%r15)
/home/tenebris/Disk/Documents/RootCauseAnalysis/evaluation/test_bin/libjpeg/libjpeg_heap_buffer_overflow/libjpeg-turbo/cjpeg.c:640
  (*src_mgr->start_input) (&cinfo, src_mgr);
    2806:	41 ff 17             	call   *(%r15)
/home/tenebris/Disk/Documents/RootCauseAnalysis/evaluation/test_bin/libjpeg/libjpeg_heap_buffer_overflow/libjpeg-turbo/cjpeg.c:643

  /* Now that we know input colorspace, fix colorspace-dependent defaults */
  jpeg_default_colorspace(&cinfo);
    2809:	48 89 ef             	mov    %rbp,%rdi
    280c:	e8 5f fa ff ff       	call   2270 <jpeg_default_colorspace@plt>
/home/tenebris/Disk/Documents/RootCauseAnalysis/evaluation/test_bin/libjpeg/libjpeg_heap_buffer_overflow/libjpeg-turbo/cjpeg.c:646

  /* Adjust default compression parameters by re-parsing the options */
  file_index = parse_switches(&cinfo, argc, argv, 0, TRUE);
    2811:	b9 01 00 00 00       	mov    $0x1,%ecx
    2816:	4c 89 ea             	mov    %r13,%rdx
    2819:	44 89 e6             	mov    %r12d,%esi
    281c:	48 89 ef             	mov    %rbp,%rdi
    281f:	e8 6c 06 00 00       	call   2e90 <parse_switches.constprop.0>
/home/tenebris/Disk/Documents/RootCauseAnalysis/evaluation/test_bin/libjpeg/libjpeg_heap_buffer_overflow/libjpeg-turbo/cjpeg.c:650

  /* Specify data destination for compression */
#if JPEG_LIB_VERSION >= 80 || defined(MEM_SRCDST_SUPPORTED)
  if (memdst)
    2824:	83 3d 25 a8 00 00 00 	cmpl   $0x0,0xa825(%rip)        # d050 <memdst>
    282b:	0f 84 f9 00 00 00    	je     292a <main+0x47a>
/home/tenebris/Disk/Documents/RootCauseAnalysis/evaluation/test_bin/libjpeg/libjpeg_heap_buffer_overflow/libjpeg-turbo/cjpeg.c:651
    jpeg_mem_dest(&cinfo, &outbuffer, &outsize);
    2831:	48 8d 54 24 18       	lea    0x18(%rsp),%rdx
    2836:	48 8d 74 24 10       	lea    0x10(%rsp),%rsi
    283b:	48 89 ef             	mov    %rbp,%rdi
    283e:	e8 4d fb ff ff       	call   2390 <jpeg_mem_dest@plt>
/home/tenebris/Disk/Documents/RootCauseAnalysis/evaluation/test_bin/libjpeg/libjpeg_heap_buffer_overflow/libjpeg-turbo/cjpeg.c:657
  else
#endif
    jpeg_stdio_dest(&cinfo, output_file);

  /* Start compressor */
  jpeg_start_compress(&cinfo, TRUE);
    2843:	be 01 00 00 00       	mov    $0x1,%esi
    2848:	48 89 ef             	mov    %rbp,%rdi
    284b:	e8 10 fb ff ff       	call   2360 <jpeg_start_compress@plt>
/home/tenebris/Disk/Documents/RootCauseAnalysis/evaluation/test_bin/libjpeg/libjpeg_heap_buffer_overflow/libjpeg-turbo/cjpeg.c:659

  if (icc_profile != NULL)
    2850:	48 85 db             	test   %rbx,%rbx
    2853:	74 0f                	je     2864 <main+0x3b4>
/home/tenebris/Disk/Documents/RootCauseAnalysis/evaluation/test_bin/libjpeg/libjpeg_heap_buffer_overflow/libjpeg-turbo/cjpeg.c:660
    jpeg_write_icc_profile(&cinfo, icc_profile, (unsigned int)icc_len);
    2855:	8b 54 24 08          	mov    0x8(%rsp),%edx
    2859:	48 89 de             	mov    %rbx,%rsi
    285c:	48 89 ef             	mov    %rbp,%rdi
    285f:	e8 8c fb ff ff       	call   23f0 <jpeg_write_icc_profile@plt>
/home/tenebris/Disk/Documents/RootCauseAnalysis/evaluation/test_bin/libjpeg/libjpeg_heap_buffer_overflow/libjpeg-turbo/cjpeg.c:663

  /* Process data */
  while (cinfo.next_scanline < cinfo.image_height) {
    2864:	8b 84 24 00 02 00 00 	mov    0x200(%rsp),%eax
    286b:	39 84 24 04 01 00 00 	cmp    %eax,0x104(%rsp)
    2872:	76 2c                	jbe    28a0 <main+0x3f0>
    2874:	0f 1f 40 00          	nopl   0x0(%rax)
/home/tenebris/Disk/Documents/RootCauseAnalysis/evaluation/test_bin/libjpeg/libjpeg_heap_buffer_overflow/libjpeg-turbo/cjpeg.c:664
    num_scanlines = (*src_mgr->get_pixel_rows) (&cinfo, src_mgr);
    2878:	4c 89 fe             	mov    %r15,%rsi
    287b:	48 89 ef             	mov    %rbp,%rdi
    287e:	41 ff 57 08          	call   *0x8(%r15)
/home/tenebris/Disk/Documents/RootCauseAnalysis/evaluation/test_bin/libjpeg/libjpeg_heap_buffer_overflow/libjpeg-turbo/cjpeg.c:665
    (void)jpeg_write_scanlines(&cinfo, src_mgr->buffer, num_scanlines);
    2882:	49 8b 77 20          	mov    0x20(%r15),%rsi
    2886:	48 89 ef             	mov    %rbp,%rdi
/home/tenebris/Disk/Documents/RootCauseAnalysis/evaluation/test_bin/libjpeg/libjpeg_heap_buffer_overflow/libjpeg-turbo/cjpeg.c:664
    num_scanlines = (*src_mgr->get_pixel_rows) (&cinfo, src_mgr);
    2889:	89 c2                	mov    %eax,%edx
/home/tenebris/Disk/Documents/RootCauseAnalysis/evaluation/test_bin/libjpeg/libjpeg_heap_buffer_overflow/libjpeg-turbo/cjpeg.c:665
    (void)jpeg_write_scanlines(&cinfo, src_mgr->buffer, num_scanlines);
    288b:	e8 70 fb ff ff       	call   2400 <jpeg_write_scanlines@plt>
/home/tenebris/Disk/Documents/RootCauseAnalysis/evaluation/test_bin/libjpeg/libjpeg_heap_buffer_overflow/libjpeg-turbo/cjpeg.c:663
  while (cinfo.next_scanline < cinfo.image_height) {
    2890:	8b 84 24 04 01 00 00 	mov    0x104(%rsp),%eax
    2897:	39 84 24 00 02 00 00 	cmp    %eax,0x200(%rsp)
    289e:	72 d8                	jb     2878 <main+0x3c8>
/home/tenebris/Disk/Documents/RootCauseAnalysis/evaluation/test_bin/libjpeg/libjpeg_heap_buffer_overflow/libjpeg-turbo/cjpeg.c:669
  }

  /* Finish compression and release memory */
  (*src_mgr->finish_input) (&cinfo, src_mgr);
    28a0:	4c 89 fe             	mov    %r15,%rsi
    28a3:	48 89 ef             	mov    %rbp,%rdi
    28a6:	41 ff 57 10          	call   *0x10(%r15)
/home/tenebris/Disk/Documents/RootCauseAnalysis/evaluation/test_bin/libjpeg/libjpeg_heap_buffer_overflow/libjpeg-turbo/cjpeg.c:670
  jpeg_finish_compress(&cinfo);
    28aa:	48 89 ef             	mov    %rbp,%rdi
    28ad:	e8 4e fa ff ff       	call   2300 <jpeg_finish_compress@plt>
/home/tenebris/Disk/Documents/RootCauseAnalysis/evaluation/test_bin/libjpeg/libjpeg_heap_buffer_overflow/libjpeg-turbo/cjpeg.c:671
  jpeg_destroy_compress(&cinfo);
    28b2:	48 89 ef             	mov    %rbp,%rdi
    28b5:	e8 16 fb ff ff       	call   23d0 <jpeg_destroy_compress@plt>
/home/tenebris/Disk/Documents/RootCauseAnalysis/evaluation/test_bin/libjpeg/libjpeg_heap_buffer_overflow/libjpeg-turbo/cjpeg.c:674

  /* Close files, if we opened them */
  if (input_file != stdin)
    28ba:	48 8b 04 24          	mov    (%rsp),%rax
    28be:	48 39 05 6b a7 00 00 	cmp    %rax,0xa76b(%rip)        # d030 <stdin@GLIBC_2.2.5>
    28c5:	74 08                	je     28cf <main+0x41f>
/home/tenebris/Disk/Documents/RootCauseAnalysis/evaluation/test_bin/libjpeg/libjpeg_heap_buffer_overflow/libjpeg-turbo/cjpeg.c:675
    fclose(input_file);
    28c7:	48 89 c7             	mov    %rax,%rdi
    28ca:	e8 d1 f9 ff ff       	call   22a0 <fclose@plt>
/home/tenebris/Disk/Documents/RootCauseAnalysis/evaluation/test_bin/libjpeg/libjpeg_heap_buffer_overflow/libjpeg-turbo/cjpeg.c:676
  if (output_file != stdout && output_file != NULL)
    28cf:	4c 39 35 4a a7 00 00 	cmp    %r14,0xa74a(%rip)        # d020 <stdout@GLIBC_2.2.5>
    28d6:	74 0d                	je     28e5 <main+0x435>
    28d8:	4d 85 f6             	test   %r14,%r14
    28db:	74 08                	je     28e5 <main+0x435>
/home/tenebris/Disk/Documents/RootCauseAnalysis/evaluation/test_bin/libjpeg/libjpeg_heap_buffer_overflow/libjpeg-turbo/cjpeg.c:677
    fclose(output_file);
    28dd:	4c 89 f7             	mov    %r14,%rdi
    28e0:	e8 bb f9 ff ff       	call   22a0 <fclose@plt>
/home/tenebris/Disk/Documents/RootCauseAnalysis/evaluation/test_bin/libjpeg/libjpeg_heap_buffer_overflow/libjpeg-turbo/cjpeg.c:683

#ifdef PROGRESS_REPORT
  end_progress_monitor((j_common_ptr)&cinfo);
#endif

  if (memdst) {
    28e5:	83 3d 64 a7 00 00 00 	cmpl   $0x0,0xa764(%rip)        # d050 <memdst>
    28ec:	75 4c                	jne    293a <main+0x48a>
/home/tenebris/Disk/Documents/RootCauseAnalysis/evaluation/test_bin/libjpeg/libjpeg_heap_buffer_overflow/libjpeg-turbo/cjpeg.c:689
    fprintf(stderr, "Compressed size:  %lu bytes\n", outsize);
    if (outbuffer != NULL)
      free(outbuffer);
  }

  if (icc_profile != NULL)
    28ee:	48 85 db             	test   %rbx,%rbx
    28f1:	74 08                	je     28fb <main+0x44b>
/home/tenebris/Disk/Documents/RootCauseAnalysis/evaluation/test_bin/libjpeg/libjpeg_heap_buffer_overflow/libjpeg-turbo/cjpeg.c:690
    free(icc_profile);
    28f3:	48 89 df             	mov    %rbx,%rdi
    28f6:	e8 65 f9 ff ff       	call   2260 <free@plt>
/home/tenebris/Disk/Documents/RootCauseAnalysis/evaluation/test_bin/libjpeg/libjpeg_heap_buffer_overflow/libjpeg-turbo/cjpeg.c:693

  /* All done. */
  exit(jerr.num_warnings ? EXIT_WARNING : EXIT_SUCCESS);
    28fb:	48 8b 84 24 a0 00 00 	mov    0xa0(%rsp),%rax
    2902:	00 
    2903:	48 f7 d8             	neg    %rax
    2906:	19 ff                	sbb    %edi,%edi
    2908:	83 e7 02             	and    $0x2,%edi
    290b:	e8 00 fb ff ff       	call   2410 <exit@plt>
select_file_type():
/home/tenebris/Disk/Documents/RootCauseAnalysis/evaluation/test_bin/libjpeg/libjpeg_heap_buffer_overflow/libjpeg-turbo/cjpeg.c:107
  switch (c) {
    2910:	41 83 ff 50          	cmp    $0x50,%r15d
    2914:	0f 85 06 01 00 00    	jne    2a20 <main+0x570>
/home/tenebris/Disk/Documents/RootCauseAnalysis/evaluation/test_bin/libjpeg/libjpeg_heap_buffer_overflow/libjpeg-turbo/cjpeg.c:118
    return jinit_read_ppm(cinfo);
    291a:	48 89 ef             	mov    %rbp,%rdi
    291d:	e8 4e 33 00 00       	call   5c70 <jinit_read_ppm>
    2922:	49 89 c7             	mov    %rax,%r15
    2925:	e9 ce fe ff ff       	jmp    27f8 <main+0x348>
main():
/home/tenebris/Disk/Documents/RootCauseAnalysis/evaluation/test_bin/libjpeg/libjpeg_heap_buffer_overflow/libjpeg-turbo/cjpeg.c:654
    jpeg_stdio_dest(&cinfo, output_file);
    292a:	4c 89 f6             	mov    %r14,%rsi
    292d:	48 89 ef             	mov    %rbp,%rdi
    2930:	e8 7b fa ff ff       	call   23b0 <jpeg_stdio_dest@plt>
    2935:	e9 09 ff ff ff       	jmp    2843 <main+0x393>
fprintf():
/usr/include/x86_64-linux-gnu/bits/stdio2.h:105
    293a:	48 8b 3d ff a6 00 00 	mov    0xa6ff(%rip),%rdi        # d040 <stderr@GLIBC_2.2.5>
    2941:	48 8b 4c 24 18       	mov    0x18(%rsp),%rcx
    2946:	48 8d 15 6e 68 00 00 	lea    0x686e(%rip),%rdx        # 91bb <_IO_stdin_used+0x1bb>
    294d:	31 c0                	xor    %eax,%eax
    294f:	be 01 00 00 00       	mov    $0x1,%esi
    2954:	e8 d7 fa ff ff       	call   2430 <__fprintf_chk@plt>
main():
/home/tenebris/Disk/Documents/RootCauseAnalysis/evaluation/test_bin/libjpeg/libjpeg_heap_buffer_overflow/libjpeg-turbo/cjpeg.c:685
    if (outbuffer != NULL)
    2959:	48 8b 7c 24 10       	mov    0x10(%rsp),%rdi
    295e:	48 85 ff             	test   %rdi,%rdi
    2961:	74 8b                	je     28ee <main+0x43e>
/home/tenebris/Disk/Documents/RootCauseAnalysis/evaluation/test_bin/libjpeg/libjpeg_heap_buffer_overflow/libjpeg-turbo/cjpeg.c:686
      free(outbuffer);
    2963:	e8 f8 f8 ff ff       	call   2260 <free@plt>
    2968:	eb 84                	jmp    28ee <main+0x43e>
select_file_type():
/home/tenebris/Disk/Documents/RootCauseAnalysis/evaluation/test_bin/libjpeg/libjpeg_heap_buffer_overflow/libjpeg-turbo/cjpeg.c:103
    ERREXIT(cinfo, JERR_INPUT_EMPTY);
    296a:	48 8b 84 24 d0 00 00 	mov    0xd0(%rsp),%rax
    2971:	00 
    2972:	48 89 ef             	mov    %rbp,%rdi
    2975:	c7 40 28 2a 00 00 00 	movl   $0x2a,0x28(%rax)
    297c:	ff 10                	call   *(%rax)
/home/tenebris/Disk/Documents/RootCauseAnalysis/evaluation/test_bin/libjpeg/libjpeg_heap_buffer_overflow/libjpeg-turbo/cjpeg.c:104
  if (ungetc(c, infile) == EOF)
    297e:	48 8b 34 24          	mov    (%rsp),%rsi
    2982:	83 cf ff             	or     $0xffffffff,%edi
    2985:	e8 e6 f9 ff ff       	call   2370 <ungetc@plt>
    298a:	83 c0 01             	add    $0x1,%eax
    298d:	0f 85 ed fa ff ff    	jne    2480 <main.cold>
/home/tenebris/Disk/Documents/RootCauseAnalysis/evaluation/test_bin/libjpeg/libjpeg_heap_buffer_overflow/libjpeg-turbo/cjpeg.c:105
    ERREXIT(cinfo, JERR_UNGETC_FAILED);
    2993:	48 8b 84 24 d0 00 00 	mov    0xd0(%rsp),%rax
    299a:	00 
    299b:	48 89 ef             	mov    %rbp,%rdi
    299e:	c7 40 28 12 04 00 00 	movl   $0x412,0x28(%rax)
    29a5:	ff 10                	call   *(%rax)
    29a7:	e9 88 fd ff ff       	jmp    2734 <main+0x284>
/home/tenebris/Disk/Documents/RootCauseAnalysis/evaluation/test_bin/libjpeg/libjpeg_heap_buffer_overflow/libjpeg-turbo/cjpeg.c:110
    return jinit_read_bmp(cinfo, TRUE);
    29ac:	be 01 00 00 00       	mov    $0x1,%esi
    29b1:	48 89 ef             	mov    %rbp,%rdi
    29b4:	e8 e7 55 00 00       	call   7fa0 <jinit_read_bmp>
    29b9:	49 89 c7             	mov    %rax,%r15
    29bc:	e9 37 fe ff ff       	jmp    27f8 <main+0x348>
main():
/home/tenebris/Disk/Documents/RootCauseAnalysis/evaluation/test_bin/libjpeg/libjpeg_heap_buffer_overflow/libjpeg-turbo/cjpeg.c:628
    fclose(icc_file);
    29c1:	4c 89 ff             	mov    %r15,%rdi
    29c4:	e8 d7 f8 ff ff       	call   22a0 <fclose@plt>
    29c9:	e9 30 fd ff ff       	jmp    26fe <main+0x24e>
fprintf():
/usr/include/x86_64-linux-gnu/bits/stdio2.h:105
    29ce:	4c 8b 05 8b a6 00 00 	mov    0xa68b(%rip),%r8        # d060 <icc_filename>
    29d5:	48 8b 0d 8c a6 00 00 	mov    0xa68c(%rip),%rcx        # d068 <progname>
    29dc:	48 8d 15 c2 67 00 00 	lea    0x67c2(%rip),%rdx        # 91a5 <_IO_stdin_used+0x1a5>
    29e3:	e9 4e fc ff ff       	jmp    2636 <main+0x186>
    29e8:	48 8b 0d 79 a6 00 00 	mov    0xa679(%rip),%rcx        # d068 <progname>
    29ef:	48 8b 3d 4a a6 00 00 	mov    0xa64a(%rip),%rdi        # d040 <stderr@GLIBC_2.2.5>
    29f6:	48 8d 15 8b 71 00 00 	lea    0x718b(%rip),%rdx        # 9b88 <_IO_stdin_used+0xb88>
    29fd:	31 c0                	xor    %eax,%eax
    29ff:	be 01 00 00 00       	mov    $0x1,%esi
    2a04:	e8 27 fa ff ff       	call   2430 <__fprintf_chk@plt>
main():
/home/tenebris/Disk/Documents/RootCauseAnalysis/evaluation/test_bin/libjpeg/libjpeg_heap_buffer_overflow/libjpeg-turbo/cjpeg.c:618
      fclose(icc_file);
    2a09:	4c 89 ff             	mov    %r15,%rdi
    2a0c:	e8 8f f8 ff ff       	call   22a0 <fclose@plt>
/home/tenebris/Disk/Documents/RootCauseAnalysis/evaluation/test_bin/libjpeg/libjpeg_heap_buffer_overflow/libjpeg-turbo/cjpeg.c:619
      exit(EXIT_FAILURE);
    2a11:	bf 01 00 00 00       	mov    $0x1,%edi
    2a16:	e8 f5 f9 ff ff       	call   2410 <exit@plt>
    2a1b:	e9 60 fa ff ff       	jmp    2480 <main.cold>
    2a20:	e9 5b fa ff ff       	jmp    2480 <main.cold>
    2a25:	66 2e 0f 1f 84 00 00 	cs nopw 0x0(%rax,%rax,1)
    2a2c:	00 00 00 
    2a2f:	90                   	nop

0000000000002a30 <_start>:
_start():
    2a30:	f3 0f 1e fa          	endbr64 
    2a34:	31 ed                	xor    %ebp,%ebp
    2a36:	49 89 d1             	mov    %rdx,%r9
    2a39:	5e                   	pop    %rsi
    2a3a:	48 89 e2             	mov    %rsp,%rdx
    2a3d:	48 83 e4 f0          	and    $0xfffffffffffffff0,%rsp
    2a41:	50                   	push   %rax
    2a42:	54                   	push   %rsp
    2a43:	45 31 c0             	xor    %r8d,%r8d
    2a46:	31 c9                	xor    %ecx,%ecx
    2a48:	48 8d 3d 61 fa ff ff 	lea    -0x59f(%rip),%rdi        # 24b0 <main>
    2a4f:	ff 15 73 a5 00 00    	call   *0xa573(%rip)        # cfc8 <__libc_start_main@GLIBC_2.34>
    2a55:	f4                   	hlt    
    2a56:	66 2e 0f 1f 84 00 00 	cs nopw 0x0(%rax,%rax,1)
    2a5d:	00 00 00 

0000000000002a60 <deregister_tm_clones>:
deregister_tm_clones():
    2a60:	48 8d 3d b9 a5 00 00 	lea    0xa5b9(%rip),%rdi        # d020 <stdout@GLIBC_2.2.5>
    2a67:	48 8d 05 b2 a5 00 00 	lea    0xa5b2(%rip),%rax        # d020 <stdout@GLIBC_2.2.5>
    2a6e:	48 39 f8             	cmp    %rdi,%rax
    2a71:	74 15                	je     2a88 <deregister_tm_clones+0x28>
    2a73:	48 8b 05 56 a5 00 00 	mov    0xa556(%rip),%rax        # cfd0 <_ITM_deregisterTMCloneTable@Base>
    2a7a:	48 85 c0             	test   %rax,%rax
    2a7d:	74 09                	je     2a88 <deregister_tm_clones+0x28>
    2a7f:	ff e0                	jmp    *%rax
    2a81:	0f 1f 80 00 00 00 00 	nopl   0x0(%rax)
    2a88:	c3                   	ret    
    2a89:	0f 1f 80 00 00 00 00 	nopl   0x0(%rax)

0000000000002a90 <register_tm_clones>:
register_tm_clones():
    2a90:	48 8d 3d 89 a5 00 00 	lea    0xa589(%rip),%rdi        # d020 <stdout@GLIBC_2.2.5>
    2a97:	48 8d 35 82 a5 00 00 	lea    0xa582(%rip),%rsi        # d020 <stdout@GLIBC_2.2.5>
    2a9e:	48 29 fe             	sub    %rdi,%rsi
    2aa1:	48 89 f0             	mov    %rsi,%rax
    2aa4:	48 c1 ee 3f          	shr    $0x3f,%rsi
    2aa8:	48 c1 f8 03          	sar    $0x3,%rax
    2aac:	48 01 c6             	add    %rax,%rsi
    2aaf:	48 d1 fe             	sar    %rsi
    2ab2:	74 14                	je     2ac8 <register_tm_clones+0x38>
    2ab4:	48 8b 05 25 a5 00 00 	mov    0xa525(%rip),%rax        # cfe0 <_ITM_registerTMCloneTable@Base>
    2abb:	48 85 c0             	test   %rax,%rax
    2abe:	74 08                	je     2ac8 <register_tm_clones+0x38>
    2ac0:	ff e0                	jmp    *%rax
    2ac2:	66 0f 1f 44 00 00    	nopw   0x0(%rax,%rax,1)
    2ac8:	c3                   	ret    
    2ac9:	0f 1f 80 00 00 00 00 	nopl   0x0(%rax)

0000000000002ad0 <__do_global_dtors_aux>:
__do_global_dtors_aux():
    2ad0:	f3 0f 1e fa          	endbr64 
    2ad4:	80 3d 6d a5 00 00 00 	cmpb   $0x0,0xa56d(%rip)        # d048 <completed.0>
    2adb:	75 2b                	jne    2b08 <__do_global_dtors_aux+0x38>
    2add:	55                   	push   %rbp
    2ade:	48 83 3d 02 a5 00 00 	cmpq   $0x0,0xa502(%rip)        # cfe8 <__cxa_finalize@GLIBC_2.2.5>
    2ae5:	00 
    2ae6:	48 89 e5             	mov    %rsp,%rbp
    2ae9:	74 0c                	je     2af7 <__do_global_dtors_aux+0x27>
    2aeb:	48 8b 3d 16 a5 00 00 	mov    0xa516(%rip),%rdi        # d008 <__dso_handle>
    2af2:	e8 59 f7 ff ff       	call   2250 <__cxa_finalize@plt>
    2af7:	e8 64 ff ff ff       	call   2a60 <deregister_tm_clones>
    2afc:	c6 05 45 a5 00 00 01 	movb   $0x1,0xa545(%rip)        # d048 <completed.0>
    2b03:	5d                   	pop    %rbp
    2b04:	c3                   	ret    
    2b05:	0f 1f 00             	nopl   (%rax)
    2b08:	c3                   	ret    
    2b09:	0f 1f 80 00 00 00 00 	nopl   0x0(%rax)

0000000000002b10 <frame_dummy>:
frame_dummy():
    2b10:	f3 0f 1e fa          	endbr64 
    2b14:	e9 77 ff ff ff       	jmp    2a90 <register_tm_clones>
    2b19:	0f 1f 80 00 00 00 00 	nopl   0x0(%rax)

0000000000002b20 <usage>:
usage():
/home/tenebris/Disk/Documents/RootCauseAnalysis/evaluation/test_bin/libjpeg/libjpeg_heap_buffer_overflow/libjpeg-turbo/cjpeg.c:155
{
    2b20:	41 54                	push   %r12
fprintf():
/usr/include/x86_64-linux-gnu/bits/stdio2.h:105
    2b22:	48 8b 0d 3f a5 00 00 	mov    0xa53f(%rip),%rcx        # d068 <progname>
    2b29:	be 01 00 00 00       	mov    $0x1,%esi
    2b2e:	31 c0                	xor    %eax,%eax
    2b30:	48 8b 3d 09 a5 00 00 	mov    0xa509(%rip),%rdi        # d040 <stderr@GLIBC_2.2.5>
    2b37:	48 8d 15 c6 64 00 00 	lea    0x64c6(%rip),%rdx        # 9004 <_IO_stdin_used+0x4>
    2b3e:	4c 8d 25 93 65 00 00 	lea    0x6593(%rip),%r12        # 90d8 <_IO_stdin_used+0xd8>
    2b45:	e8 e6 f8 ff ff       	call   2430 <__fprintf_chk@plt>
    2b4a:	ba 0c 00 00 00       	mov    $0xc,%edx
    2b4f:	48 8b 0d ea a4 00 00 	mov    0xa4ea(%rip),%rcx        # d040 <stderr@GLIBC_2.2.5>
    2b56:	be 01 00 00 00       	mov    $0x1,%esi
    2b5b:	48 8d 3d b8 64 00 00 	lea    0x64b8(%rip),%rdi        # 901a <_IO_stdin_used+0x1a>
    2b62:	e8 b9 f8 ff ff       	call   2420 <fwrite@plt>
    2b67:	ba 25 00 00 00       	mov    $0x25,%edx
    2b6c:	48 8b 0d cd a4 00 00 	mov    0xa4cd(%rip),%rcx        # d040 <stderr@GLIBC_2.2.5>
    2b73:	be 01 00 00 00       	mov    $0x1,%esi
    2b78:	48 8d 3d 29 68 00 00 	lea    0x6829(%rip),%rdi        # 93a8 <_IO_stdin_used+0x3a8>
    2b7f:	e8 9c f8 ff ff       	call   2420 <fwrite@plt>
    2b84:	ba 4d 00 00 00       	mov    $0x4d,%edx
    2b89:	48 8b 0d b0 a4 00 00 	mov    0xa4b0(%rip),%rcx        # d040 <stderr@GLIBC_2.2.5>
    2b90:	be 01 00 00 00       	mov    $0x1,%esi
    2b95:	48 8d 3d 34 68 00 00 	lea    0x6834(%rip),%rdi        # 93d0 <_IO_stdin_used+0x3d0>
    2b9c:	e8 7f f8 ff ff       	call   2420 <fwrite@plt>
    2ba1:	ba 24 00 00 00       	mov    $0x24,%edx
    2ba6:	48 8b 0d 93 a4 00 00 	mov    0xa493(%rip),%rcx        # d040 <stderr@GLIBC_2.2.5>
    2bad:	be 01 00 00 00       	mov    $0x1,%esi
    2bb2:	48 8d 3d 67 68 00 00 	lea    0x6867(%rip),%rdi        # 9420 <_IO_stdin_used+0x420>
    2bb9:	e8 62 f8 ff ff       	call   2420 <fwrite@plt>
    2bbe:	ba 2d 00 00 00       	mov    $0x2d,%edx
    2bc3:	48 8b 0d 76 a4 00 00 	mov    0xa476(%rip),%rcx        # d040 <stderr@GLIBC_2.2.5>
    2bca:	be 01 00 00 00       	mov    $0x1,%esi
    2bcf:	48 8d 3d 72 68 00 00 	lea    0x6872(%rip),%rdi        # 9448 <_IO_stdin_used+0x448>
    2bd6:	e8 45 f8 ff ff       	call   2420 <fwrite@plt>
    2bdb:	ba 26 00 00 00       	mov    $0x26,%edx
    2be0:	48 8b 0d 59 a4 00 00 	mov    0xa459(%rip),%rcx        # d040 <stderr@GLIBC_2.2.5>
    2be7:	be 01 00 00 00       	mov    $0x1,%esi
    2bec:	48 8d 3d 85 68 00 00 	lea    0x6885(%rip),%rdi        # 9478 <_IO_stdin_used+0x478>
    2bf3:	e8 28 f8 ff ff       	call   2420 <fwrite@plt>
    2bf8:	ba 4d 00 00 00       	mov    $0x4d,%edx
    2bfd:	48 8b 0d 3c a4 00 00 	mov    0xa43c(%rip),%rcx        # d040 <stderr@GLIBC_2.2.5>
    2c04:	be 01 00 00 00       	mov    $0x1,%esi
    2c09:	48 8d 3d 90 68 00 00 	lea    0x6890(%rip),%rdi        # 94a0 <_IO_stdin_used+0x4a0>
    2c10:	e8 0b f8 ff ff       	call   2420 <fwrite@plt>
    2c15:	ba 2e 00 00 00       	mov    $0x2e,%edx
    2c1a:	48 8b 0d 1f a4 00 00 	mov    0xa41f(%rip),%rcx        # d040 <stderr@GLIBC_2.2.5>
    2c21:	be 01 00 00 00       	mov    $0x1,%esi
    2c26:	48 8d 3d c3 68 00 00 	lea    0x68c3(%rip),%rdi        # 94f0 <_IO_stdin_used+0x4f0>
    2c2d:	e8 ee f7 ff ff       	call   2420 <fwrite@plt>
    2c32:	ba 41 00 00 00       	mov    $0x41,%edx
    2c37:	48 8b 0d 02 a4 00 00 	mov    0xa402(%rip),%rcx        # d040 <stderr@GLIBC_2.2.5>
    2c3e:	be 01 00 00 00       	mov    $0x1,%esi
    2c43:	48 8d 3d d6 68 00 00 	lea    0x68d6(%rip),%rdi        # 9520 <_IO_stdin_used+0x520>
    2c4a:	e8 d1 f7 ff ff       	call   2420 <fwrite@plt>
    2c4f:	ba 1d 00 00 00       	mov    $0x1d,%edx
    2c54:	48 8b 0d e5 a3 00 00 	mov    0xa3e5(%rip),%rcx        # d040 <stderr@GLIBC_2.2.5>
    2c5b:	be 01 00 00 00       	mov    $0x1,%esi
    2c60:	48 8d 3d c0 63 00 00 	lea    0x63c0(%rip),%rdi        # 9027 <_IO_stdin_used+0x27>
    2c67:	e8 b4 f7 ff ff       	call   2420 <fwrite@plt>
    2c6c:	ba 27 00 00 00       	mov    $0x27,%edx
    2c71:	48 8b 0d c8 a3 00 00 	mov    0xa3c8(%rip),%rcx        # d040 <stderr@GLIBC_2.2.5>
    2c78:	be 01 00 00 00       	mov    $0x1,%esi
    2c7d:	48 8d 3d e4 68 00 00 	lea    0x68e4(%rip),%rdi        # 9568 <_IO_stdin_used+0x568>
    2c84:	e8 97 f7 ff ff       	call   2420 <fwrite@plt>
    2c89:	48 8b 3d b0 a3 00 00 	mov    0xa3b0(%rip),%rdi        # d040 <stderr@GLIBC_2.2.5>
    2c90:	be 01 00 00 00       	mov    $0x1,%esi
    2c95:	31 c0                	xor    %eax,%eax
    2c97:	48 8d 0d a7 63 00 00 	lea    0x63a7(%rip),%rcx        # 9045 <_IO_stdin_used+0x45>
    2c9e:	48 8d 15 eb 68 00 00 	lea    0x68eb(%rip),%rdx        # 9590 <_IO_stdin_used+0x590>
    2ca5:	e8 86 f7 ff ff       	call   2430 <__fprintf_chk@plt>
    2caa:	4c 89 e1             	mov    %r12,%rcx
    2cad:	be 01 00 00 00       	mov    $0x1,%esi
    2cb2:	31 c0                	xor    %eax,%eax
    2cb4:	48 8b 3d 85 a3 00 00 	mov    0xa385(%rip),%rdi        # d040 <stderr@GLIBC_2.2.5>
    2cbb:	48 8d 15 fe 68 00 00 	lea    0x68fe(%rip),%rdx        # 95c0 <_IO_stdin_used+0x5c0>
    2cc2:	e8 69 f7 ff ff       	call   2430 <__fprintf_chk@plt>
    2cc7:	4c 89 e1             	mov    %r12,%rcx
    2cca:	be 01 00 00 00       	mov    $0x1,%esi
    2ccf:	31 c0                	xor    %eax,%eax
    2cd1:	48 8b 3d 68 a3 00 00 	mov    0xa368(%rip),%rdi        # d040 <stderr@GLIBC_2.2.5>
    2cd8:	48 8d 15 21 69 00 00 	lea    0x6921(%rip),%rdx        # 9600 <_IO_stdin_used+0x600>
    2cdf:	e8 4c f7 ff ff       	call   2430 <__fprintf_chk@plt>
    2ce4:	ba 35 00 00 00       	mov    $0x35,%edx
    2ce9:	48 8b 0d 50 a3 00 00 	mov    0xa350(%rip),%rcx        # d040 <stderr@GLIBC_2.2.5>
    2cf0:	be 01 00 00 00       	mov    $0x1,%esi
    2cf5:	48 8d 3d 3c 69 00 00 	lea    0x693c(%rip),%rdi        # 9638 <_IO_stdin_used+0x638>
    2cfc:	e8 1f f7 ff ff       	call   2420 <fwrite@plt>
    2d01:	ba 43 00 00 00       	mov    $0x43,%edx
    2d06:	48 8b 0d 33 a3 00 00 	mov    0xa333(%rip),%rcx        # d040 <stderr@GLIBC_2.2.5>
    2d0d:	be 01 00 00 00       	mov    $0x1,%esi
    2d12:	48 8d 3d 57 69 00 00 	lea    0x6957(%rip),%rdi        # 9670 <_IO_stdin_used+0x670>
    2d19:	e8 02 f7 ff ff       	call   2420 <fwrite@plt>
    2d1e:	ba 3e 00 00 00       	mov    $0x3e,%edx
    2d23:	48 8b 0d 16 a3 00 00 	mov    0xa316(%rip),%rcx        # d040 <stderr@GLIBC_2.2.5>
    2d2a:	be 01 00 00 00       	mov    $0x1,%esi
    2d2f:	48 8d 3d 82 69 00 00 	lea    0x6982(%rip),%rdi        # 96b8 <_IO_stdin_used+0x6b8>
    2d36:	e8 e5 f6 ff ff       	call   2420 <fwrite@plt>
    2d3b:	ba 33 00 00 00       	mov    $0x33,%edx
    2d40:	48 8b 0d f9 a2 00 00 	mov    0xa2f9(%rip),%rcx        # d040 <stderr@GLIBC_2.2.5>
    2d47:	be 01 00 00 00       	mov    $0x1,%esi
    2d4c:	48 8d 3d a5 69 00 00 	lea    0x69a5(%rip),%rdi        # 96f8 <_IO_stdin_used+0x6f8>
    2d53:	e8 c8 f6 ff ff       	call   2420 <fwrite@plt>
    2d58:	ba 2e 00 00 00       	mov    $0x2e,%edx
    2d5d:	48 8b 0d dc a2 00 00 	mov    0xa2dc(%rip),%rcx        # d040 <stderr@GLIBC_2.2.5>
    2d64:	be 01 00 00 00       	mov    $0x1,%esi
    2d69:	48 8d 3d c0 69 00 00 	lea    0x69c0(%rip),%rdi        # 9730 <_IO_stdin_used+0x730>
    2d70:	e8 ab f6 ff ff       	call   2420 <fwrite@plt>
    2d75:	ba 4e 00 00 00       	mov    $0x4e,%edx
    2d7a:	48 8b 0d bf a2 00 00 	mov    0xa2bf(%rip),%rcx        # d040 <stderr@GLIBC_2.2.5>
    2d81:	be 01 00 00 00       	mov    $0x1,%esi
    2d86:	48 8d 3d d3 69 00 00 	lea    0x69d3(%rip),%rdi        # 9760 <_IO_stdin_used+0x760>
    2d8d:	e8 8e f6 ff ff       	call   2420 <fwrite@plt>
    2d92:	ba 2b 00 00 00       	mov    $0x2b,%edx
    2d97:	48 8b 0d a2 a2 00 00 	mov    0xa2a2(%rip),%rcx        # d040 <stderr@GLIBC_2.2.5>
    2d9e:	be 01 00 00 00       	mov    $0x1,%esi
    2da3:	48 8d 3d 06 6a 00 00 	lea    0x6a06(%rip),%rdi        # 97b0 <_IO_stdin_used+0x7b0>
    2daa:	e8 71 f6 ff ff       	call   2420 <fwrite@plt>
    2daf:	ba 34 00 00 00       	mov    $0x34,%edx
    2db4:	48 8b 0d 85 a2 00 00 	mov    0xa285(%rip),%rcx        # d040 <stderr@GLIBC_2.2.5>
    2dbb:	be 01 00 00 00       	mov    $0x1,%esi
    2dc0:	48 8d 3d 19 6a 00 00 	lea    0x6a19(%rip),%rdi        # 97e0 <_IO_stdin_used+0x7e0>
    2dc7:	e8 54 f6 ff ff       	call   2420 <fwrite@plt>
    2dcc:	ba 16 00 00 00       	mov    $0x16,%edx
    2dd1:	48 8b 0d 68 a2 00 00 	mov    0xa268(%rip),%rcx        # d040 <stderr@GLIBC_2.2.5>
    2dd8:	be 01 00 00 00       	mov    $0x1,%esi
    2ddd:	48 8d 3d 6c 62 00 00 	lea    0x626c(%rip),%rdi        # 9050 <_IO_stdin_used+0x50>
    2de4:	e8 37 f6 ff ff       	call   2420 <fwrite@plt>
    2de9:	ba 34 00 00 00       	mov    $0x34,%edx
    2dee:	48 8b 0d 4b a2 00 00 	mov    0xa24b(%rip),%rcx        # d040 <stderr@GLIBC_2.2.5>
    2df5:	be 01 00 00 00       	mov    $0x1,%esi
    2dfa:	48 8d 3d 17 6a 00 00 	lea    0x6a17(%rip),%rdi        # 9818 <_IO_stdin_used+0x818>
    2e01:	e8 1a f6 ff ff       	call   2420 <fwrite@plt>
    2e06:	ba 37 00 00 00       	mov    $0x37,%edx
    2e0b:	48 8b 0d 2e a2 00 00 	mov    0xa22e(%rip),%rcx        # d040 <stderr@GLIBC_2.2.5>
    2e12:	be 01 00 00 00       	mov    $0x1,%esi
    2e17:	48 8d 3d 32 6a 00 00 	lea    0x6a32(%rip),%rdi        # 9850 <_IO_stdin_used+0x850>
    2e1e:	e8 fd f5 ff ff       	call   2420 <fwrite@plt>
    2e23:	ba 37 00 00 00       	mov    $0x37,%edx
    2e28:	48 8b 0d 11 a2 00 00 	mov    0xa211(%rip),%rcx        # d040 <stderr@GLIBC_2.2.5>
    2e2f:	be 01 00 00 00       	mov    $0x1,%esi
    2e34:	48 8d 3d 4d 6a 00 00 	lea    0x6a4d(%rip),%rdi        # 9888 <_IO_stdin_used+0x888>
    2e3b:	e8 e0 f5 ff ff       	call   2420 <fwrite@plt>
    2e40:	ba 34 00 00 00       	mov    $0x34,%edx
    2e45:	48 8b 0d f4 a1 00 00 	mov    0xa1f4(%rip),%rcx        # d040 <stderr@GLIBC_2.2.5>
    2e4c:	be 01 00 00 00       	mov    $0x1,%esi
    2e51:	48 8d 3d 68 6a 00 00 	lea    0x6a68(%rip),%rdi        # 98c0 <_IO_stdin_used+0x8c0>
    2e58:	e8 c3 f5 ff ff       	call   2420 <fwrite@plt>
    2e5d:	ba 38 00 00 00       	mov    $0x38,%edx
    2e62:	be 01 00 00 00       	mov    $0x1,%esi
    2e67:	48 8b 0d d2 a1 00 00 	mov    0xa1d2(%rip),%rcx        # d040 <stderr@GLIBC_2.2.5>
    2e6e:	48 8d 3d 83 6a 00 00 	lea    0x6a83(%rip),%rdi        # 98f8 <_IO_stdin_used+0x8f8>
    2e75:	e8 a6 f5 ff ff       	call   2420 <fwrite@plt>
usage():
/home/tenebris/Disk/Documents/RootCauseAnalysis/evaluation/test_bin/libjpeg/libjpeg_heap_buffer_overflow/libjpeg-turbo/cjpeg.c:213
  exit(EXIT_FAILURE);
    2e7a:	bf 01 00 00 00       	mov    $0x1,%edi
    2e7f:	e8 8c f5 ff ff       	call   2410 <exit@plt>
    2e84:	66 66 2e 0f 1f 84 00 	data16 cs nopw 0x0(%rax,%rax,1)
    2e8b:	00 00 00 00 
    2e8f:	90                   	nop

0000000000002e90 <parse_switches.constprop.0>:
parse_switches():
/home/tenebris/Disk/Documents/RootCauseAnalysis/evaluation/test_bin/libjpeg/libjpeg_heap_buffer_overflow/libjpeg-turbo/cjpeg.c:218
parse_switches(j_compress_ptr cinfo, int argc, char **argv,
    2e90:	41 57                	push   %r15
    2e92:	41 89 ca             	mov    %ecx,%r10d
    2e95:	41 56                	push   %r14
    2e97:	41 55                	push   %r13
    2e99:	41 54                	push   %r12
    2e9b:	55                   	push   %rbp
    2e9c:	53                   	push   %rbx
    2e9d:	48 83 ec 68          	sub    $0x68,%rsp
    2ea1:	64 48 8b 04 25 28 00 	mov    %fs:0x28,%rax
    2ea8:	00 00 
    2eaa:	48 89 44 24 58       	mov    %rax,0x58(%rsp)
    2eaf:	31 c0                	xor    %eax,%eax
/home/tenebris/Disk/Documents/RootCauseAnalysis/evaluation/test_bin/libjpeg/libjpeg_heap_buffer_overflow/libjpeg-turbo/cjpeg.c:247
  cinfo->err->trace_level = 0;
    2eb1:	48 8b 07             	mov    (%rdi),%rax
/home/tenebris/Disk/Documents/RootCauseAnalysis/evaluation/test_bin/libjpeg/libjpeg_heap_buffer_overflow/libjpeg-turbo/cjpeg.c:243
  is_targa = FALSE;
    2eb4:	c7 05 b2 a1 00 00 00 	movl   $0x0,0xa1b2(%rip)        # d070 <is_targa>
    2ebb:	00 00 00 
/home/tenebris/Disk/Documents/RootCauseAnalysis/evaluation/test_bin/libjpeg/libjpeg_heap_buffer_overflow/libjpeg-turbo/cjpeg.c:244
  icc_filename = NULL;
    2ebe:	48 c7 05 97 a1 00 00 	movq   $0x0,0xa197(%rip)        # d060 <icc_filename>
    2ec5:	00 00 00 00 
/home/tenebris/Disk/Documents/RootCauseAnalysis/evaluation/test_bin/libjpeg/libjpeg_heap_buffer_overflow/libjpeg-turbo/cjpeg.c:245
  outfilename = NULL;
    2ec9:	48 c7 05 84 a1 00 00 	movq   $0x0,0xa184(%rip)        # d058 <outfilename>
    2ed0:	00 00 00 00 
/home/tenebris/Disk/Documents/RootCauseAnalysis/evaluation/test_bin/libjpeg/libjpeg_heap_buffer_overflow/libjpeg-turbo/cjpeg.c:246
  memdst = FALSE;
    2ed4:	c7 05 72 a1 00 00 00 	movl   $0x0,0xa172(%rip)        # d050 <memdst>
    2edb:	00 00 00 
/home/tenebris/Disk/Documents/RootCauseAnalysis/evaluation/test_bin/libjpeg/libjpeg_heap_buffer_overflow/libjpeg-turbo/cjpeg.c:247
  cinfo->err->trace_level = 0;
    2ede:	c7 40 7c 00 00 00 00 	movl   $0x0,0x7c(%rax)
/home/tenebris/Disk/Documents/RootCauseAnalysis/evaluation/test_bin/libjpeg/libjpeg_heap_buffer_overflow/libjpeg-turbo/cjpeg.c:251
  for (argn = 1; argn < argc; argn++) {
    2ee5:	83 fe 01             	cmp    $0x1,%esi
    2ee8:	0f 8e 3e 02 00 00    	jle    312c <parse_switches.constprop.0+0x29c>
/home/tenebris/Disk/Documents/RootCauseAnalysis/evaluation/test_bin/libjpeg/libjpeg_heap_buffer_overflow/libjpeg-turbo/cjpeg.c:235
  char *qslotsarg = NULL;       /* saves -qslots parm if any */
    2eee:	48 c7 44 24 08 00 00 	movq   $0x0,0x8(%rsp)
    2ef5:	00 00 
    2ef7:	48 89 fd             	mov    %rdi,%rbp
    2efa:	41 89 f5             	mov    %esi,%r13d
    2efd:	48 89 d3             	mov    %rdx,%rbx
/home/tenebris/Disk/Documents/RootCauseAnalysis/evaluation/test_bin/libjpeg/libjpeg_heap_buffer_overflow/libjpeg-turbo/cjpeg.c:237
  char *scansarg = NULL;        /* saves -scans parm if any */
    2f00:	45 31 ff             	xor    %r15d,%r15d
/home/tenebris/Disk/Documents/RootCauseAnalysis/evaluation/test_bin/libjpeg/libjpeg_heap_buffer_overflow/libjpeg-turbo/cjpeg.c:236
  char *samplearg = NULL;       /* saves -sample parm if any */
    2f03:	45 31 f6             	xor    %r14d,%r14d
/home/tenebris/Disk/Documents/RootCauseAnalysis/evaluation/test_bin/libjpeg/libjpeg_heap_buffer_overflow/libjpeg-turbo/cjpeg.c:233
  char *qualityarg = NULL;      /* saves -quality parm if any */
    2f06:	45 31 db             	xor    %r11d,%r11d
/home/tenebris/Disk/Documents/RootCauseAnalysis/evaluation/test_bin/libjpeg/libjpeg_heap_buffer_overflow/libjpeg-turbo/cjpeg.c:251
  for (argn = 1; argn < argc; argn++) {
    2f09:	41 bc 01 00 00 00    	mov    $0x1,%r12d
/home/tenebris/Disk/Documents/RootCauseAnalysis/evaluation/test_bin/libjpeg/libjpeg_heap_buffer_overflow/libjpeg-turbo/cjpeg.c:234
  char *qtablefile = NULL;      /* saves -qtables filename if any */
    2f0f:	48 c7 44 24 10 00 00 	movq   $0x0,0x10(%rsp)
    2f16:	00 00 
/home/tenebris/Disk/Documents/RootCauseAnalysis/evaluation/test_bin/libjpeg/libjpeg_heap_buffer_overflow/libjpeg-turbo/cjpeg.c:242
  simple_progressive = FALSE;
    2f18:	c7 44 24 38 00 00 00 	movl   $0x0,0x38(%rsp)
    2f1f:	00 
/home/tenebris/Disk/Documents/RootCauseAnalysis/evaluation/test_bin/libjpeg/libjpeg_heap_buffer_overflow/libjpeg-turbo/cjpeg.c:241
  force_baseline = FALSE;       /* by default, allow 16-bit quantizers */
    2f20:	c7 44 24 04 00 00 00 	movl   $0x0,0x4(%rsp)
    2f27:	00 
/home/tenebris/Disk/Documents/RootCauseAnalysis/evaluation/test_bin/libjpeg/libjpeg_heap_buffer_overflow/libjpeg-turbo/cjpeg.c:252
    arg = argv[argn];
    2f28:	49 63 c4             	movslq %r12d,%rax
    2f2b:	48 8d 0c c5 00 00 00 	lea    0x0(,%rax,8),%rcx
    2f32:	00 
    2f33:	48 8b 04 c3          	mov    (%rbx,%rax,8),%rax
/home/tenebris/Disk/Documents/RootCauseAnalysis/evaluation/test_bin/libjpeg/libjpeg_heap_buffer_overflow/libjpeg-turbo/cjpeg.c:253
    if (*arg != '-') {
    2f37:	80 38 2d             	cmpb   $0x2d,(%rax)
    2f3a:	0f 84 c4 00 00 00    	je     3004 <parse_switches.constprop.0+0x174>
/home/tenebris/Disk/Documents/RootCauseAnalysis/evaluation/test_bin/libjpeg/libjpeg_heap_buffer_overflow/libjpeg-turbo/cjpeg.c:463
  if (for_real) {
    2f40:	45 85 d2             	test   %r10d,%r10d
    2f43:	0f 84 95 00 00 00    	je     2fde <parse_switches.constprop.0+0x14e>
/home/tenebris/Disk/Documents/RootCauseAnalysis/evaluation/test_bin/libjpeg/libjpeg_heap_buffer_overflow/libjpeg-turbo/cjpeg.c:467
    if (qualityarg != NULL)     /* process -quality if it was present */
    2f49:	4d 85 db             	test   %r11,%r11
    2f4c:	74 17                	je     2f65 <parse_switches.constprop.0+0xd5>
/home/tenebris/Disk/Documents/RootCauseAnalysis/evaluation/test_bin/libjpeg/libjpeg_heap_buffer_overflow/libjpeg-turbo/cjpeg.c:468
      if (!set_quality_ratings(cinfo, qualityarg, force_baseline))
    2f4e:	8b 54 24 04          	mov    0x4(%rsp),%edx
    2f52:	4c 89 de             	mov    %r11,%rsi
    2f55:	48 89 ef             	mov    %rbp,%rdi
    2f58:	e8 53 34 00 00       	call   63b0 <set_quality_ratings>
    2f5d:	85 c0                	test   %eax,%eax
    2f5f:	0f 84 4b 01 00 00    	je     30b0 <parse_switches.constprop.0+0x220>
/home/tenebris/Disk/Documents/RootCauseAnalysis/evaluation/test_bin/libjpeg/libjpeg_heap_buffer_overflow/libjpeg-turbo/cjpeg.c:471
    if (qtablefile != NULL)     /* process -qtables if it was present */
    2f65:	48 8b 44 24 10       	mov    0x10(%rsp),%rax
    2f6a:	48 85 c0             	test   %rax,%rax
    2f6d:	74 17                	je     2f86 <parse_switches.constprop.0+0xf6>
/home/tenebris/Disk/Documents/RootCauseAnalysis/evaluation/test_bin/libjpeg/libjpeg_heap_buffer_overflow/libjpeg-turbo/cjpeg.c:472
      if (!read_quant_tables(cinfo, qtablefile, force_baseline))
    2f6f:	8b 54 24 04          	mov    0x4(%rsp),%edx
    2f73:	48 89 c6             	mov    %rax,%rsi
    2f76:	48 89 ef             	mov    %rbp,%rdi
    2f79:	e8 d2 2e 00 00       	call   5e50 <read_quant_tables>
    2f7e:	85 c0                	test   %eax,%eax
    2f80:	0f 84 2a 01 00 00    	je     30b0 <parse_switches.constprop.0+0x220>
/home/tenebris/Disk/Documents/RootCauseAnalysis/evaluation/test_bin/libjpeg/libjpeg_heap_buffer_overflow/libjpeg-turbo/cjpeg.c:475
    if (qslotsarg != NULL)      /* process -qslots if it was present */
    2f86:	48 8b 44 24 08       	mov    0x8(%rsp),%rax
    2f8b:	48 85 c0             	test   %rax,%rax
    2f8e:	74 13                	je     2fa3 <parse_switches.constprop.0+0x113>
/home/tenebris/Disk/Documents/RootCauseAnalysis/evaluation/test_bin/libjpeg/libjpeg_heap_buffer_overflow/libjpeg-turbo/cjpeg.c:476
      if (!set_quant_slots(cinfo, qslotsarg))
    2f90:	48 89 c6             	mov    %rax,%rsi
    2f93:	48 89 ef             	mov    %rbp,%rdi
    2f96:	e8 35 35 00 00       	call   64d0 <set_quant_slots>
    2f9b:	85 c0                	test   %eax,%eax
    2f9d:	0f 84 0d 01 00 00    	je     30b0 <parse_switches.constprop.0+0x220>
/home/tenebris/Disk/Documents/RootCauseAnalysis/evaluation/test_bin/libjpeg/libjpeg_heap_buffer_overflow/libjpeg-turbo/cjpeg.c:479
    if (samplearg != NULL)      /* process -sample if it was present */
    2fa3:	4d 85 f6             	test   %r14,%r14
    2fa6:	74 13                	je     2fbb <parse_switches.constprop.0+0x12b>
/home/tenebris/Disk/Documents/RootCauseAnalysis/evaluation/test_bin/libjpeg/libjpeg_heap_buffer_overflow/libjpeg-turbo/cjpeg.c:480
      if (!set_sample_factors(cinfo, samplearg))
    2fa8:	4c 89 f6             	mov    %r14,%rsi
    2fab:	48 89 ef             	mov    %rbp,%rdi
    2fae:	e8 2d 36 00 00       	call   65e0 <set_sample_factors>
    2fb3:	85 c0                	test   %eax,%eax
    2fb5:	0f 84 f5 00 00 00    	je     30b0 <parse_switches.constprop.0+0x220>
/home/tenebris/Disk/Documents/RootCauseAnalysis/evaluation/test_bin/libjpeg/libjpeg_heap_buffer_overflow/libjpeg-turbo/cjpeg.c:484
    if (simple_progressive)     /* process -progressive; -scans can override */
    2fbb:	83 7c 24 38 00       	cmpl   $0x0,0x38(%rsp)
    2fc0:	0f 85 9b 00 00 00    	jne    3061 <parse_switches.constprop.0+0x1d1>
/home/tenebris/Disk/Documents/RootCauseAnalysis/evaluation/test_bin/libjpeg/libjpeg_heap_buffer_overflow/libjpeg-turbo/cjpeg.c:489
    if (scansarg != NULL)       /* process -scans if it was present */
    2fc6:	4d 85 ff             	test   %r15,%r15
    2fc9:	74 13                	je     2fde <parse_switches.constprop.0+0x14e>
/home/tenebris/Disk/Documents/RootCauseAnalysis/evaluation/test_bin/libjpeg/libjpeg_heap_buffer_overflow/libjpeg-turbo/cjpeg.c:490
      if (!read_scan_script(cinfo, scansarg))
    2fcb:	4c 89 fe             	mov    %r15,%rsi
    2fce:	48 89 ef             	mov    %rbp,%rdi
    2fd1:	e8 6a 30 00 00       	call   6040 <read_scan_script>
    2fd6:	85 c0                	test   %eax,%eax
    2fd8:	0f 84 d2 00 00 00    	je     30b0 <parse_switches.constprop.0+0x220>
/home/tenebris/Disk/Documents/RootCauseAnalysis/evaluation/test_bin/libjpeg/libjpeg_heap_buffer_overflow/libjpeg-turbo/cjpeg.c:496
}
    2fde:	48 8b 44 24 58       	mov    0x58(%rsp),%rax
    2fe3:	64 48 2b 04 25 28 00 	sub    %fs:0x28,%rax
    2fea:	00 00 
    2fec:	0f 85 df 03 00 00    	jne    33d1 <parse_switches.constprop.0+0x541>
    2ff2:	48 83 c4 68          	add    $0x68,%rsp
    2ff6:	44 89 e0             	mov    %r12d,%eax
    2ff9:	5b                   	pop    %rbx
    2ffa:	5d                   	pop    %rbp
    2ffb:	41 5c                	pop    %r12
    2ffd:	41 5d                	pop    %r13
    2fff:	41 5e                	pop    %r14
    3001:	41 5f                	pop    %r15
    3003:	c3                   	ret    
/home/tenebris/Disk/Documents/RootCauseAnalysis/evaluation/test_bin/libjpeg/libjpeg_heap_buffer_overflow/libjpeg-turbo/cjpeg.c:261
    arg++;                      /* advance past switch marker character */
    3004:	48 8d 78 01          	lea    0x1(%rax),%rdi
/home/tenebris/Disk/Documents/RootCauseAnalysis/evaluation/test_bin/libjpeg/libjpeg_heap_buffer_overflow/libjpeg-turbo/cjpeg.c:263
    if (keymatch(arg, "arithmetic", 1)) {
    3008:	ba 01 00 00 00       	mov    $0x1,%edx
    300d:	44 89 54 24 30       	mov    %r10d,0x30(%rsp)
    3012:	48 8d 35 4e 60 00 00 	lea    0x604e(%rip),%rsi        # 9067 <_IO_stdin_used+0x67>
    3019:	4c 89 5c 24 28       	mov    %r11,0x28(%rsp)
    301e:	48 89 4c 24 20       	mov    %rcx,0x20(%rsp)
    3023:	48 89 7c 24 18       	mov    %rdi,0x18(%rsp)
    3028:	e8 d3 09 00 00       	call   3a00 <keymatch>
    302d:	48 8b 7c 24 18       	mov    0x18(%rsp),%rdi
    3032:	48 8b 4c 24 20       	mov    0x20(%rsp),%rcx
    3037:	85 c0                	test   %eax,%eax
    3039:	4c 8b 5c 24 28       	mov    0x28(%rsp),%r11
    303e:	44 8b 54 24 30       	mov    0x30(%rsp),%r10d
    3043:	74 29                	je     306e <parse_switches.constprop.0+0x1de>
/home/tenebris/Disk/Documents/RootCauseAnalysis/evaluation/test_bin/libjpeg/libjpeg_heap_buffer_overflow/libjpeg-turbo/cjpeg.c:266
      cinfo->arith_code = TRUE;
    3045:	c7 85 04 01 00 00 01 	movl   $0x1,0x104(%rbp)
    304c:	00 00 00 
/home/tenebris/Disk/Documents/RootCauseAnalysis/evaluation/test_bin/libjpeg/libjpeg_heap_buffer_overflow/libjpeg-turbo/cjpeg.c:251
  for (argn = 1; argn < argc; argn++) {
    304f:	41 83 c4 01          	add    $0x1,%r12d
    3053:	45 39 e5             	cmp    %r12d,%r13d
    3056:	0f 8f cc fe ff ff    	jg     2f28 <parse_switches.constprop.0+0x98>
    305c:	e9 df fe ff ff       	jmp    2f40 <parse_switches.constprop.0+0xb0>
/home/tenebris/Disk/Documents/RootCauseAnalysis/evaluation/test_bin/libjpeg/libjpeg_heap_buffer_overflow/libjpeg-turbo/cjpeg.c:485
      jpeg_simple_progression(cinfo);
    3061:	48 89 ef             	mov    %rbp,%rdi
    3064:	e8 57 f2 ff ff       	call   22c0 <jpeg_simple_progression@plt>
    3069:	e9 58 ff ff ff       	jmp    2fc6 <parse_switches.constprop.0+0x136>
/home/tenebris/Disk/Documents/RootCauseAnalysis/evaluation/test_bin/libjpeg/libjpeg_heap_buffer_overflow/libjpeg-turbo/cjpeg.c:273
    } else if (keymatch(arg, "baseline", 1)) {
    306e:	ba 01 00 00 00       	mov    $0x1,%edx
    3073:	48 8d 35 f8 5f 00 00 	lea    0x5ff8(%rip),%rsi        # 9072 <_IO_stdin_used+0x72>
    307a:	44 89 54 24 30       	mov    %r10d,0x30(%rsp)
    307f:	4c 89 5c 24 28       	mov    %r11,0x28(%rsp)
    3084:	48 89 7c 24 18       	mov    %rdi,0x18(%rsp)
    3089:	48 89 4c 24 20       	mov    %rcx,0x20(%rsp)
    308e:	e8 6d 09 00 00       	call   3a00 <keymatch>
    3093:	48 8b 7c 24 18       	mov    0x18(%rsp),%rdi
    3098:	4c 8b 5c 24 28       	mov    0x28(%rsp),%r11
    309d:	85 c0                	test   %eax,%eax
    309f:	44 8b 54 24 30       	mov    0x30(%rsp),%r10d
    30a4:	74 0f                	je     30b5 <parse_switches.constprop.0+0x225>
/home/tenebris/Disk/Documents/RootCauseAnalysis/evaluation/test_bin/libjpeg/libjpeg_heap_buffer_overflow/libjpeg-turbo/cjpeg.c:275
      force_baseline = TRUE;
    30a6:	c7 44 24 04 01 00 00 	movl   $0x1,0x4(%rsp)
    30ad:	00 
    30ae:	eb 9f                	jmp    304f <parse_switches.constprop.0+0x1bf>
/home/tenebris/Disk/Documents/RootCauseAnalysis/evaluation/test_bin/libjpeg/libjpeg_heap_buffer_overflow/libjpeg-turbo/cjpeg.c:280
        usage();
    30b0:	e8 6b fa ff ff       	call   2b20 <usage>
/home/tenebris/Disk/Documents/RootCauseAnalysis/evaluation/test_bin/libjpeg/libjpeg_heap_buffer_overflow/libjpeg-turbo/cjpeg.c:277
    } else if (keymatch(arg, "dct", 2)) {
    30b5:	ba 02 00 00 00       	mov    $0x2,%edx
    30ba:	48 8d 35 ba 5f 00 00 	lea    0x5fba(%rip),%rsi        # 907b <_IO_stdin_used+0x7b>
    30c1:	e8 3a 09 00 00       	call   3a00 <keymatch>
    30c6:	48 8b 7c 24 18       	mov    0x18(%rsp),%rdi
    30cb:	48 8b 4c 24 20       	mov    0x20(%rsp),%rcx
    30d0:	85 c0                	test   %eax,%eax
    30d2:	4c 8b 5c 24 28       	mov    0x28(%rsp),%r11
    30d7:	44 8b 54 24 30       	mov    0x30(%rsp),%r10d
    30dc:	74 5f                	je     313d <parse_switches.constprop.0+0x2ad>
/home/tenebris/Disk/Documents/RootCauseAnalysis/evaluation/test_bin/libjpeg/libjpeg_heap_buffer_overflow/libjpeg-turbo/cjpeg.c:279
      if (++argn >= argc)       /* advance to next argument */
    30de:	41 83 c4 01          	add    $0x1,%r12d
    30e2:	45 39 ec             	cmp    %r13d,%r12d
    30e5:	7d c9                	jge    30b0 <parse_switches.constprop.0+0x220>
/home/tenebris/Disk/Documents/RootCauseAnalysis/evaluation/test_bin/libjpeg/libjpeg_heap_buffer_overflow/libjpeg-turbo/cjpeg.c:281
      if (keymatch(argv[argn], "int", 1)) {
    30e7:	48 8d 44 0b 08       	lea    0x8(%rbx,%rcx,1),%rax
    30ec:	ba 01 00 00 00       	mov    $0x1,%edx
    30f1:	44 89 54 24 20       	mov    %r10d,0x20(%rsp)
    30f6:	48 8d 35 82 5f 00 00 	lea    0x5f82(%rip),%rsi        # 907f <_IO_stdin_used+0x7f>
    30fd:	48 8b 38             	mov    (%rax),%rdi
    3100:	4c 89 5c 24 18       	mov    %r11,0x18(%rsp)
    3105:	48 89 44 24 28       	mov    %rax,0x28(%rsp)
    310a:	e8 f1 08 00 00       	call   3a00 <keymatch>
    310f:	4c 8b 5c 24 18       	mov    0x18(%rsp),%r11
    3114:	44 8b 54 24 20       	mov    0x20(%rsp),%r10d
    3119:	85 c0                	test   %eax,%eax
    311b:	74 77                	je     3194 <parse_switches.constprop.0+0x304>
/home/tenebris/Disk/Documents/RootCauseAnalysis/evaluation/test_bin/libjpeg/libjpeg_heap_buffer_overflow/libjpeg-turbo/cjpeg.c:282
        cinfo->dct_method = JDCT_ISLOW;
    311d:	c7 85 14 01 00 00 00 	movl   $0x0,0x114(%rbp)
    3124:	00 00 00 
    3127:	e9 23 ff ff ff       	jmp    304f <parse_switches.constprop.0+0x1bf>
/home/tenebris/Disk/Documents/RootCauseAnalysis/evaluation/test_bin/libjpeg/libjpeg_heap_buffer_overflow/libjpeg-turbo/cjpeg.c:463
  if (for_real) {
    312c:	85 c9                	test   %ecx,%ecx
/home/tenebris/Disk/Documents/RootCauseAnalysis/evaluation/test_bin/libjpeg/libjpeg_heap_buffer_overflow/libjpeg-turbo/cjpeg.c:251
  for (argn = 1; argn < argc; argn++) {
    312e:	41 bc 01 00 00 00    	mov    $0x1,%r12d
    3134:	44 0f 45 e1          	cmovne %ecx,%r12d
    3138:	e9 a1 fe ff ff       	jmp    2fde <parse_switches.constprop.0+0x14e>
/home/tenebris/Disk/Documents/RootCauseAnalysis/evaluation/test_bin/libjpeg/libjpeg_heap_buffer_overflow/libjpeg-turbo/cjpeg.c:290
    } else if (keymatch(arg, "debug", 1) || keymatch(arg, "verbose", 1)) {
    313d:	ba 01 00 00 00       	mov    $0x1,%edx
    3142:	48 8d 35 45 5f 00 00 	lea    0x5f45(%rip),%rsi        # 908e <_IO_stdin_used+0x8e>
    3149:	44 89 54 24 30       	mov    %r10d,0x30(%rsp)
    314e:	4c 89 5c 24 28       	mov    %r11,0x28(%rsp)
    3153:	48 89 4c 24 20       	mov    %rcx,0x20(%rsp)
    3158:	48 89 7c 24 18       	mov    %rdi,0x18(%rsp)
    315d:	e8 9e 08 00 00       	call   3a00 <keymatch>
    3162:	48 8b 7c 24 18       	mov    0x18(%rsp),%rdi
    3167:	48 8b 4c 24 20       	mov    0x20(%rsp),%rcx
    316c:	85 c0                	test   %eax,%eax
    316e:	4c 8b 5c 24 28       	mov    0x28(%rsp),%r11
    3173:	44 8b 54 24 30       	mov    0x30(%rsp),%r10d
    3178:	74 5e                	je     31d8 <parse_switches.constprop.0+0x348>
/home/tenebris/Disk/Documents/RootCauseAnalysis/evaluation/test_bin/libjpeg/libjpeg_heap_buffer_overflow/libjpeg-turbo/cjpeg.c:295
      if (!printed_version) {
    317a:	83 3d d3 9e 00 00 00 	cmpl   $0x0,0x9ed3(%rip)        # d054 <printed_version.0>
    3181:	0f 84 72 01 00 00    	je     32f9 <parse_switches.constprop.0+0x469>
/home/tenebris/Disk/Documents/RootCauseAnalysis/evaluation/test_bin/libjpeg/libjpeg_heap_buffer_overflow/libjpeg-turbo/cjpeg.c:303
      cinfo->err->trace_level++;
    3187:	48 8b 45 00          	mov    0x0(%rbp),%rax
    318b:	83 40 7c 01          	addl   $0x1,0x7c(%rax)
/home/tenebris/Disk/Documents/RootCauseAnalysis/evaluation/test_bin/libjpeg/libjpeg_heap_buffer_overflow/libjpeg-turbo/cjpeg.c:290
    } else if (keymatch(arg, "debug", 1) || keymatch(arg, "verbose", 1)) {
    318f:	e9 bb fe ff ff       	jmp    304f <parse_switches.constprop.0+0x1bf>
/home/tenebris/Disk/Documents/RootCauseAnalysis/evaluation/test_bin/libjpeg/libjpeg_heap_buffer_overflow/libjpeg-turbo/cjpeg.c:283
      } else if (keymatch(argv[argn], "fast", 2)) {
    3194:	48 8b 44 24 28       	mov    0x28(%rsp),%rax
    3199:	ba 02 00 00 00       	mov    $0x2,%edx
    319e:	44 89 54 24 20       	mov    %r10d,0x20(%rsp)
    31a3:	48 8d 35 d9 5e 00 00 	lea    0x5ed9(%rip),%rsi        # 9083 <_IO_stdin_used+0x83>
    31aa:	4c 89 5c 24 18       	mov    %r11,0x18(%rsp)
    31af:	48 8b 38             	mov    (%rax),%rdi
    31b2:	e8 49 08 00 00       	call   3a00 <keymatch>
    31b7:	4c 8b 5c 24 18       	mov    0x18(%rsp),%r11
    31bc:	44 8b 54 24 20       	mov    0x20(%rsp),%r10d
    31c1:	85 c0                	test   %eax,%eax
    31c3:	0f 84 c4 01 00 00    	je     338d <parse_switches.constprop.0+0x4fd>
/home/tenebris/Disk/Documents/RootCauseAnalysis/evaluation/test_bin/libjpeg/libjpeg_heap_buffer_overflow/libjpeg-turbo/cjpeg.c:284
        cinfo->dct_method = JDCT_IFAST;
    31c9:	c7 85 14 01 00 00 01 	movl   $0x1,0x114(%rbp)
    31d0:	00 00 00 
    31d3:	e9 77 fe ff ff       	jmp    304f <parse_switches.constprop.0+0x1bf>
/home/tenebris/Disk/Documents/RootCauseAnalysis/evaluation/test_bin/libjpeg/libjpeg_heap_buffer_overflow/libjpeg-turbo/cjpeg.c:290
    } else if (keymatch(arg, "debug", 1) || keymatch(arg, "verbose", 1)) {
    31d8:	ba 01 00 00 00       	mov    $0x1,%edx
    31dd:	48 8d 35 b0 5e 00 00 	lea    0x5eb0(%rip),%rsi        # 9094 <_IO_stdin_used+0x94>
    31e4:	44 89 54 24 30       	mov    %r10d,0x30(%rsp)
    31e9:	4c 89 5c 24 28       	mov    %r11,0x28(%rsp)
    31ee:	48 89 4c 24 20       	mov    %rcx,0x20(%rsp)
    31f3:	48 89 7c 24 18       	mov    %rdi,0x18(%rsp)
    31f8:	e8 03 08 00 00       	call   3a00 <keymatch>
    31fd:	48 8b 7c 24 18       	mov    0x18(%rsp),%rdi
    3202:	48 8b 4c 24 20       	mov    0x20(%rsp),%rcx
    3207:	85 c0                	test   %eax,%eax
    3209:	4c 8b 5c 24 28       	mov    0x28(%rsp),%r11
    320e:	44 8b 54 24 30       	mov    0x30(%rsp),%r10d
    3213:	0f 85 61 ff ff ff    	jne    317a <parse_switches.constprop.0+0x2ea>
/home/tenebris/Disk/Documents/RootCauseAnalysis/evaluation/test_bin/libjpeg/libjpeg_heap_buffer_overflow/libjpeg-turbo/cjpeg.c:305
    } else if (keymatch(arg, "version", 4)) {
    3219:	ba 04 00 00 00       	mov    $0x4,%edx
    321e:	48 8d 35 c4 5e 00 00 	lea    0x5ec4(%rip),%rsi        # 90e9 <_IO_stdin_used+0xe9>
    3225:	44 89 54 24 30       	mov    %r10d,0x30(%rsp)
    322a:	4c 89 5c 24 28       	mov    %r11,0x28(%rsp)
    322f:	48 89 4c 24 20       	mov    %rcx,0x20(%rsp)
    3234:	48 89 7c 24 18       	mov    %rdi,0x18(%rsp)
    3239:	e8 c2 07 00 00       	call   3a00 <keymatch>
    323e:	48 8b 7c 24 18       	mov    0x18(%rsp),%rdi
    3243:	48 8b 4c 24 20       	mov    0x20(%rsp),%rcx
    3248:	85 c0                	test   %eax,%eax
    324a:	4c 8b 5c 24 28       	mov    0x28(%rsp),%r11
    324f:	44 8b 54 24 30       	mov    0x30(%rsp),%r10d
    3254:	0f 85 26 02 00 00    	jne    3480 <parse_switches.constprop.0+0x5f0>
/home/tenebris/Disk/Documents/RootCauseAnalysis/evaluation/test_bin/libjpeg/libjpeg_heap_buffer_overflow/libjpeg-turbo/cjpeg.c:310
    } else if (keymatch(arg, "grayscale", 2) ||
    325a:	ba 02 00 00 00       	mov    $0x2,%edx
    325f:	48 8d 35 8b 5e 00 00 	lea    0x5e8b(%rip),%rsi        # 90f1 <_IO_stdin_used+0xf1>
    3266:	44 89 54 24 30       	mov    %r10d,0x30(%rsp)
    326b:	4c 89 5c 24 28       	mov    %r11,0x28(%rsp)
    3270:	48 89 4c 24 20       	mov    %rcx,0x20(%rsp)
    3275:	48 89 7c 24 18       	mov    %rdi,0x18(%rsp)
    327a:	e8 81 07 00 00       	call   3a00 <keymatch>
    327f:	48 8b 7c 24 18       	mov    0x18(%rsp),%rdi
    3284:	48 8b 4c 24 20       	mov    0x20(%rsp),%rcx
    3289:	85 c0                	test   %eax,%eax
    328b:	4c 8b 5c 24 28       	mov    0x28(%rsp),%r11
    3290:	44 8b 54 24 30       	mov    0x30(%rsp),%r10d
    3295:	75 3c                	jne    32d3 <parse_switches.constprop.0+0x443>
/home/tenebris/Disk/Documents/RootCauseAnalysis/evaluation/test_bin/libjpeg/libjpeg_heap_buffer_overflow/libjpeg-turbo/cjpeg.c:311
               keymatch(arg, "greyscale", 2)) {
    3297:	ba 02 00 00 00       	mov    $0x2,%edx
    329c:	48 8d 35 58 5e 00 00 	lea    0x5e58(%rip),%rsi        # 90fb <_IO_stdin_used+0xfb>
    32a3:	44 89 54 24 30       	mov    %r10d,0x30(%rsp)
    32a8:	4c 89 5c 24 28       	mov    %r11,0x28(%rsp)
    32ad:	48 89 7c 24 18       	mov    %rdi,0x18(%rsp)
    32b2:	48 89 4c 24 20       	mov    %rcx,0x20(%rsp)
    32b7:	e8 44 07 00 00       	call   3a00 <keymatch>
/home/tenebris/Disk/Documents/RootCauseAnalysis/evaluation/test_bin/libjpeg/libjpeg_heap_buffer_overflow/libjpeg-turbo/cjpeg.c:310
    } else if (keymatch(arg, "grayscale", 2) ||
    32bc:	48 8b 7c 24 18       	mov    0x18(%rsp),%rdi
    32c1:	4c 8b 5c 24 28       	mov    0x28(%rsp),%r11
    32c6:	85 c0                	test   %eax,%eax
    32c8:	44 8b 54 24 30       	mov    0x30(%rsp),%r10d
    32cd:	0f 84 03 01 00 00    	je     33d6 <parse_switches.constprop.0+0x546>
/home/tenebris/Disk/Documents/RootCauseAnalysis/evaluation/test_bin/libjpeg/libjpeg_heap_buffer_overflow/libjpeg-turbo/cjpeg.c:313
      jpeg_set_colorspace(cinfo, JCS_GRAYSCALE);
    32d3:	be 01 00 00 00       	mov    $0x1,%esi
    32d8:	48 89 ef             	mov    %rbp,%rdi
    32db:	44 89 54 24 20       	mov    %r10d,0x20(%rsp)
    32e0:	4c 89 5c 24 18       	mov    %r11,0x18(%rsp)
    32e5:	e8 56 f1 ff ff       	call   2440 <jpeg_set_colorspace@plt>
    32ea:	4c 8b 5c 24 18       	mov    0x18(%rsp),%r11
    32ef:	44 8b 54 24 20       	mov    0x20(%rsp),%r10d
    32f4:	e9 56 fd ff ff       	jmp    304f <parse_switches.constprop.0+0x1bf>
fprintf():
/usr/include/x86_64-linux-gnu/bits/stdio2.h:105
    32f9:	48 8b 3d 40 9d 00 00 	mov    0x9d40(%rip),%rdi        # d040 <stderr@GLIBC_2.2.5>
    3300:	4c 8d 0d 95 5d 00 00 	lea    0x5d95(%rip),%r9        # 909c <_IO_stdin_used+0x9c>
    3307:	31 c0                	xor    %eax,%eax
    3309:	4c 8d 05 95 5d 00 00 	lea    0x5d95(%rip),%r8        # 90a5 <_IO_stdin_used+0xa5>
    3310:	48 8d 0d 95 5d 00 00 	lea    0x5d95(%rip),%rcx        # 90ac <_IO_stdin_used+0xac>
    3317:	be 01 00 00 00       	mov    $0x1,%esi
    331c:	44 89 54 24 20       	mov    %r10d,0x20(%rsp)
    3321:	48 8d 15 92 5d 00 00 	lea    0x5d92(%rip),%rdx        # 90ba <_IO_stdin_used+0xba>
    3328:	4c 89 5c 24 18       	mov    %r11,0x18(%rsp)
    332d:	e8 fe f0 ff ff       	call   2430 <__fprintf_chk@plt>
    3332:	48 8b 3d 07 9d 00 00 	mov    0x9d07(%rip),%rdi        # d040 <stderr@GLIBC_2.2.5>
    3339:	be 01 00 00 00       	mov    $0x1,%esi
    333e:	31 c0                	xor    %eax,%eax
    3340:	48 8d 0d f1 65 00 00 	lea    0x65f1(%rip),%rcx        # 9938 <_IO_stdin_used+0x938>
    3347:	48 8d 15 86 5d 00 00 	lea    0x5d86(%rip),%rdx        # 90d4 <_IO_stdin_used+0xd4>
    334e:	e8 dd f0 ff ff       	call   2430 <__fprintf_chk@plt>
    3353:	48 8b 3d e6 9c 00 00 	mov    0x9ce6(%rip),%rdi        # d040 <stderr@GLIBC_2.2.5>
    335a:	be 01 00 00 00       	mov    $0x1,%esi
    335f:	31 c0                	xor    %eax,%eax
    3361:	48 8d 0d 71 5d 00 00 	lea    0x5d71(%rip),%rcx        # 90d9 <_IO_stdin_used+0xd9>
    3368:	48 8d 15 b9 67 00 00 	lea    0x67b9(%rip),%rdx        # 9b28 <_IO_stdin_used+0xb28>
    336f:	e8 bc f0 ff ff       	call   2430 <__fprintf_chk@plt>
parse_switches():
/home/tenebris/Disk/Documents/RootCauseAnalysis/evaluation/test_bin/libjpeg/libjpeg_heap_buffer_overflow/libjpeg-turbo/cjpeg.c:301
        printed_version = TRUE;
    3374:	44 8b 54 24 20       	mov    0x20(%rsp),%r10d
    3379:	4c 8b 5c 24 18       	mov    0x18(%rsp),%r11
    337e:	c7 05 cc 9c 00 00 01 	movl   $0x1,0x9ccc(%rip)        # d054 <printed_version.0>
    3385:	00 00 00 
    3388:	e9 fa fd ff ff       	jmp    3187 <parse_switches.constprop.0+0x2f7>
/home/tenebris/Disk/Documents/RootCauseAnalysis/evaluation/test_bin/libjpeg/libjpeg_heap_buffer_overflow/libjpeg-turbo/cjpeg.c:285
      } else if (keymatch(argv[argn], "float", 2)) {
    338d:	48 8b 44 24 28       	mov    0x28(%rsp),%rax
    3392:	ba 02 00 00 00       	mov    $0x2,%edx
    3397:	44 89 54 24 20       	mov    %r10d,0x20(%rsp)
    339c:	48 8d 35 e5 5c 00 00 	lea    0x5ce5(%rip),%rsi        # 9088 <_IO_stdin_used+0x88>
    33a3:	4c 89 5c 24 18       	mov    %r11,0x18(%rsp)
    33a8:	48 8b 38             	mov    (%rax),%rdi
    33ab:	e8 50 06 00 00       	call   3a00 <keymatch>
    33b0:	85 c0                	test   %eax,%eax
    33b2:	0f 84 f8 fc ff ff    	je     30b0 <parse_switches.constprop.0+0x220>
/home/tenebris/Disk/Documents/RootCauseAnalysis/evaluation/test_bin/libjpeg/libjpeg_heap_buffer_overflow/libjpeg-turbo/cjpeg.c:286
        cinfo->dct_method = JDCT_FLOAT;
    33b8:	c7 85 14 01 00 00 02 	movl   $0x2,0x114(%rbp)
    33bf:	00 00 00 
    33c2:	4c 8b 5c 24 18       	mov    0x18(%rsp),%r11
    33c7:	44 8b 54 24 20       	mov    0x20(%rsp),%r10d
    33cc:	e9 7e fc ff ff       	jmp    304f <parse_switches.constprop.0+0x1bf>
/home/tenebris/Disk/Documents/RootCauseAnalysis/evaluation/test_bin/libjpeg/libjpeg_heap_buffer_overflow/libjpeg-turbo/cjpeg.c:496
}
    33d1:	e8 da ee ff ff       	call   22b0 <__stack_chk_fail@plt>
/home/tenebris/Disk/Documents/RootCauseAnalysis/evaluation/test_bin/libjpeg/libjpeg_heap_buffer_overflow/libjpeg-turbo/cjpeg.c:315
    } else if (keymatch(arg, "rgb", 3)) {
    33d6:	ba 03 00 00 00       	mov    $0x3,%edx
    33db:	48 8d 35 23 5d 00 00 	lea    0x5d23(%rip),%rsi        # 9105 <_IO_stdin_used+0x105>
    33e2:	e8 19 06 00 00       	call   3a00 <keymatch>
    33e7:	48 8b 7c 24 18       	mov    0x18(%rsp),%rdi
    33ec:	48 8b 4c 24 20       	mov    0x20(%rsp),%rcx
    33f1:	85 c0                	test   %eax,%eax
    33f3:	4c 8b 5c 24 28       	mov    0x28(%rsp),%r11
    33f8:	44 8b 54 24 30       	mov    0x30(%rsp),%r10d
    33fd:	74 26                	je     3425 <parse_switches.constprop.0+0x595>
/home/tenebris/Disk/Documents/RootCauseAnalysis/evaluation/test_bin/libjpeg/libjpeg_heap_buffer_overflow/libjpeg-turbo/cjpeg.c:317
      jpeg_set_colorspace(cinfo, JCS_RGB);
    33ff:	be 02 00 00 00       	mov    $0x2,%esi
    3404:	48 89 ef             	mov    %rbp,%rdi
    3407:	44 89 54 24 20       	mov    %r10d,0x20(%rsp)
    340c:	4c 89 5c 24 18       	mov    %r11,0x18(%rsp)
    3411:	e8 2a f0 ff ff       	call   2440 <jpeg_set_colorspace@plt>
    3416:	4c 8b 5c 24 18       	mov    0x18(%rsp),%r11
    341b:	44 8b 54 24 20       	mov    0x20(%rsp),%r10d
    3420:	e9 2a fc ff ff       	jmp    304f <parse_switches.constprop.0+0x1bf>
/home/tenebris/Disk/Documents/RootCauseAnalysis/evaluation/test_bin/libjpeg/libjpeg_heap_buffer_overflow/libjpeg-turbo/cjpeg.c:319
    } else if (keymatch(arg, "icc", 1)) {
    3425:	ba 01 00 00 00       	mov    $0x1,%edx
    342a:	48 8d 35 d8 5c 00 00 	lea    0x5cd8(%rip),%rsi        # 9109 <_IO_stdin_used+0x109>
    3431:	44 89 54 24 30       	mov    %r10d,0x30(%rsp)
    3436:	4c 89 5c 24 28       	mov    %r11,0x28(%rsp)
    343b:	48 89 4c 24 20       	mov    %rcx,0x20(%rsp)
    3440:	48 89 7c 24 18       	mov    %rdi,0x18(%rsp)
    3445:	e8 b6 05 00 00       	call   3a00 <keymatch>
    344a:	48 8b 7c 24 18       	mov    0x18(%rsp),%rdi
    344f:	48 8b 4c 24 20       	mov    0x20(%rsp),%rcx
    3454:	85 c0                	test   %eax,%eax
    3456:	4c 8b 5c 24 28       	mov    0x28(%rsp),%r11
    345b:	44 8b 54 24 30       	mov    0x30(%rsp),%r10d
    3460:	74 54                	je     34b6 <parse_switches.constprop.0+0x626>
/home/tenebris/Disk/Documents/RootCauseAnalysis/evaluation/test_bin/libjpeg/libjpeg_heap_buffer_overflow/libjpeg-turbo/cjpeg.c:321
      if (++argn >= argc)       /* advance to next argument */
    3462:	41 83 c4 01          	add    $0x1,%r12d
    3466:	45 39 e5             	cmp    %r12d,%r13d
    3469:	0f 8e 41 fc ff ff    	jle    30b0 <parse_switches.constprop.0+0x220>
/home/tenebris/Disk/Documents/RootCauseAnalysis/evaluation/test_bin/libjpeg/libjpeg_heap_buffer_overflow/libjpeg-turbo/cjpeg.c:323
      icc_filename = argv[argn];
    346f:	48 8b 44 0b 08       	mov    0x8(%rbx,%rcx,1),%rax
    3474:	48 89 05 e5 9b 00 00 	mov    %rax,0x9be5(%rip)        # d060 <icc_filename>
    347b:	e9 cf fb ff ff       	jmp    304f <parse_switches.constprop.0+0x1bf>
fprintf():
/usr/include/x86_64-linux-gnu/bits/stdio2.h:105
    3480:	48 8b 3d b9 9b 00 00 	mov    0x9bb9(%rip),%rdi        # d040 <stderr@GLIBC_2.2.5>
    3487:	4c 8d 0d 0e 5c 00 00 	lea    0x5c0e(%rip),%r9        # 909c <_IO_stdin_used+0x9c>
    348e:	31 c0                	xor    %eax,%eax
    3490:	4c 8d 05 0e 5c 00 00 	lea    0x5c0e(%rip),%r8        # 90a5 <_IO_stdin_used+0xa5>
    3497:	48 8d 0d 0e 5c 00 00 	lea    0x5c0e(%rip),%rcx        # 90ac <_IO_stdin_used+0xac>
    349e:	48 8d 15 15 5c 00 00 	lea    0x5c15(%rip),%rdx        # 90ba <_IO_stdin_used+0xba>
    34a5:	be 01 00 00 00       	mov    $0x1,%esi
    34aa:	e8 81 ef ff ff       	call   2430 <__fprintf_chk@plt>
parse_switches():
/home/tenebris/Disk/Documents/RootCauseAnalysis/evaluation/test_bin/libjpeg/libjpeg_heap_buffer_overflow/libjpeg-turbo/cjpeg.c:308
      exit(EXIT_SUCCESS);
    34af:	31 ff                	xor    %edi,%edi
    34b1:	e8 5a ef ff ff       	call   2410 <exit@plt>
/home/tenebris/Disk/Documents/RootCauseAnalysis/evaluation/test_bin/libjpeg/libjpeg_heap_buffer_overflow/libjpeg-turbo/cjpeg.c:325
    } else if (keymatch(arg, "maxmemory", 3)) {
    34b6:	ba 03 00 00 00       	mov    $0x3,%edx
    34bb:	48 8d 35 4b 5c 00 00 	lea    0x5c4b(%rip),%rsi        # 910d <_IO_stdin_used+0x10d>
    34c2:	44 89 54 24 30       	mov    %r10d,0x30(%rsp)
    34c7:	4c 89 5c 24 28       	mov    %r11,0x28(%rsp)
    34cc:	48 89 4c 24 20       	mov    %rcx,0x20(%rsp)
    34d1:	48 89 7c 24 18       	mov    %rdi,0x18(%rsp)
    34d6:	e8 25 05 00 00       	call   3a00 <keymatch>
    34db:	48 8b 7c 24 18       	mov    0x18(%rsp),%rdi
    34e0:	48 8b 4c 24 20       	mov    0x20(%rsp),%rcx
    34e5:	85 c0                	test   %eax,%eax
    34e7:	4c 8b 5c 24 28       	mov    0x28(%rsp),%r11
    34ec:	44 8b 54 24 30       	mov    0x30(%rsp),%r10d
    34f1:	74 73                	je     3566 <parse_switches.constprop.0+0x6d6>
/home/tenebris/Disk/Documents/RootCauseAnalysis/evaluation/test_bin/libjpeg/libjpeg_heap_buffer_overflow/libjpeg-turbo/cjpeg.c:330
      if (++argn >= argc)       /* advance to next argument */
    34f3:	41 83 c4 01          	add    $0x1,%r12d
    34f7:	44 89 54 24 20       	mov    %r10d,0x20(%rsp)
    34fc:	4c 89 5c 24 18       	mov    %r11,0x18(%rsp)
/home/tenebris/Disk/Documents/RootCauseAnalysis/evaluation/test_bin/libjpeg/libjpeg_heap_buffer_overflow/libjpeg-turbo/cjpeg.c:328
      char ch = 'x';
    3501:	c6 44 24 42 78       	movb   $0x78,0x42(%rsp)
/home/tenebris/Disk/Documents/RootCauseAnalysis/evaluation/test_bin/libjpeg/libjpeg_heap_buffer_overflow/libjpeg-turbo/cjpeg.c:330
      if (++argn >= argc)       /* advance to next argument */
    3506:	45 39 e5             	cmp    %r12d,%r13d
    3509:	0f 8e a1 fb ff ff    	jle    30b0 <parse_switches.constprop.0+0x220>
/home/tenebris/Disk/Documents/RootCauseAnalysis/evaluation/test_bin/libjpeg/libjpeg_heap_buffer_overflow/libjpeg-turbo/cjpeg.c:332
      if (sscanf(argv[argn], "%ld%c", &lval, &ch) < 1)
    350f:	48 8b 7c 0b 08       	mov    0x8(%rbx,%rcx,1),%rdi
    3514:	4c 8d 44 24 42       	lea    0x42(%rsp),%r8
    3519:	31 c0                	xor    %eax,%eax
    351b:	48 8d 54 24 48       	lea    0x48(%rsp),%rdx
    3520:	4c 89 c1             	mov    %r8,%rcx
    3523:	48 8d 35 ed 5b 00 00 	lea    0x5bed(%rip),%rsi        # 9117 <_IO_stdin_used+0x117>
    352a:	e8 21 ee ff ff       	call   2350 <__isoc99_sscanf@plt>
    352f:	85 c0                	test   %eax,%eax
    3531:	0f 8e 79 fb ff ff    	jle    30b0 <parse_switches.constprop.0+0x220>
/home/tenebris/Disk/Documents/RootCauseAnalysis/evaluation/test_bin/libjpeg/libjpeg_heap_buffer_overflow/libjpeg-turbo/cjpeg.c:334
      if (ch == 'm' || ch == 'M')
    3537:	0f b6 44 24 42       	movzbl 0x42(%rsp),%eax
    353c:	4c 8b 5c 24 18       	mov    0x18(%rsp),%r11
    3541:	44 8b 54 24 20       	mov    0x20(%rsp),%r10d
    3546:	83 e0 df             	and    $0xffffffdf,%eax
    3549:	3c 4d                	cmp    $0x4d,%al
    354b:	74 65                	je     35b2 <parse_switches.constprop.0+0x722>
    354d:	48 8b 44 24 48       	mov    0x48(%rsp),%rax
/home/tenebris/Disk/Documents/RootCauseAnalysis/evaluation/test_bin/libjpeg/libjpeg_heap_buffer_overflow/libjpeg-turbo/cjpeg.c:336
      cinfo->mem->max_memory_to_use = lval * 1000L;
    3552:	48 69 c0 e8 03 00 00 	imul   $0x3e8,%rax,%rax
    3559:	48 8b 55 08          	mov    0x8(%rbp),%rdx
    355d:	48 89 42 58          	mov    %rax,0x58(%rdx)
    3561:	e9 e9 fa ff ff       	jmp    304f <parse_switches.constprop.0+0x1bf>
/home/tenebris/Disk/Documents/RootCauseAnalysis/evaluation/test_bin/libjpeg/libjpeg_heap_buffer_overflow/libjpeg-turbo/cjpeg.c:338
    } else if (keymatch(arg, "optimize", 1) || keymatch(arg, "optimise", 1)) {
    3566:	ba 01 00 00 00       	mov    $0x1,%edx
    356b:	48 8d 35 ab 5b 00 00 	lea    0x5bab(%rip),%rsi        # 911d <_IO_stdin_used+0x11d>
    3572:	44 89 54 24 30       	mov    %r10d,0x30(%rsp)
    3577:	4c 89 5c 24 28       	mov    %r11,0x28(%rsp)
    357c:	48 89 4c 24 20       	mov    %rcx,0x20(%rsp)
    3581:	48 89 7c 24 18       	mov    %rdi,0x18(%rsp)
    3586:	e8 75 04 00 00       	call   3a00 <keymatch>
    358b:	48 8b 7c 24 18       	mov    0x18(%rsp),%rdi
    3590:	48 8b 4c 24 20       	mov    0x20(%rsp),%rcx
    3595:	85 c0                	test   %eax,%eax
    3597:	4c 8b 5c 24 28       	mov    0x28(%rsp),%r11
    359c:	44 8b 54 24 30       	mov    0x30(%rsp),%r10d
    35a1:	74 1f                	je     35c2 <parse_switches.constprop.0+0x732>
/home/tenebris/Disk/Documents/RootCauseAnalysis/evaluation/test_bin/libjpeg/libjpeg_heap_buffer_overflow/libjpeg-turbo/cjpeg.c:341
      cinfo->optimize_coding = TRUE;
    35a3:	c7 85 08 01 00 00 01 	movl   $0x1,0x108(%rbp)
    35aa:	00 00 00 
    35ad:	e9 9d fa ff ff       	jmp    304f <parse_switches.constprop.0+0x1bf>
/home/tenebris/Disk/Documents/RootCauseAnalysis/evaluation/test_bin/libjpeg/libjpeg_heap_buffer_overflow/libjpeg-turbo/cjpeg.c:335
        lval *= 1000L;
    35b2:	48 69 44 24 48 e8 03 	imul   $0x3e8,0x48(%rsp),%rax
    35b9:	00 00 
    35bb:	48 89 44 24 48       	mov    %rax,0x48(%rsp)
    35c0:	eb 90                	jmp    3552 <parse_switches.constprop.0+0x6c2>
/home/tenebris/Disk/Documents/RootCauseAnalysis/evaluation/test_bin/libjpeg/libjpeg_heap_buffer_overflow/libjpeg-turbo/cjpeg.c:338
    } else if (keymatch(arg, "optimize", 1) || keymatch(arg, "optimise", 1)) {
    35c2:	ba 01 00 00 00       	mov    $0x1,%edx
    35c7:	48 8d 35 58 5b 00 00 	lea    0x5b58(%rip),%rsi        # 9126 <_IO_stdin_used+0x126>
    35ce:	44 89 54 24 30       	mov    %r10d,0x30(%rsp)
    35d3:	4c 89 5c 24 28       	mov    %r11,0x28(%rsp)
    35d8:	48 89 7c 24 18       	mov    %rdi,0x18(%rsp)
    35dd:	48 89 4c 24 20       	mov    %rcx,0x20(%rsp)
    35e2:	e8 19 04 00 00       	call   3a00 <keymatch>
    35e7:	48 8b 7c 24 18       	mov    0x18(%rsp),%rdi
    35ec:	4c 8b 5c 24 28       	mov    0x28(%rsp),%r11
    35f1:	85 c0                	test   %eax,%eax
    35f3:	44 8b 54 24 30       	mov    0x30(%rsp),%r10d
    35f8:	75 a9                	jne    35a3 <parse_switches.constprop.0+0x713>
/home/tenebris/Disk/Documents/RootCauseAnalysis/evaluation/test_bin/libjpeg/libjpeg_heap_buffer_overflow/libjpeg-turbo/cjpeg.c:348
    } else if (keymatch(arg, "outfile", 4)) {
    35fa:	ba 04 00 00 00       	mov    $0x4,%edx
    35ff:	48 8d 35 29 5b 00 00 	lea    0x5b29(%rip),%rsi        # 912f <_IO_stdin_used+0x12f>
    3606:	e8 f5 03 00 00       	call   3a00 <keymatch>
    360b:	48 8b 7c 24 18       	mov    0x18(%rsp),%rdi
    3610:	48 8b 4c 24 20       	mov    0x20(%rsp),%rcx
    3615:	85 c0                	test   %eax,%eax
    3617:	4c 8b 5c 24 28       	mov    0x28(%rsp),%r11
    361c:	44 8b 54 24 30       	mov    0x30(%rsp),%r10d
    3621:	74 1e                	je     3641 <parse_switches.constprop.0+0x7b1>
/home/tenebris/Disk/Documents/RootCauseAnalysis/evaluation/test_bin/libjpeg/libjpeg_heap_buffer_overflow/libjpeg-turbo/cjpeg.c:350
      if (++argn >= argc)       /* advance to next argument */
    3623:	41 83 c4 01          	add    $0x1,%r12d
    3627:	45 39 e5             	cmp    %r12d,%r13d
    362a:	0f 8e 80 fa ff ff    	jle    30b0 <parse_switches.constprop.0+0x220>
/home/tenebris/Disk/Documents/RootCauseAnalysis/evaluation/test_bin/libjpeg/libjpeg_heap_buffer_overflow/libjpeg-turbo/cjpeg.c:352
      outfilename = argv[argn]; /* save it away for later use */
    3630:	48 8b 44 0b 08       	mov    0x8(%rbx,%rcx,1),%rax
    3635:	48 89 05 1c 9a 00 00 	mov    %rax,0x9a1c(%rip)        # d058 <outfilename>
    363c:	e9 0e fa ff ff       	jmp    304f <parse_switches.constprop.0+0x1bf>
/home/tenebris/Disk/Documents/RootCauseAnalysis/evaluation/test_bin/libjpeg/libjpeg_heap_buffer_overflow/libjpeg-turbo/cjpeg.c:354
    } else if (keymatch(arg, "progressive", 1)) {
    3641:	ba 01 00 00 00       	mov    $0x1,%edx
    3646:	48 8d 35 ea 5a 00 00 	lea    0x5aea(%rip),%rsi        # 9137 <_IO_stdin_used+0x137>
    364d:	44 89 54 24 30       	mov    %r10d,0x30(%rsp)
    3652:	4c 89 5c 24 28       	mov    %r11,0x28(%rsp)
    3657:	48 89 7c 24 18       	mov    %rdi,0x18(%rsp)
    365c:	48 89 4c 24 20       	mov    %rcx,0x20(%rsp)
    3661:	e8 9a 03 00 00       	call   3a00 <keymatch>
    3666:	48 8b 7c 24 18       	mov    0x18(%rsp),%rdi
    366b:	4c 8b 5c 24 28       	mov    0x28(%rsp),%r11
    3670:	85 c0                	test   %eax,%eax
    3672:	44 8b 54 24 30       	mov    0x30(%rsp),%r10d
    3677:	74 0d                	je     3686 <parse_switches.constprop.0+0x7f6>
/home/tenebris/Disk/Documents/RootCauseAnalysis/evaluation/test_bin/libjpeg/libjpeg_heap_buffer_overflow/libjpeg-turbo/cjpeg.c:357
      simple_progressive = TRUE;
    3679:	c7 44 24 38 01 00 00 	movl   $0x1,0x38(%rsp)
    3680:	00 
    3681:	e9 c9 f9 ff ff       	jmp    304f <parse_switches.constprop.0+0x1bf>
/home/tenebris/Disk/Documents/RootCauseAnalysis/evaluation/test_bin/libjpeg/libjpeg_heap_buffer_overflow/libjpeg-turbo/cjpeg.c:365
    } else if (keymatch(arg, "memdst", 2)) {
    3686:	ba 02 00 00 00       	mov    $0x2,%edx
    368b:	48 8d 35 b1 5a 00 00 	lea    0x5ab1(%rip),%rsi        # 9143 <_IO_stdin_used+0x143>
    3692:	e8 69 03 00 00       	call   3a00 <keymatch>
    3697:	48 8b 7c 24 18       	mov    0x18(%rsp),%rdi
    369c:	48 8b 4c 24 20       	mov    0x20(%rsp),%rcx
    36a1:	85 c0                	test   %eax,%eax
    36a3:	4c 8b 5c 24 28       	mov    0x28(%rsp),%r11
    36a8:	44 8b 54 24 30       	mov    0x30(%rsp),%r10d
    36ad:	74 0f                	je     36be <parse_switches.constprop.0+0x82e>
/home/tenebris/Disk/Documents/RootCauseAnalysis/evaluation/test_bin/libjpeg/libjpeg_heap_buffer_overflow/libjpeg-turbo/cjpeg.c:368
      memdst = TRUE;
    36af:	c7 05 97 99 00 00 01 	movl   $0x1,0x9997(%rip)        # d050 <memdst>
    36b6:	00 00 00 
    36b9:	e9 91 f9 ff ff       	jmp    304f <parse_switches.constprop.0+0x1bf>
/home/tenebris/Disk/Documents/RootCauseAnalysis/evaluation/test_bin/libjpeg/libjpeg_heap_buffer_overflow/libjpeg-turbo/cjpeg.c:375
    } else if (keymatch(arg, "quality", 1)) {
    36be:	ba 01 00 00 00       	mov    $0x1,%edx
    36c3:	48 8d 35 80 5a 00 00 	lea    0x5a80(%rip),%rsi        # 914a <_IO_stdin_used+0x14a>
    36ca:	44 89 54 24 30       	mov    %r10d,0x30(%rsp)
    36cf:	4c 89 5c 24 28       	mov    %r11,0x28(%rsp)
    36d4:	48 89 4c 24 20       	mov    %rcx,0x20(%rsp)
    36d9:	48 89 7c 24 18       	mov    %rdi,0x18(%rsp)
    36de:	e8 1d 03 00 00       	call   3a00 <keymatch>
    36e3:	48 8b 7c 24 18       	mov    0x18(%rsp),%rdi
    36e8:	48 8b 4c 24 20       	mov    0x20(%rsp),%rcx
    36ed:	85 c0                	test   %eax,%eax
    36ef:	4c 8b 5c 24 28       	mov    0x28(%rsp),%r11
    36f4:	44 8b 54 24 30       	mov    0x30(%rsp),%r10d
    36f9:	74 17                	je     3712 <parse_switches.constprop.0+0x882>
/home/tenebris/Disk/Documents/RootCauseAnalysis/evaluation/test_bin/libjpeg/libjpeg_heap_buffer_overflow/libjpeg-turbo/cjpeg.c:377
      if (++argn >= argc)       /* advance to next argument */
    36fb:	41 83 c4 01          	add    $0x1,%r12d
    36ff:	45 39 e5             	cmp    %r12d,%r13d
    3702:	0f 8e a8 f9 ff ff    	jle    30b0 <parse_switches.constprop.0+0x220>
/home/tenebris/Disk/Documents/RootCauseAnalysis/evaluation/test_bin/libjpeg/libjpeg_heap_buffer_overflow/libjpeg-turbo/cjpeg.c:379
      qualityarg = argv[argn];
    3708:	4c 8b 5c 0b 08       	mov    0x8(%rbx,%rcx,1),%r11
    370d:	e9 3d f9 ff ff       	jmp    304f <parse_switches.constprop.0+0x1bf>
/home/tenebris/Disk/Documents/RootCauseAnalysis/evaluation/test_bin/libjpeg/libjpeg_heap_buffer_overflow/libjpeg-turbo/cjpeg.c:381
    } else if (keymatch(arg, "qslots", 2)) {
    3712:	ba 02 00 00 00       	mov    $0x2,%edx
    3717:	48 8d 35 34 5a 00 00 	lea    0x5a34(%rip),%rsi        # 9152 <_IO_stdin_used+0x152>
    371e:	44 89 54 24 30       	mov    %r10d,0x30(%rsp)
    3723:	4c 89 5c 24 28       	mov    %r11,0x28(%rsp)
    3728:	48 89 4c 24 20       	mov    %rcx,0x20(%rsp)
    372d:	48 89 7c 24 18       	mov    %rdi,0x18(%rsp)
    3732:	e8 c9 02 00 00       	call   3a00 <keymatch>
    3737:	48 8b 7c 24 18       	mov    0x18(%rsp),%rdi
    373c:	48 8b 4c 24 20       	mov    0x20(%rsp),%rcx
    3741:	85 c0                	test   %eax,%eax
    3743:	4c 8b 5c 24 28       	mov    0x28(%rsp),%r11
    3748:	44 8b 54 24 30       	mov    0x30(%rsp),%r10d
    374d:	74 1c                	je     376b <parse_switches.constprop.0+0x8db>
/home/tenebris/Disk/Documents/RootCauseAnalysis/evaluation/test_bin/libjpeg/libjpeg_heap_buffer_overflow/libjpeg-turbo/cjpeg.c:383
      if (++argn >= argc)       /* advance to next argument */
    374f:	41 83 c4 01          	add    $0x1,%r12d
    3753:	45 39 e5             	cmp    %r12d,%r13d
    3756:	0f 8e 54 f9 ff ff    	jle    30b0 <parse_switches.constprop.0+0x220>
/home/tenebris/Disk/Documents/RootCauseAnalysis/evaluation/test_bin/libjpeg/libjpeg_heap_buffer_overflow/libjpeg-turbo/cjpeg.c:385
      qslotsarg = argv[argn];
    375c:	48 8b 44 0b 08       	mov    0x8(%rbx,%rcx,1),%rax
    3761:	48 89 44 24 08       	mov    %rax,0x8(%rsp)
    3766:	e9 e4 f8 ff ff       	jmp    304f <parse_switches.constprop.0+0x1bf>
/home/tenebris/Disk/Documents/RootCauseAnalysis/evaluation/test_bin/libjpeg/libjpeg_heap_buffer_overflow/libjpeg-turbo/cjpeg.c:391
    } else if (keymatch(arg, "qtables", 2)) {
    376b:	ba 02 00 00 00       	mov    $0x2,%edx
    3770:	48 8d 35 e2 59 00 00 	lea    0x59e2(%rip),%rsi        # 9159 <_IO_stdin_used+0x159>
    3777:	44 89 54 24 30       	mov    %r10d,0x30(%rsp)
    377c:	4c 89 5c 24 28       	mov    %r11,0x28(%rsp)
    3781:	48 89 4c 24 20       	mov    %rcx,0x20(%rsp)
    3786:	48 89 7c 24 18       	mov    %rdi,0x18(%rsp)
    378b:	e8 70 02 00 00       	call   3a00 <keymatch>
    3790:	48 8b 7c 24 18       	mov    0x18(%rsp),%rdi
    3795:	48 8b 4c 24 20       	mov    0x20(%rsp),%rcx
    379a:	85 c0                	test   %eax,%eax
    379c:	4c 8b 5c 24 28       	mov    0x28(%rsp),%r11
    37a1:	44 8b 54 24 30       	mov    0x30(%rsp),%r10d
    37a6:	74 1c                	je     37c4 <parse_switches.constprop.0+0x934>
/home/tenebris/Disk/Documents/RootCauseAnalysis/evaluation/test_bin/libjpeg/libjpeg_heap_buffer_overflow/libjpeg-turbo/cjpeg.c:393
      if (++argn >= argc)       /* advance to next argument */
    37a8:	41 83 c4 01          	add    $0x1,%r12d
    37ac:	45 39 e5             	cmp    %r12d,%r13d
    37af:	0f 8e fb f8 ff ff    	jle    30b0 <parse_switches.constprop.0+0x220>
/home/tenebris/Disk/Documents/RootCauseAnalysis/evaluation/test_bin/libjpeg/libjpeg_heap_buffer_overflow/libjpeg-turbo/cjpeg.c:395
      qtablefile = argv[argn];
    37b5:	48 8b 44 0b 08       	mov    0x8(%rbx,%rcx,1),%rax
    37ba:	48 89 44 24 10       	mov    %rax,0x10(%rsp)
    37bf:	e9 8b f8 ff ff       	jmp    304f <parse_switches.constprop.0+0x1bf>
/home/tenebris/Disk/Documents/RootCauseAnalysis/evaluation/test_bin/libjpeg/libjpeg_heap_buffer_overflow/libjpeg-turbo/cjpeg.c:398
    } else if (keymatch(arg, "restart", 1)) {
    37c4:	ba 01 00 00 00       	mov    $0x1,%edx
    37c9:	48 8d 35 91 59 00 00 	lea    0x5991(%rip),%rsi        # 9161 <_IO_stdin_used+0x161>
    37d0:	44 89 54 24 3c       	mov    %r10d,0x3c(%rsp)
    37d5:	4c 89 5c 24 30       	mov    %r11,0x30(%rsp)
    37da:	48 89 4c 24 20       	mov    %rcx,0x20(%rsp)
    37df:	48 89 7c 24 18       	mov    %rdi,0x18(%rsp)
    37e4:	89 44 24 28          	mov    %eax,0x28(%rsp)
    37e8:	e8 13 02 00 00       	call   3a00 <keymatch>
    37ed:	48 8b 7c 24 18       	mov    0x18(%rsp),%rdi
    37f2:	48 8b 4c 24 20       	mov    0x20(%rsp),%rcx
    37f7:	85 c0                	test   %eax,%eax
    37f9:	4c 8b 5c 24 30       	mov    0x30(%rsp),%r11
    37fe:	44 8b 54 24 3c       	mov    0x3c(%rsp),%r10d
    3803:	0f 84 86 00 00 00    	je     388f <parse_switches.constprop.0+0x9ff>
/home/tenebris/Disk/Documents/RootCauseAnalysis/evaluation/test_bin/libjpeg/libjpeg_heap_buffer_overflow/libjpeg-turbo/cjpeg.c:403
      if (++argn >= argc)       /* advance to next argument */
    3809:	41 83 c4 01          	add    $0x1,%r12d
    380d:	44 89 54 24 20       	mov    %r10d,0x20(%rsp)
    3812:	4c 89 5c 24 18       	mov    %r11,0x18(%rsp)
/home/tenebris/Disk/Documents/RootCauseAnalysis/evaluation/test_bin/libjpeg/libjpeg_heap_buffer_overflow/libjpeg-turbo/cjpeg.c:401
      char ch = 'x';
    3817:	c6 44 24 43 78       	movb   $0x78,0x43(%rsp)
/home/tenebris/Disk/Documents/RootCauseAnalysis/evaluation/test_bin/libjpeg/libjpeg_heap_buffer_overflow/libjpeg-turbo/cjpeg.c:403
      if (++argn >= argc)       /* advance to next argument */
    381c:	45 39 e5             	cmp    %r12d,%r13d
    381f:	0f 8e 8b f8 ff ff    	jle    30b0 <parse_switches.constprop.0+0x220>
/home/tenebris/Disk/Documents/RootCauseAnalysis/evaluation/test_bin/libjpeg/libjpeg_heap_buffer_overflow/libjpeg-turbo/cjpeg.c:405
      if (sscanf(argv[argn], "%ld%c", &lval, &ch) < 1)
    3825:	48 8b 7c 0b 08       	mov    0x8(%rbx,%rcx,1),%rdi
    382a:	4c 8d 4c 24 43       	lea    0x43(%rsp),%r9
    382f:	31 c0                	xor    %eax,%eax
    3831:	48 8d 54 24 50       	lea    0x50(%rsp),%rdx
    3836:	4c 89 c9             	mov    %r9,%rcx
    3839:	48 8d 35 d7 58 00 00 	lea    0x58d7(%rip),%rsi        # 9117 <_IO_stdin_used+0x117>
    3840:	e8 0b eb ff ff       	call   2350 <__isoc99_sscanf@plt>
    3845:	85 c0                	test   %eax,%eax
    3847:	0f 8e 63 f8 ff ff    	jle    30b0 <parse_switches.constprop.0+0x220>
/home/tenebris/Disk/Documents/RootCauseAnalysis/evaluation/test_bin/libjpeg/libjpeg_heap_buffer_overflow/libjpeg-turbo/cjpeg.c:407
      if (lval < 0 || lval > 65535L)
    384d:	48 8b 44 24 50       	mov    0x50(%rsp),%rax
    3852:	48 3d ff ff 00 00    	cmp    $0xffff,%rax
    3858:	0f 87 52 f8 ff ff    	ja     30b0 <parse_switches.constprop.0+0x220>
/home/tenebris/Disk/Documents/RootCauseAnalysis/evaluation/test_bin/libjpeg/libjpeg_heap_buffer_overflow/libjpeg-turbo/cjpeg.c:409
      if (ch == 'b' || ch == 'B') {
    385e:	0f b6 54 24 43       	movzbl 0x43(%rsp),%edx
    3863:	4c 8b 5c 24 18       	mov    0x18(%rsp),%r11
/home/tenebris/Disk/Documents/RootCauseAnalysis/evaluation/test_bin/libjpeg/libjpeg_heap_buffer_overflow/libjpeg-turbo/cjpeg.c:413
        cinfo->restart_in_rows = (int)lval;
    3868:	41 89 c0             	mov    %eax,%r8d
/home/tenebris/Disk/Documents/RootCauseAnalysis/evaluation/test_bin/libjpeg/libjpeg_heap_buffer_overflow/libjpeg-turbo/cjpeg.c:409
      if (ch == 'b' || ch == 'B') {
    386b:	44 8b 54 24 20       	mov    0x20(%rsp),%r10d
    3870:	83 e2 df             	and    $0xffffffdf,%edx
    3873:	80 fa 42             	cmp    $0x42,%dl
    3876:	75 0b                	jne    3883 <parse_switches.constprop.0+0x9f3>
/home/tenebris/Disk/Documents/RootCauseAnalysis/evaluation/test_bin/libjpeg/libjpeg_heap_buffer_overflow/libjpeg-turbo/cjpeg.c:410
        cinfo->restart_interval = (unsigned int)lval;
    3878:	89 85 18 01 00 00    	mov    %eax,0x118(%rbp)
/home/tenebris/Disk/Documents/RootCauseAnalysis/evaluation/test_bin/libjpeg/libjpeg_heap_buffer_overflow/libjpeg-turbo/cjpeg.c:411
        cinfo->restart_in_rows = 0; /* else prior '-restart n' overrides me */
    387e:	44 8b 44 24 28       	mov    0x28(%rsp),%r8d
    3883:	44 89 85 1c 01 00 00 	mov    %r8d,0x11c(%rbp)
    388a:	e9 c0 f7 ff ff       	jmp    304f <parse_switches.constprop.0+0x1bf>
/home/tenebris/Disk/Documents/RootCauseAnalysis/evaluation/test_bin/libjpeg/libjpeg_heap_buffer_overflow/libjpeg-turbo/cjpeg.c:417
    } else if (keymatch(arg, "sample", 2)) {
    388f:	ba 02 00 00 00       	mov    $0x2,%edx
    3894:	48 8d 35 ce 58 00 00 	lea    0x58ce(%rip),%rsi        # 9169 <_IO_stdin_used+0x169>
    389b:	44 89 54 24 30       	mov    %r10d,0x30(%rsp)
    38a0:	4c 89 5c 24 28       	mov    %r11,0x28(%rsp)
    38a5:	48 89 4c 24 20       	mov    %rcx,0x20(%rsp)
    38aa:	48 89 7c 24 18       	mov    %rdi,0x18(%rsp)
    38af:	e8 4c 01 00 00       	call   3a00 <keymatch>
    38b4:	48 8b 7c 24 18       	mov    0x18(%rsp),%rdi
    38b9:	48 8b 4c 24 20       	mov    0x20(%rsp),%rcx
    38be:	85 c0                	test   %eax,%eax
    38c0:	4c 8b 5c 24 28       	mov    0x28(%rsp),%r11
    38c5:	44 8b 54 24 30       	mov    0x30(%rsp),%r10d
    38ca:	74 17                	je     38e3 <parse_switches.constprop.0+0xa53>
/home/tenebris/Disk/Documents/RootCauseAnalysis/evaluation/test_bin/libjpeg/libjpeg_heap_buffer_overflow/libjpeg-turbo/cjpeg.c:419
      if (++argn >= argc)       /* advance to next argument */
    38cc:	41 83 c4 01          	add    $0x1,%r12d
    38d0:	45 39 e5             	cmp    %r12d,%r13d
    38d3:	0f 8e d7 f7 ff ff    	jle    30b0 <parse_switches.constprop.0+0x220>
/home/tenebris/Disk/Documents/RootCauseAnalysis/evaluation/test_bin/libjpeg/libjpeg_heap_buffer_overflow/libjpeg-turbo/cjpeg.c:421
      samplearg = argv[argn];
    38d9:	4c 8b 74 0b 08       	mov    0x8(%rbx,%rcx,1),%r14
    38de:	e9 6c f7 ff ff       	jmp    304f <parse_switches.constprop.0+0x1bf>
/home/tenebris/Disk/Documents/RootCauseAnalysis/evaluation/test_bin/libjpeg/libjpeg_heap_buffer_overflow/libjpeg-turbo/cjpeg.c:427
    } else if (keymatch(arg, "scans", 4)) {
    38e3:	ba 04 00 00 00       	mov    $0x4,%edx
    38e8:	48 8d 35 81 58 00 00 	lea    0x5881(%rip),%rsi        # 9170 <_IO_stdin_used+0x170>
    38ef:	44 89 54 24 30       	mov    %r10d,0x30(%rsp)
    38f4:	4c 89 5c 24 28       	mov    %r11,0x28(%rsp)
    38f9:	48 89 4c 24 20       	mov    %rcx,0x20(%rsp)
    38fe:	48 89 7c 24 18       	mov    %rdi,0x18(%rsp)
    3903:	e8 f8 00 00 00       	call   3a00 <keymatch>
    3908:	48 8b 7c 24 18       	mov    0x18(%rsp),%rdi
    390d:	48 8b 4c 24 20       	mov    0x20(%rsp),%rcx
    3912:	85 c0                	test   %eax,%eax
    3914:	4c 8b 5c 24 28       	mov    0x28(%rsp),%r11
    3919:	44 8b 54 24 30       	mov    0x30(%rsp),%r10d
    391e:	74 17                	je     3937 <parse_switches.constprop.0+0xaa7>
/home/tenebris/Disk/Documents/RootCauseAnalysis/evaluation/test_bin/libjpeg/libjpeg_heap_buffer_overflow/libjpeg-turbo/cjpeg.c:430
      if (++argn >= argc)       /* advance to next argument */
    3920:	41 83 c4 01          	add    $0x1,%r12d
    3924:	45 39 e5             	cmp    %r12d,%r13d
    3927:	0f 8e 83 f7 ff ff    	jle    30b0 <parse_switches.constprop.0+0x220>
/home/tenebris/Disk/Documents/RootCauseAnalysis/evaluation/test_bin/libjpeg/libjpeg_heap_buffer_overflow/libjpeg-turbo/cjpeg.c:432
      scansarg = argv[argn];
    392d:	4c 8b 7c 0b 08       	mov    0x8(%rbx,%rcx,1),%r15
    3932:	e9 18 f7 ff ff       	jmp    304f <parse_switches.constprop.0+0x1bf>
/home/tenebris/Disk/Documents/RootCauseAnalysis/evaluation/test_bin/libjpeg/libjpeg_heap_buffer_overflow/libjpeg-turbo/cjpeg.c:440
    } else if (keymatch(arg, "smooth", 2)) {
    3937:	ba 02 00 00 00       	mov    $0x2,%edx
    393c:	48 8d 35 33 58 00 00 	lea    0x5833(%rip),%rsi        # 9176 <_IO_stdin_used+0x176>
    3943:	44 89 54 24 30       	mov    %r10d,0x30(%rsp)
    3948:	4c 89 5c 24 20       	mov    %r11,0x20(%rsp)
    394d:	48 89 7c 24 18       	mov    %rdi,0x18(%rsp)
    3952:	48 89 4c 24 28       	mov    %rcx,0x28(%rsp)
    3957:	e8 a4 00 00 00       	call   3a00 <keymatch>
    395c:	4c 8b 5c 24 20       	mov    0x20(%rsp),%r11
    3961:	44 8b 54 24 30       	mov    0x30(%rsp),%r10d
    3966:	85 c0                	test   %eax,%eax
    3968:	48 8b 7c 24 18       	mov    0x18(%rsp),%rdi
    396d:	44 89 54 24 20       	mov    %r10d,0x20(%rsp)
    3972:	4c 89 5c 24 18       	mov    %r11,0x18(%rsp)
    3977:	74 55                	je     39ce <parse_switches.constprop.0+0xb3e>
/home/tenebris/Disk/Documents/RootCauseAnalysis/evaluation/test_bin/libjpeg/libjpeg_heap_buffer_overflow/libjpeg-turbo/cjpeg.c:444
      if (++argn >= argc)       /* advance to next argument */
    3979:	41 83 c4 01          	add    $0x1,%r12d
    397d:	45 39 e5             	cmp    %r12d,%r13d
    3980:	0f 8e 2a f7 ff ff    	jle    30b0 <parse_switches.constprop.0+0x220>
/home/tenebris/Disk/Documents/RootCauseAnalysis/evaluation/test_bin/libjpeg/libjpeg_heap_buffer_overflow/libjpeg-turbo/cjpeg.c:446
      if (sscanf(argv[argn], "%d", &val) != 1)
    3986:	48 8b 4c 24 28       	mov    0x28(%rsp),%rcx
    398b:	31 c0                	xor    %eax,%eax
    398d:	48 8d 54 24 44       	lea    0x44(%rsp),%rdx
    3992:	48 8d 35 ac 58 00 00 	lea    0x58ac(%rip),%rsi        # 9245 <_IO_stdin_used+0x245>
    3999:	48 8b 7c 0b 08       	mov    0x8(%rbx,%rcx,1),%rdi
    399e:	e8 ad e9 ff ff       	call   2350 <__isoc99_sscanf@plt>
    39a3:	83 e8 01             	sub    $0x1,%eax
    39a6:	0f 85 04 f7 ff ff    	jne    30b0 <parse_switches.constprop.0+0x220>
/home/tenebris/Disk/Documents/RootCauseAnalysis/evaluation/test_bin/libjpeg/libjpeg_heap_buffer_overflow/libjpeg-turbo/cjpeg.c:448
      if (val < 0 || val > 100)
    39ac:	8b 44 24 44          	mov    0x44(%rsp),%eax
    39b0:	83 f8 64             	cmp    $0x64,%eax
    39b3:	0f 87 f7 f6 ff ff    	ja     30b0 <parse_switches.constprop.0+0x220>
/home/tenebris/Disk/Documents/RootCauseAnalysis/evaluation/test_bin/libjpeg/libjpeg_heap_buffer_overflow/libjpeg-turbo/cjpeg.c:450
      cinfo->smoothing_factor = val;
    39b9:	4c 8b 5c 24 18       	mov    0x18(%rsp),%r11
    39be:	44 8b 54 24 20       	mov    0x20(%rsp),%r10d
    39c3:	89 85 10 01 00 00    	mov    %eax,0x110(%rbp)
    39c9:	e9 81 f6 ff ff       	jmp    304f <parse_switches.constprop.0+0x1bf>
/home/tenebris/Disk/Documents/RootCauseAnalysis/evaluation/test_bin/libjpeg/libjpeg_heap_buffer_overflow/libjpeg-turbo/cjpeg.c:452
    } else if (keymatch(arg, "targa", 1)) {
    39ce:	ba 01 00 00 00       	mov    $0x1,%edx
    39d3:	48 8d 35 a3 57 00 00 	lea    0x57a3(%rip),%rsi        # 917d <_IO_stdin_used+0x17d>
    39da:	e8 21 00 00 00       	call   3a00 <keymatch>
    39df:	85 c0                	test   %eax,%eax
    39e1:	0f 84 c9 f6 ff ff    	je     30b0 <parse_switches.constprop.0+0x220>
/home/tenebris/Disk/Documents/RootCauseAnalysis/evaluation/test_bin/libjpeg/libjpeg_heap_buffer_overflow/libjpeg-turbo/cjpeg.c:454
      is_targa = TRUE;
    39e7:	c7 05 7f 96 00 00 01 	movl   $0x1,0x967f(%rip)        # d070 <is_targa>
    39ee:	00 00 00 
    39f1:	4c 8b 5c 24 18       	mov    0x18(%rsp),%r11
    39f6:	44 8b 54 24 20       	mov    0x20(%rsp),%r10d
    39fb:	e9 4f f6 ff ff       	jmp    304f <parse_switches.constprop.0+0x1bf>

0000000000003a00 <keymatch>:
keymatch():
/home/tenebris/Disk/Documents/RootCauseAnalysis/evaluation/test_bin/libjpeg/libjpeg_heap_buffer_overflow/libjpeg-turbo/cdjpeg.c:87
 * minchars is length of minimum legal abbreviation.
 */

GLOBAL(boolean)
keymatch(char *arg, const char *keyword, int minchars)
{
    3a00:	f3 0f 1e fa          	endbr64 
    3a04:	41 57                	push   %r15
    3a06:	41 56                	push   %r14
    3a08:	41 55                	push   %r13
    3a0a:	41 54                	push   %r12
    3a0c:	55                   	push   %rbp
    3a0d:	53                   	push   %rbx
    3a0e:	48 83 ec 18          	sub    $0x18,%rsp
/home/tenebris/Disk/Documents/RootCauseAnalysis/evaluation/test_bin/libjpeg/libjpeg_heap_buffer_overflow/libjpeg-turbo/cdjpeg.c:91
  register int ca, ck;
  register int nmatched = 0;

  while ((ca = *arg++) != '\0') {
    3a12:	4c 0f be 3f          	movsbq (%rdi),%r15
/home/tenebris/Disk/Documents/RootCauseAnalysis/evaluation/test_bin/libjpeg/libjpeg_heap_buffer_overflow/libjpeg-turbo/cdjpeg.c:87
{
    3a16:	89 54 24 0c          	mov    %edx,0xc(%rsp)
/home/tenebris/Disk/Documents/RootCauseAnalysis/evaluation/test_bin/libjpeg/libjpeg_heap_buffer_overflow/libjpeg-turbo/cdjpeg.c:91
  while ((ca = *arg++) != '\0') {
    3a1a:	45 85 ff             	test   %r15d,%r15d
    3a1d:	74 64                	je     3a83 <keymatch+0x83>
    3a1f:	49 89 fc             	mov    %rdi,%r12
    3a22:	49 89 f5             	mov    %rsi,%r13
    3a25:	4c 89 fb             	mov    %r15,%rbx
    3a28:	31 ed                	xor    %ebp,%ebp
    3a2a:	eb 3a                	jmp    3a66 <keymatch+0x66>
    3a2c:	0f 1f 40 00          	nopl   0x0(%rax)
/home/tenebris/Disk/Documents/RootCauseAnalysis/evaluation/test_bin/libjpeg/libjpeg_heap_buffer_overflow/libjpeg-turbo/cdjpeg.c:94
    if ((ck = *keyword++) == '\0')
      return FALSE;             /* arg longer than keyword, no good */
    if (isupper(ca))            /* force arg to lcase (assume ck is already) */
    3a30:	e8 3b ea ff ff       	call   2470 <__ctype_b_loc@plt>
    3a35:	48 8b 00             	mov    (%rax),%rax
    3a38:	f6 44 58 01 01       	testb  $0x1,0x1(%rax,%rbx,2)
    3a3d:	74 0c                	je     3a4b <keymatch+0x4b>
tolower():
/usr/include/ctype.h:209

# ifdef __USE_EXTERN_INLINES
__extern_inline int
__NTH (tolower (int __c))
{
  return __c >= -128 && __c < 256 ? (*__ctype_tolower_loc ())[__c] : __c;
    3a3f:	e8 1c ea ff ff       	call   2460 <__ctype_tolower_loc@plt>
    3a44:	48 8b 00             	mov    (%rax),%rax
    3a47:	44 8b 3c 98          	mov    (%rax,%rbx,4),%r15d
keymatch():
/home/tenebris/Disk/Documents/RootCauseAnalysis/evaluation/test_bin/libjpeg/libjpeg_heap_buffer_overflow/libjpeg-turbo/cdjpeg.c:96
      ca = tolower(ca);
    if (ca != ck)
    3a4b:	45 39 f7             	cmp    %r14d,%r15d
    3a4e:	75 48                	jne    3a98 <keymatch+0x98>
/home/tenebris/Disk/Documents/RootCauseAnalysis/evaluation/test_bin/libjpeg/libjpeg_heap_buffer_overflow/libjpeg-turbo/cdjpeg.c:91
  while ((ca = *arg++) != '\0') {
    3a50:	49 0f be 5c 2c 01    	movsbq 0x1(%r12,%rbp,1),%rbx
    3a56:	8d 45 01             	lea    0x1(%rbp),%eax
    3a59:	48 83 c5 01          	add    $0x1,%rbp
    3a5d:	44 0f be fb          	movsbl %bl,%r15d
    3a61:	45 85 ff             	test   %r15d,%r15d
    3a64:	74 22                	je     3a88 <keymatch+0x88>
/home/tenebris/Disk/Documents/RootCauseAnalysis/evaluation/test_bin/libjpeg/libjpeg_heap_buffer_overflow/libjpeg-turbo/cdjpeg.c:92
    if ((ck = *keyword++) == '\0')
    3a66:	45 0f be 74 2d 00    	movsbl 0x0(%r13,%rbp,1),%r14d
    3a6c:	45 85 f6             	test   %r14d,%r14d
    3a6f:	75 bf                	jne    3a30 <keymatch+0x30>
/home/tenebris/Disk/Documents/RootCauseAnalysis/evaluation/test_bin/libjpeg/libjpeg_heap_buffer_overflow/libjpeg-turbo/cdjpeg.c:104
  }
  /* reached end of argument; fail if it's too short for unique abbrev */
  if (nmatched < minchars)
    return FALSE;
  return TRUE;                  /* A-OK */
}
    3a71:	48 83 c4 18          	add    $0x18,%rsp
    3a75:	44 89 f0             	mov    %r14d,%eax
    3a78:	5b                   	pop    %rbx
    3a79:	5d                   	pop    %rbp
    3a7a:	41 5c                	pop    %r12
    3a7c:	41 5d                	pop    %r13
    3a7e:	41 5e                	pop    %r14
    3a80:	41 5f                	pop    %r15
    3a82:	c3                   	ret    
/home/tenebris/Disk/Documents/RootCauseAnalysis/evaluation/test_bin/libjpeg/libjpeg_heap_buffer_overflow/libjpeg-turbo/cdjpeg.c:89
  register int nmatched = 0;
    3a83:	31 c0                	xor    %eax,%eax
    3a85:	0f 1f 00             	nopl   (%rax)
/home/tenebris/Disk/Documents/RootCauseAnalysis/evaluation/test_bin/libjpeg/libjpeg_heap_buffer_overflow/libjpeg-turbo/cdjpeg.c:101
  if (nmatched < minchars)
    3a88:	45 31 f6             	xor    %r14d,%r14d
    3a8b:	39 44 24 0c          	cmp    %eax,0xc(%rsp)
    3a8f:	41 0f 9e c6          	setle  %r14b
    3a93:	eb dc                	jmp    3a71 <keymatch+0x71>
    3a95:	0f 1f 00             	nopl   (%rax)
/home/tenebris/Disk/Documents/RootCauseAnalysis/evaluation/test_bin/libjpeg/libjpeg_heap_buffer_overflow/libjpeg-turbo/cdjpeg.c:93
      return FALSE;             /* arg longer than keyword, no good */
    3a98:	45 31 f6             	xor    %r14d,%r14d
    3a9b:	eb d4                	jmp    3a71 <keymatch+0x71>
    3a9d:	0f 1f 00             	nopl   (%rax)

0000000000003aa0 <read_stdin>:
read_stdin():
/home/tenebris/Disk/Documents/RootCauseAnalysis/evaluation/test_bin/libjpeg/libjpeg_heap_buffer_overflow/libjpeg-turbo/cdjpeg.c:114
 * Non-Unix systems often require some hacking to get out of text mode.
 */

GLOBAL(FILE *)
read_stdin(void)
{
    3aa0:	f3 0f 1e fa          	endbr64 
/home/tenebris/Disk/Documents/RootCauseAnalysis/evaluation/test_bin/libjpeg/libjpeg_heap_buffer_overflow/libjpeg-turbo/cdjpeg.c:127
    fprintf(stderr, "Cannot reopen stdin\n");
    exit(EXIT_FAILURE);
  }
#endif
  return input_file;
}
    3aa4:	48 8b 05 85 95 00 00 	mov    0x9585(%rip),%rax        # d030 <stdin@GLIBC_2.2.5>
    3aab:	c3                   	ret    
    3aac:	0f 1f 40 00          	nopl   0x0(%rax)

0000000000003ab0 <write_stdout>:
write_stdout():
/home/tenebris/Disk/Documents/RootCauseAnalysis/evaluation/test_bin/libjpeg/libjpeg_heap_buffer_overflow/libjpeg-turbo/cdjpeg.c:132


GLOBAL(FILE *)
write_stdout(void)
{
    3ab0:	f3 0f 1e fa          	endbr64 
/home/tenebris/Disk/Documents/RootCauseAnalysis/evaluation/test_bin/libjpeg/libjpeg_heap_buffer_overflow/libjpeg-turbo/cdjpeg.c:145
    fprintf(stderr, "Cannot reopen stdout\n");
    exit(EXIT_FAILURE);
  }
#endif
  return output_file;
}
    3ab4:	48 8b 05 65 95 00 00 	mov    0x9565(%rip),%rax        # d020 <stdout@GLIBC_2.2.5>
    3abb:	c3                   	ret    
    3abc:	0f 1f 40 00          	nopl   0x0(%rax)

0000000000003ac0 <jinit_read_gif>:
jinit_read_gif():
/home/tenebris/Disk/Documents/RootCauseAnalysis/evaluation/test_bin/libjpeg/libjpeg_heap_buffer_overflow/libjpeg-turbo/rdgif.c:33
 * The module selection routine for GIF format input.
 */

GLOBAL(cjpeg_source_ptr)
jinit_read_gif(j_compress_ptr cinfo)
{
    3ac0:	f3 0f 1e fa          	endbr64 
    3ac4:	50                   	push   %rax
    3ac5:	58                   	pop    %rax
fprintf():
/usr/include/x86_64-linux-gnu/bits/stdio2.h:105
    3ac6:	48 8d 3d 03 65 00 00 	lea    0x6503(%rip),%rdi        # 9fd0 <_IO_stdin_used+0xfd0>
    3acd:	ba 34 00 00 00       	mov    $0x34,%edx
    3ad2:	be 01 00 00 00       	mov    $0x1,%esi
jinit_read_gif():
/home/tenebris/Disk/Documents/RootCauseAnalysis/evaluation/test_bin/libjpeg/libjpeg_heap_buffer_overflow/libjpeg-turbo/rdgif.c:33
    3ad7:	48 83 ec 08          	sub    $0x8,%rsp
fprintf():
/usr/include/x86_64-linux-gnu/bits/stdio2.h:105
    3adb:	48 8b 0d 5e 95 00 00 	mov    0x955e(%rip),%rcx        # d040 <stderr@GLIBC_2.2.5>
    3ae2:	e8 39 e9 ff ff       	call   2420 <fwrite@plt>
jinit_read_gif():
/home/tenebris/Disk/Documents/RootCauseAnalysis/evaluation/test_bin/libjpeg/libjpeg_heap_buffer_overflow/libjpeg-turbo/rdgif.c:35
  fprintf(stderr, "GIF input is unsupported for legal reasons.  Sorry.\n");
  exit(EXIT_FAILURE);
    3ae7:	bf 01 00 00 00       	mov    $0x1,%edi
    3aec:	e8 1f e9 ff ff       	call   2410 <exit@plt>
    3af1:	66 2e 0f 1f 84 00 00 	cs nopw 0x0(%rax,%rax,1)
    3af8:	00 00 00 
    3afb:	0f 1f 44 00 00       	nopl   0x0(%rax,%rax,1)

0000000000003b00 <finish_input_ppm>:
finish_input_ppm():
/home/tenebris/Disk/Documents/RootCauseAnalysis/evaluation/test_bin/libjpeg/libjpeg_heap_buffer_overflow/libjpeg-turbo/rdppm.c:741
 * Finish up at the end of the file.
 */

METHODDEF(void)
finish_input_ppm(j_compress_ptr cinfo, cjpeg_source_ptr sinfo)
{
    3b00:	f3 0f 1e fa          	endbr64 
/home/tenebris/Disk/Documents/RootCauseAnalysis/evaluation/test_bin/libjpeg/libjpeg_heap_buffer_overflow/libjpeg-turbo/rdppm.c:743
  /* no work */
}
    3b04:	c3                   	ret    
    3b05:	66 66 2e 0f 1f 84 00 	data16 cs nopw 0x0(%rax,%rax,1)
    3b0c:	00 00 00 00 

0000000000003b10 <get_scaled_gray_row>:
get_scaled_gray_row():
/home/tenebris/Disk/Documents/RootCauseAnalysis/evaluation/test_bin/libjpeg/libjpeg_heap_buffer_overflow/libjpeg-turbo/rdppm.c:318
{
    3b10:	f3 0f 1e fa          	endbr64 
    3b14:	41 54                	push   %r12
    3b16:	49 89 fc             	mov    %rdi,%r12
    3b19:	55                   	push   %rbp
    3b1a:	53                   	push   %rbx
fread():
/usr/include/x86_64-linux-gnu/bits/stdio2.h:293
    return __fread_alias (__ptr, __size, __n, __stream);
    3b1b:	48 8b 4e 18          	mov    0x18(%rsi),%rcx
get_scaled_gray_row():
/home/tenebris/Disk/Documents/RootCauseAnalysis/evaluation/test_bin/libjpeg/libjpeg_heap_buffer_overflow/libjpeg-turbo/rdppm.c:318
    3b1f:	48 89 f3             	mov    %rsi,%rbx
fread():
/usr/include/x86_64-linux-gnu/bits/stdio2.h:293
    3b22:	48 8b 56 40          	mov    0x40(%rsi),%rdx
    3b26:	48 8b 7e 30          	mov    0x30(%rsi),%rdi
get_scaled_gray_row():
/home/tenebris/Disk/Documents/RootCauseAnalysis/evaluation/test_bin/libjpeg/libjpeg_heap_buffer_overflow/libjpeg-turbo/rdppm.c:322
  register JSAMPLE *rescale = source->rescale;
    3b2a:	48 8b 6e 48          	mov    0x48(%rsi),%rbp
fread():
/usr/include/x86_64-linux-gnu/bits/stdio2.h:293
    3b2e:	be 01 00 00 00       	mov    $0x1,%esi
    3b33:	e8 48 e7 ff ff       	call   2280 <fread@plt>
get_scaled_gray_row():
/home/tenebris/Disk/Documents/RootCauseAnalysis/evaluation/test_bin/libjpeg/libjpeg_heap_buffer_overflow/libjpeg-turbo/rdppm.c:325
  if (!ReadOK(source->pub.input_file, source->iobuffer, source->buffer_width))
    3b38:	48 39 43 40          	cmp    %rax,0x40(%rbx)
    3b3c:	74 10                	je     3b4e <get_scaled_gray_row+0x3e>
/home/tenebris/Disk/Documents/RootCauseAnalysis/evaluation/test_bin/libjpeg/libjpeg_heap_buffer_overflow/libjpeg-turbo/rdppm.c:326
    ERREXIT(cinfo, JERR_INPUT_EOF);
    3b3e:	49 8b 04 24          	mov    (%r12),%rax
    3b42:	4c 89 e7             	mov    %r12,%rdi
    3b45:	c7 40 28 2b 00 00 00 	movl   $0x2b,0x28(%rax)
    3b4c:	ff 10                	call   *(%rax)
/home/tenebris/Disk/Documents/RootCauseAnalysis/evaluation/test_bin/libjpeg/libjpeg_heap_buffer_overflow/libjpeg-turbo/rdppm.c:327
  ptr = source->pub.buffer[0];
    3b4e:	48 8b 43 20          	mov    0x20(%rbx),%rax
/home/tenebris/Disk/Documents/RootCauseAnalysis/evaluation/test_bin/libjpeg/libjpeg_heap_buffer_overflow/libjpeg-turbo/rdppm.c:329
  for (col = cinfo->image_width; col > 0; col--) {
    3b52:	41 8b 4c 24 30       	mov    0x30(%r12),%ecx
/home/tenebris/Disk/Documents/RootCauseAnalysis/evaluation/test_bin/libjpeg/libjpeg_heap_buffer_overflow/libjpeg-turbo/rdppm.c:328
  bufferptr = source->iobuffer;
    3b57:	48 8b 7b 30          	mov    0x30(%rbx),%rdi
/home/tenebris/Disk/Documents/RootCauseAnalysis/evaluation/test_bin/libjpeg/libjpeg_heap_buffer_overflow/libjpeg-turbo/rdppm.c:327
  ptr = source->pub.buffer[0];
    3b5b:	48 8b 30             	mov    (%rax),%rsi
/home/tenebris/Disk/Documents/RootCauseAnalysis/evaluation/test_bin/libjpeg/libjpeg_heap_buffer_overflow/libjpeg-turbo/rdppm.c:329
  for (col = cinfo->image_width; col > 0; col--) {
    3b5e:	85 c9                	test   %ecx,%ecx
    3b60:	74 1b                	je     3b7d <get_scaled_gray_row+0x6d>
    3b62:	31 c0                	xor    %eax,%eax
    3b64:	0f 1f 40 00          	nopl   0x0(%rax)
/home/tenebris/Disk/Documents/RootCauseAnalysis/evaluation/test_bin/libjpeg/libjpeg_heap_buffer_overflow/libjpeg-turbo/rdppm.c:330 (discriminator 3)
    *ptr++ = rescale[UCH(*bufferptr++)];
    3b68:	0f b6 14 07          	movzbl (%rdi,%rax,1),%edx
    3b6c:	0f b6 54 15 00       	movzbl 0x0(%rbp,%rdx,1),%edx
    3b71:	88 14 06             	mov    %dl,(%rsi,%rax,1)
/home/tenebris/Disk/Documents/RootCauseAnalysis/evaluation/test_bin/libjpeg/libjpeg_heap_buffer_overflow/libjpeg-turbo/rdppm.c:329 (discriminator 3)
  for (col = cinfo->image_width; col > 0; col--) {
    3b74:	48 83 c0 01          	add    $0x1,%rax
    3b78:	48 39 c1             	cmp    %rax,%rcx
    3b7b:	75 eb                	jne    3b68 <get_scaled_gray_row+0x58>
/home/tenebris/Disk/Documents/RootCauseAnalysis/evaluation/test_bin/libjpeg/libjpeg_heap_buffer_overflow/libjpeg-turbo/rdppm.c:333
}
    3b7d:	5b                   	pop    %rbx
    3b7e:	b8 01 00 00 00       	mov    $0x1,%eax
    3b83:	5d                   	pop    %rbp
    3b84:	41 5c                	pop    %r12
    3b86:	c3                   	ret    
    3b87:	66 0f 1f 84 00 00 00 	nopw   0x0(%rax,%rax,1)
    3b8e:	00 00 

0000000000003b90 <get_gray_rgb_row>:
get_gray_rgb_row():
/home/tenebris/Disk/Documents/RootCauseAnalysis/evaluation/test_bin/libjpeg/libjpeg_heap_buffer_overflow/libjpeg-turbo/rdppm.c:340
{
    3b90:	f3 0f 1e fa          	endbr64 
    3b94:	41 57                	push   %r15
/home/tenebris/Disk/Documents/RootCauseAnalysis/evaluation/test_bin/libjpeg/libjpeg_heap_buffer_overflow/libjpeg-turbo/rdppm.c:347
  register int rindex = rgb_red[cinfo->in_color_space];
    3b96:	48 8d 15 03 66 00 00 	lea    0x6603(%rip),%rdx        # a1a0 <rgb_red>
/home/tenebris/Disk/Documents/RootCauseAnalysis/evaluation/test_bin/libjpeg/libjpeg_heap_buffer_overflow/libjpeg-turbo/rdppm.c:340
{
    3b9d:	41 56                	push   %r14
    3b9f:	41 55                	push   %r13
    3ba1:	41 54                	push   %r12
    3ba3:	49 89 f4             	mov    %rsi,%r12
    3ba6:	55                   	push   %rbp
    3ba7:	48 89 fd             	mov    %rdi,%rbp
    3baa:	53                   	push   %rbx
    3bab:	48 83 ec 18          	sub    $0x18,%rsp
/home/tenebris/Disk/Documents/RootCauseAnalysis/evaluation/test_bin/libjpeg/libjpeg_heap_buffer_overflow/libjpeg-turbo/rdppm.c:347
  register int rindex = rgb_red[cinfo->in_color_space];
    3baf:	8b 47 3c             	mov    0x3c(%rdi),%eax
/home/tenebris/Disk/Documents/RootCauseAnalysis/evaluation/test_bin/libjpeg/libjpeg_heap_buffer_overflow/libjpeg-turbo/rdppm.c:344
  register JSAMPLE *rescale = source->rescale;
    3bb2:	4c 8b 7e 48          	mov    0x48(%rsi),%r15
/home/tenebris/Disk/Documents/RootCauseAnalysis/evaluation/test_bin/libjpeg/libjpeg_heap_buffer_overflow/libjpeg-turbo/rdppm.c:346
  unsigned int maxval = source->maxval;
    3bb6:	8b 5e 50             	mov    0x50(%rsi),%ebx
fread():
/usr/include/x86_64-linux-gnu/bits/stdio2.h:293
    3bb9:	49 8b 4c 24 18       	mov    0x18(%r12),%rcx
get_gray_rgb_row():
/home/tenebris/Disk/Documents/RootCauseAnalysis/evaluation/test_bin/libjpeg/libjpeg_heap_buffer_overflow/libjpeg-turbo/rdppm.c:347
  register int rindex = rgb_red[cinfo->in_color_space];
    3bbe:	8b 3c 82             	mov    (%rdx,%rax,4),%edi
/home/tenebris/Disk/Documents/RootCauseAnalysis/evaluation/test_bin/libjpeg/libjpeg_heap_buffer_overflow/libjpeg-turbo/rdppm.c:348
  register int gindex = rgb_green[cinfo->in_color_space];
    3bc1:	48 8d 15 78 65 00 00 	lea    0x6578(%rip),%rdx        # a140 <rgb_green>
    3bc8:	8b 34 82             	mov    (%rdx,%rax,4),%esi
/home/tenebris/Disk/Documents/RootCauseAnalysis/evaluation/test_bin/libjpeg/libjpeg_heap_buffer_overflow/libjpeg-turbo/rdppm.c:349
  register int bindex = rgb_blue[cinfo->in_color_space];
    3bcb:	48 8d 15 0e 65 00 00 	lea    0x650e(%rip),%rdx        # a0e0 <rgb_blue>
/home/tenebris/Disk/Documents/RootCauseAnalysis/evaluation/test_bin/libjpeg/libjpeg_heap_buffer_overflow/libjpeg-turbo/rdppm.c:347
  register int rindex = rgb_red[cinfo->in_color_space];
    3bd2:	89 7c 24 04          	mov    %edi,0x4(%rsp)
/home/tenebris/Disk/Documents/RootCauseAnalysis/evaluation/test_bin/libjpeg/libjpeg_heap_buffer_overflow/libjpeg-turbo/rdppm.c:349
  register int bindex = rgb_blue[cinfo->in_color_space];
    3bd6:	8b 3c 82             	mov    (%rdx,%rax,4),%edi
/home/tenebris/Disk/Documents/RootCauseAnalysis/evaluation/test_bin/libjpeg/libjpeg_heap_buffer_overflow/libjpeg-turbo/rdppm.c:350
  register int aindex = alpha_index[cinfo->in_color_space];
    3bd9:	48 8d 15 40 64 00 00 	lea    0x6440(%rip),%rdx        # a020 <alpha_index>
    3be0:	4c 63 34 82          	movslq (%rdx,%rax,4),%r14
/home/tenebris/Disk/Documents/RootCauseAnalysis/evaluation/test_bin/libjpeg/libjpeg_heap_buffer_overflow/libjpeg-turbo/rdppm.c:351
  register int ps = rgb_pixelsize[cinfo->in_color_space];
    3be4:	48 8d 15 95 64 00 00 	lea    0x6495(%rip),%rdx        # a080 <rgb_pixelsize>
/home/tenebris/Disk/Documents/RootCauseAnalysis/evaluation/test_bin/libjpeg/libjpeg_heap_buffer_overflow/libjpeg-turbo/rdppm.c:348
  register int gindex = rgb_green[cinfo->in_color_space];
    3beb:	89 74 24 08          	mov    %esi,0x8(%rsp)
fread():
/usr/include/x86_64-linux-gnu/bits/stdio2.h:293
    3bef:	be 01 00 00 00       	mov    $0x1,%esi
get_gray_rgb_row():
/home/tenebris/Disk/Documents/RootCauseAnalysis/evaluation/test_bin/libjpeg/libjpeg_heap_buffer_overflow/libjpeg-turbo/rdppm.c:349
  register int bindex = rgb_blue[cinfo->in_color_space];
    3bf4:	89 7c 24 0c          	mov    %edi,0xc(%rsp)
/home/tenebris/Disk/Documents/RootCauseAnalysis/evaluation/test_bin/libjpeg/libjpeg_heap_buffer_overflow/libjpeg-turbo/rdppm.c:351
  register int ps = rgb_pixelsize[cinfo->in_color_space];
    3bf8:	44 8b 2c 82          	mov    (%rdx,%rax,4),%r13d
fread():
/usr/include/x86_64-linux-gnu/bits/stdio2.h:293
    3bfc:	49 8b 7c 24 30       	mov    0x30(%r12),%rdi
    3c01:	49 8b 54 24 40       	mov    0x40(%r12),%rdx
    3c06:	e8 75 e6 ff ff       	call   2280 <fread@plt>
get_gray_rgb_row():
/home/tenebris/Disk/Documents/RootCauseAnalysis/evaluation/test_bin/libjpeg/libjpeg_heap_buffer_overflow/libjpeg-turbo/rdppm.c:353
  if (!ReadOK(source->pub.input_file, source->iobuffer, source->buffer_width))
    3c0b:	49 39 44 24 40       	cmp    %rax,0x40(%r12)
    3c10:	74 10                	je     3c22 <get_gray_rgb_row+0x92>
/home/tenebris/Disk/Documents/RootCauseAnalysis/evaluation/test_bin/libjpeg/libjpeg_heap_buffer_overflow/libjpeg-turbo/rdppm.c:354
    ERREXIT(cinfo, JERR_INPUT_EOF);
    3c12:	48 8b 45 00          	mov    0x0(%rbp),%rax
    3c16:	48 89 ef             	mov    %rbp,%rdi
    3c19:	c7 40 28 2b 00 00 00 	movl   $0x2b,0x28(%rax)
    3c20:	ff 10                	call   *(%rax)
/home/tenebris/Disk/Documents/RootCauseAnalysis/evaluation/test_bin/libjpeg/libjpeg_heap_buffer_overflow/libjpeg-turbo/rdppm.c:355
  ptr = source->pub.buffer[0];
    3c22:	49 8b 44 24 20       	mov    0x20(%r12),%rax
/home/tenebris/Disk/Documents/RootCauseAnalysis/evaluation/test_bin/libjpeg/libjpeg_heap_buffer_overflow/libjpeg-turbo/rdppm.c:356
  bufferptr = source->iobuffer;
    3c27:	49 8b 54 24 30       	mov    0x30(%r12),%rdx
/home/tenebris/Disk/Documents/RootCauseAnalysis/evaluation/test_bin/libjpeg/libjpeg_heap_buffer_overflow/libjpeg-turbo/rdppm.c:359
      GRAY_RGB_READ_LOOP(*bufferptr++, ptr[aindex] = 0xFF;)
    3c2c:	8b 75 30             	mov    0x30(%rbp),%esi
/home/tenebris/Disk/Documents/RootCauseAnalysis/evaluation/test_bin/libjpeg/libjpeg_heap_buffer_overflow/libjpeg-turbo/rdppm.c:355
  ptr = source->pub.buffer[0];
    3c2f:	48 8b 00             	mov    (%rax),%rax
/home/tenebris/Disk/Documents/RootCauseAnalysis/evaluation/test_bin/libjpeg/libjpeg_heap_buffer_overflow/libjpeg-turbo/rdppm.c:357
  if (maxval == MAXJSAMPLE) {
    3c32:	81 fb ff 00 00 00    	cmp    $0xff,%ebx
    3c38:	0f 84 22 01 00 00    	je     3d60 <get_gray_rgb_row+0x1d0>
/home/tenebris/Disk/Documents/RootCauseAnalysis/evaluation/test_bin/libjpeg/libjpeg_heap_buffer_overflow/libjpeg-turbo/rdppm.c:363
    if (aindex >= 0)
    3c3e:	45 85 f6             	test   %r14d,%r14d
    3c41:	0f 88 99 00 00 00    	js     3ce0 <get_gray_rgb_row+0x150>
/home/tenebris/Disk/Documents/RootCauseAnalysis/evaluation/test_bin/libjpeg/libjpeg_heap_buffer_overflow/libjpeg-turbo/rdppm.c:364
      GRAY_RGB_READ_LOOP(rescale[UCH(*bufferptr++)], ptr[aindex] = 0xFF;)
    3c47:	85 f6                	test   %esi,%esi
    3c49:	74 51                	je     3c9c <get_gray_rgb_row+0x10c>
/home/tenebris/Disk/Documents/RootCauseAnalysis/evaluation/test_bin/libjpeg/libjpeg_heap_buffer_overflow/libjpeg-turbo/rdppm.c:359
      GRAY_RGB_READ_LOOP(*bufferptr++, ptr[aindex] = 0xFF;)
    3c4b:	48 63 5c 24 0c       	movslq 0xc(%rsp),%rbx
    3c50:	4c 63 64 24 08       	movslq 0x8(%rsp),%r12
    3c55:	4d 63 cd             	movslq %r13d,%r9
    3c58:	48 8d 3c 32          	lea    (%rdx,%rsi,1),%rdi
    3c5c:	48 63 6c 24 04       	movslq 0x4(%rsp),%rbp
    3c61:	48 01 d8             	add    %rbx,%rax
    3c64:	41 83 fd 01          	cmp    $0x1,%r13d
    3c68:	75 46                	jne    3cb0 <get_gray_rgb_row+0x120>
    3c6a:	66 0f 1f 44 00 00    	nopw   0x0(%rax,%rax,1)
/home/tenebris/Disk/Documents/RootCauseAnalysis/evaluation/test_bin/libjpeg/libjpeg_heap_buffer_overflow/libjpeg-turbo/rdppm.c:364
      GRAY_RGB_READ_LOOP(rescale[UCH(*bufferptr++)], ptr[aindex] = 0xFF;)
    3c70:	0f b6 0a             	movzbl (%rdx),%ecx
    3c73:	48 83 c2 01          	add    $0x1,%rdx
    3c77:	41 0f b6 34 0f       	movzbl (%r15,%rcx,1),%esi
    3c7c:	48 89 c1             	mov    %rax,%rcx
    3c7f:	48 83 c0 01          	add    $0x1,%rax
    3c83:	48 29 d9             	sub    %rbx,%rcx
    3c86:	40 88 70 ff          	mov    %sil,-0x1(%rax)
    3c8a:	42 88 34 21          	mov    %sil,(%rcx,%r12,1)
    3c8e:	40 88 34 29          	mov    %sil,(%rcx,%rbp,1)
    3c92:	42 c6 04 31 ff       	movb   $0xff,(%rcx,%r14,1)
    3c97:	48 39 fa             	cmp    %rdi,%rdx
    3c9a:	75 d4                	jne    3c70 <get_gray_rgb_row+0xe0>
/home/tenebris/Disk/Documents/RootCauseAnalysis/evaluation/test_bin/libjpeg/libjpeg_heap_buffer_overflow/libjpeg-turbo/rdppm.c:369
}
    3c9c:	48 83 c4 18          	add    $0x18,%rsp
    3ca0:	b8 01 00 00 00       	mov    $0x1,%eax
    3ca5:	5b                   	pop    %rbx
    3ca6:	5d                   	pop    %rbp
    3ca7:	41 5c                	pop    %r12
    3ca9:	41 5d                	pop    %r13
    3cab:	41 5e                	pop    %r14
    3cad:	41 5f                	pop    %r15
    3caf:	c3                   	ret    
/home/tenebris/Disk/Documents/RootCauseAnalysis/evaluation/test_bin/libjpeg/libjpeg_heap_buffer_overflow/libjpeg-turbo/rdppm.c:364 (discriminator 3)
      GRAY_RGB_READ_LOOP(rescale[UCH(*bufferptr++)], ptr[aindex] = 0xFF;)
    3cb0:	0f b6 0a             	movzbl (%rdx),%ecx
    3cb3:	48 83 c2 01          	add    $0x1,%rdx
    3cb7:	41 0f b6 34 0f       	movzbl (%r15,%rcx,1),%esi
    3cbc:	48 89 c1             	mov    %rax,%rcx
    3cbf:	48 29 d9             	sub    %rbx,%rcx
    3cc2:	40 88 30             	mov    %sil,(%rax)
    3cc5:	4c 01 c8             	add    %r9,%rax
    3cc8:	42 88 34 21          	mov    %sil,(%rcx,%r12,1)
    3ccc:	40 88 34 29          	mov    %sil,(%rcx,%rbp,1)
    3cd0:	42 c6 04 31 ff       	movb   $0xff,(%rcx,%r14,1)
    3cd5:	48 39 fa             	cmp    %rdi,%rdx
    3cd8:	75 d6                	jne    3cb0 <get_gray_rgb_row+0x120>
    3cda:	eb c0                	jmp    3c9c <get_gray_rgb_row+0x10c>
    3cdc:	0f 1f 40 00          	nopl   0x0(%rax)
/home/tenebris/Disk/Documents/RootCauseAnalysis/evaluation/test_bin/libjpeg/libjpeg_heap_buffer_overflow/libjpeg-turbo/rdppm.c:366
      GRAY_RGB_READ_LOOP(rescale[UCH(*bufferptr++)],)
    3ce0:	85 f6                	test   %esi,%esi
    3ce2:	74 b8                	je     3c9c <get_gray_rgb_row+0x10c>
/home/tenebris/Disk/Documents/RootCauseAnalysis/evaluation/test_bin/libjpeg/libjpeg_heap_buffer_overflow/libjpeg-turbo/rdppm.c:359
      GRAY_RGB_READ_LOOP(*bufferptr++, ptr[aindex] = 0xFF;)
    3ce4:	48 63 5c 24 0c       	movslq 0xc(%rsp),%rbx
    3ce9:	4c 63 64 24 08       	movslq 0x8(%rsp),%r12
    3cee:	4d 63 cd             	movslq %r13d,%r9
    3cf1:	48 01 d6             	add    %rdx,%rsi
    3cf4:	48 63 6c 24 04       	movslq 0x4(%rsp),%rbp
    3cf9:	48 01 d8             	add    %rbx,%rax
    3cfc:	41 83 fd 01          	cmp    $0x1,%r13d
    3d00:	75 36                	jne    3d38 <get_gray_rgb_row+0x1a8>
    3d02:	66 0f 1f 44 00 00    	nopw   0x0(%rax,%rax,1)
/home/tenebris/Disk/Documents/RootCauseAnalysis/evaluation/test_bin/libjpeg/libjpeg_heap_buffer_overflow/libjpeg-turbo/rdppm.c:366
      GRAY_RGB_READ_LOOP(rescale[UCH(*bufferptr++)],)
    3d08:	0f b6 0a             	movzbl (%rdx),%ecx
    3d0b:	48 89 c7             	mov    %rax,%rdi
    3d0e:	48 83 c2 01          	add    $0x1,%rdx
    3d12:	48 83 c0 01          	add    $0x1,%rax
    3d16:	48 29 df             	sub    %rbx,%rdi
    3d19:	41 0f b6 0c 0f       	movzbl (%r15,%rcx,1),%ecx
    3d1e:	88 48 ff             	mov    %cl,-0x1(%rax)
    3d21:	42 88 0c 27          	mov    %cl,(%rdi,%r12,1)
    3d25:	88 0c 2f             	mov    %cl,(%rdi,%rbp,1)
    3d28:	48 39 f2             	cmp    %rsi,%rdx
    3d2b:	75 db                	jne    3d08 <get_gray_rgb_row+0x178>
    3d2d:	e9 6a ff ff ff       	jmp    3c9c <get_gray_rgb_row+0x10c>
    3d32:	66 0f 1f 44 00 00    	nopw   0x0(%rax,%rax,1)
/home/tenebris/Disk/Documents/RootCauseAnalysis/evaluation/test_bin/libjpeg/libjpeg_heap_buffer_overflow/libjpeg-turbo/rdppm.c:366 (discriminator 3)
    3d38:	0f b6 0a             	movzbl (%rdx),%ecx
    3d3b:	48 89 c7             	mov    %rax,%rdi
    3d3e:	48 83 c2 01          	add    $0x1,%rdx
    3d42:	48 29 df             	sub    %rbx,%rdi
    3d45:	41 0f b6 0c 0f       	movzbl (%r15,%rcx,1),%ecx
    3d4a:	88 08                	mov    %cl,(%rax)
    3d4c:	4c 01 c8             	add    %r9,%rax
    3d4f:	42 88 0c 27          	mov    %cl,(%rdi,%r12,1)
    3d53:	88 0c 2f             	mov    %cl,(%rdi,%rbp,1)
    3d56:	48 39 f2             	cmp    %rsi,%rdx
    3d59:	75 dd                	jne    3d38 <get_gray_rgb_row+0x1a8>
    3d5b:	e9 3c ff ff ff       	jmp    3c9c <get_gray_rgb_row+0x10c>
/home/tenebris/Disk/Documents/RootCauseAnalysis/evaluation/test_bin/libjpeg/libjpeg_heap_buffer_overflow/libjpeg-turbo/rdppm.c:358
    if (aindex >= 0)
    3d60:	45 85 f6             	test   %r14d,%r14d
    3d63:	0f 88 87 00 00 00    	js     3df0 <get_gray_rgb_row+0x260>
/home/tenebris/Disk/Documents/RootCauseAnalysis/evaluation/test_bin/libjpeg/libjpeg_heap_buffer_overflow/libjpeg-turbo/rdppm.c:359
      GRAY_RGB_READ_LOOP(*bufferptr++, ptr[aindex] = 0xFF;)
    3d69:	85 f6                	test   %esi,%esi
    3d6b:	0f 84 2b ff ff ff    	je     3c9c <get_gray_rgb_row+0x10c>
    3d71:	48 63 5c 24 0c       	movslq 0xc(%rsp),%rbx
    3d76:	4c 63 64 24 08       	movslq 0x8(%rsp),%r12
    3d7b:	4d 63 c5             	movslq %r13d,%r8
    3d7e:	48 8d 3c 32          	lea    (%rdx,%rsi,1),%rdi
    3d82:	48 63 6c 24 04       	movslq 0x4(%rsp),%rbp
    3d87:	48 01 d8             	add    %rbx,%rax
    3d8a:	41 83 fd 01          	cmp    $0x1,%r13d
    3d8e:	75 30                	jne    3dc0 <get_gray_rgb_row+0x230>
    3d90:	0f b6 32             	movzbl (%rdx),%esi
    3d93:	48 89 c1             	mov    %rax,%rcx
    3d96:	48 83 c2 01          	add    $0x1,%rdx
    3d9a:	48 83 c0 01          	add    $0x1,%rax
    3d9e:	48 29 d9             	sub    %rbx,%rcx
    3da1:	40 88 70 ff          	mov    %sil,-0x1(%rax)
    3da5:	42 88 34 21          	mov    %sil,(%rcx,%r12,1)
    3da9:	40 88 34 29          	mov    %sil,(%rcx,%rbp,1)
    3dad:	42 c6 04 31 ff       	movb   $0xff,(%rcx,%r14,1)
    3db2:	48 39 fa             	cmp    %rdi,%rdx
    3db5:	75 d9                	jne    3d90 <get_gray_rgb_row+0x200>
    3db7:	e9 e0 fe ff ff       	jmp    3c9c <get_gray_rgb_row+0x10c>
    3dbc:	0f 1f 40 00          	nopl   0x0(%rax)
/home/tenebris/Disk/Documents/RootCauseAnalysis/evaluation/test_bin/libjpeg/libjpeg_heap_buffer_overflow/libjpeg-turbo/rdppm.c:359 (discriminator 3)
    3dc0:	0f b6 32             	movzbl (%rdx),%esi
    3dc3:	48 89 c1             	mov    %rax,%rcx
    3dc6:	48 83 c2 01          	add    $0x1,%rdx
    3dca:	48 29 d9             	sub    %rbx,%rcx
    3dcd:	40 88 30             	mov    %sil,(%rax)
    3dd0:	4c 01 c0             	add    %r8,%rax
    3dd3:	42 88 34 21          	mov    %sil,(%rcx,%r12,1)
    3dd7:	40 88 34 29          	mov    %sil,(%rcx,%rbp,1)
    3ddb:	42 c6 04 31 ff       	movb   $0xff,(%rcx,%r14,1)
    3de0:	48 39 fa             	cmp    %rdi,%rdx
    3de3:	75 db                	jne    3dc0 <get_gray_rgb_row+0x230>
    3de5:	e9 b2 fe ff ff       	jmp    3c9c <get_gray_rgb_row+0x10c>
    3dea:	66 0f 1f 44 00 00    	nopw   0x0(%rax,%rax,1)
/home/tenebris/Disk/Documents/RootCauseAnalysis/evaluation/test_bin/libjpeg/libjpeg_heap_buffer_overflow/libjpeg-turbo/rdppm.c:361
      GRAY_RGB_READ_LOOP(*bufferptr++,)
    3df0:	85 f6                	test   %esi,%esi
    3df2:	0f 84 a4 fe ff ff    	je     3c9c <get_gray_rgb_row+0x10c>
/home/tenebris/Disk/Documents/RootCauseAnalysis/evaluation/test_bin/libjpeg/libjpeg_heap_buffer_overflow/libjpeg-turbo/rdppm.c:359
      GRAY_RGB_READ_LOOP(*bufferptr++, ptr[aindex] = 0xFF;)
    3df8:	48 63 5c 24 0c       	movslq 0xc(%rsp),%rbx
    3dfd:	4c 63 64 24 08       	movslq 0x8(%rsp),%r12
    3e02:	4d 63 c5             	movslq %r13d,%r8
    3e05:	48 01 d6             	add    %rdx,%rsi
    3e08:	48 63 6c 24 04       	movslq 0x4(%rsp),%rbp
    3e0d:	48 01 d8             	add    %rbx,%rax
    3e10:	41 83 fd 01          	cmp    $0x1,%r13d
    3e14:	75 32                	jne    3e48 <get_gray_rgb_row+0x2b8>
    3e16:	66 2e 0f 1f 84 00 00 	cs nopw 0x0(%rax,%rax,1)
    3e1d:	00 00 00 
/home/tenebris/Disk/Documents/RootCauseAnalysis/evaluation/test_bin/libjpeg/libjpeg_heap_buffer_overflow/libjpeg-turbo/rdppm.c:361
      GRAY_RGB_READ_LOOP(*bufferptr++,)
    3e20:	0f b6 0a             	movzbl (%rdx),%ecx
    3e23:	48 89 c7             	mov    %rax,%rdi
    3e26:	48 83 c2 01          	add    $0x1,%rdx
    3e2a:	48 83 c0 01          	add    $0x1,%rax
    3e2e:	48 29 df             	sub    %rbx,%rdi
    3e31:	88 48 ff             	mov    %cl,-0x1(%rax)
    3e34:	42 88 0c 27          	mov    %cl,(%rdi,%r12,1)
    3e38:	88 0c 2f             	mov    %cl,(%rdi,%rbp,1)
    3e3b:	48 39 f2             	cmp    %rsi,%rdx
    3e3e:	75 e0                	jne    3e20 <get_gray_rgb_row+0x290>
    3e40:	e9 57 fe ff ff       	jmp    3c9c <get_gray_rgb_row+0x10c>
    3e45:	0f 1f 00             	nopl   (%rax)
/home/tenebris/Disk/Documents/RootCauseAnalysis/evaluation/test_bin/libjpeg/libjpeg_heap_buffer_overflow/libjpeg-turbo/rdppm.c:361 (discriminator 3)
    3e48:	0f b6 0a             	movzbl (%rdx),%ecx
    3e4b:	48 89 c7             	mov    %rax,%rdi
    3e4e:	48 83 c2 01          	add    $0x1,%rdx
    3e52:	48 29 df             	sub    %rbx,%rdi
    3e55:	88 08                	mov    %cl,(%rax)
    3e57:	4c 01 c0             	add    %r8,%rax
    3e5a:	42 88 0c 27          	mov    %cl,(%rdi,%r12,1)
    3e5e:	88 0c 2f             	mov    %cl,(%rdi,%rbp,1)
    3e61:	48 39 f2             	cmp    %rsi,%rdx
    3e64:	75 e2                	jne    3e48 <get_gray_rgb_row+0x2b8>
    3e66:	e9 31 fe ff ff       	jmp    3c9c <get_gray_rgb_row+0x10c>
    3e6b:	0f 1f 44 00 00       	nopl   0x0(%rax,%rax,1)

0000000000003e70 <get_gray_cmyk_row>:
get_gray_cmyk_row():
/home/tenebris/Disk/Documents/RootCauseAnalysis/evaluation/test_bin/libjpeg/libjpeg_heap_buffer_overflow/libjpeg-turbo/rdppm.c:376
{
    3e70:	f3 0f 1e fa          	endbr64 
    3e74:	41 55                	push   %r13
    3e76:	41 54                	push   %r12
    3e78:	49 89 fc             	mov    %rdi,%r12
    3e7b:	55                   	push   %rbp
    3e7c:	53                   	push   %rbx
    3e7d:	48 89 f3             	mov    %rsi,%rbx
    3e80:	48 83 ec 08          	sub    $0x8,%rsp
fread():
/usr/include/x86_64-linux-gnu/bits/stdio2.h:293
    3e84:	48 8b 4e 18          	mov    0x18(%rsi),%rcx
    3e88:	48 8b 56 40          	mov    0x40(%rsi),%rdx
    3e8c:	48 8b 7e 30          	mov    0x30(%rsi),%rdi
get_gray_cmyk_row():
/home/tenebris/Disk/Documents/RootCauseAnalysis/evaluation/test_bin/libjpeg/libjpeg_heap_buffer_overflow/libjpeg-turbo/rdppm.c:380
  register JSAMPLE *rescale = source->rescale;
    3e90:	48 8b 6e 48          	mov    0x48(%rsi),%rbp
/home/tenebris/Disk/Documents/RootCauseAnalysis/evaluation/test_bin/libjpeg/libjpeg_heap_buffer_overflow/libjpeg-turbo/rdppm.c:382
  unsigned int maxval = source->maxval;
    3e94:	44 8b 6e 50          	mov    0x50(%rsi),%r13d
fread():
/usr/include/x86_64-linux-gnu/bits/stdio2.h:293
    3e98:	be 01 00 00 00       	mov    $0x1,%esi
    3e9d:	e8 de e3 ff ff       	call   2280 <fread@plt>
get_gray_cmyk_row():
/home/tenebris/Disk/Documents/RootCauseAnalysis/evaluation/test_bin/libjpeg/libjpeg_heap_buffer_overflow/libjpeg-turbo/rdppm.c:384
  if (!ReadOK(source->pub.input_file, source->iobuffer, source->buffer_width))
    3ea2:	48 39 43 40          	cmp    %rax,0x40(%rbx)
    3ea6:	74 10                	je     3eb8 <get_gray_cmyk_row+0x48>
/home/tenebris/Disk/Documents/RootCauseAnalysis/evaluation/test_bin/libjpeg/libjpeg_heap_buffer_overflow/libjpeg-turbo/rdppm.c:385
    ERREXIT(cinfo, JERR_INPUT_EOF);
    3ea8:	49 8b 04 24          	mov    (%r12),%rax
    3eac:	4c 89 e7             	mov    %r12,%rdi
    3eaf:	c7 40 28 2b 00 00 00 	movl   $0x2b,0x28(%rax)
    3eb6:	ff 10                	call   *(%rax)
/home/tenebris/Disk/Documents/RootCauseAnalysis/evaluation/test_bin/libjpeg/libjpeg_heap_buffer_overflow/libjpeg-turbo/rdppm.c:386
  ptr = source->pub.buffer[0];
    3eb8:	48 8b 43 20          	mov    0x20(%rbx),%rax
/home/tenebris/Disk/Documents/RootCauseAnalysis/evaluation/test_bin/libjpeg/libjpeg_heap_buffer_overflow/libjpeg-turbo/rdppm.c:387
  bufferptr = source->iobuffer;
    3ebc:	48 8b 53 30          	mov    0x30(%rbx),%rdx
/home/tenebris/Disk/Documents/RootCauseAnalysis/evaluation/test_bin/libjpeg/libjpeg_heap_buffer_overflow/libjpeg-turbo/rdppm.c:389
    for (col = cinfo->image_width; col > 0; col--) {
    3ec0:	41 8b 4c 24 30       	mov    0x30(%r12),%ecx
/home/tenebris/Disk/Documents/RootCauseAnalysis/evaluation/test_bin/libjpeg/libjpeg_heap_buffer_overflow/libjpeg-turbo/rdppm.c:386
  ptr = source->pub.buffer[0];
    3ec5:	48 8b 00             	mov    (%rax),%rax
/home/tenebris/Disk/Documents/RootCauseAnalysis/evaluation/test_bin/libjpeg/libjpeg_heap_buffer_overflow/libjpeg-turbo/rdppm.c:388
  if (maxval == MAXJSAMPLE) {
    3ec8:	41 81 fd ff 00 00 00 	cmp    $0xff,%r13d
    3ecf:	0f 84 eb 00 00 00    	je     3fc0 <get_gray_cmyk_row+0x150>
/home/tenebris/Disk/Documents/RootCauseAnalysis/evaluation/test_bin/libjpeg/libjpeg_heap_buffer_overflow/libjpeg-turbo/rdppm.c:395
    for (col = cinfo->image_width; col > 0; col--) {
    3ed5:	85 c9                	test   %ecx,%ecx
    3ed7:	0f 84 9c 00 00 00    	je     3f79 <get_gray_cmyk_row+0x109>
    3edd:	f2 0f 10 0d 03 63 00 	movsd  0x6303(%rip),%xmm1        # a1e8 <rgb_red+0x48>
    3ee4:	00 
    3ee5:	f2 0f 10 1d 03 63 00 	movsd  0x6303(%rip),%xmm3        # a1f0 <rgb_red+0x50>
    3eec:	00 
    3eed:	48 8d 34 88          	lea    (%rax,%rcx,4),%rsi
rgb_to_cmyk():
/home/tenebris/Disk/Documents/RootCauseAnalysis/evaluation/test_bin/libjpeg/libjpeg_heap_buffer_overflow/libjpeg-turbo/cmyk.h:41
  else {
    ctmp = (ctmp - ktmp) / (1.0 - ktmp);
    mtmp = (mtmp - ktmp) / (1.0 - ktmp);
    ytmp = (ytmp - ktmp) / (1.0 - ktmp);
  }
  *c = (JSAMPLE)(255.0 - ctmp * 255.0 + 0.5);
    3ef1:	f2 0f 10 2d ff 62 00 	movsd  0x62ff(%rip),%xmm5        # a1f8 <rgb_red+0x58>
    3ef8:	00 
    3ef9:	0f 1f 80 00 00 00 00 	nopl   0x0(%rax)
get_gray_cmyk_row():
/home/tenebris/Disk/Documents/RootCauseAnalysis/evaluation/test_bin/libjpeg/libjpeg_heap_buffer_overflow/libjpeg-turbo/rdppm.c:396 (discriminator 3)
      JSAMPLE gray = rescale[UCH(*bufferptr++)];
    3f00:	0f b6 0a             	movzbl (%rdx),%ecx
rgb_to_cmyk():
/home/tenebris/Disk/Documents/RootCauseAnalysis/evaluation/test_bin/libjpeg/libjpeg_heap_buffer_overflow/libjpeg-turbo/cmyk.h:30 (discriminator 3)
  double ctmp = 1.0 - ((double)r / 255.0);
    3f03:	66 0f ef d2          	pxor   %xmm2,%xmm2
    3f07:	66 0f 28 c3          	movapd %xmm3,%xmm0
get_gray_cmyk_row():
/home/tenebris/Disk/Documents/RootCauseAnalysis/evaluation/test_bin/libjpeg/libjpeg_heap_buffer_overflow/libjpeg-turbo/rdppm.c:396 (discriminator 3)
    3f0b:	48 83 c2 01          	add    $0x1,%rdx
rgb_to_cmyk():
/home/tenebris/Disk/Documents/RootCauseAnalysis/evaluation/test_bin/libjpeg/libjpeg_heap_buffer_overflow/libjpeg-turbo/cmyk.h:30 (discriminator 3)
    3f0f:	0f b6 4c 0d 00       	movzbl 0x0(%rbp,%rcx,1),%ecx
    3f14:	f2 0f 2a d1          	cvtsi2sd %ecx,%xmm2
    3f18:	f2 0f 5e d1          	divsd  %xmm1,%xmm2
    3f1c:	f2 0f 5c c2          	subsd  %xmm2,%xmm0
/home/tenebris/Disk/Documents/RootCauseAnalysis/evaluation/test_bin/libjpeg/libjpeg_heap_buffer_overflow/libjpeg-turbo/cmyk.h:35 (discriminator 3)
  if (ktmp == 1.0) ctmp = mtmp = ytmp = 0.0;
    3f20:	66 0f 2e c3          	ucomisd %xmm3,%xmm0
    3f24:	7a 02                	jp     3f28 <get_gray_cmyk_row+0xb8>
    3f26:	74 68                	je     3f90 <get_gray_cmyk_row+0x120>
/home/tenebris/Disk/Documents/RootCauseAnalysis/evaluation/test_bin/libjpeg/libjpeg_heap_buffer_overflow/libjpeg-turbo/cmyk.h:37
    ctmp = (ctmp - ktmp) / (1.0 - ktmp);
    3f28:	66 0f 28 d0          	movapd %xmm0,%xmm2
    3f2c:	66 0f 28 e3          	movapd %xmm3,%xmm4
get_gray_cmyk_row():
/home/tenebris/Disk/Documents/RootCauseAnalysis/evaluation/test_bin/libjpeg/libjpeg_heap_buffer_overflow/libjpeg-turbo/rdppm.c:398
      ptr += 4;
    3f30:	48 83 c0 04          	add    $0x4,%rax
rgb_to_cmyk():
/home/tenebris/Disk/Documents/RootCauseAnalysis/evaluation/test_bin/libjpeg/libjpeg_heap_buffer_overflow/libjpeg-turbo/cmyk.h:37
    3f34:	f2 0f 5c e0          	subsd  %xmm0,%xmm4
    3f38:	f2 0f 5c d0          	subsd  %xmm0,%xmm2
/home/tenebris/Disk/Documents/RootCauseAnalysis/evaluation/test_bin/libjpeg/libjpeg_heap_buffer_overflow/libjpeg-turbo/cmyk.h:44
  *m = (JSAMPLE)(255.0 - mtmp * 255.0 + 0.5);
  *y = (JSAMPLE)(255.0 - ytmp * 255.0 + 0.5);
  *k = (JSAMPLE)(255.0 - ktmp * 255.0 + 0.5);
    3f3c:	f2 0f 59 c1          	mulsd  %xmm1,%xmm0
/home/tenebris/Disk/Documents/RootCauseAnalysis/evaluation/test_bin/libjpeg/libjpeg_heap_buffer_overflow/libjpeg-turbo/cmyk.h:37
    ctmp = (ctmp - ktmp) / (1.0 - ktmp);
    3f40:	f2 0f 5e d4          	divsd  %xmm4,%xmm2
/home/tenebris/Disk/Documents/RootCauseAnalysis/evaluation/test_bin/libjpeg/libjpeg_heap_buffer_overflow/libjpeg-turbo/cmyk.h:41
  *c = (JSAMPLE)(255.0 - ctmp * 255.0 + 0.5);
    3f44:	66 0f 28 e1          	movapd %xmm1,%xmm4
    3f48:	f2 0f 59 d1          	mulsd  %xmm1,%xmm2
    3f4c:	f2 0f 5c e2          	subsd  %xmm2,%xmm4
/home/tenebris/Disk/Documents/RootCauseAnalysis/evaluation/test_bin/libjpeg/libjpeg_heap_buffer_overflow/libjpeg-turbo/cmyk.h:44
  *k = (JSAMPLE)(255.0 - ktmp * 255.0 + 0.5);
    3f50:	66 0f 28 d1          	movapd %xmm1,%xmm2
    3f54:	f2 0f 5c d0          	subsd  %xmm0,%xmm2
/home/tenebris/Disk/Documents/RootCauseAnalysis/evaluation/test_bin/libjpeg/libjpeg_heap_buffer_overflow/libjpeg-turbo/cmyk.h:41
  *c = (JSAMPLE)(255.0 - ctmp * 255.0 + 0.5);
    3f58:	f2 0f 58 e5          	addsd  %xmm5,%xmm4
/home/tenebris/Disk/Documents/RootCauseAnalysis/evaluation/test_bin/libjpeg/libjpeg_heap_buffer_overflow/libjpeg-turbo/cmyk.h:44
  *k = (JSAMPLE)(255.0 - ktmp * 255.0 + 0.5);
    3f5c:	f2 0f 58 d5          	addsd  %xmm5,%xmm2
/home/tenebris/Disk/Documents/RootCauseAnalysis/evaluation/test_bin/libjpeg/libjpeg_heap_buffer_overflow/libjpeg-turbo/cmyk.h:41
  *c = (JSAMPLE)(255.0 - ctmp * 255.0 + 0.5);
    3f60:	f2 0f 2c cc          	cvttsd2si %xmm4,%ecx
    3f64:	88 48 fc             	mov    %cl,-0x4(%rax)
/home/tenebris/Disk/Documents/RootCauseAnalysis/evaluation/test_bin/libjpeg/libjpeg_heap_buffer_overflow/libjpeg-turbo/cmyk.h:42
  *m = (JSAMPLE)(255.0 - mtmp * 255.0 + 0.5);
    3f67:	88 48 fd             	mov    %cl,-0x3(%rax)
/home/tenebris/Disk/Documents/RootCauseAnalysis/evaluation/test_bin/libjpeg/libjpeg_heap_buffer_overflow/libjpeg-turbo/cmyk.h:43
  *y = (JSAMPLE)(255.0 - ytmp * 255.0 + 0.5);
    3f6a:	88 48 fe             	mov    %cl,-0x2(%rax)
/home/tenebris/Disk/Documents/RootCauseAnalysis/evaluation/test_bin/libjpeg/libjpeg_heap_buffer_overflow/libjpeg-turbo/cmyk.h:44
  *k = (JSAMPLE)(255.0 - ktmp * 255.0 + 0.5);
    3f6d:	f2 0f 2c ca          	cvttsd2si %xmm2,%ecx
    3f71:	88 48 ff             	mov    %cl,-0x1(%rax)
get_gray_cmyk_row():
/home/tenebris/Disk/Documents/RootCauseAnalysis/evaluation/test_bin/libjpeg/libjpeg_heap_buffer_overflow/libjpeg-turbo/rdppm.c:395
    for (col = cinfo->image_width; col > 0; col--) {
    3f74:	48 39 f0             	cmp    %rsi,%rax
    3f77:	75 87                	jne    3f00 <get_gray_cmyk_row+0x90>
/home/tenebris/Disk/Documents/RootCauseAnalysis/evaluation/test_bin/libjpeg/libjpeg_heap_buffer_overflow/libjpeg-turbo/rdppm.c:402
}
    3f79:	48 83 c4 08          	add    $0x8,%rsp
    3f7d:	b8 01 00 00 00       	mov    $0x1,%eax
    3f82:	5b                   	pop    %rbx
    3f83:	5d                   	pop    %rbp
    3f84:	41 5c                	pop    %r12
    3f86:	41 5d                	pop    %r13
    3f88:	c3                   	ret    
    3f89:	0f 1f 80 00 00 00 00 	nopl   0x0(%rax)
rgb_to_cmyk():
/home/tenebris/Disk/Documents/RootCauseAnalysis/evaluation/test_bin/libjpeg/libjpeg_heap_buffer_overflow/libjpeg-turbo/cmyk.h:41
  *c = (JSAMPLE)(255.0 - ctmp * 255.0 + 0.5);
    3f90:	c6 00 ff             	movb   $0xff,(%rax)
get_gray_cmyk_row():
/home/tenebris/Disk/Documents/RootCauseAnalysis/evaluation/test_bin/libjpeg/libjpeg_heap_buffer_overflow/libjpeg-turbo/rdppm.c:398
      ptr += 4;
    3f93:	48 83 c0 04          	add    $0x4,%rax
rgb_to_cmyk():
/home/tenebris/Disk/Documents/RootCauseAnalysis/evaluation/test_bin/libjpeg/libjpeg_heap_buffer_overflow/libjpeg-turbo/cmyk.h:42
  *m = (JSAMPLE)(255.0 - mtmp * 255.0 + 0.5);
    3f97:	c6 40 fd ff          	movb   $0xff,-0x3(%rax)
/home/tenebris/Disk/Documents/RootCauseAnalysis/evaluation/test_bin/libjpeg/libjpeg_heap_buffer_overflow/libjpeg-turbo/cmyk.h:43
  *y = (JSAMPLE)(255.0 - ytmp * 255.0 + 0.5);
    3f9b:	c6 40 fe ff          	movb   $0xff,-0x2(%rax)
/home/tenebris/Disk/Documents/RootCauseAnalysis/evaluation/test_bin/libjpeg/libjpeg_heap_buffer_overflow/libjpeg-turbo/cmyk.h:44
  *k = (JSAMPLE)(255.0 - ktmp * 255.0 + 0.5);
    3f9f:	c6 40 ff 00          	movb   $0x0,-0x1(%rax)
get_gray_cmyk_row():
/home/tenebris/Disk/Documents/RootCauseAnalysis/evaluation/test_bin/libjpeg/libjpeg_heap_buffer_overflow/libjpeg-turbo/rdppm.c:395
    for (col = cinfo->image_width; col > 0; col--) {
    3fa3:	48 39 f0             	cmp    %rsi,%rax
    3fa6:	0f 85 54 ff ff ff    	jne    3f00 <get_gray_cmyk_row+0x90>
/home/tenebris/Disk/Documents/RootCauseAnalysis/evaluation/test_bin/libjpeg/libjpeg_heap_buffer_overflow/libjpeg-turbo/rdppm.c:402
}
    3fac:	48 83 c4 08          	add    $0x8,%rsp
    3fb0:	b8 01 00 00 00       	mov    $0x1,%eax
    3fb5:	5b                   	pop    %rbx
    3fb6:	5d                   	pop    %rbp
    3fb7:	41 5c                	pop    %r12
    3fb9:	41 5d                	pop    %r13
    3fbb:	c3                   	ret    
    3fbc:	0f 1f 40 00          	nopl   0x0(%rax)
/home/tenebris/Disk/Documents/RootCauseAnalysis/evaluation/test_bin/libjpeg/libjpeg_heap_buffer_overflow/libjpeg-turbo/rdppm.c:389
    for (col = cinfo->image_width; col > 0; col--) {
    3fc0:	85 c9                	test   %ecx,%ecx
    3fc2:	74 b5                	je     3f79 <get_gray_cmyk_row+0x109>
    3fc4:	f2 0f 10 0d 1c 62 00 	movsd  0x621c(%rip),%xmm1        # a1e8 <rgb_red+0x48>
    3fcb:	00 
    3fcc:	f2 0f 10 1d 1c 62 00 	movsd  0x621c(%rip),%xmm3        # a1f0 <rgb_red+0x50>
    3fd3:	00 
    3fd4:	48 8d 34 88          	lea    (%rax,%rcx,4),%rsi
rgb_to_cmyk():
/home/tenebris/Disk/Documents/RootCauseAnalysis/evaluation/test_bin/libjpeg/libjpeg_heap_buffer_overflow/libjpeg-turbo/cmyk.h:41
  *c = (JSAMPLE)(255.0 - ctmp * 255.0 + 0.5);
    3fd8:	f2 0f 10 2d 18 62 00 	movsd  0x6218(%rip),%xmm5        # a1f8 <rgb_red+0x58>
    3fdf:	00 
/home/tenebris/Disk/Documents/RootCauseAnalysis/evaluation/test_bin/libjpeg/libjpeg_heap_buffer_overflow/libjpeg-turbo/cmyk.h:30 (discriminator 3)
  double ctmp = 1.0 - ((double)r / 255.0);
    3fe0:	0f b6 0a             	movzbl (%rdx),%ecx
    3fe3:	66 0f ef d2          	pxor   %xmm2,%xmm2
    3fe7:	66 0f 28 c3          	movapd %xmm3,%xmm0
get_gray_cmyk_row():
/home/tenebris/Disk/Documents/RootCauseAnalysis/evaluation/test_bin/libjpeg/libjpeg_heap_buffer_overflow/libjpeg-turbo/rdppm.c:390 (discriminator 3)
      JSAMPLE gray = *bufferptr++;
    3feb:	48 83 c2 01          	add    $0x1,%rdx
rgb_to_cmyk():
/home/tenebris/Disk/Documents/RootCauseAnalysis/evaluation/test_bin/libjpeg/libjpeg_heap_buffer_overflow/libjpeg-turbo/cmyk.h:30 (discriminator 3)
    3fef:	f2 0f 2a d1          	cvtsi2sd %ecx,%xmm2
    3ff3:	f2 0f 5e d1          	divsd  %xmm1,%xmm2
    3ff7:	f2 0f 5c c2          	subsd  %xmm2,%xmm0
/home/tenebris/Disk/Documents/RootCauseAnalysis/evaluation/test_bin/libjpeg/libjpeg_heap_buffer_overflow/libjpeg-turbo/cmyk.h:35 (discriminator 3)
  if (ktmp == 1.0) ctmp = mtmp = ytmp = 0.0;
    3ffb:	66 0f 2e c3          	ucomisd %xmm3,%xmm0
    3fff:	7a 02                	jp     4003 <get_gray_cmyk_row+0x193>
    4001:	74 65                	je     4068 <get_gray_cmyk_row+0x1f8>
/home/tenebris/Disk/Documents/RootCauseAnalysis/evaluation/test_bin/libjpeg/libjpeg_heap_buffer_overflow/libjpeg-turbo/cmyk.h:37
    ctmp = (ctmp - ktmp) / (1.0 - ktmp);
    4003:	66 0f 28 d0          	movapd %xmm0,%xmm2
    4007:	66 0f 28 e3          	movapd %xmm3,%xmm4
get_gray_cmyk_row():
/home/tenebris/Disk/Documents/RootCauseAnalysis/evaluation/test_bin/libjpeg/libjpeg_heap_buffer_overflow/libjpeg-turbo/rdppm.c:392
      ptr += 4;
    400b:	48 83 c0 04          	add    $0x4,%rax
rgb_to_cmyk():
/home/tenebris/Disk/Documents/RootCauseAnalysis/evaluation/test_bin/libjpeg/libjpeg_heap_buffer_overflow/libjpeg-turbo/cmyk.h:37
    400f:	f2 0f 5c e0          	subsd  %xmm0,%xmm4
    4013:	f2 0f 5c d0          	subsd  %xmm0,%xmm2
/home/tenebris/Disk/Documents/RootCauseAnalysis/evaluation/test_bin/libjpeg/libjpeg_heap_buffer_overflow/libjpeg-turbo/cmyk.h:44
  *k = (JSAMPLE)(255.0 - ktmp * 255.0 + 0.5);
    4017:	f2 0f 59 c1          	mulsd  %xmm1,%xmm0
/home/tenebris/Disk/Documents/RootCauseAnalysis/evaluation/test_bin/libjpeg/libjpeg_heap_buffer_overflow/libjpeg-turbo/cmyk.h:37
    ctmp = (ctmp - ktmp) / (1.0 - ktmp);
    401b:	f2 0f 5e d4          	divsd  %xmm4,%xmm2
/home/tenebris/Disk/Documents/RootCauseAnalysis/evaluation/test_bin/libjpeg/libjpeg_heap_buffer_overflow/libjpeg-turbo/cmyk.h:41
  *c = (JSAMPLE)(255.0 - ctmp * 255.0 + 0.5);
    401f:	66 0f 28 e1          	movapd %xmm1,%xmm4
    4023:	f2 0f 59 d1          	mulsd  %xmm1,%xmm2
    4027:	f2 0f 5c e2          	subsd  %xmm2,%xmm4
/home/tenebris/Disk/Documents/RootCauseAnalysis/evaluation/test_bin/libjpeg/libjpeg_heap_buffer_overflow/libjpeg-turbo/cmyk.h:44
  *k = (JSAMPLE)(255.0 - ktmp * 255.0 + 0.5);
    402b:	66 0f 28 d1          	movapd %xmm1,%xmm2
    402f:	f2 0f 5c d0          	subsd  %xmm0,%xmm2
/home/tenebris/Disk/Documents/RootCauseAnalysis/evaluation/test_bin/libjpeg/libjpeg_heap_buffer_overflow/libjpeg-turbo/cmyk.h:41
  *c = (JSAMPLE)(255.0 - ctmp * 255.0 + 0.5);
    4033:	f2 0f 58 e5          	addsd  %xmm5,%xmm4
/home/tenebris/Disk/Documents/RootCauseAnalysis/evaluation/test_bin/libjpeg/libjpeg_heap_buffer_overflow/libjpeg-turbo/cmyk.h:44
  *k = (JSAMPLE)(255.0 - ktmp * 255.0 + 0.5);
    4037:	f2 0f 58 d5          	addsd  %xmm5,%xmm2
/home/tenebris/Disk/Documents/RootCauseAnalysis/evaluation/test_bin/libjpeg/libjpeg_heap_buffer_overflow/libjpeg-turbo/cmyk.h:41
  *c = (JSAMPLE)(255.0 - ctmp * 255.0 + 0.5);
    403b:	f2 0f 2c cc          	cvttsd2si %xmm4,%ecx
    403f:	88 48 fc             	mov    %cl,-0x4(%rax)
/home/tenebris/Disk/Documents/RootCauseAnalysis/evaluation/test_bin/libjpeg/libjpeg_heap_buffer_overflow/libjpeg-turbo/cmyk.h:42
  *m = (JSAMPLE)(255.0 - mtmp * 255.0 + 0.5);
    4042:	88 48 fd             	mov    %cl,-0x3(%rax)
/home/tenebris/Disk/Documents/RootCauseAnalysis/evaluation/test_bin/libjpeg/libjpeg_heap_buffer_overflow/libjpeg-turbo/cmyk.h:43
  *y = (JSAMPLE)(255.0 - ytmp * 255.0 + 0.5);
    4045:	88 48 fe             	mov    %cl,-0x2(%rax)
/home/tenebris/Disk/Documents/RootCauseAnalysis/evaluation/test_bin/libjpeg/libjpeg_heap_buffer_overflow/libjpeg-turbo/cmyk.h:44
  *k = (JSAMPLE)(255.0 - ktmp * 255.0 + 0.5);
    4048:	f2 0f 2c ca          	cvttsd2si %xmm2,%ecx
    404c:	88 48 ff             	mov    %cl,-0x1(%rax)
get_gray_cmyk_row():
/home/tenebris/Disk/Documents/RootCauseAnalysis/evaluation/test_bin/libjpeg/libjpeg_heap_buffer_overflow/libjpeg-turbo/rdppm.c:389
    for (col = cinfo->image_width; col > 0; col--) {
    404f:	48 39 f0             	cmp    %rsi,%rax
    4052:	75 8c                	jne    3fe0 <get_gray_cmyk_row+0x170>
/home/tenebris/Disk/Documents/RootCauseAnalysis/evaluation/test_bin/libjpeg/libjpeg_heap_buffer_overflow/libjpeg-turbo/rdppm.c:402
}
    4054:	48 83 c4 08          	add    $0x8,%rsp
    4058:	b8 01 00 00 00       	mov    $0x1,%eax
    405d:	5b                   	pop    %rbx
    405e:	5d                   	pop    %rbp
    405f:	41 5c                	pop    %r12
    4061:	41 5d                	pop    %r13
    4063:	c3                   	ret    
    4064:	0f 1f 40 00          	nopl   0x0(%rax)
rgb_to_cmyk():
/home/tenebris/Disk/Documents/RootCauseAnalysis/evaluation/test_bin/libjpeg/libjpeg_heap_buffer_overflow/libjpeg-turbo/cmyk.h:41
  *c = (JSAMPLE)(255.0 - ctmp * 255.0 + 0.5);
    4068:	c6 00 ff             	movb   $0xff,(%rax)
get_gray_cmyk_row():
/home/tenebris/Disk/Documents/RootCauseAnalysis/evaluation/test_bin/libjpeg/libjpeg_heap_buffer_overflow/libjpeg-turbo/rdppm.c:392
      ptr += 4;
    406b:	48 83 c0 04          	add    $0x4,%rax
rgb_to_cmyk():
/home/tenebris/Disk/Documents/RootCauseAnalysis/evaluation/test_bin/libjpeg/libjpeg_heap_buffer_overflow/libjpeg-turbo/cmyk.h:42
  *m = (JSAMPLE)(255.0 - mtmp * 255.0 + 0.5);
    406f:	c6 40 fd ff          	movb   $0xff,-0x3(%rax)
/home/tenebris/Disk/Documents/RootCauseAnalysis/evaluation/test_bin/libjpeg/libjpeg_heap_buffer_overflow/libjpeg-turbo/cmyk.h:43
  *y = (JSAMPLE)(255.0 - ytmp * 255.0 + 0.5);
    4073:	c6 40 fe ff          	movb   $0xff,-0x2(%rax)
/home/tenebris/Disk/Documents/RootCauseAnalysis/evaluation/test_bin/libjpeg/libjpeg_heap_buffer_overflow/libjpeg-turbo/cmyk.h:44
  *k = (JSAMPLE)(255.0 - ktmp * 255.0 + 0.5);
    4077:	c6 40 ff 00          	movb   $0x0,-0x1(%rax)
get_gray_cmyk_row():
/home/tenebris/Disk/Documents/RootCauseAnalysis/evaluation/test_bin/libjpeg/libjpeg_heap_buffer_overflow/libjpeg-turbo/rdppm.c:389
    for (col = cinfo->image_width; col > 0; col--) {
    407b:	48 39 f0             	cmp    %rsi,%rax
    407e:	0f 85 5c ff ff ff    	jne    3fe0 <get_gray_cmyk_row+0x170>
/home/tenebris/Disk/Documents/RootCauseAnalysis/evaluation/test_bin/libjpeg/libjpeg_heap_buffer_overflow/libjpeg-turbo/rdppm.c:402
}
    4084:	48 83 c4 08          	add    $0x8,%rsp
    4088:	b8 01 00 00 00       	mov    $0x1,%eax
    408d:	5b                   	pop    %rbx
    408e:	5d                   	pop    %rbp
    408f:	41 5c                	pop    %r12
    4091:	41 5d                	pop    %r13
    4093:	c3                   	ret    
    4094:	66 66 2e 0f 1f 84 00 	data16 cs nopw 0x0(%rax,%rax,1)
    409b:	00 00 00 00 
    409f:	90                   	nop

00000000000040a0 <get_rgb_row>:
get_rgb_row():
/home/tenebris/Disk/Documents/RootCauseAnalysis/evaluation/test_bin/libjpeg/libjpeg_heap_buffer_overflow/libjpeg-turbo/rdppm.c:408
{
    40a0:	f3 0f 1e fa          	endbr64 
    40a4:	41 57                	push   %r15
/home/tenebris/Disk/Documents/RootCauseAnalysis/evaluation/test_bin/libjpeg/libjpeg_heap_buffer_overflow/libjpeg-turbo/rdppm.c:415
  register int rindex = rgb_red[cinfo->in_color_space];
    40a6:	48 8d 15 f3 60 00 00 	lea    0x60f3(%rip),%rdx        # a1a0 <rgb_red>
/home/tenebris/Disk/Documents/RootCauseAnalysis/evaluation/test_bin/libjpeg/libjpeg_heap_buffer_overflow/libjpeg-turbo/rdppm.c:408
{
    40ad:	41 56                	push   %r14
    40af:	41 55                	push   %r13
    40b1:	41 54                	push   %r12
    40b3:	49 89 f4             	mov    %rsi,%r12
    40b6:	55                   	push   %rbp
    40b7:	48 89 fd             	mov    %rdi,%rbp
    40ba:	53                   	push   %rbx
    40bb:	48 83 ec 18          	sub    $0x18,%rsp
/home/tenebris/Disk/Documents/RootCauseAnalysis/evaluation/test_bin/libjpeg/libjpeg_heap_buffer_overflow/libjpeg-turbo/rdppm.c:415
  register int rindex = rgb_red[cinfo->in_color_space];
    40bf:	8b 47 3c             	mov    0x3c(%rdi),%eax
fread():
/usr/include/x86_64-linux-gnu/bits/stdio2.h:293
    40c2:	48 8b 4e 18          	mov    0x18(%rsi),%rcx
get_rgb_row():
/home/tenebris/Disk/Documents/RootCauseAnalysis/evaluation/test_bin/libjpeg/libjpeg_heap_buffer_overflow/libjpeg-turbo/rdppm.c:412
  register JSAMPLE *rescale = source->rescale;
    40c6:	4c 8b 7e 48          	mov    0x48(%rsi),%r15
/home/tenebris/Disk/Documents/RootCauseAnalysis/evaluation/test_bin/libjpeg/libjpeg_heap_buffer_overflow/libjpeg-turbo/rdppm.c:414
  unsigned int maxval = source->maxval;
    40ca:	8b 5e 50             	mov    0x50(%rsi),%ebx
/home/tenebris/Disk/Documents/RootCauseAnalysis/evaluation/test_bin/libjpeg/libjpeg_heap_buffer_overflow/libjpeg-turbo/rdppm.c:415
  register int rindex = rgb_red[cinfo->in_color_space];
    40cd:	8b 3c 82             	mov    (%rdx,%rax,4),%edi
/home/tenebris/Disk/Documents/RootCauseAnalysis/evaluation/test_bin/libjpeg/libjpeg_heap_buffer_overflow/libjpeg-turbo/rdppm.c:416
  register int gindex = rgb_green[cinfo->in_color_space];
    40d0:	48 8d 15 69 60 00 00 	lea    0x6069(%rip),%rdx        # a140 <rgb_green>
/home/tenebris/Disk/Documents/RootCauseAnalysis/evaluation/test_bin/libjpeg/libjpeg_heap_buffer_overflow/libjpeg-turbo/rdppm.c:415
  register int rindex = rgb_red[cinfo->in_color_space];
    40d7:	89 7c 24 04          	mov    %edi,0x4(%rsp)
/home/tenebris/Disk/Documents/RootCauseAnalysis/evaluation/test_bin/libjpeg/libjpeg_heap_buffer_overflow/libjpeg-turbo/rdppm.c:416
  register int gindex = rgb_green[cinfo->in_color_space];
    40db:	8b 3c 82             	mov    (%rdx,%rax,4),%edi
/home/tenebris/Disk/Documents/RootCauseAnalysis/evaluation/test_bin/libjpeg/libjpeg_heap_buffer_overflow/libjpeg-turbo/rdppm.c:417
  register int bindex = rgb_blue[cinfo->in_color_space];
    40de:	48 8d 15 fb 5f 00 00 	lea    0x5ffb(%rip),%rdx        # a0e0 <rgb_blue>
/home/tenebris/Disk/Documents/RootCauseAnalysis/evaluation/test_bin/libjpeg/libjpeg_heap_buffer_overflow/libjpeg-turbo/rdppm.c:416
  register int gindex = rgb_green[cinfo->in_color_space];
    40e5:	89 7c 24 08          	mov    %edi,0x8(%rsp)
/home/tenebris/Disk/Documents/RootCauseAnalysis/evaluation/test_bin/libjpeg/libjpeg_heap_buffer_overflow/libjpeg-turbo/rdppm.c:417
  register int bindex = rgb_blue[cinfo->in_color_space];
    40e9:	8b 3c 82             	mov    (%rdx,%rax,4),%edi
/home/tenebris/Disk/Documents/RootCauseAnalysis/evaluation/test_bin/libjpeg/libjpeg_heap_buffer_overflow/libjpeg-turbo/rdppm.c:418
  register int aindex = alpha_index[cinfo->in_color_space];
    40ec:	48 8d 15 2d 5f 00 00 	lea    0x5f2d(%rip),%rdx        # a020 <alpha_index>
    40f3:	4c 63 2c 82          	movslq (%rdx,%rax,4),%r13
/home/tenebris/Disk/Documents/RootCauseAnalysis/evaluation/test_bin/libjpeg/libjpeg_heap_buffer_overflow/libjpeg-turbo/rdppm.c:419
  register int ps = rgb_pixelsize[cinfo->in_color_space];
    40f7:	48 8d 15 82 5f 00 00 	lea    0x5f82(%rip),%rdx        # a080 <rgb_pixelsize>
/home/tenebris/Disk/Documents/RootCauseAnalysis/evaluation/test_bin/libjpeg/libjpeg_heap_buffer_overflow/libjpeg-turbo/rdppm.c:417
  register int bindex = rgb_blue[cinfo->in_color_space];
    40fe:	89 7c 24 0c          	mov    %edi,0xc(%rsp)
/home/tenebris/Disk/Documents/RootCauseAnalysis/evaluation/test_bin/libjpeg/libjpeg_heap_buffer_overflow/libjpeg-turbo/rdppm.c:419
  register int ps = rgb_pixelsize[cinfo->in_color_space];
    4102:	44 8b 34 82          	mov    (%rdx,%rax,4),%r14d
fread():
/usr/include/x86_64-linux-gnu/bits/stdio2.h:293
    4106:	48 8b 7e 30          	mov    0x30(%rsi),%rdi
    410a:	48 8b 56 40          	mov    0x40(%rsi),%rdx
    410e:	be 01 00 00 00       	mov    $0x1,%esi
    4113:	e8 68 e1 ff ff       	call   2280 <fread@plt>
get_rgb_row():
/home/tenebris/Disk/Documents/RootCauseAnalysis/evaluation/test_bin/libjpeg/libjpeg_heap_buffer_overflow/libjpeg-turbo/rdppm.c:421
  if (!ReadOK(source->pub.input_file, source->iobuffer, source->buffer_width))
    4118:	49 39 44 24 40       	cmp    %rax,0x40(%r12)
    411d:	74 10                	je     412f <get_rgb_row+0x8f>
/home/tenebris/Disk/Documents/RootCauseAnalysis/evaluation/test_bin/libjpeg/libjpeg_heap_buffer_overflow/libjpeg-turbo/rdppm.c:422
    ERREXIT(cinfo, JERR_INPUT_EOF);
    411f:	48 8b 45 00          	mov    0x0(%rbp),%rax
    4123:	48 89 ef             	mov    %rbp,%rdi
    4126:	c7 40 28 2b 00 00 00 	movl   $0x2b,0x28(%rax)
    412d:	ff 10                	call   *(%rax)
/home/tenebris/Disk/Documents/RootCauseAnalysis/evaluation/test_bin/libjpeg/libjpeg_heap_buffer_overflow/libjpeg-turbo/rdppm.c:423
  ptr = source->pub.buffer[0];
    412f:	49 8b 44 24 20       	mov    0x20(%r12),%rax
/home/tenebris/Disk/Documents/RootCauseAnalysis/evaluation/test_bin/libjpeg/libjpeg_heap_buffer_overflow/libjpeg-turbo/rdppm.c:427
      RGB_READ_LOOP(*bufferptr++, ptr[aindex] = 0xFF;)
    4134:	8b 4d 30             	mov    0x30(%rbp),%ecx
/home/tenebris/Disk/Documents/RootCauseAnalysis/evaluation/test_bin/libjpeg/libjpeg_heap_buffer_overflow/libjpeg-turbo/rdppm.c:423
  ptr = source->pub.buffer[0];
    4137:	48 8b 10             	mov    (%rax),%rdx
/home/tenebris/Disk/Documents/RootCauseAnalysis/evaluation/test_bin/libjpeg/libjpeg_heap_buffer_overflow/libjpeg-turbo/rdppm.c:424
  bufferptr = source->iobuffer;
    413a:	49 8b 44 24 30       	mov    0x30(%r12),%rax
/home/tenebris/Disk/Documents/RootCauseAnalysis/evaluation/test_bin/libjpeg/libjpeg_heap_buffer_overflow/libjpeg-turbo/rdppm.c:425
  if (maxval == MAXJSAMPLE) {
    413f:	81 fb ff 00 00 00    	cmp    $0xff,%ebx
    4145:	0f 84 f5 00 00 00    	je     4240 <get_rgb_row+0x1a0>
/home/tenebris/Disk/Documents/RootCauseAnalysis/evaluation/test_bin/libjpeg/libjpeg_heap_buffer_overflow/libjpeg-turbo/rdppm.c:431
    if (aindex >= 0)
    414b:	45 85 ed             	test   %r13d,%r13d
    414e:	0f 88 7c 00 00 00    	js     41d0 <get_rgb_row+0x130>
/home/tenebris/Disk/Documents/RootCauseAnalysis/evaluation/test_bin/libjpeg/libjpeg_heap_buffer_overflow/libjpeg-turbo/rdppm.c:432
      RGB_READ_LOOP(rescale[UCH(*bufferptr++)], ptr[aindex] = 0xFF;)
    4154:	85 c9                	test   %ecx,%ecx
    4156:	74 64                	je     41bc <get_rgb_row+0x11c>
/home/tenebris/Disk/Documents/RootCauseAnalysis/evaluation/test_bin/libjpeg/libjpeg_heap_buffer_overflow/libjpeg-turbo/rdppm.c:427
      RGB_READ_LOOP(*bufferptr++, ptr[aindex] = 0xFF;)
    4158:	48 63 5c 24 04       	movslq 0x4(%rsp),%rbx
    415d:	4c 63 64 24 08       	movslq 0x8(%rsp),%r12
    4162:	49 63 fe             	movslq %r14d,%rdi
    4165:	48 63 6c 24 0c       	movslq 0xc(%rsp),%rbp
    416a:	48 01 da             	add    %rbx,%rdx
    416d:	41 83 fe 01          	cmp    $0x1,%r14d
    4171:	0f 85 99 01 00 00    	jne    4310 <get_rgb_row+0x270>
    4177:	48 8d 3c 49          	lea    (%rcx,%rcx,2),%rdi
    417b:	48 01 c7             	add    %rax,%rdi
    417e:	66 90                	xchg   %ax,%ax
/home/tenebris/Disk/Documents/RootCauseAnalysis/evaluation/test_bin/libjpeg/libjpeg_heap_buffer_overflow/libjpeg-turbo/rdppm.c:432
      RGB_READ_LOOP(rescale[UCH(*bufferptr++)], ptr[aindex] = 0xFF;)
    4180:	0f b6 08             	movzbl (%rax),%ecx
    4183:	48 83 c0 03          	add    $0x3,%rax
    4187:	41 0f b6 0c 0f       	movzbl (%r15,%rcx,1),%ecx
    418c:	88 0a                	mov    %cl,(%rdx)
    418e:	0f b6 48 fe          	movzbl -0x2(%rax),%ecx
    4192:	41 0f b6 34 0f       	movzbl (%r15,%rcx,1),%esi
    4197:	48 89 d1             	mov    %rdx,%rcx
    419a:	48 83 c2 01          	add    $0x1,%rdx
    419e:	48 29 d9             	sub    %rbx,%rcx
    41a1:	42 88 34 21          	mov    %sil,(%rcx,%r12,1)
    41a5:	0f b6 70 ff          	movzbl -0x1(%rax),%esi
    41a9:	41 0f b6 34 37       	movzbl (%r15,%rsi,1),%esi
    41ae:	40 88 34 29          	mov    %sil,(%rcx,%rbp,1)
    41b2:	42 c6 04 29 ff       	movb   $0xff,(%rcx,%r13,1)
    41b7:	48 39 c7             	cmp    %rax,%rdi
    41ba:	75 c4                	jne    4180 <get_rgb_row+0xe0>
/home/tenebris/Disk/Documents/RootCauseAnalysis/evaluation/test_bin/libjpeg/libjpeg_heap_buffer_overflow/libjpeg-turbo/rdppm.c:437
}
    41bc:	48 83 c4 18          	add    $0x18,%rsp
    41c0:	b8 01 00 00 00       	mov    $0x1,%eax
    41c5:	5b                   	pop    %rbx
    41c6:	5d                   	pop    %rbp
    41c7:	41 5c                	pop    %r12
    41c9:	41 5d                	pop    %r13
    41cb:	41 5e                	pop    %r14
    41cd:	41 5f                	pop    %r15
    41cf:	c3                   	ret    
/home/tenebris/Disk/Documents/RootCauseAnalysis/evaluation/test_bin/libjpeg/libjpeg_heap_buffer_overflow/libjpeg-turbo/rdppm.c:434
      RGB_READ_LOOP(rescale[UCH(*bufferptr++)],)
    41d0:	85 c9                	test   %ecx,%ecx
    41d2:	74 e8                	je     41bc <get_rgb_row+0x11c>
/home/tenebris/Disk/Documents/RootCauseAnalysis/evaluation/test_bin/libjpeg/libjpeg_heap_buffer_overflow/libjpeg-turbo/rdppm.c:427
      RGB_READ_LOOP(*bufferptr++, ptr[aindex] = 0xFF;)
    41d4:	48 63 5c 24 04       	movslq 0x4(%rsp),%rbx
    41d9:	4c 63 64 24 08       	movslq 0x8(%rsp),%r12
    41de:	49 63 fe             	movslq %r14d,%rdi
    41e1:	48 63 6c 24 0c       	movslq 0xc(%rsp),%rbp
    41e6:	48 01 da             	add    %rbx,%rdx
    41e9:	41 83 fe 01          	cmp    $0x1,%r14d
    41ed:	0f 85 6d 01 00 00    	jne    4360 <get_rgb_row+0x2c0>
    41f3:	48 8d 3c 49          	lea    (%rcx,%rcx,2),%rdi
    41f7:	48 01 c7             	add    %rax,%rdi
    41fa:	66 0f 1f 44 00 00    	nopw   0x0(%rax,%rax,1)
/home/tenebris/Disk/Documents/RootCauseAnalysis/evaluation/test_bin/libjpeg/libjpeg_heap_buffer_overflow/libjpeg-turbo/rdppm.c:434
      RGB_READ_LOOP(rescale[UCH(*bufferptr++)],)
    4200:	0f b6 08             	movzbl (%rax),%ecx
    4203:	48 83 c0 03          	add    $0x3,%rax
    4207:	41 0f b6 0c 0f       	movzbl (%r15,%rcx,1),%ecx
    420c:	88 0a                	mov    %cl,(%rdx)
    420e:	0f b6 48 fe          	movzbl -0x2(%rax),%ecx
    4212:	41 0f b6 34 0f       	movzbl (%r15,%rcx,1),%esi
    4217:	48 89 d1             	mov    %rdx,%rcx
    421a:	48 83 c2 01          	add    $0x1,%rdx
    421e:	48 29 d9             	sub    %rbx,%rcx
    4221:	42 88 34 21          	mov    %sil,(%rcx,%r12,1)
    4225:	0f b6 70 ff          	movzbl -0x1(%rax),%esi
    4229:	41 0f b6 34 37       	movzbl (%r15,%rsi,1),%esi
    422e:	40 88 34 29          	mov    %sil,(%rcx,%rbp,1)
    4232:	48 39 c7             	cmp    %rax,%rdi
    4235:	75 c9                	jne    4200 <get_rgb_row+0x160>
    4237:	eb 83                	jmp    41bc <get_rgb_row+0x11c>
    4239:	0f 1f 80 00 00 00 00 	nopl   0x0(%rax)
/home/tenebris/Disk/Documents/RootCauseAnalysis/evaluation/test_bin/libjpeg/libjpeg_heap_buffer_overflow/libjpeg-turbo/rdppm.c:426
    if (aindex >= 0)
    4240:	45 85 ed             	test   %r13d,%r13d
    4243:	78 6b                	js     42b0 <get_rgb_row+0x210>
/home/tenebris/Disk/Documents/RootCauseAnalysis/evaluation/test_bin/libjpeg/libjpeg_heap_buffer_overflow/libjpeg-turbo/rdppm.c:427
      RGB_READ_LOOP(*bufferptr++, ptr[aindex] = 0xFF;)
    4245:	85 c9                	test   %ecx,%ecx
    4247:	0f 84 6f ff ff ff    	je     41bc <get_rgb_row+0x11c>
    424d:	48 63 5c 24 04       	movslq 0x4(%rsp),%rbx
    4252:	4c 63 64 24 08       	movslq 0x8(%rsp),%r12
    4257:	49 63 fe             	movslq %r14d,%rdi
    425a:	48 63 6c 24 0c       	movslq 0xc(%rsp),%rbp
    425f:	48 01 da             	add    %rbx,%rdx
    4262:	41 83 fe 01          	cmp    $0x1,%r14d
    4266:	0f 85 44 01 00 00    	jne    43b0 <get_rgb_row+0x310>
    426c:	48 8d 3c 49          	lea    (%rcx,%rcx,2),%rdi
    4270:	48 01 c7             	add    %rax,%rdi
    4273:	0f 1f 44 00 00       	nopl   0x0(%rax,%rax,1)
    4278:	0f b6 08             	movzbl (%rax),%ecx
    427b:	48 83 c0 03          	add    $0x3,%rax
    427f:	88 0a                	mov    %cl,(%rdx)
    4281:	48 89 d1             	mov    %rdx,%rcx
    4284:	0f b6 70 fe          	movzbl -0x2(%rax),%esi
    4288:	48 83 c2 01          	add    $0x1,%rdx
    428c:	48 29 d9             	sub    %rbx,%rcx
    428f:	42 88 34 21          	mov    %sil,(%rcx,%r12,1)
    4293:	0f b6 70 ff          	movzbl -0x1(%rax),%esi
    4297:	40 88 34 29          	mov    %sil,(%rcx,%rbp,1)
    429b:	42 c6 04 29 ff       	movb   $0xff,(%rcx,%r13,1)
    42a0:	48 39 c7             	cmp    %rax,%rdi
    42a3:	75 d3                	jne    4278 <get_rgb_row+0x1d8>
    42a5:	e9 12 ff ff ff       	jmp    41bc <get_rgb_row+0x11c>
    42aa:	66 0f 1f 44 00 00    	nopw   0x0(%rax,%rax,1)
/home/tenebris/Disk/Documents/RootCauseAnalysis/evaluation/test_bin/libjpeg/libjpeg_heap_buffer_overflow/libjpeg-turbo/rdppm.c:429
      RGB_READ_LOOP(*bufferptr++,)
    42b0:	85 c9                	test   %ecx,%ecx
    42b2:	0f 84 04 ff ff ff    	je     41bc <get_rgb_row+0x11c>
/home/tenebris/Disk/Documents/RootCauseAnalysis/evaluation/test_bin/libjpeg/libjpeg_heap_buffer_overflow/libjpeg-turbo/rdppm.c:427
      RGB_READ_LOOP(*bufferptr++, ptr[aindex] = 0xFF;)
    42b8:	48 63 5c 24 04       	movslq 0x4(%rsp),%rbx
    42bd:	4c 63 64 24 08       	movslq 0x8(%rsp),%r12
    42c2:	49 63 fe             	movslq %r14d,%rdi
    42c5:	48 63 6c 24 0c       	movslq 0xc(%rsp),%rbp
    42ca:	48 01 da             	add    %rbx,%rdx
    42cd:	41 83 fe 01          	cmp    $0x1,%r14d
    42d1:	0f 85 1a 01 00 00    	jne    43f1 <get_rgb_row+0x351>
    42d7:	48 8d 3c 49          	lea    (%rcx,%rcx,2),%rdi
    42db:	48 01 c7             	add    %rax,%rdi
    42de:	66 90                	xchg   %ax,%ax
/home/tenebris/Disk/Documents/RootCauseAnalysis/evaluation/test_bin/libjpeg/libjpeg_heap_buffer_overflow/libjpeg-turbo/rdppm.c:429
      RGB_READ_LOOP(*bufferptr++,)
    42e0:	0f b6 08             	movzbl (%rax),%ecx
    42e3:	48 83 c0 03          	add    $0x3,%rax
    42e7:	88 0a                	mov    %cl,(%rdx)
    42e9:	48 89 d1             	mov    %rdx,%rcx
    42ec:	0f b6 70 fe          	movzbl -0x2(%rax),%esi
    42f0:	48 83 c2 01          	add    $0x1,%rdx
    42f4:	48 29 d9             	sub    %rbx,%rcx
    42f7:	42 88 34 21          	mov    %sil,(%rcx,%r12,1)
    42fb:	0f b6 70 ff          	movzbl -0x1(%rax),%esi
    42ff:	40 88 34 29          	mov    %sil,(%rcx,%rbp,1)
    4303:	48 39 c7             	cmp    %rax,%rdi
    4306:	75 d8                	jne    42e0 <get_rgb_row+0x240>
    4308:	e9 af fe ff ff       	jmp    41bc <get_rgb_row+0x11c>
    430d:	0f 1f 00             	nopl   (%rax)
    4310:	4c 8d 0c 49          	lea    (%rcx,%rcx,2),%r9
    4314:	49 01 c1             	add    %rax,%r9
    4317:	66 0f 1f 84 00 00 00 	nopw   0x0(%rax,%rax,1)
    431e:	00 00 
/home/tenebris/Disk/Documents/RootCauseAnalysis/evaluation/test_bin/libjpeg/libjpeg_heap_buffer_overflow/libjpeg-turbo/rdppm.c:432 (discriminator 3)
      RGB_READ_LOOP(rescale[UCH(*bufferptr++)], ptr[aindex] = 0xFF;)
    4320:	0f b6 08             	movzbl (%rax),%ecx
    4323:	48 83 c0 03          	add    $0x3,%rax
    4327:	41 0f b6 0c 0f       	movzbl (%r15,%rcx,1),%ecx
    432c:	88 0a                	mov    %cl,(%rdx)
    432e:	0f b6 48 fe          	movzbl -0x2(%rax),%ecx
    4332:	41 0f b6 34 0f       	movzbl (%r15,%rcx,1),%esi
    4337:	48 89 d1             	mov    %rdx,%rcx
    433a:	48 01 fa             	add    %rdi,%rdx
    433d:	48 29 d9             	sub    %rbx,%rcx
    4340:	42 88 34 21          	mov    %sil,(%rcx,%r12,1)
    4344:	0f b6 70 ff          	movzbl -0x1(%rax),%esi
    4348:	41 0f b6 34 37       	movzbl (%r15,%rsi,1),%esi
    434d:	40 88 34 29          	mov    %sil,(%rcx,%rbp,1)
    4351:	42 c6 04 29 ff       	movb   $0xff,(%rcx,%r13,1)
    4356:	49 39 c1             	cmp    %rax,%r9
    4359:	75 c5                	jne    4320 <get_rgb_row+0x280>
    435b:	e9 5c fe ff ff       	jmp    41bc <get_rgb_row+0x11c>
    4360:	4c 8d 0c 49          	lea    (%rcx,%rcx,2),%r9
    4364:	49 01 c1             	add    %rax,%r9
    4367:	66 0f 1f 84 00 00 00 	nopw   0x0(%rax,%rax,1)
    436e:	00 00 
/home/tenebris/Disk/Documents/RootCauseAnalysis/evaluation/test_bin/libjpeg/libjpeg_heap_buffer_overflow/libjpeg-turbo/rdppm.c:434 (discriminator 3)
      RGB_READ_LOOP(rescale[UCH(*bufferptr++)],)
    4370:	0f b6 08             	movzbl (%rax),%ecx
    4373:	48 83 c0 03          	add    $0x3,%rax
    4377:	41 0f b6 0c 0f       	movzbl (%r15,%rcx,1),%ecx
    437c:	88 0a                	mov    %cl,(%rdx)
    437e:	0f b6 48 fe          	movzbl -0x2(%rax),%ecx
    4382:	41 0f b6 34 0f       	movzbl (%r15,%rcx,1),%esi
    4387:	48 89 d1             	mov    %rdx,%rcx
    438a:	48 01 fa             	add    %rdi,%rdx
    438d:	48 29 d9             	sub    %rbx,%rcx
    4390:	42 88 34 21          	mov    %sil,(%rcx,%r12,1)
    4394:	0f b6 70 ff          	movzbl -0x1(%rax),%esi
    4398:	41 0f b6 34 37       	movzbl (%r15,%rsi,1),%esi
    439d:	40 88 34 29          	mov    %sil,(%rcx,%rbp,1)
    43a1:	49 39 c1             	cmp    %rax,%r9
    43a4:	75 ca                	jne    4370 <get_rgb_row+0x2d0>
    43a6:	e9 11 fe ff ff       	jmp    41bc <get_rgb_row+0x11c>
    43ab:	0f 1f 44 00 00       	nopl   0x0(%rax,%rax,1)
    43b0:	4c 8d 04 49          	lea    (%rcx,%rcx,2),%r8
    43b4:	49 01 c0             	add    %rax,%r8
    43b7:	66 0f 1f 84 00 00 00 	nopw   0x0(%rax,%rax,1)
    43be:	00 00 
/home/tenebris/Disk/Documents/RootCauseAnalysis/evaluation/test_bin/libjpeg/libjpeg_heap_buffer_overflow/libjpeg-turbo/rdppm.c:427 (discriminator 3)
      RGB_READ_LOOP(*bufferptr++, ptr[aindex] = 0xFF;)
    43c0:	0f b6 08             	movzbl (%rax),%ecx
    43c3:	48 83 c0 03          	add    $0x3,%rax
    43c7:	88 0a                	mov    %cl,(%rdx)
    43c9:	48 89 d1             	mov    %rdx,%rcx
    43cc:	0f b6 70 fe          	movzbl -0x2(%rax),%esi
    43d0:	48 01 fa             	add    %rdi,%rdx
    43d3:	48 29 d9             	sub    %rbx,%rcx
    43d6:	42 88 34 21          	mov    %sil,(%rcx,%r12,1)
    43da:	0f b6 70 ff          	movzbl -0x1(%rax),%esi
    43de:	40 88 34 29          	mov    %sil,(%rcx,%rbp,1)
    43e2:	42 c6 04 29 ff       	movb   $0xff,(%rcx,%r13,1)
    43e7:	49 39 c0             	cmp    %rax,%r8
    43ea:	75 d4                	jne    43c0 <get_rgb_row+0x320>
    43ec:	e9 cb fd ff ff       	jmp    41bc <get_rgb_row+0x11c>
    43f1:	4c 8d 04 49          	lea    (%rcx,%rcx,2),%r8
    43f5:	49 01 c0             	add    %rax,%r8
    43f8:	0f 1f 84 00 00 00 00 	nopl   0x0(%rax,%rax,1)
    43ff:	00 
/home/tenebris/Disk/Documents/RootCauseAnalysis/evaluation/test_bin/libjpeg/libjpeg_heap_buffer_overflow/libjpeg-turbo/rdppm.c:429 (discriminator 3)
      RGB_READ_LOOP(*bufferptr++,)
    4400:	0f b6 08             	movzbl (%rax),%ecx
    4403:	48 83 c0 03          	add    $0x3,%rax
    4407:	88 0a                	mov    %cl,(%rdx)
    4409:	48 89 d1             	mov    %rdx,%rcx
    440c:	0f b6 70 fe          	movzbl -0x2(%rax),%esi
    4410:	48 01 fa             	add    %rdi,%rdx
    4413:	48 29 d9             	sub    %rbx,%rcx
    4416:	42 88 34 21          	mov    %sil,(%rcx,%r12,1)
    441a:	0f b6 70 ff          	movzbl -0x1(%rax),%esi
    441e:	40 88 34 29          	mov    %sil,(%rcx,%rbp,1)
    4422:	49 39 c0             	cmp    %rax,%r8
    4425:	75 d9                	jne    4400 <get_rgb_row+0x360>
    4427:	e9 90 fd ff ff       	jmp    41bc <get_rgb_row+0x11c>
    442c:	0f 1f 40 00          	nopl   0x0(%rax)

0000000000004430 <get_rgb_cmyk_row>:
get_rgb_cmyk_row():
/home/tenebris/Disk/Documents/RootCauseAnalysis/evaluation/test_bin/libjpeg/libjpeg_heap_buffer_overflow/libjpeg-turbo/rdppm.c:444
{
    4430:	f3 0f 1e fa          	endbr64 
    4434:	41 55                	push   %r13
    4436:	41 54                	push   %r12
    4438:	49 89 fc             	mov    %rdi,%r12
    443b:	55                   	push   %rbp
    443c:	48 89 f5             	mov    %rsi,%rbp
    443f:	53                   	push   %rbx
    4440:	48 83 ec 08          	sub    $0x8,%rsp
fread():
/usr/include/x86_64-linux-gnu/bits/stdio2.h:293
    4444:	48 8b 4e 18          	mov    0x18(%rsi),%rcx
    4448:	48 8b 56 40          	mov    0x40(%rsi),%rdx
    444c:	48 8b 7e 30          	mov    0x30(%rsi),%rdi
get_rgb_cmyk_row():
/home/tenebris/Disk/Documents/RootCauseAnalysis/evaluation/test_bin/libjpeg/libjpeg_heap_buffer_overflow/libjpeg-turbo/rdppm.c:448
  register JSAMPLE *rescale = source->rescale;
    4450:	48 8b 5e 48          	mov    0x48(%rsi),%rbx
/home/tenebris/Disk/Documents/RootCauseAnalysis/evaluation/test_bin/libjpeg/libjpeg_heap_buffer_overflow/libjpeg-turbo/rdppm.c:450
  unsigned int maxval = source->maxval;
    4454:	44 8b 6e 50          	mov    0x50(%rsi),%r13d
fread():
/usr/include/x86_64-linux-gnu/bits/stdio2.h:293
    4458:	be 01 00 00 00       	mov    $0x1,%esi
    445d:	e8 1e de ff ff       	call   2280 <fread@plt>
get_rgb_cmyk_row():
/home/tenebris/Disk/Documents/RootCauseAnalysis/evaluation/test_bin/libjpeg/libjpeg_heap_buffer_overflow/libjpeg-turbo/rdppm.c:452
  if (!ReadOK(source->pub.input_file, source->iobuffer, source->buffer_width))
    4462:	48 39 45 40          	cmp    %rax,0x40(%rbp)
    4466:	74 10                	je     4478 <get_rgb_cmyk_row+0x48>
/home/tenebris/Disk/Documents/RootCauseAnalysis/evaluation/test_bin/libjpeg/libjpeg_heap_buffer_overflow/libjpeg-turbo/rdppm.c:453
    ERREXIT(cinfo, JERR_INPUT_EOF);
    4468:	49 8b 04 24          	mov    (%r12),%rax
    446c:	4c 89 e7             	mov    %r12,%rdi
    446f:	c7 40 28 2b 00 00 00 	movl   $0x2b,0x28(%rax)
    4476:	ff 10                	call   *(%rax)
/home/tenebris/Disk/Documents/RootCauseAnalysis/evaluation/test_bin/libjpeg/libjpeg_heap_buffer_overflow/libjpeg-turbo/rdppm.c:454
  ptr = source->pub.buffer[0];
    4478:	48 8b 45 20          	mov    0x20(%rbp),%rax
/home/tenebris/Disk/Documents/RootCauseAnalysis/evaluation/test_bin/libjpeg/libjpeg_heap_buffer_overflow/libjpeg-turbo/rdppm.c:455
  bufferptr = source->iobuffer;
    447c:	48 8b 55 30          	mov    0x30(%rbp),%rdx
/home/tenebris/Disk/Documents/RootCauseAnalysis/evaluation/test_bin/libjpeg/libjpeg_heap_buffer_overflow/libjpeg-turbo/rdppm.c:457
    for (col = cinfo->image_width; col > 0; col--) {
    4480:	41 8b 4c 24 30       	mov    0x30(%r12),%ecx
/home/tenebris/Disk/Documents/RootCauseAnalysis/evaluation/test_bin/libjpeg/libjpeg_heap_buffer_overflow/libjpeg-turbo/rdppm.c:454
  ptr = source->pub.buffer[0];
    4485:	48 8b 00             	mov    (%rax),%rax
/home/tenebris/Disk/Documents/RootCauseAnalysis/evaluation/test_bin/libjpeg/libjpeg_heap_buffer_overflow/libjpeg-turbo/rdppm.c:456
  if (maxval == MAXJSAMPLE) {
    4488:	41 81 fd ff 00 00 00 	cmp    $0xff,%r13d
    448f:	0f 84 6b 01 00 00    	je     4600 <get_rgb_cmyk_row+0x1d0>
/home/tenebris/Disk/Documents/RootCauseAnalysis/evaluation/test_bin/libjpeg/libjpeg_heap_buffer_overflow/libjpeg-turbo/rdppm.c:465
    for (col = cinfo->image_width; col > 0; col--) {
    4495:	85 c9                	test   %ecx,%ecx
    4497:	0f 84 23 01 00 00    	je     45c0 <get_rgb_cmyk_row+0x190>
    449d:	f2 0f 10 05 43 5d 00 	movsd  0x5d43(%rip),%xmm0        # a1e8 <rgb_red+0x48>
    44a4:	00 
    44a5:	f2 0f 10 15 43 5d 00 	movsd  0x5d43(%rip),%xmm2        # a1f0 <rgb_red+0x50>
    44ac:	00 
    44ad:	48 8d 0c 88          	lea    (%rax,%rcx,4),%rcx
rgb_to_cmyk():
/home/tenebris/Disk/Documents/RootCauseAnalysis/evaluation/test_bin/libjpeg/libjpeg_heap_buffer_overflow/libjpeg-turbo/cmyk.h:41
  *c = (JSAMPLE)(255.0 - ctmp * 255.0 + 0.5);
    44b1:	f2 0f 10 35 3f 5d 00 	movsd  0x5d3f(%rip),%xmm6        # a1f8 <rgb_red+0x58>
    44b8:	00 
    44b9:	0f 1f 80 00 00 00 00 	nopl   0x0(%rax)
get_rgb_cmyk_row():
/home/tenebris/Disk/Documents/RootCauseAnalysis/evaluation/test_bin/libjpeg/libjpeg_heap_buffer_overflow/libjpeg-turbo/rdppm.c:466 (discriminator 3)
      JSAMPLE r = rescale[UCH(*bufferptr++)];
    44c0:	0f b6 3a             	movzbl (%rdx),%edi
rgb_to_cmyk():
/home/tenebris/Disk/Documents/RootCauseAnalysis/evaluation/test_bin/libjpeg/libjpeg_heap_buffer_overflow/libjpeg-turbo/cmyk.h:30 (discriminator 3)
  double ctmp = 1.0 - ((double)r / 255.0);
    44c3:	66 0f ef c9          	pxor   %xmm1,%xmm1
get_rgb_cmyk_row():
/home/tenebris/Disk/Documents/RootCauseAnalysis/evaluation/test_bin/libjpeg/libjpeg_heap_buffer_overflow/libjpeg-turbo/rdppm.c:467 (discriminator 3)
      JSAMPLE g = rescale[UCH(*bufferptr++)];
    44c7:	0f b6 72 01          	movzbl 0x1(%rdx),%esi
rgb_to_cmyk():
/home/tenebris/Disk/Documents/RootCauseAnalysis/evaluation/test_bin/libjpeg/libjpeg_heap_buffer_overflow/libjpeg-turbo/cmyk.h:30 (discriminator 3)
    44cb:	66 0f 28 ea          	movapd %xmm2,%xmm5
    44cf:	48 83 c2 03          	add    $0x3,%rdx
/home/tenebris/Disk/Documents/RootCauseAnalysis/evaluation/test_bin/libjpeg/libjpeg_heap_buffer_overflow/libjpeg-turbo/cmyk.h:31 (discriminator 3)
  double mtmp = 1.0 - ((double)g / 255.0);
    44d3:	66 0f 28 e2          	movapd %xmm2,%xmm4
/home/tenebris/Disk/Documents/RootCauseAnalysis/evaluation/test_bin/libjpeg/libjpeg_heap_buffer_overflow/libjpeg-turbo/cmyk.h:32 (discriminator 3)
  double ytmp = 1.0 - ((double)b / 255.0);
    44d7:	66 0f 28 da          	movapd %xmm2,%xmm3
/home/tenebris/Disk/Documents/RootCauseAnalysis/evaluation/test_bin/libjpeg/libjpeg_heap_buffer_overflow/libjpeg-turbo/cmyk.h:30 (discriminator 3)
  double ctmp = 1.0 - ((double)r / 255.0);
    44db:	0f b6 3c 3b          	movzbl (%rbx,%rdi,1),%edi
/home/tenebris/Disk/Documents/RootCauseAnalysis/evaluation/test_bin/libjpeg/libjpeg_heap_buffer_overflow/libjpeg-turbo/cmyk.h:31 (discriminator 3)
  double mtmp = 1.0 - ((double)g / 255.0);
    44df:	0f b6 34 33          	movzbl (%rbx,%rsi,1),%esi
/home/tenebris/Disk/Documents/RootCauseAnalysis/evaluation/test_bin/libjpeg/libjpeg_heap_buffer_overflow/libjpeg-turbo/cmyk.h:30 (discriminator 3)
  double ctmp = 1.0 - ((double)r / 255.0);
    44e3:	f2 0f 2a cf          	cvtsi2sd %edi,%xmm1
    44e7:	f2 0f 5e c8          	divsd  %xmm0,%xmm1
    44eb:	f2 0f 5c e9          	subsd  %xmm1,%xmm5
/home/tenebris/Disk/Documents/RootCauseAnalysis/evaluation/test_bin/libjpeg/libjpeg_heap_buffer_overflow/libjpeg-turbo/cmyk.h:31 (discriminator 3)
  double mtmp = 1.0 - ((double)g / 255.0);
    44ef:	66 0f ef c9          	pxor   %xmm1,%xmm1
    44f3:	f2 0f 2a ce          	cvtsi2sd %esi,%xmm1
get_rgb_cmyk_row():
/home/tenebris/Disk/Documents/RootCauseAnalysis/evaluation/test_bin/libjpeg/libjpeg_heap_buffer_overflow/libjpeg-turbo/rdppm.c:468 (discriminator 3)
      JSAMPLE b = rescale[UCH(*bufferptr++)];
    44f7:	0f b6 72 ff          	movzbl -0x1(%rdx),%esi
rgb_to_cmyk():
/home/tenebris/Disk/Documents/RootCauseAnalysis/evaluation/test_bin/libjpeg/libjpeg_heap_buffer_overflow/libjpeg-turbo/cmyk.h:32 (discriminator 3)
  double ytmp = 1.0 - ((double)b / 255.0);
    44fb:	0f b6 34 33          	movzbl (%rbx,%rsi,1),%esi
/home/tenebris/Disk/Documents/RootCauseAnalysis/evaluation/test_bin/libjpeg/libjpeg_heap_buffer_overflow/libjpeg-turbo/cmyk.h:31 (discriminator 3)
  double mtmp = 1.0 - ((double)g / 255.0);
    44ff:	f2 0f 5e c8          	divsd  %xmm0,%xmm1
    4503:	f2 0f 5c e1          	subsd  %xmm1,%xmm4
/home/tenebris/Disk/Documents/RootCauseAnalysis/evaluation/test_bin/libjpeg/libjpeg_heap_buffer_overflow/libjpeg-turbo/cmyk.h:32 (discriminator 3)
  double ytmp = 1.0 - ((double)b / 255.0);
    4507:	66 0f ef c9          	pxor   %xmm1,%xmm1
    450b:	f2 0f 2a ce          	cvtsi2sd %esi,%xmm1
    450f:	f2 0f 5e c8          	divsd  %xmm0,%xmm1
    4513:	f2 0f 5c d9          	subsd  %xmm1,%xmm3
/home/tenebris/Disk/Documents/RootCauseAnalysis/evaluation/test_bin/libjpeg/libjpeg_heap_buffer_overflow/libjpeg-turbo/cmyk.h:33 (discriminator 3)
  double ktmp = MIN(MIN(ctmp, mtmp), ytmp);
    4517:	66 0f 28 cd          	movapd %xmm5,%xmm1
    451b:	f2 0f 5d cc          	minsd  %xmm4,%xmm1
    451f:	f2 0f 5d cb          	minsd  %xmm3,%xmm1
/home/tenebris/Disk/Documents/RootCauseAnalysis/evaluation/test_bin/libjpeg/libjpeg_heap_buffer_overflow/libjpeg-turbo/cmyk.h:35 (discriminator 3)
  if (ktmp == 1.0) ctmp = mtmp = ytmp = 0.0;
    4523:	66 0f 2e ca          	ucomisd %xmm2,%xmm1
    4527:	7a 06                	jp     452f <get_rgb_cmyk_row+0xff>
/home/tenebris/Disk/Documents/RootCauseAnalysis/evaluation/test_bin/libjpeg/libjpeg_heap_buffer_overflow/libjpeg-turbo/cmyk.h:35
    4529:	0f 84 a1 00 00 00    	je     45d0 <get_rgb_cmyk_row+0x1a0>
/home/tenebris/Disk/Documents/RootCauseAnalysis/evaluation/test_bin/libjpeg/libjpeg_heap_buffer_overflow/libjpeg-turbo/cmyk.h:37
    ctmp = (ctmp - ktmp) / (1.0 - ktmp);
    452f:	66 0f 28 fa          	movapd %xmm2,%xmm7
    4533:	f2 0f 5c e9          	subsd  %xmm1,%xmm5
/home/tenebris/Disk/Documents/RootCauseAnalysis/evaluation/test_bin/libjpeg/libjpeg_heap_buffer_overflow/libjpeg-turbo/cmyk.h:38
    mtmp = (mtmp - ktmp) / (1.0 - ktmp);
    4537:	f2 0f 5c e1          	subsd  %xmm1,%xmm4
get_rgb_cmyk_row():
/home/tenebris/Disk/Documents/RootCauseAnalysis/evaluation/test_bin/libjpeg/libjpeg_heap_buffer_overflow/libjpeg-turbo/rdppm.c:470
      ptr += 4;
    453b:	48 83 c0 04          	add    $0x4,%rax
rgb_to_cmyk():
/home/tenebris/Disk/Documents/RootCauseAnalysis/evaluation/test_bin/libjpeg/libjpeg_heap_buffer_overflow/libjpeg-turbo/cmyk.h:37
    ctmp = (ctmp - ktmp) / (1.0 - ktmp);
    453f:	f2 0f 5c f9          	subsd  %xmm1,%xmm7
/home/tenebris/Disk/Documents/RootCauseAnalysis/evaluation/test_bin/libjpeg/libjpeg_heap_buffer_overflow/libjpeg-turbo/cmyk.h:39
    ytmp = (ytmp - ktmp) / (1.0 - ktmp);
    4543:	f2 0f 5c d9          	subsd  %xmm1,%xmm3
/home/tenebris/Disk/Documents/RootCauseAnalysis/evaluation/test_bin/libjpeg/libjpeg_heap_buffer_overflow/libjpeg-turbo/cmyk.h:41
  *c = (JSAMPLE)(255.0 - ctmp * 255.0 + 0.5);
    4547:	66 44 0f 28 c0       	movapd %xmm0,%xmm8
/home/tenebris/Disk/Documents/RootCauseAnalysis/evaluation/test_bin/libjpeg/libjpeg_heap_buffer_overflow/libjpeg-turbo/cmyk.h:44
  *k = (JSAMPLE)(255.0 - ktmp * 255.0 + 0.5);
    454c:	f2 0f 59 c8          	mulsd  %xmm0,%xmm1
/home/tenebris/Disk/Documents/RootCauseAnalysis/evaluation/test_bin/libjpeg/libjpeg_heap_buffer_overflow/libjpeg-turbo/cmyk.h:37
    ctmp = (ctmp - ktmp) / (1.0 - ktmp);
    4550:	f2 0f 5e ef          	divsd  %xmm7,%xmm5
/home/tenebris/Disk/Documents/RootCauseAnalysis/evaluation/test_bin/libjpeg/libjpeg_heap_buffer_overflow/libjpeg-turbo/cmyk.h:38
    mtmp = (mtmp - ktmp) / (1.0 - ktmp);
    4554:	f2 0f 5e e7          	divsd  %xmm7,%xmm4
/home/tenebris/Disk/Documents/RootCauseAnalysis/evaluation/test_bin/libjpeg/libjpeg_heap_buffer_overflow/libjpeg-turbo/cmyk.h:41
  *c = (JSAMPLE)(255.0 - ctmp * 255.0 + 0.5);
    4558:	f2 0f 59 e8          	mulsd  %xmm0,%xmm5
    455c:	f2 44 0f 5c c5       	subsd  %xmm5,%xmm8
/home/tenebris/Disk/Documents/RootCauseAnalysis/evaluation/test_bin/libjpeg/libjpeg_heap_buffer_overflow/libjpeg-turbo/cmyk.h:42
  *m = (JSAMPLE)(255.0 - mtmp * 255.0 + 0.5);
    4561:	66 0f 28 e8          	movapd %xmm0,%xmm5
/home/tenebris/Disk/Documents/RootCauseAnalysis/evaluation/test_bin/libjpeg/libjpeg_heap_buffer_overflow/libjpeg-turbo/cmyk.h:41
  *c = (JSAMPLE)(255.0 - ctmp * 255.0 + 0.5);
    4565:	f2 44 0f 58 c6       	addsd  %xmm6,%xmm8
    456a:	f2 41 0f 2c f0       	cvttsd2si %xmm8,%esi
/home/tenebris/Disk/Documents/RootCauseAnalysis/evaluation/test_bin/libjpeg/libjpeg_heap_buffer_overflow/libjpeg-turbo/cmyk.h:39
    ytmp = (ytmp - ktmp) / (1.0 - ktmp);
    456f:	f2 0f 5e df          	divsd  %xmm7,%xmm3
/home/tenebris/Disk/Documents/RootCauseAnalysis/evaluation/test_bin/libjpeg/libjpeg_heap_buffer_overflow/libjpeg-turbo/cmyk.h:41
  *c = (JSAMPLE)(255.0 - ctmp * 255.0 + 0.5);
    4573:	40 88 70 fc          	mov    %sil,-0x4(%rax)
/home/tenebris/Disk/Documents/RootCauseAnalysis/evaluation/test_bin/libjpeg/libjpeg_heap_buffer_overflow/libjpeg-turbo/cmyk.h:42
  *m = (JSAMPLE)(255.0 - mtmp * 255.0 + 0.5);
    4577:	f2 0f 59 e0          	mulsd  %xmm0,%xmm4
    457b:	f2 0f 5c ec          	subsd  %xmm4,%xmm5
/home/tenebris/Disk/Documents/RootCauseAnalysis/evaluation/test_bin/libjpeg/libjpeg_heap_buffer_overflow/libjpeg-turbo/cmyk.h:43
  *y = (JSAMPLE)(255.0 - ytmp * 255.0 + 0.5);
    457f:	66 0f 28 e0          	movapd %xmm0,%xmm4
/home/tenebris/Disk/Documents/RootCauseAnalysis/evaluation/test_bin/libjpeg/libjpeg_heap_buffer_overflow/libjpeg-turbo/cmyk.h:42
  *m = (JSAMPLE)(255.0 - mtmp * 255.0 + 0.5);
    4583:	f2 0f 58 ee          	addsd  %xmm6,%xmm5
    4587:	f2 0f 2c f5          	cvttsd2si %xmm5,%esi
    458b:	40 88 70 fd          	mov    %sil,-0x3(%rax)
/home/tenebris/Disk/Documents/RootCauseAnalysis/evaluation/test_bin/libjpeg/libjpeg_heap_buffer_overflow/libjpeg-turbo/cmyk.h:43
  *y = (JSAMPLE)(255.0 - ytmp * 255.0 + 0.5);
    458f:	f2 0f 59 d8          	mulsd  %xmm0,%xmm3
    4593:	f2 0f 5c e3          	subsd  %xmm3,%xmm4
/home/tenebris/Disk/Documents/RootCauseAnalysis/evaluation/test_bin/libjpeg/libjpeg_heap_buffer_overflow/libjpeg-turbo/cmyk.h:44
  *k = (JSAMPLE)(255.0 - ktmp * 255.0 + 0.5);
    4597:	66 0f 28 d8          	movapd %xmm0,%xmm3
    459b:	f2 0f 5c d9          	subsd  %xmm1,%xmm3
/home/tenebris/Disk/Documents/RootCauseAnalysis/evaluation/test_bin/libjpeg/libjpeg_heap_buffer_overflow/libjpeg-turbo/cmyk.h:43
  *y = (JSAMPLE)(255.0 - ytmp * 255.0 + 0.5);
    459f:	f2 0f 58 e6          	addsd  %xmm6,%xmm4
/home/tenebris/Disk/Documents/RootCauseAnalysis/evaluation/test_bin/libjpeg/libjpeg_heap_buffer_overflow/libjpeg-turbo/cmyk.h:44
  *k = (JSAMPLE)(255.0 - ktmp * 255.0 + 0.5);
    45a3:	f2 0f 58 de          	addsd  %xmm6,%xmm3
/home/tenebris/Disk/Documents/RootCauseAnalysis/evaluation/test_bin/libjpeg/libjpeg_heap_buffer_overflow/libjpeg-turbo/cmyk.h:43
  *y = (JSAMPLE)(255.0 - ytmp * 255.0 + 0.5);
    45a7:	f2 0f 2c f4          	cvttsd2si %xmm4,%esi
    45ab:	40 88 70 fe          	mov    %sil,-0x2(%rax)
/home/tenebris/Disk/Documents/RootCauseAnalysis/evaluation/test_bin/libjpeg/libjpeg_heap_buffer_overflow/libjpeg-turbo/cmyk.h:44
  *k = (JSAMPLE)(255.0 - ktmp * 255.0 + 0.5);
    45af:	f2 0f 2c f3          	cvttsd2si %xmm3,%esi
    45b3:	40 88 70 ff          	mov    %sil,-0x1(%rax)
get_rgb_cmyk_row():
/home/tenebris/Disk/Documents/RootCauseAnalysis/evaluation/test_bin/libjpeg/libjpeg_heap_buffer_overflow/libjpeg-turbo/rdppm.c:465
    for (col = cinfo->image_width; col > 0; col--) {
    45b7:	48 39 c8             	cmp    %rcx,%rax
    45ba:	0f 85 00 ff ff ff    	jne    44c0 <get_rgb_cmyk_row+0x90>
/home/tenebris/Disk/Documents/RootCauseAnalysis/evaluation/test_bin/libjpeg/libjpeg_heap_buffer_overflow/libjpeg-turbo/rdppm.c:474
}
    45c0:	48 83 c4 08          	add    $0x8,%rsp
    45c4:	b8 01 00 00 00       	mov    $0x1,%eax
    45c9:	5b                   	pop    %rbx
    45ca:	5d                   	pop    %rbp
    45cb:	41 5c                	pop    %r12
    45cd:	41 5d                	pop    %r13
    45cf:	c3                   	ret    
rgb_to_cmyk():
/home/tenebris/Disk/Documents/RootCauseAnalysis/evaluation/test_bin/libjpeg/libjpeg_heap_buffer_overflow/libjpeg-turbo/cmyk.h:41
  *c = (JSAMPLE)(255.0 - ctmp * 255.0 + 0.5);
    45d0:	c6 00 ff             	movb   $0xff,(%rax)
get_rgb_cmyk_row():
/home/tenebris/Disk/Documents/RootCauseAnalysis/evaluation/test_bin/libjpeg/libjpeg_heap_buffer_overflow/libjpeg-turbo/rdppm.c:470
      ptr += 4;
    45d3:	48 83 c0 04          	add    $0x4,%rax
rgb_to_cmyk():
/home/tenebris/Disk/Documents/RootCauseAnalysis/evaluation/test_bin/libjpeg/libjpeg_heap_buffer_overflow/libjpeg-turbo/cmyk.h:42
  *m = (JSAMPLE)(255.0 - mtmp * 255.0 + 0.5);
    45d7:	c6 40 fd ff          	movb   $0xff,-0x3(%rax)
/home/tenebris/Disk/Documents/RootCauseAnalysis/evaluation/test_bin/libjpeg/libjpeg_heap_buffer_overflow/libjpeg-turbo/cmyk.h:43
  *y = (JSAMPLE)(255.0 - ytmp * 255.0 + 0.5);
    45db:	c6 40 fe ff          	movb   $0xff,-0x2(%rax)
/home/tenebris/Disk/Documents/RootCauseAnalysis/evaluation/test_bin/libjpeg/libjpeg_heap_buffer_overflow/libjpeg-turbo/cmyk.h:44
  *k = (JSAMPLE)(255.0 - ktmp * 255.0 + 0.5);
    45df:	c6 40 ff 00          	movb   $0x0,-0x1(%rax)
get_rgb_cmyk_row():
/home/tenebris/Disk/Documents/RootCauseAnalysis/evaluation/test_bin/libjpeg/libjpeg_heap_buffer_overflow/libjpeg-turbo/rdppm.c:465
    for (col = cinfo->image_width; col > 0; col--) {
    45e3:	48 39 c8             	cmp    %rcx,%rax
    45e6:	0f 85 d4 fe ff ff    	jne    44c0 <get_rgb_cmyk_row+0x90>
/home/tenebris/Disk/Documents/RootCauseAnalysis/evaluation/test_bin/libjpeg/libjpeg_heap_buffer_overflow/libjpeg-turbo/rdppm.c:474
}
    45ec:	48 83 c4 08          	add    $0x8,%rsp
    45f0:	b8 01 00 00 00       	mov    $0x1,%eax
    45f5:	5b                   	pop    %rbx
    45f6:	5d                   	pop    %rbp
    45f7:	41 5c                	pop    %r12
    45f9:	41 5d                	pop    %r13
    45fb:	c3                   	ret    
    45fc:	0f 1f 40 00          	nopl   0x0(%rax)
/home/tenebris/Disk/Documents/RootCauseAnalysis/evaluation/test_bin/libjpeg/libjpeg_heap_buffer_overflow/libjpeg-turbo/rdppm.c:457
    for (col = cinfo->image_width; col > 0; col--) {
    4600:	85 c9                	test   %ecx,%ecx
    4602:	74 bc                	je     45c0 <get_rgb_cmyk_row+0x190>
    4604:	f2 0f 10 05 dc 5b 00 	movsd  0x5bdc(%rip),%xmm0        # a1e8 <rgb_red+0x48>
    460b:	00 
    460c:	f2 0f 10 15 dc 5b 00 	movsd  0x5bdc(%rip),%xmm2        # a1f0 <rgb_red+0x50>
    4613:	00 
    4614:	48 8d 34 88          	lea    (%rax,%rcx,4),%rsi
rgb_to_cmyk():
/home/tenebris/Disk/Documents/RootCauseAnalysis/evaluation/test_bin/libjpeg/libjpeg_heap_buffer_overflow/libjpeg-turbo/cmyk.h:41
  *c = (JSAMPLE)(255.0 - ctmp * 255.0 + 0.5);
    4618:	f2 0f 10 35 d8 5b 00 	movsd  0x5bd8(%rip),%xmm6        # a1f8 <rgb_red+0x58>
    461f:	00 
get_rgb_cmyk_row():
/home/tenebris/Disk/Documents/RootCauseAnalysis/evaluation/test_bin/libjpeg/libjpeg_heap_buffer_overflow/libjpeg-turbo/rdppm.c:458 (discriminator 3)
      JSAMPLE r = *bufferptr++;
    4620:	0f b6 3a             	movzbl (%rdx),%edi
rgb_to_cmyk():
/home/tenebris/Disk/Documents/RootCauseAnalysis/evaluation/test_bin/libjpeg/libjpeg_heap_buffer_overflow/libjpeg-turbo/cmyk.h:30 (discriminator 3)
  double ctmp = 1.0 - ((double)r / 255.0);
    4623:	66 0f ef c9          	pxor   %xmm1,%xmm1
get_rgb_cmyk_row():
/home/tenebris/Disk/Documents/RootCauseAnalysis/evaluation/test_bin/libjpeg/libjpeg_heap_buffer_overflow/libjpeg-turbo/rdppm.c:459 (discriminator 3)
      JSAMPLE g = *bufferptr++;
    4627:	0f b6 4a 01          	movzbl 0x1(%rdx),%ecx
rgb_to_cmyk():
/home/tenebris/Disk/Documents/RootCauseAnalysis/evaluation/test_bin/libjpeg/libjpeg_heap_buffer_overflow/libjpeg-turbo/cmyk.h:30 (discriminator 3)
    462b:	66 0f 28 ea          	movapd %xmm2,%xmm5
    462f:	48 83 c2 03          	add    $0x3,%rdx
/home/tenebris/Disk/Documents/RootCauseAnalysis/evaluation/test_bin/libjpeg/libjpeg_heap_buffer_overflow/libjpeg-turbo/cmyk.h:31 (discriminator 3)
  double mtmp = 1.0 - ((double)g / 255.0);
    4633:	66 0f 28 e2          	movapd %xmm2,%xmm4
/home/tenebris/Disk/Documents/RootCauseAnalysis/evaluation/test_bin/libjpeg/libjpeg_heap_buffer_overflow/libjpeg-turbo/cmyk.h:32 (discriminator 3)
  double ytmp = 1.0 - ((double)b / 255.0);
    4637:	66 0f 28 da          	movapd %xmm2,%xmm3
/home/tenebris/Disk/Documents/RootCauseAnalysis/evaluation/test_bin/libjpeg/libjpeg_heap_buffer_overflow/libjpeg-turbo/cmyk.h:30 (discriminator 3)
  double ctmp = 1.0 - ((double)r / 255.0);
    463b:	f2 0f 2a cf          	cvtsi2sd %edi,%xmm1
    463f:	f2 0f 5e c8          	divsd  %xmm0,%xmm1
    4643:	f2 0f 5c e9          	subsd  %xmm1,%xmm5
/home/tenebris/Disk/Documents/RootCauseAnalysis/evaluation/test_bin/libjpeg/libjpeg_heap_buffer_overflow/libjpeg-turbo/cmyk.h:31 (discriminator 3)
  double mtmp = 1.0 - ((double)g / 255.0);
    4647:	66 0f ef c9          	pxor   %xmm1,%xmm1
    464b:	f2 0f 2a c9          	cvtsi2sd %ecx,%xmm1
/home/tenebris/Disk/Documents/RootCauseAnalysis/evaluation/test_bin/libjpeg/libjpeg_heap_buffer_overflow/libjpeg-turbo/cmyk.h:32 (discriminator 3)
  double ytmp = 1.0 - ((double)b / 255.0);
    464f:	0f b6 4a ff          	movzbl -0x1(%rdx),%ecx
/home/tenebris/Disk/Documents/RootCauseAnalysis/evaluation/test_bin/libjpeg/libjpeg_heap_buffer_overflow/libjpeg-turbo/cmyk.h:31 (discriminator 3)
  double mtmp = 1.0 - ((double)g / 255.0);
    4653:	f2 0f 5e c8          	divsd  %xmm0,%xmm1
    4657:	f2 0f 5c e1          	subsd  %xmm1,%xmm4
/home/tenebris/Disk/Documents/RootCauseAnalysis/evaluation/test_bin/libjpeg/libjpeg_heap_buffer_overflow/libjpeg-turbo/cmyk.h:32 (discriminator 3)
  double ytmp = 1.0 - ((double)b / 255.0);
    465b:	66 0f ef c9          	pxor   %xmm1,%xmm1
    465f:	f2 0f 2a c9          	cvtsi2sd %ecx,%xmm1
    4663:	f2 0f 5e c8          	divsd  %xmm0,%xmm1
    4667:	f2 0f 5c d9          	subsd  %xmm1,%xmm3
/home/tenebris/Disk/Documents/RootCauseAnalysis/evaluation/test_bin/libjpeg/libjpeg_heap_buffer_overflow/libjpeg-turbo/cmyk.h:33 (discriminator 3)
  double ktmp = MIN(MIN(ctmp, mtmp), ytmp);
    466b:	66 0f 28 cd          	movapd %xmm5,%xmm1
    466f:	f2 0f 5d cc          	minsd  %xmm4,%xmm1
    4673:	f2 0f 5d cb          	minsd  %xmm3,%xmm1
/home/tenebris/Disk/Documents/RootCauseAnalysis/evaluation/test_bin/libjpeg/libjpeg_heap_buffer_overflow/libjpeg-turbo/cmyk.h:35 (discriminator 3)
  if (ktmp == 1.0) ctmp = mtmp = ytmp = 0.0;
    4677:	66 0f 2e ca          	ucomisd %xmm2,%xmm1
    467b:	7a 06                	jp     4683 <get_rgb_cmyk_row+0x253>
/home/tenebris/Disk/Documents/RootCauseAnalysis/evaluation/test_bin/libjpeg/libjpeg_heap_buffer_overflow/libjpeg-turbo/cmyk.h:35
    467d:	0f 84 9d 00 00 00    	je     4720 <get_rgb_cmyk_row+0x2f0>
/home/tenebris/Disk/Documents/RootCauseAnalysis/evaluation/test_bin/libjpeg/libjpeg_heap_buffer_overflow/libjpeg-turbo/cmyk.h:37
    ctmp = (ctmp - ktmp) / (1.0 - ktmp);
    4683:	66 0f 28 fa          	movapd %xmm2,%xmm7
    4687:	f2 0f 5c e9          	subsd  %xmm1,%xmm5
/home/tenebris/Disk/Documents/RootCauseAnalysis/evaluation/test_bin/libjpeg/libjpeg_heap_buffer_overflow/libjpeg-turbo/cmyk.h:38
    mtmp = (mtmp - ktmp) / (1.0 - ktmp);
    468b:	f2 0f 5c e1          	subsd  %xmm1,%xmm4
get_rgb_cmyk_row():
/home/tenebris/Disk/Documents/RootCauseAnalysis/evaluation/test_bin/libjpeg/libjpeg_heap_buffer_overflow/libjpeg-turbo/rdppm.c:462
      ptr += 4;
    468f:	48 83 c0 04          	add    $0x4,%rax
rgb_to_cmyk():
/home/tenebris/Disk/Documents/RootCauseAnalysis/evaluation/test_bin/libjpeg/libjpeg_heap_buffer_overflow/libjpeg-turbo/cmyk.h:37
    ctmp = (ctmp - ktmp) / (1.0 - ktmp);
    4693:	f2 0f 5c f9          	subsd  %xmm1,%xmm7
/home/tenebris/Disk/Documents/RootCauseAnalysis/evaluation/test_bin/libjpeg/libjpeg_heap_buffer_overflow/libjpeg-turbo/cmyk.h:39
    ytmp = (ytmp - ktmp) / (1.0 - ktmp);
    4697:	f2 0f 5c d9          	subsd  %xmm1,%xmm3
/home/tenebris/Disk/Documents/RootCauseAnalysis/evaluation/test_bin/libjpeg/libjpeg_heap_buffer_overflow/libjpeg-turbo/cmyk.h:41
  *c = (JSAMPLE)(255.0 - ctmp * 255.0 + 0.5);
    469b:	66 44 0f 28 c0       	movapd %xmm0,%xmm8
/home/tenebris/Disk/Documents/RootCauseAnalysis/evaluation/test_bin/libjpeg/libjpeg_heap_buffer_overflow/libjpeg-turbo/cmyk.h:44
  *k = (JSAMPLE)(255.0 - ktmp * 255.0 + 0.5);
    46a0:	f2 0f 59 c8          	mulsd  %xmm0,%xmm1
/home/tenebris/Disk/Documents/RootCauseAnalysis/evaluation/test_bin/libjpeg/libjpeg_heap_buffer_overflow/libjpeg-turbo/cmyk.h:37
    ctmp = (ctmp - ktmp) / (1.0 - ktmp);
    46a4:	f2 0f 5e ef          	divsd  %xmm7,%xmm5
/home/tenebris/Disk/Documents/RootCauseAnalysis/evaluation/test_bin/libjpeg/libjpeg_heap_buffer_overflow/libjpeg-turbo/cmyk.h:38
    mtmp = (mtmp - ktmp) / (1.0 - ktmp);
    46a8:	f2 0f 5e e7          	divsd  %xmm7,%xmm4
/home/tenebris/Disk/Documents/RootCauseAnalysis/evaluation/test_bin/libjpeg/libjpeg_heap_buffer_overflow/libjpeg-turbo/cmyk.h:41
  *c = (JSAMPLE)(255.0 - ctmp * 255.0 + 0.5);
    46ac:	f2 0f 59 e8          	mulsd  %xmm0,%xmm5
    46b0:	f2 44 0f 5c c5       	subsd  %xmm5,%xmm8
/home/tenebris/Disk/Documents/RootCauseAnalysis/evaluation/test_bin/libjpeg/libjpeg_heap_buffer_overflow/libjpeg-turbo/cmyk.h:42
  *m = (JSAMPLE)(255.0 - mtmp * 255.0 + 0.5);
    46b5:	66 0f 28 e8          	movapd %xmm0,%xmm5
/home/tenebris/Disk/Documents/RootCauseAnalysis/evaluation/test_bin/libjpeg/libjpeg_heap_buffer_overflow/libjpeg-turbo/cmyk.h:41
  *c = (JSAMPLE)(255.0 - ctmp * 255.0 + 0.5);
    46b9:	f2 44 0f 58 c6       	addsd  %xmm6,%xmm8
    46be:	f2 41 0f 2c c8       	cvttsd2si %xmm8,%ecx
/home/tenebris/Disk/Documents/RootCauseAnalysis/evaluation/test_bin/libjpeg/libjpeg_heap_buffer_overflow/libjpeg-turbo/cmyk.h:39
    ytmp = (ytmp - ktmp) / (1.0 - ktmp);
    46c3:	f2 0f 5e df          	divsd  %xmm7,%xmm3
/home/tenebris/Disk/Documents/RootCauseAnalysis/evaluation/test_bin/libjpeg/libjpeg_heap_buffer_overflow/libjpeg-turbo/cmyk.h:41
  *c = (JSAMPLE)(255.0 - ctmp * 255.0 + 0.5);
    46c7:	88 48 fc             	mov    %cl,-0x4(%rax)
/home/tenebris/Disk/Documents/RootCauseAnalysis/evaluation/test_bin/libjpeg/libjpeg_heap_buffer_overflow/libjpeg-turbo/cmyk.h:42
  *m = (JSAMPLE)(255.0 - mtmp * 255.0 + 0.5);
    46ca:	f2 0f 59 e0          	mulsd  %xmm0,%xmm4
    46ce:	f2 0f 5c ec          	subsd  %xmm4,%xmm5
/home/tenebris/Disk/Documents/RootCauseAnalysis/evaluation/test_bin/libjpeg/libjpeg_heap_buffer_overflow/libjpeg-turbo/cmyk.h:43
  *y = (JSAMPLE)(255.0 - ytmp * 255.0 + 0.5);
    46d2:	66 0f 28 e0          	movapd %xmm0,%xmm4
/home/tenebris/Disk/Documents/RootCauseAnalysis/evaluation/test_bin/libjpeg/libjpeg_heap_buffer_overflow/libjpeg-turbo/cmyk.h:42
  *m = (JSAMPLE)(255.0 - mtmp * 255.0 + 0.5);
    46d6:	f2 0f 58 ee          	addsd  %xmm6,%xmm5
    46da:	f2 0f 2c cd          	cvttsd2si %xmm5,%ecx
    46de:	88 48 fd             	mov    %cl,-0x3(%rax)
/home/tenebris/Disk/Documents/RootCauseAnalysis/evaluation/test_bin/libjpeg/libjpeg_heap_buffer_overflow/libjpeg-turbo/cmyk.h:43
  *y = (JSAMPLE)(255.0 - ytmp * 255.0 + 0.5);
    46e1:	f2 0f 59 d8          	mulsd  %xmm0,%xmm3
    46e5:	f2 0f 5c e3          	subsd  %xmm3,%xmm4
/home/tenebris/Disk/Documents/RootCauseAnalysis/evaluation/test_bin/libjpeg/libjpeg_heap_buffer_overflow/libjpeg-turbo/cmyk.h:44
  *k = (JSAMPLE)(255.0 - ktmp * 255.0 + 0.5);
    46e9:	66 0f 28 d8          	movapd %xmm0,%xmm3
    46ed:	f2 0f 5c d9          	subsd  %xmm1,%xmm3
/home/tenebris/Disk/Documents/RootCauseAnalysis/evaluation/test_bin/libjpeg/libjpeg_heap_buffer_overflow/libjpeg-turbo/cmyk.h:43
  *y = (JSAMPLE)(255.0 - ytmp * 255.0 + 0.5);
    46f1:	f2 0f 58 e6          	addsd  %xmm6,%xmm4
/home/tenebris/Disk/Documents/RootCauseAnalysis/evaluation/test_bin/libjpeg/libjpeg_heap_buffer_overflow/libjpeg-turbo/cmyk.h:44
  *k = (JSAMPLE)(255.0 - ktmp * 255.0 + 0.5);
    46f5:	f2 0f 58 de          	addsd  %xmm6,%xmm3
/home/tenebris/Disk/Documents/RootCauseAnalysis/evaluation/test_bin/libjpeg/libjpeg_heap_buffer_overflow/libjpeg-turbo/cmyk.h:43
  *y = (JSAMPLE)(255.0 - ytmp * 255.0 + 0.5);
    46f9:	f2 0f 2c cc          	cvttsd2si %xmm4,%ecx
    46fd:	88 48 fe             	mov    %cl,-0x2(%rax)
/home/tenebris/Disk/Documents/RootCauseAnalysis/evaluation/test_bin/libjpeg/libjpeg_heap_buffer_overflow/libjpeg-turbo/cmyk.h:44
  *k = (JSAMPLE)(255.0 - ktmp * 255.0 + 0.5);
    4700:	f2 0f 2c cb          	cvttsd2si %xmm3,%ecx
    4704:	88 48 ff             	mov    %cl,-0x1(%rax)
get_rgb_cmyk_row():
/home/tenebris/Disk/Documents/RootCauseAnalysis/evaluation/test_bin/libjpeg/libjpeg_heap_buffer_overflow/libjpeg-turbo/rdppm.c:457
    for (col = cinfo->image_width; col > 0; col--) {
    4707:	48 39 c6             	cmp    %rax,%rsi
    470a:	0f 85 10 ff ff ff    	jne    4620 <get_rgb_cmyk_row+0x1f0>
/home/tenebris/Disk/Documents/RootCauseAnalysis/evaluation/test_bin/libjpeg/libjpeg_heap_buffer_overflow/libjpeg-turbo/rdppm.c:474
}
    4710:	48 83 c4 08          	add    $0x8,%rsp
    4714:	b8 01 00 00 00       	mov    $0x1,%eax
    4719:	5b                   	pop    %rbx
    471a:	5d                   	pop    %rbp
    471b:	41 5c                	pop    %r12
    471d:	41 5d                	pop    %r13
    471f:	c3                   	ret    
rgb_to_cmyk():
/home/tenebris/Disk/Documents/RootCauseAnalysis/evaluation/test_bin/libjpeg/libjpeg_heap_buffer_overflow/libjpeg-turbo/cmyk.h:41
  *c = (JSAMPLE)(255.0 - ctmp * 255.0 + 0.5);
    4720:	c6 00 ff             	movb   $0xff,(%rax)
get_rgb_cmyk_row():
/home/tenebris/Disk/Documents/RootCauseAnalysis/evaluation/test_bin/libjpeg/libjpeg_heap_buffer_overflow/libjpeg-turbo/rdppm.c:462
      ptr += 4;
    4723:	48 83 c0 04          	add    $0x4,%rax
rgb_to_cmyk():
/home/tenebris/Disk/Documents/RootCauseAnalysis/evaluation/test_bin/libjpeg/libjpeg_heap_buffer_overflow/libjpeg-turbo/cmyk.h:42
  *m = (JSAMPLE)(255.0 - mtmp * 255.0 + 0.5);
    4727:	c6 40 fd ff          	movb   $0xff,-0x3(%rax)
/home/tenebris/Disk/Documents/RootCauseAnalysis/evaluation/test_bin/libjpeg/libjpeg_heap_buffer_overflow/libjpeg-turbo/cmyk.h:43
  *y = (JSAMPLE)(255.0 - ytmp * 255.0 + 0.5);
    472b:	c6 40 fe ff          	movb   $0xff,-0x2(%rax)
/home/tenebris/Disk/Documents/RootCauseAnalysis/evaluation/test_bin/libjpeg/libjpeg_heap_buffer_overflow/libjpeg-turbo/cmyk.h:44
  *k = (JSAMPLE)(255.0 - ktmp * 255.0 + 0.5);
    472f:	c6 40 ff 00          	movb   $0x0,-0x1(%rax)
get_rgb_cmyk_row():
/home/tenebris/Disk/Documents/RootCauseAnalysis/evaluation/test_bin/libjpeg/libjpeg_heap_buffer_overflow/libjpeg-turbo/rdppm.c:457
    for (col = cinfo->image_width; col > 0; col--) {
    4733:	48 39 f0             	cmp    %rsi,%rax
    4736:	0f 85 e4 fe ff ff    	jne    4620 <get_rgb_cmyk_row+0x1f0>
/home/tenebris/Disk/Documents/RootCauseAnalysis/evaluation/test_bin/libjpeg/libjpeg_heap_buffer_overflow/libjpeg-turbo/rdppm.c:474
}
    473c:	48 83 c4 08          	add    $0x8,%rsp
    4740:	b8 01 00 00 00       	mov    $0x1,%eax
    4745:	5b                   	pop    %rbx
    4746:	5d                   	pop    %rbp
    4747:	41 5c                	pop    %r12
    4749:	41 5d                	pop    %r13
    474b:	c3                   	ret    
    474c:	0f 1f 40 00          	nopl   0x0(%rax)

0000000000004750 <get_word_gray_row>:
get_word_gray_row():
/home/tenebris/Disk/Documents/RootCauseAnalysis/evaluation/test_bin/libjpeg/libjpeg_heap_buffer_overflow/libjpeg-turbo/rdppm.c:495
{
    4750:	f3 0f 1e fa          	endbr64 
    4754:	41 57                	push   %r15
    4756:	49 89 ff             	mov    %rdi,%r15
    4759:	41 56                	push   %r14
    475b:	41 55                	push   %r13
    475d:	41 54                	push   %r12
    475f:	55                   	push   %rbp
    4760:	53                   	push   %rbx
    4761:	48 89 f3             	mov    %rsi,%rbx
    4764:	48 83 ec 18          	sub    $0x18,%rsp
/home/tenebris/Disk/Documents/RootCauseAnalysis/evaluation/test_bin/libjpeg/libjpeg_heap_buffer_overflow/libjpeg-turbo/rdppm.c:501
  unsigned int maxval = source->maxval;
    4768:	8b 46 50             	mov    0x50(%rsi),%eax
fread():
/usr/include/x86_64-linux-gnu/bits/stdio2.h:293
    476b:	48 8b 4e 18          	mov    0x18(%rsi),%rcx
    476f:	48 8b 56 40          	mov    0x40(%rsi),%rdx
    4773:	48 8b 7e 30          	mov    0x30(%rsi),%rdi
get_word_gray_row():
/home/tenebris/Disk/Documents/RootCauseAnalysis/evaluation/test_bin/libjpeg/libjpeg_heap_buffer_overflow/libjpeg-turbo/rdppm.c:499
  register JSAMPLE *rescale = source->rescale;
    4777:	4c 8b 6e 48          	mov    0x48(%rsi),%r13
fread():
/usr/include/x86_64-linux-gnu/bits/stdio2.h:293
    477b:	be 01 00 00 00       	mov    $0x1,%esi
get_word_gray_row():
/home/tenebris/Disk/Documents/RootCauseAnalysis/evaluation/test_bin/libjpeg/libjpeg_heap_buffer_overflow/libjpeg-turbo/rdppm.c:501
  unsigned int maxval = source->maxval;
    4780:	89 44 24 0c          	mov    %eax,0xc(%rsp)
fread():
/usr/include/x86_64-linux-gnu/bits/stdio2.h:293
    4784:	e8 f7 da ff ff       	call   2280 <fread@plt>
get_word_gray_row():
/home/tenebris/Disk/Documents/RootCauseAnalysis/evaluation/test_bin/libjpeg/libjpeg_heap_buffer_overflow/libjpeg-turbo/rdppm.c:503
  if (!ReadOK(source->pub.input_file, source->iobuffer, source->buffer_width))
    4789:	48 39 43 40          	cmp    %rax,0x40(%rbx)
    478d:	74 0f                	je     479e <get_word_gray_row+0x4e>
/home/tenebris/Disk/Documents/RootCauseAnalysis/evaluation/test_bin/libjpeg/libjpeg_heap_buffer_overflow/libjpeg-turbo/rdppm.c:504
    ERREXIT(cinfo, JERR_INPUT_EOF);
    478f:	49 8b 07             	mov    (%r15),%rax
    4792:	4c 89 ff             	mov    %r15,%rdi
    4795:	c7 40 28 2b 00 00 00 	movl   $0x2b,0x28(%rax)
    479c:	ff 10                	call   *(%rax)
/home/tenebris/Disk/Documents/RootCauseAnalysis/evaluation/test_bin/libjpeg/libjpeg_heap_buffer_overflow/libjpeg-turbo/rdppm.c:505
  ptr = source->pub.buffer[0];
    479e:	48 8b 43 20          	mov    0x20(%rbx),%rax
/home/tenebris/Disk/Documents/RootCauseAnalysis/evaluation/test_bin/libjpeg/libjpeg_heap_buffer_overflow/libjpeg-turbo/rdppm.c:507
  for (col = cinfo->image_width; col > 0; col--) {
    47a2:	45 8b 67 30          	mov    0x30(%r15),%r12d
/home/tenebris/Disk/Documents/RootCauseAnalysis/evaluation/test_bin/libjpeg/libjpeg_heap_buffer_overflow/libjpeg-turbo/rdppm.c:506
  bufferptr = source->iobuffer;
    47a6:	4c 8b 73 30          	mov    0x30(%rbx),%r14
/home/tenebris/Disk/Documents/RootCauseAnalysis/evaluation/test_bin/libjpeg/libjpeg_heap_buffer_overflow/libjpeg-turbo/rdppm.c:505
  ptr = source->pub.buffer[0];
    47aa:	48 8b 28             	mov    (%rax),%rbp
/home/tenebris/Disk/Documents/RootCauseAnalysis/evaluation/test_bin/libjpeg/libjpeg_heap_buffer_overflow/libjpeg-turbo/rdppm.c:507
  for (col = cinfo->image_width; col > 0; col--) {
    47ad:	45 85 e4             	test   %r12d,%r12d
    47b0:	74 3f                	je     47f1 <get_word_gray_row+0xa1>
    47b2:	49 01 ec             	add    %rbp,%r12
    47b5:	0f 1f 00             	nopl   (%rax)
/home/tenebris/Disk/Documents/RootCauseAnalysis/evaluation/test_bin/libjpeg/libjpeg_heap_buffer_overflow/libjpeg-turbo/rdppm.c:510
    temp |= UCH(*bufferptr++);
    47b8:	41 0f b7 1e          	movzwl (%r14),%ebx
    47bc:	49 83 c6 02          	add    $0x2,%r14
    47c0:	66 c1 c3 08          	rol    $0x8,%bx
/home/tenebris/Disk/Documents/RootCauseAnalysis/evaluation/test_bin/libjpeg/libjpeg_heap_buffer_overflow/libjpeg-turbo/rdppm.c:511
    if (temp > maxval)
    47c4:	0f b7 c3             	movzwl %bx,%eax
    47c7:	39 44 24 0c          	cmp    %eax,0xc(%rsp)
    47cb:	73 0f                	jae    47dc <get_word_gray_row+0x8c>
/home/tenebris/Disk/Documents/RootCauseAnalysis/evaluation/test_bin/libjpeg/libjpeg_heap_buffer_overflow/libjpeg-turbo/rdppm.c:512
      ERREXIT(cinfo, JERR_PPM_TOOLARGE);
    47cd:	49 8b 07             	mov    (%r15),%rax
    47d0:	4c 89 ff             	mov    %r15,%rdi
    47d3:	c7 40 28 04 04 00 00 	movl   $0x404,0x28(%rax)
    47da:	ff 10                	call   *(%rax)
/home/tenebris/Disk/Documents/RootCauseAnalysis/evaluation/test_bin/libjpeg/libjpeg_heap_buffer_overflow/libjpeg-turbo/rdppm.c:513 (discriminator 2)
    *ptr++ = rescale[temp];
    47dc:	0f b7 db             	movzwl %bx,%ebx
    47df:	48 83 c5 01          	add    $0x1,%rbp
    47e3:	41 0f b6 44 1d 00    	movzbl 0x0(%r13,%rbx,1),%eax
    47e9:	88 45 ff             	mov    %al,-0x1(%rbp)
/home/tenebris/Disk/Documents/RootCauseAnalysis/evaluation/test_bin/libjpeg/libjpeg_heap_buffer_overflow/libjpeg-turbo/rdppm.c:507 (discriminator 2)
  for (col = cinfo->image_width; col > 0; col--) {
    47ec:	49 39 ec             	cmp    %rbp,%r12
    47ef:	75 c7                	jne    47b8 <get_word_gray_row+0x68>
/home/tenebris/Disk/Documents/RootCauseAnalysis/evaluation/test_bin/libjpeg/libjpeg_heap_buffer_overflow/libjpeg-turbo/rdppm.c:516
}
    47f1:	48 83 c4 18          	add    $0x18,%rsp
    47f5:	b8 01 00 00 00       	mov    $0x1,%eax
    47fa:	5b                   	pop    %rbx
    47fb:	5d                   	pop    %rbp
    47fc:	41 5c                	pop    %r12
    47fe:	41 5d                	pop    %r13
    4800:	41 5e                	pop    %r14
    4802:	41 5f                	pop    %r15
    4804:	c3                   	ret    
    4805:	66 66 2e 0f 1f 84 00 	data16 cs nopw 0x0(%rax,%rax,1)
    480c:	00 00 00 00 

0000000000004810 <get_word_rgb_row>:
get_word_rgb_row():
/home/tenebris/Disk/Documents/RootCauseAnalysis/evaluation/test_bin/libjpeg/libjpeg_heap_buffer_overflow/libjpeg-turbo/rdppm.c:522
{
    4810:	f3 0f 1e fa          	endbr64 
    4814:	41 57                	push   %r15
    4816:	41 56                	push   %r14
    4818:	41 55                	push   %r13
    481a:	49 89 fd             	mov    %rdi,%r13
    481d:	41 54                	push   %r12
    481f:	55                   	push   %rbp
    4820:	53                   	push   %rbx
    4821:	48 89 f3             	mov    %rsi,%rbx
    4824:	48 83 ec 18          	sub    $0x18,%rsp
fread():
/usr/include/x86_64-linux-gnu/bits/stdio2.h:293
    4828:	48 8b 4e 18          	mov    0x18(%rsi),%rcx
    482c:	48 8b 56 40          	mov    0x40(%rsi),%rdx
    4830:	48 8b 7e 30          	mov    0x30(%rsi),%rdi
get_word_rgb_row():
/home/tenebris/Disk/Documents/RootCauseAnalysis/evaluation/test_bin/libjpeg/libjpeg_heap_buffer_overflow/libjpeg-turbo/rdppm.c:526
  register JSAMPLE *rescale = source->rescale;
    4834:	4c 8b 76 48          	mov    0x48(%rsi),%r14
/home/tenebris/Disk/Documents/RootCauseAnalysis/evaluation/test_bin/libjpeg/libjpeg_heap_buffer_overflow/libjpeg-turbo/rdppm.c:528
  unsigned int maxval = source->maxval;
    4838:	8b 6e 50             	mov    0x50(%rsi),%ebp
fread():
/usr/include/x86_64-linux-gnu/bits/stdio2.h:293
    483b:	be 01 00 00 00       	mov    $0x1,%esi
    4840:	e8 3b da ff ff       	call   2280 <fread@plt>
get_word_rgb_row():
/home/tenebris/Disk/Documents/RootCauseAnalysis/evaluation/test_bin/libjpeg/libjpeg_heap_buffer_overflow/libjpeg-turbo/rdppm.c:530
  if (!ReadOK(source->pub.input_file, source->iobuffer, source->buffer_width))
    4845:	48 39 43 40          	cmp    %rax,0x40(%rbx)
    4849:	74 10                	je     485b <get_word_rgb_row+0x4b>
/home/tenebris/Disk/Documents/RootCauseAnalysis/evaluation/test_bin/libjpeg/libjpeg_heap_buffer_overflow/libjpeg-turbo/rdppm.c:531
    ERREXIT(cinfo, JERR_INPUT_EOF);
    484b:	49 8b 45 00          	mov    0x0(%r13),%rax
    484f:	4c 89 ef             	mov    %r13,%rdi
    4852:	c7 40 28 2b 00 00 00 	movl   $0x2b,0x28(%rax)
    4859:	ff 10                	call   *(%rax)
/home/tenebris/Disk/Documents/RootCauseAnalysis/evaluation/test_bin/libjpeg/libjpeg_heap_buffer_overflow/libjpeg-turbo/rdppm.c:532
  ptr = source->pub.buffer[0];
    485b:	48 8b 43 20          	mov    0x20(%rbx),%rax
/home/tenebris/Disk/Documents/RootCauseAnalysis/evaluation/test_bin/libjpeg/libjpeg_heap_buffer_overflow/libjpeg-turbo/rdppm.c:534
  for (col = cinfo->image_width; col > 0; col--) {
    485f:	41 8b 55 30          	mov    0x30(%r13),%edx
/home/tenebris/Disk/Documents/RootCauseAnalysis/evaluation/test_bin/libjpeg/libjpeg_heap_buffer_overflow/libjpeg-turbo/rdppm.c:533
  bufferptr = source->iobuffer;
    4863:	4c 8b 63 30          	mov    0x30(%rbx),%r12
/home/tenebris/Disk/Documents/RootCauseAnalysis/evaluation/test_bin/libjpeg/libjpeg_heap_buffer_overflow/libjpeg-turbo/rdppm.c:532
  ptr = source->pub.buffer[0];
    4867:	4c 8b 38             	mov    (%rax),%r15
/home/tenebris/Disk/Documents/RootCauseAnalysis/evaluation/test_bin/libjpeg/libjpeg_heap_buffer_overflow/libjpeg-turbo/rdppm.c:534
  for (col = cinfo->image_width; col > 0; col--) {
    486a:	85 d2                	test   %edx,%edx
    486c:	0f 84 a6 00 00 00    	je     4918 <get_word_rgb_row+0x108>
    4872:	48 8d 04 52          	lea    (%rdx,%rdx,2),%rax
    4876:	4c 01 f8             	add    %r15,%rax
    4879:	48 89 44 24 08       	mov    %rax,0x8(%rsp)
    487e:	66 90                	xchg   %ax,%ax
/home/tenebris/Disk/Documents/RootCauseAnalysis/evaluation/test_bin/libjpeg/libjpeg_heap_buffer_overflow/libjpeg-turbo/rdppm.c:537
    temp |= UCH(*bufferptr++);
    4880:	41 0f b7 1c 24       	movzwl (%r12),%ebx
    4885:	66 c1 c3 08          	rol    $0x8,%bx
/home/tenebris/Disk/Documents/RootCauseAnalysis/evaluation/test_bin/libjpeg/libjpeg_heap_buffer_overflow/libjpeg-turbo/rdppm.c:538
    if (temp > maxval)
    4889:	0f b7 d3             	movzwl %bx,%edx
    488c:	39 d5                	cmp    %edx,%ebp
    488e:	73 10                	jae    48a0 <get_word_rgb_row+0x90>
/home/tenebris/Disk/Documents/RootCauseAnalysis/evaluation/test_bin/libjpeg/libjpeg_heap_buffer_overflow/libjpeg-turbo/rdppm.c:539
      ERREXIT(cinfo, JERR_PPM_TOOLARGE);
    4890:	49 8b 55 00          	mov    0x0(%r13),%rdx
    4894:	4c 89 ef             	mov    %r13,%rdi
    4897:	c7 42 28 04 04 00 00 	movl   $0x404,0x28(%rdx)
    489e:	ff 12                	call   *(%rdx)
/home/tenebris/Disk/Documents/RootCauseAnalysis/evaluation/test_bin/libjpeg/libjpeg_heap_buffer_overflow/libjpeg-turbo/rdppm.c:540
    *ptr++ = rescale[temp];
    48a0:	0f b7 db             	movzwl %bx,%ebx
    48a3:	41 0f b6 14 1e       	movzbl (%r14,%rbx,1),%edx
    48a8:	41 88 17             	mov    %dl,(%r15)
/home/tenebris/Disk/Documents/RootCauseAnalysis/evaluation/test_bin/libjpeg/libjpeg_heap_buffer_overflow/libjpeg-turbo/rdppm.c:542
    temp |= UCH(*bufferptr++);
    48ab:	41 0f b7 5c 24 02    	movzwl 0x2(%r12),%ebx
    48b1:	66 c1 c3 08          	rol    $0x8,%bx
/home/tenebris/Disk/Documents/RootCauseAnalysis/evaluation/test_bin/libjpeg/libjpeg_heap_buffer_overflow/libjpeg-turbo/rdppm.c:543
    if (temp > maxval)
    48b5:	0f b7 d3             	movzwl %bx,%edx
    48b8:	39 d5                	cmp    %edx,%ebp
    48ba:	73 10                	jae    48cc <get_word_rgb_row+0xbc>
/home/tenebris/Disk/Documents/RootCauseAnalysis/evaluation/test_bin/libjpeg/libjpeg_heap_buffer_overflow/libjpeg-turbo/rdppm.c:544
      ERREXIT(cinfo, JERR_PPM_TOOLARGE);
    48bc:	49 8b 55 00          	mov    0x0(%r13),%rdx
    48c0:	4c 89 ef             	mov    %r13,%rdi
    48c3:	c7 42 28 04 04 00 00 	movl   $0x404,0x28(%rdx)
    48ca:	ff 12                	call   *(%rdx)
/home/tenebris/Disk/Documents/RootCauseAnalysis/evaluation/test_bin/libjpeg/libjpeg_heap_buffer_overflow/libjpeg-turbo/rdppm.c:545
    *ptr++ = rescale[temp];
    48cc:	0f b7 db             	movzwl %bx,%ebx
    48cf:	49 83 c4 06          	add    $0x6,%r12
    48d3:	41 0f b6 14 1e       	movzbl (%r14,%rbx,1),%edx
    48d8:	41 88 57 01          	mov    %dl,0x1(%r15)
/home/tenebris/Disk/Documents/RootCauseAnalysis/evaluation/test_bin/libjpeg/libjpeg_heap_buffer_overflow/libjpeg-turbo/rdppm.c:547
    temp |= UCH(*bufferptr++);
    48dc:	41 0f b7 5c 24 fe    	movzwl -0x2(%r12),%ebx
    48e2:	66 c1 c3 08          	rol    $0x8,%bx
/home/tenebris/Disk/Documents/RootCauseAnalysis/evaluation/test_bin/libjpeg/libjpeg_heap_buffer_overflow/libjpeg-turbo/rdppm.c:548
    if (temp > maxval)
    48e6:	0f b7 d3             	movzwl %bx,%edx
    48e9:	39 d5                	cmp    %edx,%ebp
    48eb:	73 10                	jae    48fd <get_word_rgb_row+0xed>
/home/tenebris/Disk/Documents/RootCauseAnalysis/evaluation/test_bin/libjpeg/libjpeg_heap_buffer_overflow/libjpeg-turbo/rdppm.c:549
      ERREXIT(cinfo, JERR_PPM_TOOLARGE);
    48ed:	49 8b 55 00          	mov    0x0(%r13),%rdx
    48f1:	4c 89 ef             	mov    %r13,%rdi
    48f4:	c7 42 28 04 04 00 00 	movl   $0x404,0x28(%rdx)
    48fb:	ff 12                	call   *(%rdx)
/home/tenebris/Disk/Documents/RootCauseAnalysis/evaluation/test_bin/libjpeg/libjpeg_heap_buffer_overflow/libjpeg-turbo/rdppm.c:550 (discriminator 2)
    *ptr++ = rescale[temp];
    48fd:	0f b7 db             	movzwl %bx,%ebx
    4900:	49 83 c7 03          	add    $0x3,%r15
    4904:	41 0f b6 14 1e       	movzbl (%r14,%rbx,1),%edx
    4909:	41 88 57 ff          	mov    %dl,-0x1(%r15)
/home/tenebris/Disk/Documents/RootCauseAnalysis/evaluation/test_bin/libjpeg/libjpeg_heap_buffer_overflow/libjpeg-turbo/rdppm.c:534 (discriminator 2)
  for (col = cinfo->image_width; col > 0; col--) {
    490d:	4c 3b 7c 24 08       	cmp    0x8(%rsp),%r15
    4912:	0f 85 68 ff ff ff    	jne    4880 <get_word_rgb_row+0x70>
/home/tenebris/Disk/Documents/RootCauseAnalysis/evaluation/test_bin/libjpeg/libjpeg_heap_buffer_overflow/libjpeg-turbo/rdppm.c:553
}
    4918:	48 83 c4 18          	add    $0x18,%rsp
    491c:	b8 01 00 00 00       	mov    $0x1,%eax
    4921:	5b                   	pop    %rbx
    4922:	5d                   	pop    %rbp
    4923:	41 5c                	pop    %r12
    4925:	41 5d                	pop    %r13
    4927:	41 5e                	pop    %r14
    4929:	41 5f                	pop    %r15
    492b:	c3                   	ret    
    492c:	0f 1f 40 00          	nopl   0x0(%rax)

0000000000004930 <get_raw_row>:
get_raw_row():
/home/tenebris/Disk/Documents/RootCauseAnalysis/evaluation/test_bin/libjpeg/libjpeg_heap_buffer_overflow/libjpeg-turbo/rdppm.c:483
{
    4930:	f3 0f 1e fa          	endbr64 
    4934:	55                   	push   %rbp
    4935:	48 89 fd             	mov    %rdi,%rbp
    4938:	53                   	push   %rbx
    4939:	48 89 f3             	mov    %rsi,%rbx
    493c:	48 83 ec 08          	sub    $0x8,%rsp
fread():
/usr/include/x86_64-linux-gnu/bits/stdio2.h:293
    4940:	48 8b 4e 18          	mov    0x18(%rsi),%rcx
    4944:	48 8b 56 40          	mov    0x40(%rsi),%rdx
    4948:	48 8b 7e 30          	mov    0x30(%rsi),%rdi
    494c:	be 01 00 00 00       	mov    $0x1,%esi
    4951:	e8 2a d9 ff ff       	call   2280 <fread@plt>
get_raw_row():
/home/tenebris/Disk/Documents/RootCauseAnalysis/evaluation/test_bin/libjpeg/libjpeg_heap_buffer_overflow/libjpeg-turbo/rdppm.c:486
  if (!ReadOK(source->pub.input_file, source->iobuffer, source->buffer_width))
    4956:	48 39 43 40          	cmp    %rax,0x40(%rbx)
    495a:	74 10                	je     496c <get_raw_row+0x3c>
/home/tenebris/Disk/Documents/RootCauseAnalysis/evaluation/test_bin/libjpeg/libjpeg_heap_buffer_overflow/libjpeg-turbo/rdppm.c:487
    ERREXIT(cinfo, JERR_INPUT_EOF);
    495c:	48 8b 45 00          	mov    0x0(%rbp),%rax
    4960:	48 89 ef             	mov    %rbp,%rdi
    4963:	c7 40 28 2b 00 00 00 	movl   $0x2b,0x28(%rax)
    496a:	ff 10                	call   *(%rax)
/home/tenebris/Disk/Documents/RootCauseAnalysis/evaluation/test_bin/libjpeg/libjpeg_heap_buffer_overflow/libjpeg-turbo/rdppm.c:489
}
    496c:	48 83 c4 08          	add    $0x8,%rsp
    4970:	b8 01 00 00 00       	mov    $0x1,%eax
    4975:	5b                   	pop    %rbx
    4976:	5d                   	pop    %rbp
    4977:	c3                   	ret    
    4978:	0f 1f 84 00 00 00 00 	nopl   0x0(%rax,%rax,1)
    497f:	00 

0000000000004980 <read_pbm_integer>:
read_pbm_integer():
/home/tenebris/Disk/Documents/RootCauseAnalysis/evaluation/test_bin/libjpeg/libjpeg_heap_buffer_overflow/libjpeg-turbo/rdppm.c:107
{
    4980:	41 55                	push   %r13
    4982:	41 89 d5             	mov    %edx,%r13d
    4985:	41 54                	push   %r12
/home/tenebris/Disk/Documents/RootCauseAnalysis/evaluation/test_bin/libjpeg/libjpeg_heap_buffer_overflow/libjpeg-turbo/rdppm.c:116
  } while (ch == ' ' || ch == '\t' || ch == '\n' || ch == '\r');
    4987:	49 bc ff d9 ff ff fe 	movabs $0xfffffffeffffd9ff,%r12
    498e:	ff ff ff 
/home/tenebris/Disk/Documents/RootCauseAnalysis/evaluation/test_bin/libjpeg/libjpeg_heap_buffer_overflow/libjpeg-turbo/rdppm.c:107
{
    4991:	55                   	push   %rbp
    4992:	48 89 fd             	mov    %rdi,%rbp
    4995:	53                   	push   %rbx
    4996:	48 89 f3             	mov    %rsi,%rbx
    4999:	48 83 ec 08          	sub    $0x8,%rsp
    499d:	0f 1f 00             	nopl   (%rax)
pbm_getc():
/home/tenebris/Disk/Documents/RootCauseAnalysis/evaluation/test_bin/libjpeg/libjpeg_heap_buffer_overflow/libjpeg-turbo/rdppm.c:91
  ch = getc(infile);
    49a0:	48 89 df             	mov    %rbx,%rdi
    49a3:	e8 a8 da ff ff       	call   2450 <getc@plt>
/home/tenebris/Disk/Documents/RootCauseAnalysis/evaluation/test_bin/libjpeg/libjpeg_heap_buffer_overflow/libjpeg-turbo/rdppm.c:92
  if (ch == '#') {
    49a8:	83 f8 23             	cmp    $0x23,%eax
    49ab:	0f 84 97 00 00 00    	je     4a48 <read_pbm_integer+0xc8>
read_pbm_integer():
/home/tenebris/Disk/Documents/RootCauseAnalysis/evaluation/test_bin/libjpeg/libjpeg_heap_buffer_overflow/libjpeg-turbo/rdppm.c:114
    if (ch == EOF)
    49b1:	83 f8 ff             	cmp    $0xffffffff,%eax
    49b4:	0f 84 a4 00 00 00    	je     4a5e <read_pbm_integer+0xde>
/home/tenebris/Disk/Documents/RootCauseAnalysis/evaluation/test_bin/libjpeg/libjpeg_heap_buffer_overflow/libjpeg-turbo/rdppm.c:116
  } while (ch == ' ' || ch == '\t' || ch == '\n' || ch == '\r');
    49ba:	83 f8 20             	cmp    $0x20,%eax
    49bd:	0f 86 cd 00 00 00    	jbe    4a90 <read_pbm_integer+0x110>
/home/tenebris/Disk/Documents/RootCauseAnalysis/evaluation/test_bin/libjpeg/libjpeg_heap_buffer_overflow/libjpeg-turbo/rdppm.c:118 (discriminator 1)
  if (ch < '0' || ch > '9')
    49c3:	44 8d 60 d0          	lea    -0x30(%rax),%r12d
    49c7:	41 83 fc 09          	cmp    $0x9,%r12d
    49cb:	76 1c                	jbe    49e9 <read_pbm_integer+0x69>
    49cd:	e9 a2 00 00 00       	jmp    4a74 <read_pbm_integer+0xf4>
    49d2:	66 0f 1f 44 00 00    	nopw   0x0(%rax,%rax,1)
/home/tenebris/Disk/Documents/RootCauseAnalysis/evaluation/test_bin/libjpeg/libjpeg_heap_buffer_overflow/libjpeg-turbo/rdppm.c:122
  while ((ch = pbm_getc(infile)) >= '0' && ch <= '9') {
    49d8:	8d 50 d0             	lea    -0x30(%rax),%edx
    49db:	83 fa 09             	cmp    $0x9,%edx
    49de:	77 40                	ja     4a20 <read_pbm_integer+0xa0>
/home/tenebris/Disk/Documents/RootCauseAnalysis/evaluation/test_bin/libjpeg/libjpeg_heap_buffer_overflow/libjpeg-turbo/rdppm.c:123
    val *= 10;
    49e0:	43 8d 14 a4          	lea    (%r12,%r12,4),%edx
/home/tenebris/Disk/Documents/RootCauseAnalysis/evaluation/test_bin/libjpeg/libjpeg_heap_buffer_overflow/libjpeg-turbo/rdppm.c:124
    val += ch - '0';
    49e4:	44 8d 64 50 d0       	lea    -0x30(%rax,%rdx,2),%r12d
pbm_getc():
/home/tenebris/Disk/Documents/RootCauseAnalysis/evaluation/test_bin/libjpeg/libjpeg_heap_buffer_overflow/libjpeg-turbo/rdppm.c:91
  ch = getc(infile);
    49e9:	48 89 df             	mov    %rbx,%rdi
    49ec:	e8 5f da ff ff       	call   2450 <getc@plt>
/home/tenebris/Disk/Documents/RootCauseAnalysis/evaluation/test_bin/libjpeg/libjpeg_heap_buffer_overflow/libjpeg-turbo/rdppm.c:92
  if (ch == '#') {
    49f1:	83 f8 23             	cmp    $0x23,%eax
    49f4:	75 e2                	jne    49d8 <read_pbm_integer+0x58>
    49f6:	66 2e 0f 1f 84 00 00 	cs nopw 0x0(%rax,%rax,1)
    49fd:	00 00 00 
/home/tenebris/Disk/Documents/RootCauseAnalysis/evaluation/test_bin/libjpeg/libjpeg_heap_buffer_overflow/libjpeg-turbo/rdppm.c:94
      ch = getc(infile);
    4a00:	48 89 df             	mov    %rbx,%rdi
