
cjpeg_divide_by_zero_trace:     file format elf64-x86-64


Disassembly of section .init:

0000000000002000 <_init>:
_init():
    2000:	f3 0f 1e fa          	endbr64 
    2004:	48 83 ec 08          	sub    $0x8,%rsp
    2008:	48 8b 05 d9 cf 00 00 	mov    0xcfd9(%rip),%rax        # efe8 <__gmon_start__@Base>
    200f:	48 85 c0             	test   %rax,%rax
    2012:	74 02                	je     2016 <_init+0x16>
    2014:	ff d0                	call   *%rax
    2016:	48 83 c4 08          	add    $0x8,%rsp
    201a:	c3                   	ret    

Disassembly of section .plt:

0000000000002020 <.plt>:
    2020:	ff 35 8a ce 00 00    	push   0xce8a(%rip)        # eeb0 <_GLOBAL_OFFSET_TABLE_+0x8>
    2026:	f2 ff 25 8b ce 00 00 	bnd jmp *0xce8b(%rip)        # eeb8 <_GLOBAL_OFFSET_TABLE_+0x10>
    202d:	0f 1f 00             	nopl   (%rax)
    2030:	f3 0f 1e fa          	endbr64 
    2034:	68 00 00 00 00       	push   $0x0
    2039:	f2 e9 e1 ff ff ff    	bnd jmp 2020 <_init+0x20>
    203f:	90                   	nop
    2040:	f3 0f 1e fa          	endbr64 
    2044:	68 01 00 00 00       	push   $0x1
    2049:	f2 e9 d1 ff ff ff    	bnd jmp 2020 <_init+0x20>
    204f:	90                   	nop
    2050:	f3 0f 1e fa          	endbr64 
    2054:	68 02 00 00 00       	push   $0x2
    2059:	f2 e9 c1 ff ff ff    	bnd jmp 2020 <_init+0x20>
    205f:	90                   	nop
    2060:	f3 0f 1e fa          	endbr64 
    2064:	68 03 00 00 00       	push   $0x3
    2069:	f2 e9 b1 ff ff ff    	bnd jmp 2020 <_init+0x20>
    206f:	90                   	nop
    2070:	f3 0f 1e fa          	endbr64 
    2074:	68 04 00 00 00       	push   $0x4
    2079:	f2 e9 a1 ff ff ff    	bnd jmp 2020 <_init+0x20>
    207f:	90                   	nop
    2080:	f3 0f 1e fa          	endbr64 
    2084:	68 05 00 00 00       	push   $0x5
    2089:	f2 e9 91 ff ff ff    	bnd jmp 2020 <_init+0x20>
    208f:	90                   	nop
    2090:	f3 0f 1e fa          	endbr64 
    2094:	68 06 00 00 00       	push   $0x6
    2099:	f2 e9 81 ff ff ff    	bnd jmp 2020 <_init+0x20>
    209f:	90                   	nop
    20a0:	f3 0f 1e fa          	endbr64 
    20a4:	68 07 00 00 00       	push   $0x7
    20a9:	f2 e9 71 ff ff ff    	bnd jmp 2020 <_init+0x20>
    20af:	90                   	nop
    20b0:	f3 0f 1e fa          	endbr64 
    20b4:	68 08 00 00 00       	push   $0x8
    20b9:	f2 e9 61 ff ff ff    	bnd jmp 2020 <_init+0x20>
    20bf:	90                   	nop
    20c0:	f3 0f 1e fa          	endbr64 
    20c4:	68 09 00 00 00       	push   $0x9
    20c9:	f2 e9 51 ff ff ff    	bnd jmp 2020 <_init+0x20>
    20cf:	90                   	nop
    20d0:	f3 0f 1e fa          	endbr64 
    20d4:	68 0a 00 00 00       	push   $0xa
    20d9:	f2 e9 41 ff ff ff    	bnd jmp 2020 <_init+0x20>
    20df:	90                   	nop
    20e0:	f3 0f 1e fa          	endbr64 
    20e4:	68 0b 00 00 00       	push   $0xb
    20e9:	f2 e9 31 ff ff ff    	bnd jmp 2020 <_init+0x20>
    20ef:	90                   	nop
    20f0:	f3 0f 1e fa          	endbr64 
    20f4:	68 0c 00 00 00       	push   $0xc
    20f9:	f2 e9 21 ff ff ff    	bnd jmp 2020 <_init+0x20>
    20ff:	90                   	nop
    2100:	f3 0f 1e fa          	endbr64 
    2104:	68 0d 00 00 00       	push   $0xd
    2109:	f2 e9 11 ff ff ff    	bnd jmp 2020 <_init+0x20>
    210f:	90                   	nop
    2110:	f3 0f 1e fa          	endbr64 
    2114:	68 0e 00 00 00       	push   $0xe
    2119:	f2 e9 01 ff ff ff    	bnd jmp 2020 <_init+0x20>
    211f:	90                   	nop
    2120:	f3 0f 1e fa          	endbr64 
    2124:	68 0f 00 00 00       	push   $0xf
    2129:	f2 e9 f1 fe ff ff    	bnd jmp 2020 <_init+0x20>
    212f:	90                   	nop
    2130:	f3 0f 1e fa          	endbr64 
    2134:	68 10 00 00 00       	push   $0x10
    2139:	f2 e9 e1 fe ff ff    	bnd jmp 2020 <_init+0x20>
    213f:	90                   	nop
    2140:	f3 0f 1e fa          	endbr64 
    2144:	68 11 00 00 00       	push   $0x11
    2149:	f2 e9 d1 fe ff ff    	bnd jmp 2020 <_init+0x20>
    214f:	90                   	nop
    2150:	f3 0f 1e fa          	endbr64 
    2154:	68 12 00 00 00       	push   $0x12
    2159:	f2 e9 c1 fe ff ff    	bnd jmp 2020 <_init+0x20>
    215f:	90                   	nop
    2160:	f3 0f 1e fa          	endbr64 
    2164:	68 13 00 00 00       	push   $0x13
    2169:	f2 e9 b1 fe ff ff    	bnd jmp 2020 <_init+0x20>
    216f:	90                   	nop
    2170:	f3 0f 1e fa          	endbr64 
    2174:	68 14 00 00 00       	push   $0x14
    2179:	f2 e9 a1 fe ff ff    	bnd jmp 2020 <_init+0x20>
    217f:	90                   	nop
    2180:	f3 0f 1e fa          	endbr64 
    2184:	68 15 00 00 00       	push   $0x15
    2189:	f2 e9 91 fe ff ff    	bnd jmp 2020 <_init+0x20>
    218f:	90                   	nop
    2190:	f3 0f 1e fa          	endbr64 
    2194:	68 16 00 00 00       	push   $0x16
    2199:	f2 e9 81 fe ff ff    	bnd jmp 2020 <_init+0x20>
    219f:	90                   	nop
    21a0:	f3 0f 1e fa          	endbr64 
    21a4:	68 17 00 00 00       	push   $0x17
    21a9:	f2 e9 71 fe ff ff    	bnd jmp 2020 <_init+0x20>
    21af:	90                   	nop
    21b0:	f3 0f 1e fa          	endbr64 
    21b4:	68 18 00 00 00       	push   $0x18
    21b9:	f2 e9 61 fe ff ff    	bnd jmp 2020 <_init+0x20>
    21bf:	90                   	nop
    21c0:	f3 0f 1e fa          	endbr64 
    21c4:	68 19 00 00 00       	push   $0x19
    21c9:	f2 e9 51 fe ff ff    	bnd jmp 2020 <_init+0x20>
    21cf:	90                   	nop
    21d0:	f3 0f 1e fa          	endbr64 
    21d4:	68 1a 00 00 00       	push   $0x1a
    21d9:	f2 e9 41 fe ff ff    	bnd jmp 2020 <_init+0x20>
    21df:	90                   	nop
    21e0:	f3 0f 1e fa          	endbr64 
    21e4:	68 1b 00 00 00       	push   $0x1b
    21e9:	f2 e9 31 fe ff ff    	bnd jmp 2020 <_init+0x20>
    21ef:	90                   	nop
    21f0:	f3 0f 1e fa          	endbr64 
    21f4:	68 1c 00 00 00       	push   $0x1c
    21f9:	f2 e9 21 fe ff ff    	bnd jmp 2020 <_init+0x20>
    21ff:	90                   	nop
    2200:	f3 0f 1e fa          	endbr64 
    2204:	68 1d 00 00 00       	push   $0x1d
    2209:	f2 e9 11 fe ff ff    	bnd jmp 2020 <_init+0x20>
    220f:	90                   	nop
    2210:	f3 0f 1e fa          	endbr64 
    2214:	68 1e 00 00 00       	push   $0x1e
    2219:	f2 e9 01 fe ff ff    	bnd jmp 2020 <_init+0x20>
    221f:	90                   	nop
    2220:	f3 0f 1e fa          	endbr64 
    2224:	68 1f 00 00 00       	push   $0x1f
    2229:	f2 e9 f1 fd ff ff    	bnd jmp 2020 <_init+0x20>
    222f:	90                   	nop
    2230:	f3 0f 1e fa          	endbr64 
    2234:	68 20 00 00 00       	push   $0x20
    2239:	f2 e9 e1 fd ff ff    	bnd jmp 2020 <_init+0x20>
    223f:	90                   	nop
    2240:	f3 0f 1e fa          	endbr64 
    2244:	68 21 00 00 00       	push   $0x21
    2249:	f2 e9 d1 fd ff ff    	bnd jmp 2020 <_init+0x20>
    224f:	90                   	nop
    2250:	f3 0f 1e fa          	endbr64 
    2254:	68 22 00 00 00       	push   $0x22
    2259:	f2 e9 c1 fd ff ff    	bnd jmp 2020 <_init+0x20>
    225f:	90                   	nop

Disassembly of section .plt.got:

0000000000002260 <__cxa_finalize@plt>:
    2260:	f3 0f 1e fa          	endbr64 
    2264:	f2 ff 25 8d cd 00 00 	bnd jmp *0xcd8d(%rip)        # eff8 <__cxa_finalize@GLIBC_2.2.5>
    226b:	0f 1f 44 00 00       	nopl   0x0(%rax,%rax,1)

Disassembly of section .plt.sec:

0000000000002270 <free@plt>:
    2270:	f3 0f 1e fa          	endbr64 
    2274:	f2 ff 25 45 cc 00 00 	bnd jmp *0xcc45(%rip)        # eec0 <free@GLIBC_2.2.5>
    227b:	0f 1f 44 00 00       	nopl   0x0(%rax,%rax,1)

0000000000002280 <jpeg_default_colorspace@plt>:
    2280:	f3 0f 1e fa          	endbr64 
    2284:	f2 ff 25 3d cc 00 00 	bnd jmp *0xcc3d(%rip)        # eec8 <jpeg_default_colorspace@LIBJPEG_6.2>
    228b:	0f 1f 44 00 00       	nopl   0x0(%rax,%rax,1)

0000000000002290 <fread@plt>:
    2290:	f3 0f 1e fa          	endbr64 
    2294:	f2 ff 25 35 cc 00 00 	bnd jmp *0xcc35(%rip)        # eed0 <fread@GLIBC_2.2.5>
    229b:	0f 1f 44 00 00       	nopl   0x0(%rax,%rax,1)

00000000000022a0 <jpeg_add_quant_table@plt>:
    22a0:	f3 0f 1e fa          	endbr64 
    22a4:	f2 ff 25 2d cc 00 00 	bnd jmp *0xcc2d(%rip)        # eed8 <jpeg_add_quant_table@LIBJPEG_6.2>
    22ab:	0f 1f 44 00 00       	nopl   0x0(%rax,%rax,1)

00000000000022b0 <fclose@plt>:
    22b0:	f3 0f 1e fa          	endbr64 
    22b4:	f2 ff 25 25 cc 00 00 	bnd jmp *0xcc25(%rip)        # eee0 <fclose@GLIBC_2.2.5>
    22bb:	0f 1f 44 00 00       	nopl   0x0(%rax,%rax,1)

00000000000022c0 <__stack_chk_fail@plt>:
    22c0:	f3 0f 1e fa          	endbr64 
    22c4:	f2 ff 25 1d cc 00 00 	bnd jmp *0xcc1d(%rip)        # eee8 <__stack_chk_fail@GLIBC_2.4>
    22cb:	0f 1f 44 00 00       	nopl   0x0(%rax,%rax,1)

00000000000022d0 <jpeg_simple_progression@plt>:
    22d0:	f3 0f 1e fa          	endbr64 
    22d4:	f2 ff 25 15 cc 00 00 	bnd jmp *0xcc15(%rip)        # eef0 <jpeg_simple_progression@LIBJPEG_6.2>
    22db:	0f 1f 44 00 00       	nopl   0x0(%rax,%rax,1)

00000000000022e0 <jpeg_std_error@plt>:
    22e0:	f3 0f 1e fa          	endbr64 
    22e4:	f2 ff 25 0d cc 00 00 	bnd jmp *0xcc0d(%rip)        # eef8 <jpeg_std_error@LIBJPEG_6.2>
    22eb:	0f 1f 44 00 00       	nopl   0x0(%rax,%rax,1)

00000000000022f0 <ftell@plt>:
    22f0:	f3 0f 1e fa          	endbr64 
    22f4:	f2 ff 25 05 cc 00 00 	bnd jmp *0xcc05(%rip)        # ef00 <ftell@GLIBC_2.2.5>
    22fb:	0f 1f 44 00 00       	nopl   0x0(%rax,%rax,1)

0000000000002300 <feof@plt>:
    2300:	f3 0f 1e fa          	endbr64 
    2304:	f2 ff 25 fd cb 00 00 	bnd jmp *0xcbfd(%rip)        # ef08 <feof@GLIBC_2.2.5>
    230b:	0f 1f 44 00 00       	nopl   0x0(%rax,%rax,1)

0000000000002310 <jpeg_finish_compress@plt>:
    2310:	f3 0f 1e fa          	endbr64 
    2314:	f2 ff 25 f5 cb 00 00 	bnd jmp *0xcbf5(%rip)        # ef10 <jpeg_finish_compress@LIBJPEG_6.2>
    231b:	0f 1f 44 00 00       	nopl   0x0(%rax,%rax,1)

0000000000002320 <memcpy@plt>:
    2320:	f3 0f 1e fa          	endbr64 
    2324:	f2 ff 25 ed cb 00 00 	bnd jmp *0xcbed(%rip)        # ef18 <memcpy@GLIBC_2.14>
    232b:	0f 1f 44 00 00       	nopl   0x0(%rax,%rax,1)

0000000000002330 <jpeg_CreateCompress@plt>:
    2330:	f3 0f 1e fa          	endbr64 
    2334:	f2 ff 25 e5 cb 00 00 	bnd jmp *0xcbe5(%rip)        # ef20 <jpeg_CreateCompress@LIBJPEG_6.2>
    233b:	0f 1f 44 00 00       	nopl   0x0(%rax,%rax,1)

0000000000002340 <jpeg_quality_scaling@plt>:
    2340:	f3 0f 1e fa          	endbr64 
    2344:	f2 ff 25 dd cb 00 00 	bnd jmp *0xcbdd(%rip)        # ef28 <jpeg_quality_scaling@LIBJPEG_6.2>
    234b:	0f 1f 44 00 00       	nopl   0x0(%rax,%rax,1)

0000000000002350 <malloc@plt>:
    2350:	f3 0f 1e fa          	endbr64 
    2354:	f2 ff 25 d5 cb 00 00 	bnd jmp *0xcbd5(%rip)        # ef30 <malloc@GLIBC_2.2.5>
    235b:	0f 1f 44 00 00       	nopl   0x0(%rax,%rax,1)

0000000000002360 <fflush@plt>:
    2360:	f3 0f 1e fa          	endbr64 
    2364:	f2 ff 25 cd cb 00 00 	bnd jmp *0xcbcd(%rip)        # ef38 <fflush@GLIBC_2.2.5>
    236b:	0f 1f 44 00 00       	nopl   0x0(%rax,%rax,1)

0000000000002370 <__isoc99_sscanf@plt>:
    2370:	f3 0f 1e fa          	endbr64 
    2374:	f2 ff 25 c5 cb 00 00 	bnd jmp *0xcbc5(%rip)        # ef40 <__isoc99_sscanf@GLIBC_2.7>
    237b:	0f 1f 44 00 00       	nopl   0x0(%rax,%rax,1)

0000000000002380 <jpeg_start_compress@plt>:
    2380:	f3 0f 1e fa          	endbr64 
    2384:	f2 ff 25 bd cb 00 00 	bnd jmp *0xcbbd(%rip)        # ef48 <jpeg_start_compress@LIBJPEG_6.2>
    238b:	0f 1f 44 00 00       	nopl   0x0(%rax,%rax,1)

0000000000002390 <ungetc@plt>:
    2390:	f3 0f 1e fa          	endbr64 
    2394:	f2 ff 25 b5 cb 00 00 	bnd jmp *0xcbb5(%rip)        # ef50 <ungetc@GLIBC_2.2.5>
    239b:	0f 1f 44 00 00       	nopl   0x0(%rax,%rax,1)

00000000000023a0 <fseek@plt>:
    23a0:	f3 0f 1e fa          	endbr64 
    23a4:	f2 ff 25 ad cb 00 00 	bnd jmp *0xcbad(%rip)        # ef58 <fseek@GLIBC_2.2.5>
    23ab:	0f 1f 44 00 00       	nopl   0x0(%rax,%rax,1)

00000000000023b0 <jpeg_mem_dest@plt>:
    23b0:	f3 0f 1e fa          	endbr64 
    23b4:	f2 ff 25 a5 cb 00 00 	bnd jmp *0xcba5(%rip)        # ef60 <jpeg_mem_dest@LIBJPEGTURBO_6.2>
    23bb:	0f 1f 44 00 00       	nopl   0x0(%rax,%rax,1)

00000000000023c0 <jpeg_set_defaults@plt>:
    23c0:	f3 0f 1e fa          	endbr64 
    23c4:	f2 ff 25 9d cb 00 00 	bnd jmp *0xcb9d(%rip)        # ef68 <jpeg_set_defaults@LIBJPEG_6.2>
    23cb:	0f 1f 44 00 00       	nopl   0x0(%rax,%rax,1)

00000000000023d0 <jpeg_stdio_dest@plt>:
    23d0:	f3 0f 1e fa          	endbr64 
    23d4:	f2 ff 25 95 cb 00 00 	bnd jmp *0xcb95(%rip)        # ef70 <jpeg_stdio_dest@LIBJPEG_6.2>
    23db:	0f 1f 44 00 00       	nopl   0x0(%rax,%rax,1)

00000000000023e0 <__fread_chk@plt>:
    23e0:	f3 0f 1e fa          	endbr64 
    23e4:	f2 ff 25 8d cb 00 00 	bnd jmp *0xcb8d(%rip)        # ef78 <__fread_chk@GLIBC_2.7>
    23eb:	0f 1f 44 00 00       	nopl   0x0(%rax,%rax,1)

00000000000023f0 <jpeg_destroy_compress@plt>:
    23f0:	f3 0f 1e fa          	endbr64 
    23f4:	f2 ff 25 85 cb 00 00 	bnd jmp *0xcb85(%rip)        # ef80 <jpeg_destroy_compress@LIBJPEG_6.2>
    23fb:	0f 1f 44 00 00       	nopl   0x0(%rax,%rax,1)

0000000000002400 <fopen@plt>:
    2400:	f3 0f 1e fa          	endbr64 
    2404:	f2 ff 25 7d cb 00 00 	bnd jmp *0xcb7d(%rip)        # ef88 <fopen@GLIBC_2.2.5>
    240b:	0f 1f 44 00 00       	nopl   0x0(%rax,%rax,1)

0000000000002410 <jpeg_write_icc_profile@plt>:
    2410:	f3 0f 1e fa          	endbr64 
    2414:	f2 ff 25 75 cb 00 00 	bnd jmp *0xcb75(%rip)        # ef90 <jpeg_write_icc_profile@LIBJPEG_6.2>
    241b:	0f 1f 44 00 00       	nopl   0x0(%rax,%rax,1)

0000000000002420 <jpeg_write_scanlines@plt>:
    2420:	f3 0f 1e fa          	endbr64 
    2424:	f2 ff 25 6d cb 00 00 	bnd jmp *0xcb6d(%rip)        # ef98 <jpeg_write_scanlines@LIBJPEG_6.2>
    242b:	0f 1f 44 00 00       	nopl   0x0(%rax,%rax,1)

0000000000002430 <exit@plt>:
    2430:	f3 0f 1e fa          	endbr64 
    2434:	f2 ff 25 65 cb 00 00 	bnd jmp *0xcb65(%rip)        # efa0 <exit@GLIBC_2.2.5>
    243b:	0f 1f 44 00 00       	nopl   0x0(%rax,%rax,1)

0000000000002440 <fwrite@plt>:
    2440:	f3 0f 1e fa          	endbr64 
    2444:	f2 ff 25 5d cb 00 00 	bnd jmp *0xcb5d(%rip)        # efa8 <fwrite@GLIBC_2.2.5>
    244b:	0f 1f 44 00 00       	nopl   0x0(%rax,%rax,1)

0000000000002450 <__fprintf_chk@plt>:
    2450:	f3 0f 1e fa          	endbr64 
    2454:	f2 ff 25 55 cb 00 00 	bnd jmp *0xcb55(%rip)        # efb0 <__fprintf_chk@GLIBC_2.3.4>
    245b:	0f 1f 44 00 00       	nopl   0x0(%rax,%rax,1)

0000000000002460 <jpeg_set_colorspace@plt>:
    2460:	f3 0f 1e fa          	endbr64 
    2464:	f2 ff 25 4d cb 00 00 	bnd jmp *0xcb4d(%rip)        # efb8 <jpeg_set_colorspace@LIBJPEG_6.2>
    246b:	0f 1f 44 00 00       	nopl   0x0(%rax,%rax,1)

0000000000002470 <getc@plt>:
    2470:	f3 0f 1e fa          	endbr64 
    2474:	f2 ff 25 45 cb 00 00 	bnd jmp *0xcb45(%rip)        # efc0 <getc@GLIBC_2.2.5>
    247b:	0f 1f 44 00 00       	nopl   0x0(%rax,%rax,1)

0000000000002480 <__ctype_tolower_loc@plt>:
    2480:	f3 0f 1e fa          	endbr64 
    2484:	f2 ff 25 3d cb 00 00 	bnd jmp *0xcb3d(%rip)        # efc8 <__ctype_tolower_loc@GLIBC_2.3>
    248b:	0f 1f 44 00 00       	nopl   0x0(%rax,%rax,1)

0000000000002490 <__ctype_b_loc@plt>:
    2490:	f3 0f 1e fa          	endbr64 
    2494:	f2 ff 25 35 cb 00 00 	bnd jmp *0xcb35(%rip)        # efd0 <__ctype_b_loc@GLIBC_2.3>
    249b:	0f 1f 44 00 00       	nopl   0x0(%rax,%rax,1)

Disassembly of section .text:

00000000000024a0 <main.cold>:
select_file_type():
/home/tenebris/Disk/Racing-code/examples/23-libjpeg-divide-by-zero/libjpeg-turbo-2.0.90/cjpeg.c:125
#ifdef TARGA_SUPPORTED
  case 0x00:
    return jinit_read_targa(cinfo);
#endif
  default:
    ERREXIT(cinfo, JERR_UNKNOWN_FORMAT);
    24a0:	48 8b 84 24 10 01 00 	mov    0x110(%rsp),%rax
    24a7:	00 
    24a8:	48 89 ef             	mov    %rbp,%rdi
    24ab:	c7 40 28 14 04 00 00 	movl   $0x414,0x28(%rax)
    24b2:	ff 10                	call   *(%rax)
main():
/home/tenebris/Disk/Racing-code/examples/23-libjpeg-divide-by-zero/libjpeg-turbo-2.0.90/cjpeg.c:638
    progress.report = report;
  }

  /* Figure out the input file format, and set up to read it. */
  src_mgr = select_file_type(&cinfo, input_file);
  src_mgr->input_file = input_file;
    24b4:	48 8b 04 24          	mov    (%rsp),%rax
    24b8:	48 89 04 25 18 00 00 	mov    %rax,0x18
    24bf:	00 
    24c0:	0f 0b                	ud2    
main.cold():
    24c2:	66 2e 0f 1f 84 00 00 	cs nopw 0x0(%rax,%rax,1)
    24c9:	00 00 00 
    24cc:	0f 1f 40 00          	nopl   0x0(%rax)

00000000000024d0 <main>:
main():
/home/tenebris/Disk/Racing-code/examples/23-libjpeg-divide-by-zero/libjpeg-turbo-2.0.90/cjpeg.c:507
{
    24d0:	f3 0f 1e fa          	endbr64 
    24d4:	41 57                	push   %r15
    24d6:	41 56                	push   %r14
    24d8:	41 55                	push   %r13
    24da:	49 89 f5             	mov    %rsi,%r13
    24dd:	41 54                	push   %r12
    24df:	41 89 fc             	mov    %edi,%r12d
    24e2:	55                   	push   %rbp
    24e3:	53                   	push   %rbx
    24e4:	48 81 ec 28 03 00 00 	sub    $0x328,%rsp
    24eb:	64 48 8b 04 25 28 00 	mov    %fs:0x28,%rax
    24f2:	00 00 
    24f4:	48 89 84 24 18 03 00 	mov    %rax,0x318(%rsp)
    24fb:	00 
    24fc:	31 c0                	xor    %eax,%eax
/home/tenebris/Disk/Racing-code/examples/23-libjpeg-divide-by-zero/libjpeg-turbo-2.0.90/cjpeg.c:527
  progname = argv[0];
    24fe:	48 8b 06             	mov    (%rsi),%rax
/home/tenebris/Disk/Racing-code/examples/23-libjpeg-divide-by-zero/libjpeg-turbo-2.0.90/cjpeg.c:518
  unsigned char *outbuffer = NULL;
    2501:	48 c7 44 24 10 00 00 	movq   $0x0,0x10(%rsp)
    2508:	00 00 
/home/tenebris/Disk/Racing-code/examples/23-libjpeg-divide-by-zero/libjpeg-turbo-2.0.90/cjpeg.c:519
  unsigned long outsize = 0;
    250a:	48 c7 44 24 18 00 00 	movq   $0x0,0x18(%rsp)
    2511:	00 00 
/home/tenebris/Disk/Racing-code/examples/23-libjpeg-divide-by-zero/libjpeg-turbo-2.0.90/cjpeg.c:527
  progname = argv[0];
    2513:	48 89 05 56 cb 00 00 	mov    %rax,0xcb56(%rip)        # f070 <progname>
/home/tenebris/Disk/Racing-code/examples/23-libjpeg-divide-by-zero/libjpeg-turbo-2.0.90/cjpeg.c:528
  if (progname == NULL || progname[0] == 0)
    251a:	48 85 c0             	test   %rax,%rax
    251d:	0f 84 50 01 00 00    	je     2673 <main+0x1a3>
/home/tenebris/Disk/Racing-code/examples/23-libjpeg-divide-by-zero/libjpeg-turbo-2.0.90/cjpeg.c:528 (discriminator 1)
    2523:	80 38 00             	cmpb   $0x0,(%rax)
    2526:	0f 84 47 01 00 00    	je     2673 <main+0x1a3>
/home/tenebris/Disk/Racing-code/examples/23-libjpeg-divide-by-zero/libjpeg-turbo-2.0.90/cjpeg.c:533
  jpeg_create_compress(&cinfo);
    252c:	48 8d ac 24 10 01 00 	lea    0x110(%rsp),%rbp
    2533:	00 
/home/tenebris/Disk/Racing-code/examples/23-libjpeg-divide-by-zero/libjpeg-turbo-2.0.90/cjpeg.c:532
  cinfo.err = jpeg_std_error(&jerr);
    2534:	48 8d 7c 24 60       	lea    0x60(%rsp),%rdi
    2539:	e8 a2 fd ff ff       	call   22e0 <jpeg_std_error@plt>
/home/tenebris/Disk/Racing-code/examples/23-libjpeg-divide-by-zero/libjpeg-turbo-2.0.90/cjpeg.c:533
  jpeg_create_compress(&cinfo);
    253e:	ba 08 02 00 00       	mov    $0x208,%edx
    2543:	be 3e 00 00 00       	mov    $0x3e,%esi
    2548:	48 89 ef             	mov    %rbp,%rdi
/home/tenebris/Disk/Racing-code/examples/23-libjpeg-divide-by-zero/libjpeg-turbo-2.0.90/cjpeg.c:532
  cinfo.err = jpeg_std_error(&jerr);
    254b:	48 89 84 24 10 01 00 	mov    %rax,0x110(%rsp)
    2552:	00 
/home/tenebris/Disk/Racing-code/examples/23-libjpeg-divide-by-zero/libjpeg-turbo-2.0.90/cjpeg.c:533
  jpeg_create_compress(&cinfo);
    2553:	e8 d8 fd ff ff       	call   2330 <jpeg_CreateCompress@plt>
/home/tenebris/Disk/Racing-code/examples/23-libjpeg-divide-by-zero/libjpeg-turbo-2.0.90/cjpeg.c:535
  jerr.addon_message_table = cdjpeg_message_table;
    2558:	48 8d 05 c1 c5 00 00 	lea    0xc5c1(%rip),%rax        # eb20 <cdjpeg_message_table>
/home/tenebris/Disk/Racing-code/examples/23-libjpeg-divide-by-zero/libjpeg-turbo-2.0.90/cjpeg.c:546
  jpeg_set_defaults(&cinfo);
    255f:	48 89 ef             	mov    %rbp,%rdi
/home/tenebris/Disk/Racing-code/examples/23-libjpeg-divide-by-zero/libjpeg-turbo-2.0.90/cjpeg.c:545
  cinfo.in_color_space = JCS_RGB; /* arbitrary guess */
    2562:	c7 84 24 4c 01 00 00 	movl   $0x2,0x14c(%rsp)
    2569:	02 00 00 00 
/home/tenebris/Disk/Racing-code/examples/23-libjpeg-divide-by-zero/libjpeg-turbo-2.0.90/cjpeg.c:535
  jerr.addon_message_table = cdjpeg_message_table;
    256d:	48 89 84 24 f8 00 00 	mov    %rax,0xf8(%rsp)
    2574:	00 
/home/tenebris/Disk/Racing-code/examples/23-libjpeg-divide-by-zero/libjpeg-turbo-2.0.90/cjpeg.c:536
  jerr.first_addon_message = JMSG_FIRSTADDONCODE;
    2575:	48 8b 05 14 9b 00 00 	mov    0x9b14(%rip),%rax        # c090 <_IO_stdin_used+0x1090>
    257c:	48 89 84 24 00 01 00 	mov    %rax,0x100(%rsp)
    2583:	00 
/home/tenebris/Disk/Racing-code/examples/23-libjpeg-divide-by-zero/libjpeg-turbo-2.0.90/cjpeg.c:546
  jpeg_set_defaults(&cinfo);
    2584:	e8 37 fe ff ff       	call   23c0 <jpeg_set_defaults@plt>
/home/tenebris/Disk/Racing-code/examples/23-libjpeg-divide-by-zero/libjpeg-turbo-2.0.90/cjpeg.c:554
  file_index = parse_switches(&cinfo, argc, argv, 0, FALSE);
    2589:	4c 89 ea             	mov    %r13,%rdx
    258c:	31 c9                	xor    %ecx,%ecx
    258e:	44 89 e6             	mov    %r12d,%esi
    2591:	48 89 ef             	mov    %rbp,%rdi
    2594:	e8 77 09 00 00       	call   2f10 <parse_switches.constprop.0>
/home/tenebris/Disk/Racing-code/examples/23-libjpeg-divide-by-zero/libjpeg-turbo-2.0.90/cjpeg.c:576
  if (file_index < argc - 1) {
    2599:	41 8d 54 24 ff       	lea    -0x1(%r12),%edx
    259e:	39 c2                	cmp    %eax,%edx
    25a0:	0f 8f 2f 01 00 00    	jg     26d5 <main+0x205>
/home/tenebris/Disk/Racing-code/examples/23-libjpeg-divide-by-zero/libjpeg-turbo-2.0.90/cjpeg.c:583
  if (file_index < argc) {
    25a6:	41 39 c4             	cmp    %eax,%r12d
    25a9:	0f 8f d7 00 00 00    	jg     2686 <main+0x1b6>
/home/tenebris/Disk/Racing-code/examples/23-libjpeg-divide-by-zero/libjpeg-turbo-2.0.90/cjpeg.c:590
    input_file = read_stdin();
    25af:	e8 4c 17 00 00       	call   3d00 <read_stdin>
    25b4:	48 89 04 24          	mov    %rax,(%rsp)
/home/tenebris/Disk/Racing-code/examples/23-libjpeg-divide-by-zero/libjpeg-turbo-2.0.90/cjpeg.c:594
  if (outfilename != NULL) {
    25b8:	4c 8b 35 a1 ca 00 00 	mov    0xcaa1(%rip),%r14        # f060 <outfilename>
    25bf:	4d 85 f6             	test   %r14,%r14
    25c2:	0f 84 33 01 00 00    	je     26fb <main+0x22b>
/home/tenebris/Disk/Racing-code/examples/23-libjpeg-divide-by-zero/libjpeg-turbo-2.0.90/cjpeg.c:595
    if ((output_file = fopen(outfilename, WRITE_BINARY)) == NULL) {
    25c8:	4c 89 f7             	mov    %r14,%rdi
    25cb:	48 8d 35 ed 8b 00 00 	lea    0x8bed(%rip),%rsi        # b1bf <_IO_stdin_used+0x1bf>
    25d2:	e8 29 fe ff ff       	call   2400 <fopen@plt>
fprintf():
/usr/include/x86_64-linux-gnu/bits/stdio2.h:105

# ifdef __va_arg_pack
__fortify_function int
fprintf (FILE *__restrict __stream, const char *__restrict __fmt, ...)
{
  return __fprintf_chk (__stream, __USE_FORTIFY_LEVEL - 1, __fmt,
    25d7:	4c 8b 05 82 ca 00 00 	mov    0xca82(%rip),%r8        # f060 <outfilename>
main():
/home/tenebris/Disk/Racing-code/examples/23-libjpeg-divide-by-zero/libjpeg-turbo-2.0.90/cjpeg.c:595
    25de:	49 89 c6             	mov    %rax,%r14
    25e1:	48 85 c0             	test   %rax,%rax
    25e4:	0f 84 4d 04 00 00    	je     2a37 <main+0x567>
/home/tenebris/Disk/Racing-code/examples/23-libjpeg-divide-by-zero/libjpeg-turbo-2.0.90/cjpeg.c:604
  if (icc_filename != NULL) {
    25ea:	48 8b 1d 77 ca 00 00 	mov    0xca77(%rip),%rbx        # f068 <icc_filename>
    25f1:	48 85 db             	test   %rbx,%rbx
    25f4:	0f 84 1b 01 00 00    	je     2715 <main+0x245>
/home/tenebris/Disk/Racing-code/examples/23-libjpeg-divide-by-zero/libjpeg-turbo-2.0.90/cjpeg.c:605
    if ((icc_file = fopen(icc_filename, READ_BINARY)) == NULL) {
    25fa:	48 8d 35 a8 8b 00 00 	lea    0x8ba8(%rip),%rsi        # b1a9 <_IO_stdin_used+0x1a9>
    2601:	48 89 df             	mov    %rbx,%rdi
    2604:	e8 f7 fd ff ff       	call   2400 <fopen@plt>
    2609:	49 89 c7             	mov    %rax,%r15
    260c:	48 85 c0             	test   %rax,%rax
    260f:	0f 84 1b 04 00 00    	je     2a30 <main+0x560>
/home/tenebris/Disk/Racing-code/examples/23-libjpeg-divide-by-zero/libjpeg-turbo-2.0.90/cjpeg.c:609
    if (fseek(icc_file, 0, SEEK_END) < 0 ||
    2615:	31 f6                	xor    %esi,%esi
    2617:	ba 02 00 00 00       	mov    $0x2,%edx
    261c:	48 89 c7             	mov    %rax,%rdi
    261f:	e8 7c fd ff ff       	call   23a0 <fseek@plt>
    2624:	85 c0                	test   %eax,%eax
    2626:	78 19                	js     2641 <main+0x171>
/home/tenebris/Disk/Racing-code/examples/23-libjpeg-divide-by-zero/libjpeg-turbo-2.0.90/cjpeg.c:610 (discriminator 1)
        (icc_len = ftell(icc_file)) < 1 ||
    2628:	4c 89 ff             	mov    %r15,%rdi
    262b:	e8 c0 fc ff ff       	call   22f0 <ftell@plt>
    2630:	48 89 44 24 08       	mov    %rax,0x8(%rsp)
    2635:	48 89 c3             	mov    %rax,%rbx
/home/tenebris/Disk/Racing-code/examples/23-libjpeg-divide-by-zero/libjpeg-turbo-2.0.90/cjpeg.c:609 (discriminator 1)
    if (fseek(icc_file, 0, SEEK_END) < 0 ||
    2638:	48 85 c0             	test   %rax,%rax
    263b:	0f 8f 6b 02 00 00    	jg     28ac <main+0x3dc>
fprintf():
/usr/include/x86_64-linux-gnu/bits/stdio2.h:105
    2641:	4c 8b 05 20 ca 00 00 	mov    0xca20(%rip),%r8        # f068 <icc_filename>
    2648:	48 8b 0d 21 ca 00 00 	mov    0xca21(%rip),%rcx        # f070 <progname>
    264f:	48 8d 15 aa 95 00 00 	lea    0x95aa(%rip),%rdx        # bc00 <_IO_stdin_used+0xc00>
    2656:	48 8b 3d e3 c9 00 00 	mov    0xc9e3(%rip),%rdi        # f040 <stderr@GLIBC_2.2.5>
    265d:	be 01 00 00 00       	mov    $0x1,%esi
    2662:	31 c0                	xor    %eax,%eax
    2664:	e8 e7 fd ff ff       	call   2450 <__fprintf_chk@plt>
main():
/home/tenebris/Disk/Racing-code/examples/23-libjpeg-divide-by-zero/libjpeg-turbo-2.0.90/cjpeg.c:607
      exit(EXIT_FAILURE);
    2669:	bf 01 00 00 00       	mov    $0x1,%edi
    266e:	e8 bd fd ff ff       	call   2430 <exit@plt>
/home/tenebris/Disk/Racing-code/examples/23-libjpeg-divide-by-zero/libjpeg-turbo-2.0.90/cjpeg.c:529
    progname = "cjpeg";         /* in case C library doesn't provide it */
    2673:	48 8d 05 10 8b 00 00 	lea    0x8b10(%rip),%rax        # b18a <_IO_stdin_used+0x18a>
    267a:	48 89 05 ef c9 00 00 	mov    %rax,0xc9ef(%rip)        # f070 <progname>
    2681:	e9 a6 fe ff ff       	jmp    252c <main+0x5c>
/home/tenebris/Disk/Racing-code/examples/23-libjpeg-divide-by-zero/libjpeg-turbo-2.0.90/cjpeg.c:584
    if ((input_file = fopen(argv[file_index], READ_BINARY)) == NULL) {
    2686:	48 98                	cltq   
    2688:	48 8d 35 1a 8b 00 00 	lea    0x8b1a(%rip),%rsi        # b1a9 <_IO_stdin_used+0x1a9>
    268f:	49 8d 5c c5 00       	lea    0x0(%r13,%rax,8),%rbx
    2694:	48 8b 3b             	mov    (%rbx),%rdi
    2697:	e8 64 fd ff ff       	call   2400 <fopen@plt>
    269c:	48 89 04 24          	mov    %rax,(%rsp)
    26a0:	48 85 c0             	test   %rax,%rax
    26a3:	0f 85 0f ff ff ff    	jne    25b8 <main+0xe8>
fprintf():
/usr/include/x86_64-linux-gnu/bits/stdio2.h:105
    26a9:	48 8b 3d 90 c9 00 00 	mov    0xc990(%rip),%rdi        # f040 <stderr@GLIBC_2.2.5>
    26b0:	4c 8b 03             	mov    (%rbx),%r8
    26b3:	48 8d 15 f2 8a 00 00 	lea    0x8af2(%rip),%rdx        # b1ac <_IO_stdin_used+0x1ac>
    26ba:	be 01 00 00 00       	mov    $0x1,%esi
    26bf:	48 8b 0d aa c9 00 00 	mov    0xc9aa(%rip),%rcx        # f070 <progname>
    26c6:	e8 85 fd ff ff       	call   2450 <__fprintf_chk@plt>
main():
/home/tenebris/Disk/Racing-code/examples/23-libjpeg-divide-by-zero/libjpeg-turbo-2.0.90/cjpeg.c:586
      exit(EXIT_FAILURE);
    26cb:	bf 01 00 00 00       	mov    $0x1,%edi
    26d0:	e8 5b fd ff ff       	call   2430 <exit@plt>
fprintf():
/usr/include/x86_64-linux-gnu/bits/stdio2.h:105
    26d5:	48 8b 0d 94 c9 00 00 	mov    0xc994(%rip),%rcx        # f070 <progname>
    26dc:	48 8b 3d 5d c9 00 00 	mov    0xc95d(%rip),%rdi        # f040 <stderr@GLIBC_2.2.5>
    26e3:	48 8d 15 a6 8a 00 00 	lea    0x8aa6(%rip),%rdx        # b190 <_IO_stdin_used+0x190>
    26ea:	31 c0                	xor    %eax,%eax
    26ec:	be 01 00 00 00       	mov    $0x1,%esi
    26f1:	e8 5a fd ff ff       	call   2450 <__fprintf_chk@plt>
main():
/home/tenebris/Disk/Racing-code/examples/23-libjpeg-divide-by-zero/libjpeg-turbo-2.0.90/cjpeg.c:578
    usage();
    26f6:	e8 85 04 00 00       	call   2b80 <usage>
/home/tenebris/Disk/Racing-code/examples/23-libjpeg-divide-by-zero/libjpeg-turbo-2.0.90/cjpeg.c:599
  } else if (!memdst) {
    26fb:	83 3d 52 c9 00 00 00 	cmpl   $0x0,0xc952(%rip)        # f054 <memdst>
    2702:	0f 85 e2 fe ff ff    	jne    25ea <main+0x11a>
/home/tenebris/Disk/Racing-code/examples/23-libjpeg-divide-by-zero/libjpeg-turbo-2.0.90/cjpeg.c:601
    output_file = write_stdout();
    2708:	e8 03 16 00 00       	call   3d10 <write_stdout>
    270d:	49 89 c6             	mov    %rax,%r14
    2710:	e9 d5 fe ff ff       	jmp    25ea <main+0x11a>
/home/tenebris/Disk/Racing-code/examples/23-libjpeg-divide-by-zero/libjpeg-turbo-2.0.90/cjpeg.c:516
  long icc_len = 0;
    2715:	48 c7 44 24 08 00 00 	movq   $0x0,0x8(%rsp)
    271c:	00 00 
/home/tenebris/Disk/Racing-code/examples/23-libjpeg-divide-by-zero/libjpeg-turbo-2.0.90/cjpeg.c:631
  if (report) {
    271e:	83 3d 2b c9 00 00 00 	cmpl   $0x0,0xc92b(%rip)        # f050 <report>
    2725:	0f 85 c7 02 00 00    	jne    29f2 <main+0x522>
select_file_type():
/home/tenebris/Disk/Racing-code/examples/23-libjpeg-divide-by-zero/libjpeg-turbo-2.0.90/cjpeg.c:94
  if (is_targa) {
    272b:	83 3d 46 c9 00 00 00 	cmpl   $0x0,0xc946(%rip)        # f078 <is_targa>
    2732:	0f 85 5f 02 00 00    	jne    2997 <main+0x4c7>
/home/tenebris/Disk/Racing-code/examples/23-libjpeg-divide-by-zero/libjpeg-turbo-2.0.90/cjpeg.c:102
  if ((c = getc(infile)) == EOF)
    2738:	48 8b 3c 24          	mov    (%rsp),%rdi
    273c:	e8 2f fd ff ff       	call   2470 <getc@plt>
    2741:	41 89 c7             	mov    %eax,%r15d
    2744:	83 f8 ff             	cmp    $0xffffffff,%eax
    2747:	0f 84 e5 01 00 00    	je     2932 <main+0x462>
/home/tenebris/Disk/Racing-code/examples/23-libjpeg-divide-by-zero/libjpeg-turbo-2.0.90/cjpeg.c:104
  if (ungetc(c, infile) == EOF)
    274d:	48 8b 34 24          	mov    (%rsp),%rsi
    2751:	89 c7                	mov    %eax,%edi
    2753:	e8 38 fc ff ff       	call   2390 <ungetc@plt>
    2758:	83 c0 01             	add    $0x1,%eax
    275b:	0f 84 fa 01 00 00    	je     295b <main+0x48b>
/home/tenebris/Disk/Racing-code/examples/23-libjpeg-divide-by-zero/libjpeg-turbo-2.0.90/cjpeg.c:107
  switch (c) {
    2761:	41 83 ff 42          	cmp    $0x42,%r15d
    2765:	0f 84 a3 02 00 00    	je     2a0e <main+0x53e>
    276b:	0f 8e 1d 02 00 00    	jle    298e <main+0x4be>
    2771:	41 83 ff 47          	cmp    $0x47,%r15d
    2775:	0f 85 f9 01 00 00    	jne    2974 <main+0x4a4>
/home/tenebris/Disk/Racing-code/examples/23-libjpeg-divide-by-zero/libjpeg-turbo-2.0.90/cjpeg.c:114
    return jinit_read_gif(cinfo);
    277b:	48 89 ef             	mov    %rbp,%rdi
    277e:	e8 2d 29 00 00       	call   50b0 <jinit_read_gif>
    2783:	49 89 c7             	mov    %rax,%r15
main():
/home/tenebris/Disk/Racing-code/examples/23-libjpeg-divide-by-zero/libjpeg-turbo-2.0.90/cjpeg.c:638
  src_mgr->input_file = input_file;
    2786:	48 8b 04 24          	mov    (%rsp),%rax
/home/tenebris/Disk/Racing-code/examples/23-libjpeg-divide-by-zero/libjpeg-turbo-2.0.90/cjpeg.c:641

  /* Read the input file header to obtain file size & colorspace. */
  (*src_mgr->start_input) (&cinfo, src_mgr);
    278a:	4c 89 fe             	mov    %r15,%rsi
    278d:	48 89 ef             	mov    %rbp,%rdi
/home/tenebris/Disk/Racing-code/examples/23-libjpeg-divide-by-zero/libjpeg-turbo-2.0.90/cjpeg.c:638
  src_mgr->input_file = input_file;
    2790:	49 89 47 18          	mov    %rax,0x18(%r15)
/home/tenebris/Disk/Racing-code/examples/23-libjpeg-divide-by-zero/libjpeg-turbo-2.0.90/cjpeg.c:641
  (*src_mgr->start_input) (&cinfo, src_mgr);
    2794:	41 ff 17             	call   *(%r15)
/home/tenebris/Disk/Racing-code/examples/23-libjpeg-divide-by-zero/libjpeg-turbo-2.0.90/cjpeg.c:644

  /* Now that we know input colorspace, fix colorspace-dependent defaults */
  jpeg_default_colorspace(&cinfo);
    2797:	48 89 ef             	mov    %rbp,%rdi
    279a:	e8 e1 fa ff ff       	call   2280 <jpeg_default_colorspace@plt>
/home/tenebris/Disk/Racing-code/examples/23-libjpeg-divide-by-zero/libjpeg-turbo-2.0.90/cjpeg.c:647

  /* Adjust default compression parameters by re-parsing the options */
  file_index = parse_switches(&cinfo, argc, argv, 0, TRUE);
    279f:	b9 01 00 00 00       	mov    $0x1,%ecx
    27a4:	4c 89 ea             	mov    %r13,%rdx
    27a7:	44 89 e6             	mov    %r12d,%esi
    27aa:	48 89 ef             	mov    %rbp,%rdi
    27ad:	e8 5e 07 00 00       	call   2f10 <parse_switches.constprop.0>
/home/tenebris/Disk/Racing-code/examples/23-libjpeg-divide-by-zero/libjpeg-turbo-2.0.90/cjpeg.c:651

  /* Specify data destination for compression */
#if JPEG_LIB_VERSION >= 80 || defined(MEM_SRCDST_SUPPORTED)
  if (memdst)
    27b2:	83 3d 9b c8 00 00 00 	cmpl   $0x0,0xc89b(%rip)        # f054 <memdst>
    27b9:	0f 84 e8 01 00 00    	je     29a7 <main+0x4d7>
/home/tenebris/Disk/Racing-code/examples/23-libjpeg-divide-by-zero/libjpeg-turbo-2.0.90/cjpeg.c:652
    jpeg_mem_dest(&cinfo, &outbuffer, &outsize);
    27bf:	48 8d 54 24 18       	lea    0x18(%rsp),%rdx
    27c4:	48 8d 74 24 10       	lea    0x10(%rsp),%rsi
    27c9:	48 89 ef             	mov    %rbp,%rdi
    27cc:	e8 df fb ff ff       	call   23b0 <jpeg_mem_dest@plt>
/home/tenebris/Disk/Racing-code/examples/23-libjpeg-divide-by-zero/libjpeg-turbo-2.0.90/cjpeg.c:658
  else
#endif
    jpeg_stdio_dest(&cinfo, output_file);

  /* Start compressor */
  jpeg_start_compress(&cinfo, TRUE);
    27d1:	be 01 00 00 00       	mov    $0x1,%esi
    27d6:	48 89 ef             	mov    %rbp,%rdi
    27d9:	e8 a2 fb ff ff       	call   2380 <jpeg_start_compress@plt>
/home/tenebris/Disk/Racing-code/examples/23-libjpeg-divide-by-zero/libjpeg-turbo-2.0.90/cjpeg.c:660

  if (icc_profile != NULL)
    27de:	48 85 db             	test   %rbx,%rbx
    27e1:	74 0f                	je     27f2 <main+0x322>
/home/tenebris/Disk/Racing-code/examples/23-libjpeg-divide-by-zero/libjpeg-turbo-2.0.90/cjpeg.c:661
    jpeg_write_icc_profile(&cinfo, icc_profile, (unsigned int)icc_len);
    27e3:	8b 54 24 08          	mov    0x8(%rsp),%edx
    27e7:	48 89 de             	mov    %rbx,%rsi
    27ea:	48 89 ef             	mov    %rbp,%rdi
    27ed:	e8 1e fc ff ff       	call   2410 <jpeg_write_icc_profile@plt>
/home/tenebris/Disk/Racing-code/examples/23-libjpeg-divide-by-zero/libjpeg-turbo-2.0.90/cjpeg.c:664

  /* Process data */
  while (cinfo.next_scanline < cinfo.image_height) {
    27f2:	8b 84 24 40 02 00 00 	mov    0x240(%rsp),%eax
    27f9:	39 84 24 44 01 00 00 	cmp    %eax,0x144(%rsp)
    2800:	76 2e                	jbe    2830 <main+0x360>
    2802:	66 0f 1f 44 00 00    	nopw   0x0(%rax,%rax,1)
/home/tenebris/Disk/Racing-code/examples/23-libjpeg-divide-by-zero/libjpeg-turbo-2.0.90/cjpeg.c:665
    num_scanlines = (*src_mgr->get_pixel_rows) (&cinfo, src_mgr);
    2808:	4c 89 fe             	mov    %r15,%rsi
    280b:	48 89 ef             	mov    %rbp,%rdi
    280e:	41 ff 57 08          	call   *0x8(%r15)
/home/tenebris/Disk/Racing-code/examples/23-libjpeg-divide-by-zero/libjpeg-turbo-2.0.90/cjpeg.c:666
    (void)jpeg_write_scanlines(&cinfo, src_mgr->buffer, num_scanlines);
    2812:	49 8b 77 20          	mov    0x20(%r15),%rsi
    2816:	48 89 ef             	mov    %rbp,%rdi
/home/tenebris/Disk/Racing-code/examples/23-libjpeg-divide-by-zero/libjpeg-turbo-2.0.90/cjpeg.c:665
    num_scanlines = (*src_mgr->get_pixel_rows) (&cinfo, src_mgr);
    2819:	89 c2                	mov    %eax,%edx
/home/tenebris/Disk/Racing-code/examples/23-libjpeg-divide-by-zero/libjpeg-turbo-2.0.90/cjpeg.c:666
    (void)jpeg_write_scanlines(&cinfo, src_mgr->buffer, num_scanlines);
    281b:	e8 00 fc ff ff       	call   2420 <jpeg_write_scanlines@plt>
/home/tenebris/Disk/Racing-code/examples/23-libjpeg-divide-by-zero/libjpeg-turbo-2.0.90/cjpeg.c:664
  while (cinfo.next_scanline < cinfo.image_height) {
    2820:	8b 84 24 44 01 00 00 	mov    0x144(%rsp),%eax
    2827:	39 84 24 40 02 00 00 	cmp    %eax,0x240(%rsp)
    282e:	72 d8                	jb     2808 <main+0x338>
/home/tenebris/Disk/Racing-code/examples/23-libjpeg-divide-by-zero/libjpeg-turbo-2.0.90/cjpeg.c:670
  }

  /* Finish compression and release memory */
  (*src_mgr->finish_input) (&cinfo, src_mgr);
    2830:	4c 89 fe             	mov    %r15,%rsi
    2833:	48 89 ef             	mov    %rbp,%rdi
    2836:	41 ff 57 10          	call   *0x10(%r15)
/home/tenebris/Disk/Racing-code/examples/23-libjpeg-divide-by-zero/libjpeg-turbo-2.0.90/cjpeg.c:671
  jpeg_finish_compress(&cinfo);
    283a:	48 89 ef             	mov    %rbp,%rdi
    283d:	e8 ce fa ff ff       	call   2310 <jpeg_finish_compress@plt>
/home/tenebris/Disk/Racing-code/examples/23-libjpeg-divide-by-zero/libjpeg-turbo-2.0.90/cjpeg.c:672
  jpeg_destroy_compress(&cinfo);
    2842:	48 89 ef             	mov    %rbp,%rdi
    2845:	e8 a6 fb ff ff       	call   23f0 <jpeg_destroy_compress@plt>
/home/tenebris/Disk/Racing-code/examples/23-libjpeg-divide-by-zero/libjpeg-turbo-2.0.90/cjpeg.c:675

  /* Close files, if we opened them */
  if (input_file != stdin)
    284a:	48 8b 04 24          	mov    (%rsp),%rax
    284e:	48 39 05 db c7 00 00 	cmp    %rax,0xc7db(%rip)        # f030 <stdin@GLIBC_2.2.5>
    2855:	74 08                	je     285f <main+0x38f>
/home/tenebris/Disk/Racing-code/examples/23-libjpeg-divide-by-zero/libjpeg-turbo-2.0.90/cjpeg.c:676
    fclose(input_file);
    2857:	48 89 c7             	mov    %rax,%rdi
    285a:	e8 51 fa ff ff       	call   22b0 <fclose@plt>
/home/tenebris/Disk/Racing-code/examples/23-libjpeg-divide-by-zero/libjpeg-turbo-2.0.90/cjpeg.c:677
  if (output_file != stdout && output_file != NULL)
    285f:	4c 39 35 ba c7 00 00 	cmp    %r14,0xc7ba(%rip)        # f020 <stdout@GLIBC_2.2.5>
    2866:	74 0d                	je     2875 <main+0x3a5>
    2868:	4d 85 f6             	test   %r14,%r14
    286b:	74 08                	je     2875 <main+0x3a5>
/home/tenebris/Disk/Racing-code/examples/23-libjpeg-divide-by-zero/libjpeg-turbo-2.0.90/cjpeg.c:678
    fclose(output_file);
    286d:	4c 89 f7             	mov    %r14,%rdi
    2870:	e8 3b fa ff ff       	call   22b0 <fclose@plt>
/home/tenebris/Disk/Racing-code/examples/23-libjpeg-divide-by-zero/libjpeg-turbo-2.0.90/cjpeg.c:680

  if (report)
    2875:	83 3d d4 c7 00 00 00 	cmpl   $0x0,0xc7d4(%rip)        # f050 <report>
    287c:	0f 85 63 01 00 00    	jne    29e5 <main+0x515>
/home/tenebris/Disk/Racing-code/examples/23-libjpeg-divide-by-zero/libjpeg-turbo-2.0.90/cjpeg.c:683
    end_progress_monitor((j_common_ptr)&cinfo);

  if (memdst) {
    2882:	83 3d cb c7 00 00 00 	cmpl   $0x0,0xc7cb(%rip)        # f054 <memdst>
    2889:	0f 85 28 01 00 00    	jne    29b7 <main+0x4e7>
/home/tenebris/Disk/Racing-code/examples/23-libjpeg-divide-by-zero/libjpeg-turbo-2.0.90/cjpeg.c:688
    fprintf(stderr, "Compressed size:  %lu bytes\n", outsize);
    free(outbuffer);
  }

  free(icc_profile);
    288f:	48 89 df             	mov    %rbx,%rdi
    2892:	e8 d9 f9 ff ff       	call   2270 <free@plt>
/home/tenebris/Disk/Racing-code/examples/23-libjpeg-divide-by-zero/libjpeg-turbo-2.0.90/cjpeg.c:691

  /* All done. */
  exit(jerr.num_warnings ? EXIT_WARNING : EXIT_SUCCESS);
    2897:	48 8b 84 24 e0 00 00 	mov    0xe0(%rsp),%rax
    289e:	00 
    289f:	48 f7 d8             	neg    %rax
    28a2:	19 ff                	sbb    %edi,%edi
    28a4:	83 e7 02             	and    $0x2,%edi
    28a7:	e8 84 fb ff ff       	call   2430 <exit@plt>
/home/tenebris/Disk/Racing-code/examples/23-libjpeg-divide-by-zero/libjpeg-turbo-2.0.90/cjpeg.c:611
        fseek(icc_file, 0, SEEK_SET) < 0) {
    28ac:	31 d2                	xor    %edx,%edx
    28ae:	31 f6                	xor    %esi,%esi
    28b0:	4c 89 ff             	mov    %r15,%rdi
    28b3:	e8 e8 fa ff ff       	call   23a0 <fseek@plt>
/home/tenebris/Disk/Racing-code/examples/23-libjpeg-divide-by-zero/libjpeg-turbo-2.0.90/cjpeg.c:610
        (icc_len = ftell(icc_file)) < 1 ||
    28b8:	85 c0                	test   %eax,%eax
    28ba:	0f 88 81 fd ff ff    	js     2641 <main+0x171>
/home/tenebris/Disk/Racing-code/examples/23-libjpeg-divide-by-zero/libjpeg-turbo-2.0.90/cjpeg.c:616
    if ((icc_profile = (JOCTET *)malloc(icc_len)) == NULL) {
    28c0:	48 89 df             	mov    %rbx,%rdi
    28c3:	e8 88 fa ff ff       	call   2350 <malloc@plt>
    28c8:	48 89 c3             	mov    %rax,%rbx
    28cb:	48 85 c0             	test   %rax,%rax
    28ce:	0f 84 76 01 00 00    	je     2a4a <main+0x57a>
fread():
/usr/include/x86_64-linux-gnu/bits/stdio2.h:293
fread (void *__restrict __ptr, size_t __size, size_t __n,
       FILE *__restrict __stream)
{
  size_t sz = __glibc_objsize0 (__ptr);
  if (__glibc_safe_or_unknown_len (__n, __size, sz))
    return __fread_alias (__ptr, __size, __n, __stream);
    28d4:	48 8b 74 24 08       	mov    0x8(%rsp),%rsi
    28d9:	4c 89 f9             	mov    %r15,%rcx
    28dc:	ba 01 00 00 00       	mov    $0x1,%edx
    28e1:	48 89 c7             	mov    %rax,%rdi
    28e4:	e8 a7 f9 ff ff       	call   2290 <fread@plt>
main():
/home/tenebris/Disk/Racing-code/examples/23-libjpeg-divide-by-zero/libjpeg-turbo-2.0.90/cjpeg.c:621
    if (fread(icc_profile, icc_len, 1, icc_file) < 1) {
    28e9:	48 85 c0             	test   %rax,%rax
    28ec:	0f 85 31 01 00 00    	jne    2a23 <main+0x553>
fprintf():
/usr/include/x86_64-linux-gnu/bits/stdio2.h:105
  return __fprintf_chk (__stream, __USE_FORTIFY_LEVEL - 1, __fmt,
    28f2:	4c 8b 05 6f c7 00 00 	mov    0xc76f(%rip),%r8        # f068 <icc_filename>
    28f9:	48 8b 0d 70 c7 00 00 	mov    0xc770(%rip),%rcx        # f070 <progname>
    2900:	48 8d 15 49 93 00 00 	lea    0x9349(%rip),%rdx        # bc50 <_IO_stdin_used+0xc50>
    2907:	be 01 00 00 00       	mov    $0x1,%esi
    290c:	48 8b 3d 2d c7 00 00 	mov    0xc72d(%rip),%rdi        # f040 <stderr@GLIBC_2.2.5>
    2913:	e8 38 fb ff ff       	call   2450 <__fprintf_chk@plt>
main():
/home/tenebris/Disk/Racing-code/examples/23-libjpeg-divide-by-zero/libjpeg-turbo-2.0.90/cjpeg.c:624
      free(icc_profile);
    2918:	48 89 df             	mov    %rbx,%rdi
    291b:	e8 50 f9 ff ff       	call   2270 <free@plt>
/home/tenebris/Disk/Racing-code/examples/23-libjpeg-divide-by-zero/libjpeg-turbo-2.0.90/cjpeg.c:625
      fclose(icc_file);
    2920:	4c 89 ff             	mov    %r15,%rdi
    2923:	e8 88 f9 ff ff       	call   22b0 <fclose@plt>
/home/tenebris/Disk/Racing-code/examples/23-libjpeg-divide-by-zero/libjpeg-turbo-2.0.90/cjpeg.c:626
      exit(EXIT_FAILURE);
    2928:	bf 01 00 00 00       	mov    $0x1,%edi
    292d:	e8 fe fa ff ff       	call   2430 <exit@plt>
select_file_type():
/home/tenebris/Disk/Racing-code/examples/23-libjpeg-divide-by-zero/libjpeg-turbo-2.0.90/cjpeg.c:103
    ERREXIT(cinfo, JERR_INPUT_EMPTY);
    2932:	48 8b 84 24 10 01 00 	mov    0x110(%rsp),%rax
    2939:	00 
    293a:	48 89 ef             	mov    %rbp,%rdi
    293d:	c7 40 28 2a 00 00 00 	movl   $0x2a,0x28(%rax)
    2944:	ff 10                	call   *(%rax)
/home/tenebris/Disk/Racing-code/examples/23-libjpeg-divide-by-zero/libjpeg-turbo-2.0.90/cjpeg.c:104
  if (ungetc(c, infile) == EOF)
    2946:	48 8b 34 24          	mov    (%rsp),%rsi
    294a:	83 cf ff             	or     $0xffffffff,%edi
    294d:	e8 3e fa ff ff       	call   2390 <ungetc@plt>
    2952:	83 c0 01             	add    $0x1,%eax
    2955:	0f 85 45 fb ff ff    	jne    24a0 <main.cold>
/home/tenebris/Disk/Racing-code/examples/23-libjpeg-divide-by-zero/libjpeg-turbo-2.0.90/cjpeg.c:105
    ERREXIT(cinfo, JERR_UNGETC_FAILED);
    295b:	48 8b 84 24 10 01 00 	mov    0x110(%rsp),%rax
    2962:	00 
    2963:	48 89 ef             	mov    %rbp,%rdi
    2966:	c7 40 28 13 04 00 00 	movl   $0x413,0x28(%rax)
    296d:	ff 10                	call   *(%rax)
    296f:	e9 ed fd ff ff       	jmp    2761 <main+0x291>
/home/tenebris/Disk/Racing-code/examples/23-libjpeg-divide-by-zero/libjpeg-turbo-2.0.90/cjpeg.c:107
  switch (c) {
    2974:	41 83 ff 50          	cmp    $0x50,%r15d
    2978:	0f 85 04 01 00 00    	jne    2a82 <main+0x5b2>
/home/tenebris/Disk/Racing-code/examples/23-libjpeg-divide-by-zero/libjpeg-turbo-2.0.90/cjpeg.c:118
    return jinit_read_ppm(cinfo);
    297e:	48 89 ef             	mov    %rbp,%rdi
    2981:	e8 ea 48 00 00       	call   7270 <jinit_read_ppm>
    2986:	49 89 c7             	mov    %rax,%r15
    2989:	e9 f8 fd ff ff       	jmp    2786 <main+0x2b6>
/home/tenebris/Disk/Racing-code/examples/23-libjpeg-divide-by-zero/libjpeg-turbo-2.0.90/cjpeg.c:107
  switch (c) {
    298e:	45 85 ff             	test   %r15d,%r15d
    2991:	0f 85 e6 00 00 00    	jne    2a7d <main+0x5ad>
/home/tenebris/Disk/Racing-code/examples/23-libjpeg-divide-by-zero/libjpeg-turbo-2.0.90/cjpeg.c:122
    return jinit_read_targa(cinfo);
    2997:	48 89 ef             	mov    %rbp,%rdi
    299a:	e8 91 76 00 00       	call   a030 <jinit_read_targa>
    299f:	49 89 c7             	mov    %rax,%r15
    29a2:	e9 df fd ff ff       	jmp    2786 <main+0x2b6>
main():
/home/tenebris/Disk/Racing-code/examples/23-libjpeg-divide-by-zero/libjpeg-turbo-2.0.90/cjpeg.c:655
    jpeg_stdio_dest(&cinfo, output_file);
    29a7:	4c 89 f6             	mov    %r14,%rsi
    29aa:	48 89 ef             	mov    %rbp,%rdi
    29ad:	e8 1e fa ff ff       	call   23d0 <jpeg_stdio_dest@plt>
    29b2:	e9 1a fe ff ff       	jmp    27d1 <main+0x301>
fprintf():
/usr/include/x86_64-linux-gnu/bits/stdio2.h:105
    29b7:	48 8b 4c 24 18       	mov    0x18(%rsp),%rcx
    29bc:	48 8b 3d 7d c6 00 00 	mov    0xc67d(%rip),%rdi        # f040 <stderr@GLIBC_2.2.5>
    29c3:	48 8d 15 f8 87 00 00 	lea    0x87f8(%rip),%rdx        # b1c2 <_IO_stdin_used+0x1c2>
    29ca:	31 c0                	xor    %eax,%eax
    29cc:	be 01 00 00 00       	mov    $0x1,%esi
    29d1:	e8 7a fa ff ff       	call   2450 <__fprintf_chk@plt>
main():
/home/tenebris/Disk/Racing-code/examples/23-libjpeg-divide-by-zero/libjpeg-turbo-2.0.90/cjpeg.c:685
    free(outbuffer);
    29d6:	48 8b 7c 24 10       	mov    0x10(%rsp),%rdi
    29db:	e8 90 f8 ff ff       	call   2270 <free@plt>
    29e0:	e9 aa fe ff ff       	jmp    288f <main+0x3bf>
/home/tenebris/Disk/Racing-code/examples/23-libjpeg-divide-by-zero/libjpeg-turbo-2.0.90/cjpeg.c:681
    end_progress_monitor((j_common_ptr)&cinfo);
    29e5:	48 89 ef             	mov    %rbp,%rdi
    29e8:	e8 23 12 00 00       	call   3c10 <end_progress_monitor>
    29ed:	e9 90 fe ff ff       	jmp    2882 <main+0x3b2>
/home/tenebris/Disk/Racing-code/examples/23-libjpeg-divide-by-zero/libjpeg-turbo-2.0.90/cjpeg.c:632
    start_progress_monitor((j_common_ptr)&cinfo, &progress);
    29f2:	48 8d 74 24 20       	lea    0x20(%rsp),%rsi
    29f7:	48 89 ef             	mov    %rbp,%rdi
    29fa:	e8 d1 11 00 00       	call   3bd0 <start_progress_monitor>
/home/tenebris/Disk/Racing-code/examples/23-libjpeg-divide-by-zero/libjpeg-turbo-2.0.90/cjpeg.c:633
    progress.report = report;
    29ff:	8b 05 4b c6 00 00    	mov    0xc64b(%rip),%eax        # f050 <report>
    2a05:	89 44 24 4c          	mov    %eax,0x4c(%rsp)
    2a09:	e9 1d fd ff ff       	jmp    272b <main+0x25b>
select_file_type():
/home/tenebris/Disk/Racing-code/examples/23-libjpeg-divide-by-zero/libjpeg-turbo-2.0.90/cjpeg.c:110
    return jinit_read_bmp(cinfo, TRUE);
    2a0e:	be 01 00 00 00       	mov    $0x1,%esi
    2a13:	48 89 ef             	mov    %rbp,%rdi
    2a16:	e8 35 6c 00 00       	call   9650 <jinit_read_bmp>
    2a1b:	49 89 c7             	mov    %rax,%r15
    2a1e:	e9 63 fd ff ff       	jmp    2786 <main+0x2b6>
main():
/home/tenebris/Disk/Racing-code/examples/23-libjpeg-divide-by-zero/libjpeg-turbo-2.0.90/cjpeg.c:628
    fclose(icc_file);
    2a23:	4c 89 ff             	mov    %r15,%rdi
    2a26:	e8 85 f8 ff ff       	call   22b0 <fclose@plt>
    2a2b:	e9 ee fc ff ff       	jmp    271e <main+0x24e>
fprintf():
/usr/include/x86_64-linux-gnu/bits/stdio2.h:105
    2a30:	4c 8b 05 31 c6 00 00 	mov    0xc631(%rip),%r8        # f068 <icc_filename>
    2a37:	48 8b 0d 32 c6 00 00 	mov    0xc632(%rip),%rcx        # f070 <progname>
    2a3e:	48 8d 15 67 87 00 00 	lea    0x8767(%rip),%rdx        # b1ac <_IO_stdin_used+0x1ac>
    2a45:	e9 0c fc ff ff       	jmp    2656 <main+0x186>
    2a4a:	48 8b 0d 1f c6 00 00 	mov    0xc61f(%rip),%rcx        # f070 <progname>
    2a51:	48 8b 3d e8 c5 00 00 	mov    0xc5e8(%rip),%rdi        # f040 <stderr@GLIBC_2.2.5>
    2a58:	48 8d 15 c1 91 00 00 	lea    0x91c1(%rip),%rdx        # bc20 <_IO_stdin_used+0xc20>
    2a5f:	31 c0                	xor    %eax,%eax
    2a61:	be 01 00 00 00       	mov    $0x1,%esi
    2a66:	e8 e5 f9 ff ff       	call   2450 <__fprintf_chk@plt>
main():
/home/tenebris/Disk/Racing-code/examples/23-libjpeg-divide-by-zero/libjpeg-turbo-2.0.90/cjpeg.c:618
      fclose(icc_file);
    2a6b:	4c 89 ff             	mov    %r15,%rdi
    2a6e:	e8 3d f8 ff ff       	call   22b0 <fclose@plt>
/home/tenebris/Disk/Racing-code/examples/23-libjpeg-divide-by-zero/libjpeg-turbo-2.0.90/cjpeg.c:619
      exit(EXIT_FAILURE);
    2a73:	bf 01 00 00 00       	mov    $0x1,%edi
    2a78:	e8 b3 f9 ff ff       	call   2430 <exit@plt>
    2a7d:	e9 1e fa ff ff       	jmp    24a0 <main.cold>
    2a82:	e9 19 fa ff ff       	jmp    24a0 <main.cold>
    2a87:	66 0f 1f 84 00 00 00 	nopw   0x0(%rax,%rax,1)
    2a8e:	00 00 

0000000000002a90 <_start>:
_start():
    2a90:	f3 0f 1e fa          	endbr64 
    2a94:	31 ed                	xor    %ebp,%ebp
    2a96:	49 89 d1             	mov    %rdx,%r9
    2a99:	5e                   	pop    %rsi
    2a9a:	48 89 e2             	mov    %rsp,%rdx
    2a9d:	48 83 e4 f0          	and    $0xfffffffffffffff0,%rsp
    2aa1:	50                   	push   %rax
    2aa2:	54                   	push   %rsp
    2aa3:	45 31 c0             	xor    %r8d,%r8d
    2aa6:	31 c9                	xor    %ecx,%ecx
    2aa8:	48 8d 3d 21 fa ff ff 	lea    -0x5df(%rip),%rdi        # 24d0 <main>
    2aaf:	ff 15 23 c5 00 00    	call   *0xc523(%rip)        # efd8 <__libc_start_main@GLIBC_2.34>
    2ab5:	f4                   	hlt    
    2ab6:	66 2e 0f 1f 84 00 00 	cs nopw 0x0(%rax,%rax,1)
    2abd:	00 00 00 

0000000000002ac0 <deregister_tm_clones>:
deregister_tm_clones():
    2ac0:	48 8d 3d 59 c5 00 00 	lea    0xc559(%rip),%rdi        # f020 <stdout@GLIBC_2.2.5>
    2ac7:	48 8d 05 52 c5 00 00 	lea    0xc552(%rip),%rax        # f020 <stdout@GLIBC_2.2.5>
    2ace:	48 39 f8             	cmp    %rdi,%rax
    2ad1:	74 15                	je     2ae8 <deregister_tm_clones+0x28>
    2ad3:	48 8b 05 06 c5 00 00 	mov    0xc506(%rip),%rax        # efe0 <_ITM_deregisterTMCloneTable@Base>
    2ada:	48 85 c0             	test   %rax,%rax
    2add:	74 09                	je     2ae8 <deregister_tm_clones+0x28>
    2adf:	ff e0                	jmp    *%rax
    2ae1:	0f 1f 80 00 00 00 00 	nopl   0x0(%rax)
    2ae8:	c3                   	ret    
    2ae9:	0f 1f 80 00 00 00 00 	nopl   0x0(%rax)

0000000000002af0 <register_tm_clones>:
register_tm_clones():
    2af0:	48 8d 3d 29 c5 00 00 	lea    0xc529(%rip),%rdi        # f020 <stdout@GLIBC_2.2.5>
    2af7:	48 8d 35 22 c5 00 00 	lea    0xc522(%rip),%rsi        # f020 <stdout@GLIBC_2.2.5>
    2afe:	48 29 fe             	sub    %rdi,%rsi
    2b01:	48 89 f0             	mov    %rsi,%rax
    2b04:	48 c1 ee 3f          	shr    $0x3f,%rsi
    2b08:	48 c1 f8 03          	sar    $0x3,%rax
    2b0c:	48 01 c6             	add    %rax,%rsi
    2b0f:	48 d1 fe             	sar    %rsi
    2b12:	74 14                	je     2b28 <register_tm_clones+0x38>
    2b14:	48 8b 05 d5 c4 00 00 	mov    0xc4d5(%rip),%rax        # eff0 <_ITM_registerTMCloneTable@Base>
    2b1b:	48 85 c0             	test   %rax,%rax
    2b1e:	74 08                	je     2b28 <register_tm_clones+0x38>
    2b20:	ff e0                	jmp    *%rax
    2b22:	66 0f 1f 44 00 00    	nopw   0x0(%rax,%rax,1)
    2b28:	c3                   	ret    
    2b29:	0f 1f 80 00 00 00 00 	nopl   0x0(%rax)

0000000000002b30 <__do_global_dtors_aux>:
__do_global_dtors_aux():
    2b30:	f3 0f 1e fa          	endbr64 
    2b34:	80 3d 0d c5 00 00 00 	cmpb   $0x0,0xc50d(%rip)        # f048 <completed.0>
    2b3b:	75 2b                	jne    2b68 <__do_global_dtors_aux+0x38>
    2b3d:	55                   	push   %rbp
    2b3e:	48 83 3d b2 c4 00 00 	cmpq   $0x0,0xc4b2(%rip)        # eff8 <__cxa_finalize@GLIBC_2.2.5>
    2b45:	00 
    2b46:	48 89 e5             	mov    %rsp,%rbp
    2b49:	74 0c                	je     2b57 <__do_global_dtors_aux+0x27>
    2b4b:	48 8b 3d b6 c4 00 00 	mov    0xc4b6(%rip),%rdi        # f008 <__dso_handle>
    2b52:	e8 09 f7 ff ff       	call   2260 <__cxa_finalize@plt>
    2b57:	e8 64 ff ff ff       	call   2ac0 <deregister_tm_clones>
    2b5c:	c6 05 e5 c4 00 00 01 	movb   $0x1,0xc4e5(%rip)        # f048 <completed.0>
    2b63:	5d                   	pop    %rbp
    2b64:	c3                   	ret    
    2b65:	0f 1f 00             	nopl   (%rax)
    2b68:	c3                   	ret    
    2b69:	0f 1f 80 00 00 00 00 	nopl   0x0(%rax)

0000000000002b70 <frame_dummy>:
frame_dummy():
    2b70:	f3 0f 1e fa          	endbr64 
    2b74:	e9 77 ff ff ff       	jmp    2af0 <register_tm_clones>
    2b79:	0f 1f 80 00 00 00 00 	nopl   0x0(%rax)

0000000000002b80 <usage>:
usage():
/home/tenebris/Disk/Racing-code/examples/23-libjpeg-divide-by-zero/libjpeg-turbo-2.0.90/cjpeg.c:152
{
    2b80:	41 54                	push   %r12
fprintf():
/usr/include/x86_64-linux-gnu/bits/stdio2.h:105
    2b82:	48 8b 0d e7 c4 00 00 	mov    0xc4e7(%rip),%rcx        # f070 <progname>
    2b89:	be 01 00 00 00       	mov    $0x1,%esi
    2b8e:	31 c0                	xor    %eax,%eax
    2b90:	48 8b 3d a9 c4 00 00 	mov    0xc4a9(%rip),%rdi        # f040 <stderr@GLIBC_2.2.5>
    2b97:	48 8d 15 66 84 00 00 	lea    0x8466(%rip),%rdx        # b004 <_IO_stdin_used+0x4>
    2b9e:	4c 8d 25 33 85 00 00 	lea    0x8533(%rip),%r12        # b0d8 <_IO_stdin_used+0xd8>
    2ba5:	e8 a6 f8 ff ff       	call   2450 <__fprintf_chk@plt>
    2baa:	ba 0c 00 00 00       	mov    $0xc,%edx
    2baf:	48 8b 0d 8a c4 00 00 	mov    0xc48a(%rip),%rcx        # f040 <stderr@GLIBC_2.2.5>
    2bb6:	be 01 00 00 00       	mov    $0x1,%esi
    2bbb:	48 8d 3d 58 84 00 00 	lea    0x8458(%rip),%rdi        # b01a <_IO_stdin_used+0x1a>
    2bc2:	e8 79 f8 ff ff       	call   2440 <fwrite@plt>
    2bc7:	ba 25 00 00 00       	mov    $0x25,%edx
    2bcc:	48 8b 0d 6d c4 00 00 	mov    0xc46d(%rip),%rcx        # f040 <stderr@GLIBC_2.2.5>
    2bd3:	be 01 00 00 00       	mov    $0x1,%esi
    2bd8:	48 8d 3d d1 87 00 00 	lea    0x87d1(%rip),%rdi        # b3b0 <_IO_stdin_used+0x3b0>
    2bdf:	e8 5c f8 ff ff       	call   2440 <fwrite@plt>
    2be4:	ba 4d 00 00 00       	mov    $0x4d,%edx
    2be9:	48 8b 0d 50 c4 00 00 	mov    0xc450(%rip),%rcx        # f040 <stderr@GLIBC_2.2.5>
    2bf0:	be 01 00 00 00       	mov    $0x1,%esi
    2bf5:	48 8d 3d dc 87 00 00 	lea    0x87dc(%rip),%rdi        # b3d8 <_IO_stdin_used+0x3d8>
    2bfc:	e8 3f f8 ff ff       	call   2440 <fwrite@plt>
    2c01:	ba 24 00 00 00       	mov    $0x24,%edx
    2c06:	48 8b 0d 33 c4 00 00 	mov    0xc433(%rip),%rcx        # f040 <stderr@GLIBC_2.2.5>
    2c0d:	be 01 00 00 00       	mov    $0x1,%esi
    2c12:	48 8d 3d 0f 88 00 00 	lea    0x880f(%rip),%rdi        # b428 <_IO_stdin_used+0x428>
    2c19:	e8 22 f8 ff ff       	call   2440 <fwrite@plt>
    2c1e:	ba 2d 00 00 00       	mov    $0x2d,%edx
    2c23:	48 8b 0d 16 c4 00 00 	mov    0xc416(%rip),%rcx        # f040 <stderr@GLIBC_2.2.5>
    2c2a:	be 01 00 00 00       	mov    $0x1,%esi
    2c2f:	48 8d 3d 1a 88 00 00 	lea    0x881a(%rip),%rdi        # b450 <_IO_stdin_used+0x450>
    2c36:	e8 05 f8 ff ff       	call   2440 <fwrite@plt>
    2c3b:	ba 26 00 00 00       	mov    $0x26,%edx
    2c40:	48 8b 0d f9 c3 00 00 	mov    0xc3f9(%rip),%rcx        # f040 <stderr@GLIBC_2.2.5>
    2c47:	be 01 00 00 00       	mov    $0x1,%esi
    2c4c:	48 8d 3d 2d 88 00 00 	lea    0x882d(%rip),%rdi        # b480 <_IO_stdin_used+0x480>
    2c53:	e8 e8 f7 ff ff       	call   2440 <fwrite@plt>
    2c58:	ba 4d 00 00 00       	mov    $0x4d,%edx
    2c5d:	48 8b 0d dc c3 00 00 	mov    0xc3dc(%rip),%rcx        # f040 <stderr@GLIBC_2.2.5>
    2c64:	be 01 00 00 00       	mov    $0x1,%esi
    2c69:	48 8d 3d 38 88 00 00 	lea    0x8838(%rip),%rdi        # b4a8 <_IO_stdin_used+0x4a8>
    2c70:	e8 cb f7 ff ff       	call   2440 <fwrite@plt>
    2c75:	ba 2e 00 00 00       	mov    $0x2e,%edx
    2c7a:	48 8b 0d bf c3 00 00 	mov    0xc3bf(%rip),%rcx        # f040 <stderr@GLIBC_2.2.5>
    2c81:	be 01 00 00 00       	mov    $0x1,%esi
    2c86:	48 8d 3d 6b 88 00 00 	lea    0x886b(%rip),%rdi        # b4f8 <_IO_stdin_used+0x4f8>
    2c8d:	e8 ae f7 ff ff       	call   2440 <fwrite@plt>
    2c92:	ba 41 00 00 00       	mov    $0x41,%edx
    2c97:	48 8b 0d a2 c3 00 00 	mov    0xc3a2(%rip),%rcx        # f040 <stderr@GLIBC_2.2.5>
    2c9e:	be 01 00 00 00       	mov    $0x1,%esi
    2ca3:	48 8d 3d 7e 88 00 00 	lea    0x887e(%rip),%rdi        # b528 <_IO_stdin_used+0x528>
    2caa:	e8 91 f7 ff ff       	call   2440 <fwrite@plt>
    2caf:	ba 1d 00 00 00       	mov    $0x1d,%edx
    2cb4:	48 8b 0d 85 c3 00 00 	mov    0xc385(%rip),%rcx        # f040 <stderr@GLIBC_2.2.5>
    2cbb:	be 01 00 00 00       	mov    $0x1,%esi
    2cc0:	48 8d 3d 60 83 00 00 	lea    0x8360(%rip),%rdi        # b027 <_IO_stdin_used+0x27>
    2cc7:	e8 74 f7 ff ff       	call   2440 <fwrite@plt>
    2ccc:	ba 27 00 00 00       	mov    $0x27,%edx
    2cd1:	48 8b 0d 68 c3 00 00 	mov    0xc368(%rip),%rcx        # f040 <stderr@GLIBC_2.2.5>
    2cd8:	be 01 00 00 00       	mov    $0x1,%esi
    2cdd:	48 8d 3d 8c 88 00 00 	lea    0x888c(%rip),%rdi        # b570 <_IO_stdin_used+0x570>
    2ce4:	e8 57 f7 ff ff       	call   2440 <fwrite@plt>
    2ce9:	48 8b 3d 50 c3 00 00 	mov    0xc350(%rip),%rdi        # f040 <stderr@GLIBC_2.2.5>
    2cf0:	be 01 00 00 00       	mov    $0x1,%esi
    2cf5:	31 c0                	xor    %eax,%eax
    2cf7:	48 8d 0d 47 83 00 00 	lea    0x8347(%rip),%rcx        # b045 <_IO_stdin_used+0x45>
    2cfe:	48 8d 15 93 88 00 00 	lea    0x8893(%rip),%rdx        # b598 <_IO_stdin_used+0x598>
    2d05:	e8 46 f7 ff ff       	call   2450 <__fprintf_chk@plt>
    2d0a:	4c 89 e1             	mov    %r12,%rcx
    2d0d:	be 01 00 00 00       	mov    $0x1,%esi
    2d12:	31 c0                	xor    %eax,%eax
    2d14:	48 8b 3d 25 c3 00 00 	mov    0xc325(%rip),%rdi        # f040 <stderr@GLIBC_2.2.5>
    2d1b:	48 8d 15 ae 88 00 00 	lea    0x88ae(%rip),%rdx        # b5d0 <_IO_stdin_used+0x5d0>
    2d22:	e8 29 f7 ff ff       	call   2450 <__fprintf_chk@plt>
    2d27:	4c 89 e1             	mov    %r12,%rcx
    2d2a:	be 01 00 00 00       	mov    $0x1,%esi
    2d2f:	31 c0                	xor    %eax,%eax
    2d31:	48 8b 3d 08 c3 00 00 	mov    0xc308(%rip),%rdi        # f040 <stderr@GLIBC_2.2.5>
    2d38:	48 8d 15 e1 88 00 00 	lea    0x88e1(%rip),%rdx        # b620 <_IO_stdin_used+0x620>
    2d3f:	e8 0c f7 ff ff       	call   2450 <__fprintf_chk@plt>
    2d44:	ba 35 00 00 00       	mov    $0x35,%edx
    2d49:	48 8b 0d f0 c2 00 00 	mov    0xc2f0(%rip),%rcx        # f040 <stderr@GLIBC_2.2.5>
    2d50:	be 01 00 00 00       	mov    $0x1,%esi
    2d55:	48 8d 3d 0c 89 00 00 	lea    0x890c(%rip),%rdi        # b668 <_IO_stdin_used+0x668>
    2d5c:	e8 df f6 ff ff       	call   2440 <fwrite@plt>
    2d61:	ba 43 00 00 00       	mov    $0x43,%edx
    2d66:	48 8b 0d d3 c2 00 00 	mov    0xc2d3(%rip),%rcx        # f040 <stderr@GLIBC_2.2.5>
    2d6d:	be 01 00 00 00       	mov    $0x1,%esi
    2d72:	48 8d 3d 27 89 00 00 	lea    0x8927(%rip),%rdi        # b6a0 <_IO_stdin_used+0x6a0>
    2d79:	e8 c2 f6 ff ff       	call   2440 <fwrite@plt>
    2d7e:	ba 3e 00 00 00       	mov    $0x3e,%edx
    2d83:	48 8b 0d b6 c2 00 00 	mov    0xc2b6(%rip),%rcx        # f040 <stderr@GLIBC_2.2.5>
    2d8a:	be 01 00 00 00       	mov    $0x1,%esi
    2d8f:	48 8d 3d 52 89 00 00 	lea    0x8952(%rip),%rdi        # b6e8 <_IO_stdin_used+0x6e8>
    2d96:	e8 a5 f6 ff ff       	call   2440 <fwrite@plt>
    2d9b:	ba 33 00 00 00       	mov    $0x33,%edx
    2da0:	48 8b 0d 99 c2 00 00 	mov    0xc299(%rip),%rcx        # f040 <stderr@GLIBC_2.2.5>
    2da7:	be 01 00 00 00       	mov    $0x1,%esi
    2dac:	48 8d 3d 75 89 00 00 	lea    0x8975(%rip),%rdi        # b728 <_IO_stdin_used+0x728>
    2db3:	e8 88 f6 ff ff       	call   2440 <fwrite@plt>
    2db8:	ba 2e 00 00 00       	mov    $0x2e,%edx
    2dbd:	48 8b 0d 7c c2 00 00 	mov    0xc27c(%rip),%rcx        # f040 <stderr@GLIBC_2.2.5>
    2dc4:	be 01 00 00 00       	mov    $0x1,%esi
    2dc9:	48 8d 3d 90 89 00 00 	lea    0x8990(%rip),%rdi        # b760 <_IO_stdin_used+0x760>
    2dd0:	e8 6b f6 ff ff       	call   2440 <fwrite@plt>
    2dd5:	ba 4e 00 00 00       	mov    $0x4e,%edx
    2dda:	48 8b 0d 5f c2 00 00 	mov    0xc25f(%rip),%rcx        # f040 <stderr@GLIBC_2.2.5>
    2de1:	be 01 00 00 00       	mov    $0x1,%esi
    2de6:	48 8d 3d a3 89 00 00 	lea    0x89a3(%rip),%rdi        # b790 <_IO_stdin_used+0x790>
    2ded:	e8 4e f6 ff ff       	call   2440 <fwrite@plt>
    2df2:	ba 2d 00 00 00       	mov    $0x2d,%edx
    2df7:	48 8b 0d 42 c2 00 00 	mov    0xc242(%rip),%rcx        # f040 <stderr@GLIBC_2.2.5>
    2dfe:	be 01 00 00 00       	mov    $0x1,%esi
    2e03:	48 8d 3d d6 89 00 00 	lea    0x89d6(%rip),%rdi        # b7e0 <_IO_stdin_used+0x7e0>
    2e0a:	e8 31 f6 ff ff       	call   2440 <fwrite@plt>
    2e0f:	ba 2b 00 00 00       	mov    $0x2b,%edx
    2e14:	48 8b 0d 25 c2 00 00 	mov    0xc225(%rip),%rcx        # f040 <stderr@GLIBC_2.2.5>
    2e1b:	be 01 00 00 00       	mov    $0x1,%esi
    2e20:	48 8d 3d e9 89 00 00 	lea    0x89e9(%rip),%rdi        # b810 <_IO_stdin_used+0x810>
    2e27:	e8 14 f6 ff ff       	call   2440 <fwrite@plt>
    2e2c:	ba 34 00 00 00       	mov    $0x34,%edx
    2e31:	48 8b 0d 08 c2 00 00 	mov    0xc208(%rip),%rcx        # f040 <stderr@GLIBC_2.2.5>
    2e38:	be 01 00 00 00       	mov    $0x1,%esi
    2e3d:	48 8d 3d fc 89 00 00 	lea    0x89fc(%rip),%rdi        # b840 <_IO_stdin_used+0x840>
    2e44:	e8 f7 f5 ff ff       	call   2440 <fwrite@plt>
    2e49:	ba 16 00 00 00       	mov    $0x16,%edx
    2e4e:	48 8b 0d eb c1 00 00 	mov    0xc1eb(%rip),%rcx        # f040 <stderr@GLIBC_2.2.5>
    2e55:	be 01 00 00 00       	mov    $0x1,%esi
    2e5a:	48 8d 3d ef 81 00 00 	lea    0x81ef(%rip),%rdi        # b050 <_IO_stdin_used+0x50>
    2e61:	e8 da f5 ff ff       	call   2440 <fwrite@plt>
    2e66:	ba 34 00 00 00       	mov    $0x34,%edx
    2e6b:	48 8b 0d ce c1 00 00 	mov    0xc1ce(%rip),%rcx        # f040 <stderr@GLIBC_2.2.5>
    2e72:	be 01 00 00 00       	mov    $0x1,%esi
    2e77:	48 8d 3d fa 89 00 00 	lea    0x89fa(%rip),%rdi        # b878 <_IO_stdin_used+0x878>
    2e7e:	e8 bd f5 ff ff       	call   2440 <fwrite@plt>
    2e83:	ba 37 00 00 00       	mov    $0x37,%edx
    2e88:	48 8b 0d b1 c1 00 00 	mov    0xc1b1(%rip),%rcx        # f040 <stderr@GLIBC_2.2.5>
    2e8f:	be 01 00 00 00       	mov    $0x1,%esi
    2e94:	48 8d 3d 15 8a 00 00 	lea    0x8a15(%rip),%rdi        # b8b0 <_IO_stdin_used+0x8b0>
    2e9b:	e8 a0 f5 ff ff       	call   2440 <fwrite@plt>
    2ea0:	ba 37 00 00 00       	mov    $0x37,%edx
    2ea5:	48 8b 0d 94 c1 00 00 	mov    0xc194(%rip),%rcx        # f040 <stderr@GLIBC_2.2.5>
    2eac:	be 01 00 00 00       	mov    $0x1,%esi
    2eb1:	48 8d 3d 30 8a 00 00 	lea    0x8a30(%rip),%rdi        # b8e8 <_IO_stdin_used+0x8e8>
    2eb8:	e8 83 f5 ff ff       	call   2440 <fwrite@plt>
    2ebd:	ba 34 00 00 00       	mov    $0x34,%edx
    2ec2:	48 8b 0d 77 c1 00 00 	mov    0xc177(%rip),%rcx        # f040 <stderr@GLIBC_2.2.5>
    2ec9:	be 01 00 00 00       	mov    $0x1,%esi
    2ece:	48 8d 3d 4b 8a 00 00 	lea    0x8a4b(%rip),%rdi        # b920 <_IO_stdin_used+0x920>
    2ed5:	e8 66 f5 ff ff       	call   2440 <fwrite@plt>
    2eda:	ba 38 00 00 00       	mov    $0x38,%edx
    2edf:	be 01 00 00 00       	mov    $0x1,%esi
    2ee4:	48 8b 0d 55 c1 00 00 	mov    0xc155(%rip),%rcx        # f040 <stderr@GLIBC_2.2.5>
    2eeb:	48 8d 3d 66 8a 00 00 	lea    0x8a66(%rip),%rdi        # b958 <_IO_stdin_used+0x958>
    2ef2:	e8 49 f5 ff ff       	call   2440 <fwrite@plt>
usage():
/home/tenebris/Disk/Racing-code/examples/23-libjpeg-divide-by-zero/libjpeg-turbo-2.0.90/cjpeg.c:211
  exit(EXIT_FAILURE);
    2ef7:	bf 01 00 00 00       	mov    $0x1,%edi
    2efc:	e8 2f f5 ff ff       	call   2430 <exit@plt>
    2f01:	66 66 2e 0f 1f 84 00 	data16 cs nopw 0x0(%rax,%rax,1)
    2f08:	00 00 00 00 
    2f0c:	0f 1f 40 00          	nopl   0x0(%rax)

0000000000002f10 <parse_switches.constprop.0>:
parse_switches():
/home/tenebris/Disk/Racing-code/examples/23-libjpeg-divide-by-zero/libjpeg-turbo-2.0.90/cjpeg.c:216
parse_switches(j_compress_ptr cinfo, int argc, char **argv,
    2f10:	41 57                	push   %r15
    2f12:	41 89 ca             	mov    %ecx,%r10d
    2f15:	41 56                	push   %r14
    2f17:	41 55                	push   %r13
    2f19:	41 54                	push   %r12
    2f1b:	55                   	push   %rbp
    2f1c:	53                   	push   %rbx
    2f1d:	48 83 ec 68          	sub    $0x68,%rsp
    2f21:	64 48 8b 04 25 28 00 	mov    %fs:0x28,%rax
    2f28:	00 00 
    2f2a:	48 89 44 24 58       	mov    %rax,0x58(%rsp)
    2f2f:	31 c0                	xor    %eax,%eax
/home/tenebris/Disk/Racing-code/examples/23-libjpeg-divide-by-zero/libjpeg-turbo-2.0.90/cjpeg.c:246
  cinfo->err->trace_level = 0;
    2f31:	48 8b 07             	mov    (%rdi),%rax
/home/tenebris/Disk/Racing-code/examples/23-libjpeg-divide-by-zero/libjpeg-turbo-2.0.90/cjpeg.c:241
  is_targa = FALSE;
    2f34:	c7 05 3a c1 00 00 00 	movl   $0x0,0xc13a(%rip)        # f078 <is_targa>
    2f3b:	00 00 00 
/home/tenebris/Disk/Racing-code/examples/23-libjpeg-divide-by-zero/libjpeg-turbo-2.0.90/cjpeg.c:242
  icc_filename = NULL;
    2f3e:	48 c7 05 1f c1 00 00 	movq   $0x0,0xc11f(%rip)        # f068 <icc_filename>
    2f45:	00 00 00 00 
/home/tenebris/Disk/Racing-code/examples/23-libjpeg-divide-by-zero/libjpeg-turbo-2.0.90/cjpeg.c:243
  outfilename = NULL;
    2f49:	48 c7 05 0c c1 00 00 	movq   $0x0,0xc10c(%rip)        # f060 <outfilename>
    2f50:	00 00 00 00 
/home/tenebris/Disk/Racing-code/examples/23-libjpeg-divide-by-zero/libjpeg-turbo-2.0.90/cjpeg.c:244
  memdst = FALSE;
    2f54:	c7 05 f6 c0 00 00 00 	movl   $0x0,0xc0f6(%rip)        # f054 <memdst>
    2f5b:	00 00 00 
/home/tenebris/Disk/Racing-code/examples/23-libjpeg-divide-by-zero/libjpeg-turbo-2.0.90/cjpeg.c:245
  report = FALSE;
    2f5e:	c7 05 e8 c0 00 00 00 	movl   $0x0,0xc0e8(%rip)        # f050 <report>
    2f65:	00 00 00 
/home/tenebris/Disk/Racing-code/examples/23-libjpeg-divide-by-zero/libjpeg-turbo-2.0.90/cjpeg.c:246
  cinfo->err->trace_level = 0;
    2f68:	c7 40 7c 00 00 00 00 	movl   $0x0,0x7c(%rax)
/home/tenebris/Disk/Racing-code/examples/23-libjpeg-divide-by-zero/libjpeg-turbo-2.0.90/cjpeg.c:250
  for (argn = 1; argn < argc; argn++) {
    2f6f:	83 fe 01             	cmp    $0x1,%esi
    2f72:	0f 8e 3e 02 00 00    	jle    31b6 <parse_switches.constprop.0+0x2a6>
/home/tenebris/Disk/Racing-code/examples/23-libjpeg-divide-by-zero/libjpeg-turbo-2.0.90/cjpeg.c:233
  char *qslotsarg = NULL;       /* saves -qslots parm if any */
    2f78:	48 c7 44 24 08 00 00 	movq   $0x0,0x8(%rsp)
    2f7f:	00 00 
    2f81:	48 89 fd             	mov    %rdi,%rbp
    2f84:	41 89 f5             	mov    %esi,%r13d
    2f87:	48 89 d3             	mov    %rdx,%rbx
/home/tenebris/Disk/Racing-code/examples/23-libjpeg-divide-by-zero/libjpeg-turbo-2.0.90/cjpeg.c:235
  char *scansarg = NULL;        /* saves -scans parm if any */
    2f8a:	45 31 ff             	xor    %r15d,%r15d
/home/tenebris/Disk/Racing-code/examples/23-libjpeg-divide-by-zero/libjpeg-turbo-2.0.90/cjpeg.c:234
  char *samplearg = NULL;       /* saves -sample parm if any */
    2f8d:	45 31 f6             	xor    %r14d,%r14d
/home/tenebris/Disk/Racing-code/examples/23-libjpeg-divide-by-zero/libjpeg-turbo-2.0.90/cjpeg.c:231
  char *qualityarg = NULL;      /* saves -quality parm if any */
    2f90:	45 31 db             	xor    %r11d,%r11d
/home/tenebris/Disk/Racing-code/examples/23-libjpeg-divide-by-zero/libjpeg-turbo-2.0.90/cjpeg.c:250
  for (argn = 1; argn < argc; argn++) {
    2f93:	41 bc 01 00 00 00    	mov    $0x1,%r12d
/home/tenebris/Disk/Racing-code/examples/23-libjpeg-divide-by-zero/libjpeg-turbo-2.0.90/cjpeg.c:232
  char *qtablefile = NULL;      /* saves -qtables filename if any */
    2f99:	48 c7 44 24 10 00 00 	movq   $0x0,0x10(%rsp)
    2fa0:	00 00 
/home/tenebris/Disk/Racing-code/examples/23-libjpeg-divide-by-zero/libjpeg-turbo-2.0.90/cjpeg.c:240
  simple_progressive = FALSE;
    2fa2:	c7 44 24 38 00 00 00 	movl   $0x0,0x38(%rsp)
    2fa9:	00 
/home/tenebris/Disk/Racing-code/examples/23-libjpeg-divide-by-zero/libjpeg-turbo-2.0.90/cjpeg.c:239
  force_baseline = FALSE;       /* by default, allow 16-bit quantizers */
    2faa:	c7 44 24 04 00 00 00 	movl   $0x0,0x4(%rsp)
    2fb1:	00 
/home/tenebris/Disk/Racing-code/examples/23-libjpeg-divide-by-zero/libjpeg-turbo-2.0.90/cjpeg.c:251
    arg = argv[argn];
    2fb2:	49 63 c4             	movslq %r12d,%rax
    2fb5:	48 8d 0c c5 00 00 00 	lea    0x0(,%rax,8),%rcx
    2fbc:	00 
    2fbd:	48 8b 04 c3          	mov    (%rbx,%rax,8),%rax
/home/tenebris/Disk/Racing-code/examples/23-libjpeg-divide-by-zero/libjpeg-turbo-2.0.90/cjpeg.c:252
    if (*arg != '-') {
    2fc1:	80 38 2d             	cmpb   $0x2d,(%rax)
    2fc4:	0f 84 c4 00 00 00    	je     308e <parse_switches.constprop.0+0x17e>
/home/tenebris/Disk/Racing-code/examples/23-libjpeg-divide-by-zero/libjpeg-turbo-2.0.90/cjpeg.c:465
  if (for_real) {
    2fca:	45 85 d2             	test   %r10d,%r10d
    2fcd:	0f 84 95 00 00 00    	je     3068 <parse_switches.constprop.0+0x158>
/home/tenebris/Disk/Racing-code/examples/23-libjpeg-divide-by-zero/libjpeg-turbo-2.0.90/cjpeg.c:469
    if (qualityarg != NULL)     /* process -quality if it was present */
    2fd3:	4d 85 db             	test   %r11,%r11
    2fd6:	74 17                	je     2fef <parse_switches.constprop.0+0xdf>
/home/tenebris/Disk/Racing-code/examples/23-libjpeg-divide-by-zero/libjpeg-turbo-2.0.90/cjpeg.c:470
      if (!set_quality_ratings(cinfo, qualityarg, force_baseline))
    2fd8:	8b 54 24 04          	mov    0x4(%rsp),%edx
    2fdc:	4c 89 de             	mov    %r11,%rsi
    2fdf:	48 89 ef             	mov    %rbp,%rdi
    2fe2:	e8 c9 49 00 00       	call   79b0 <set_quality_ratings>
    2fe7:	85 c0                	test   %eax,%eax
    2fe9:	0f 84 4b 01 00 00    	je     313a <parse_switches.constprop.0+0x22a>
/home/tenebris/Disk/Racing-code/examples/23-libjpeg-divide-by-zero/libjpeg-turbo-2.0.90/cjpeg.c:473
    if (qtablefile != NULL)     /* process -qtables if it was present */
    2fef:	48 8b 44 24 10       	mov    0x10(%rsp),%rax
    2ff4:	48 85 c0             	test   %rax,%rax
    2ff7:	74 17                	je     3010 <parse_switches.constprop.0+0x100>
/home/tenebris/Disk/Racing-code/examples/23-libjpeg-divide-by-zero/libjpeg-turbo-2.0.90/cjpeg.c:474
      if (!read_quant_tables(cinfo, qtablefile, force_baseline))
    2ff9:	8b 54 24 04          	mov    0x4(%rsp),%edx
    2ffd:	48 89 c6             	mov    %rax,%rsi
    3000:	48 89 ef             	mov    %rbp,%rdi
    3003:	e8 48 44 00 00       	call   7450 <read_quant_tables>
    3008:	85 c0                	test   %eax,%eax
    300a:	0f 84 2a 01 00 00    	je     313a <parse_switches.constprop.0+0x22a>
/home/tenebris/Disk/Racing-code/examples/23-libjpeg-divide-by-zero/libjpeg-turbo-2.0.90/cjpeg.c:477
    if (qslotsarg != NULL)      /* process -qslots if it was present */
    3010:	48 8b 44 24 08       	mov    0x8(%rsp),%rax
    3015:	48 85 c0             	test   %rax,%rax
    3018:	74 13                	je     302d <parse_switches.constprop.0+0x11d>
/home/tenebris/Disk/Racing-code/examples/23-libjpeg-divide-by-zero/libjpeg-turbo-2.0.90/cjpeg.c:478
      if (!set_quant_slots(cinfo, qslotsarg))
    301a:	48 89 c6             	mov    %rax,%rsi
    301d:	48 89 ef             	mov    %rbp,%rdi
    3020:	e8 ab 4a 00 00       	call   7ad0 <set_quant_slots>
    3025:	85 c0                	test   %eax,%eax
    3027:	0f 84 0d 01 00 00    	je     313a <parse_switches.constprop.0+0x22a>
/home/tenebris/Disk/Racing-code/examples/23-libjpeg-divide-by-zero/libjpeg-turbo-2.0.90/cjpeg.c:481
    if (samplearg != NULL)      /* process -sample if it was present */
    302d:	4d 85 f6             	test   %r14,%r14
    3030:	74 13                	je     3045 <parse_switches.constprop.0+0x135>
/home/tenebris/Disk/Racing-code/examples/23-libjpeg-divide-by-zero/libjpeg-turbo-2.0.90/cjpeg.c:482
      if (!set_sample_factors(cinfo, samplearg))
    3032:	4c 89 f6             	mov    %r14,%rsi
    3035:	48 89 ef             	mov    %rbp,%rdi
    3038:	e8 a3 4b 00 00       	call   7be0 <set_sample_factors>
    303d:	85 c0                	test   %eax,%eax
    303f:	0f 84 f5 00 00 00    	je     313a <parse_switches.constprop.0+0x22a>
/home/tenebris/Disk/Racing-code/examples/23-libjpeg-divide-by-zero/libjpeg-turbo-2.0.90/cjpeg.c:486
    if (simple_progressive)     /* process -progressive; -scans can override */
    3045:	83 7c 24 38 00       	cmpl   $0x0,0x38(%rsp)
    304a:	0f 85 9b 00 00 00    	jne    30eb <parse_switches.constprop.0+0x1db>
/home/tenebris/Disk/Racing-code/examples/23-libjpeg-divide-by-zero/libjpeg-turbo-2.0.90/cjpeg.c:491
    if (scansarg != NULL)       /* process -scans if it was present */
    3050:	4d 85 ff             	test   %r15,%r15
    3053:	74 13                	je     3068 <parse_switches.constprop.0+0x158>
/home/tenebris/Disk/Racing-code/examples/23-libjpeg-divide-by-zero/libjpeg-turbo-2.0.90/cjpeg.c:492
      if (!read_scan_script(cinfo, scansarg))
    3055:	4c 89 fe             	mov    %r15,%rsi
    3058:	48 89 ef             	mov    %rbp,%rdi
    305b:	e8 e0 45 00 00       	call   7640 <read_scan_script>
    3060:	85 c0                	test   %eax,%eax
    3062:	0f 84 d2 00 00 00    	je     313a <parse_switches.constprop.0+0x22a>
/home/tenebris/Disk/Racing-code/examples/23-libjpeg-divide-by-zero/libjpeg-turbo-2.0.90/cjpeg.c:498
}
    3068:	48 8b 44 24 58       	mov    0x58(%rsp),%rax
    306d:	64 48 2b 04 25 28 00 	sub    %fs:0x28,%rax
    3074:	00 00 
    3076:	0f 85 df 03 00 00    	jne    345b <parse_switches.constprop.0+0x54b>
    307c:	48 83 c4 68          	add    $0x68,%rsp
    3080:	44 89 e0             	mov    %r12d,%eax
    3083:	5b                   	pop    %rbx
    3084:	5d                   	pop    %rbp
    3085:	41 5c                	pop    %r12
    3087:	41 5d                	pop    %r13
    3089:	41 5e                	pop    %r14
    308b:	41 5f                	pop    %r15
    308d:	c3                   	ret    
/home/tenebris/Disk/Racing-code/examples/23-libjpeg-divide-by-zero/libjpeg-turbo-2.0.90/cjpeg.c:260
    arg++;                      /* advance past switch marker character */
    308e:	48 8d 78 01          	lea    0x1(%rax),%rdi
/home/tenebris/Disk/Racing-code/examples/23-libjpeg-divide-by-zero/libjpeg-turbo-2.0.90/cjpeg.c:262
    if (keymatch(arg, "arithmetic", 1)) {
    3092:	ba 01 00 00 00       	mov    $0x1,%edx
    3097:	44 89 54 24 30       	mov    %r10d,0x30(%rsp)
    309c:	48 8d 35 c4 7f 00 00 	lea    0x7fc4(%rip),%rsi        # b067 <_IO_stdin_used+0x67>
    30a3:	4c 89 5c 24 28       	mov    %r11,0x28(%rsp)
    30a8:	48 89 4c 24 20       	mov    %rcx,0x20(%rsp)
    30ad:	48 89 7c 24 18       	mov    %rdi,0x18(%rsp)
    30b2:	e8 a9 0b 00 00       	call   3c60 <keymatch>
    30b7:	48 8b 7c 24 18       	mov    0x18(%rsp),%rdi
    30bc:	48 8b 4c 24 20       	mov    0x20(%rsp),%rcx
    30c1:	85 c0                	test   %eax,%eax
    30c3:	4c 8b 5c 24 28       	mov    0x28(%rsp),%r11
    30c8:	44 8b 54 24 30       	mov    0x30(%rsp),%r10d
    30cd:	74 29                	je     30f8 <parse_switches.constprop.0+0x1e8>
/home/tenebris/Disk/Racing-code/examples/23-libjpeg-divide-by-zero/libjpeg-turbo-2.0.90/cjpeg.c:265
      cinfo->arith_code = TRUE;
    30cf:	c7 85 04 01 00 00 01 	movl   $0x1,0x104(%rbp)
    30d6:	00 00 00 
/home/tenebris/Disk/Racing-code/examples/23-libjpeg-divide-by-zero/libjpeg-turbo-2.0.90/cjpeg.c:250
  for (argn = 1; argn < argc; argn++) {
    30d9:	41 83 c4 01          	add    $0x1,%r12d
    30dd:	45 39 e5             	cmp    %r12d,%r13d
    30e0:	0f 8f cc fe ff ff    	jg     2fb2 <parse_switches.constprop.0+0xa2>
    30e6:	e9 df fe ff ff       	jmp    2fca <parse_switches.constprop.0+0xba>
/home/tenebris/Disk/Racing-code/examples/23-libjpeg-divide-by-zero/libjpeg-turbo-2.0.90/cjpeg.c:487
      jpeg_simple_progression(cinfo);
    30eb:	48 89 ef             	mov    %rbp,%rdi
    30ee:	e8 dd f1 ff ff       	call   22d0 <jpeg_simple_progression@plt>
    30f3:	e9 58 ff ff ff       	jmp    3050 <parse_switches.constprop.0+0x140>
/home/tenebris/Disk/Racing-code/examples/23-libjpeg-divide-by-zero/libjpeg-turbo-2.0.90/cjpeg.c:272
    } else if (keymatch(arg, "baseline", 1)) {
    30f8:	ba 01 00 00 00       	mov    $0x1,%edx
    30fd:	48 8d 35 6e 7f 00 00 	lea    0x7f6e(%rip),%rsi        # b072 <_IO_stdin_used+0x72>
    3104:	44 89 54 24 30       	mov    %r10d,0x30(%rsp)
    3109:	4c 89 5c 24 28       	mov    %r11,0x28(%rsp)
    310e:	48 89 7c 24 18       	mov    %rdi,0x18(%rsp)
    3113:	48 89 4c 24 20       	mov    %rcx,0x20(%rsp)
    3118:	e8 43 0b 00 00       	call   3c60 <keymatch>
    311d:	48 8b 7c 24 18       	mov    0x18(%rsp),%rdi
    3122:	4c 8b 5c 24 28       	mov    0x28(%rsp),%r11
    3127:	85 c0                	test   %eax,%eax
    3129:	44 8b 54 24 30       	mov    0x30(%rsp),%r10d
    312e:	74 0f                	je     313f <parse_switches.constprop.0+0x22f>
/home/tenebris/Disk/Racing-code/examples/23-libjpeg-divide-by-zero/libjpeg-turbo-2.0.90/cjpeg.c:274
      force_baseline = TRUE;
    3130:	c7 44 24 04 01 00 00 	movl   $0x1,0x4(%rsp)
    3137:	00 
    3138:	eb 9f                	jmp    30d9 <parse_switches.constprop.0+0x1c9>
/home/tenebris/Disk/Racing-code/examples/23-libjpeg-divide-by-zero/libjpeg-turbo-2.0.90/cjpeg.c:279
        usage();
    313a:	e8 41 fa ff ff       	call   2b80 <usage>
/home/tenebris/Disk/Racing-code/examples/23-libjpeg-divide-by-zero/libjpeg-turbo-2.0.90/cjpeg.c:276
    } else if (keymatch(arg, "dct", 2)) {
    313f:	ba 02 00 00 00       	mov    $0x2,%edx
    3144:	48 8d 35 30 7f 00 00 	lea    0x7f30(%rip),%rsi        # b07b <_IO_stdin_used+0x7b>
    314b:	e8 10 0b 00 00       	call   3c60 <keymatch>
    3150:	48 8b 7c 24 18       	mov    0x18(%rsp),%rdi
    3155:	48 8b 4c 24 20       	mov    0x20(%rsp),%rcx
    315a:	85 c0                	test   %eax,%eax
    315c:	4c 8b 5c 24 28       	mov    0x28(%rsp),%r11
    3161:	44 8b 54 24 30       	mov    0x30(%rsp),%r10d
    3166:	74 5f                	je     31c7 <parse_switches.constprop.0+0x2b7>
/home/tenebris/Disk/Racing-code/examples/23-libjpeg-divide-by-zero/libjpeg-turbo-2.0.90/cjpeg.c:278
      if (++argn >= argc)       /* advance to next argument */
    3168:	41 83 c4 01          	add    $0x1,%r12d
    316c:	45 39 ec             	cmp    %r13d,%r12d
    316f:	7d c9                	jge    313a <parse_switches.constprop.0+0x22a>
/home/tenebris/Disk/Racing-code/examples/23-libjpeg-divide-by-zero/libjpeg-turbo-2.0.90/cjpeg.c:280
      if (keymatch(argv[argn], "int", 1)) {
    3171:	48 8d 44 0b 08       	lea    0x8(%rbx,%rcx,1),%rax
    3176:	ba 01 00 00 00       	mov    $0x1,%edx
    317b:	44 89 54 24 20       	mov    %r10d,0x20(%rsp)
    3180:	48 8d 35 f8 7e 00 00 	lea    0x7ef8(%rip),%rsi        # b07f <_IO_stdin_used+0x7f>
    3187:	48 8b 38             	mov    (%rax),%rdi
    318a:	4c 89 5c 24 18       	mov    %r11,0x18(%rsp)
    318f:	48 89 44 24 28       	mov    %rax,0x28(%rsp)
    3194:	e8 c7 0a 00 00       	call   3c60 <keymatch>
    3199:	4c 8b 5c 24 18       	mov    0x18(%rsp),%r11
    319e:	44 8b 54 24 20       	mov    0x20(%rsp),%r10d
    31a3:	85 c0                	test   %eax,%eax
    31a5:	74 77                	je     321e <parse_switches.constprop.0+0x30e>
/home/tenebris/Disk/Racing-code/examples/23-libjpeg-divide-by-zero/libjpeg-turbo-2.0.90/cjpeg.c:281
        cinfo->dct_method = JDCT_ISLOW;
    31a7:	c7 85 14 01 00 00 00 	movl   $0x0,0x114(%rbp)
    31ae:	00 00 00 
    31b1:	e9 23 ff ff ff       	jmp    30d9 <parse_switches.constprop.0+0x1c9>
/home/tenebris/Disk/Racing-code/examples/23-libjpeg-divide-by-zero/libjpeg-turbo-2.0.90/cjpeg.c:465
  if (for_real) {
    31b6:	85 c9                	test   %ecx,%ecx
/home/tenebris/Disk/Racing-code/examples/23-libjpeg-divide-by-zero/libjpeg-turbo-2.0.90/cjpeg.c:250
  for (argn = 1; argn < argc; argn++) {
    31b8:	41 bc 01 00 00 00    	mov    $0x1,%r12d
    31be:	44 0f 45 e1          	cmovne %ecx,%r12d
    31c2:	e9 a1 fe ff ff       	jmp    3068 <parse_switches.constprop.0+0x158>
/home/tenebris/Disk/Racing-code/examples/23-libjpeg-divide-by-zero/libjpeg-turbo-2.0.90/cjpeg.c:289
    } else if (keymatch(arg, "debug", 1) || keymatch(arg, "verbose", 1)) {
    31c7:	ba 01 00 00 00       	mov    $0x1,%edx
    31cc:	48 8d 35 bb 7e 00 00 	lea    0x7ebb(%rip),%rsi        # b08e <_IO_stdin_used+0x8e>
    31d3:	44 89 54 24 30       	mov    %r10d,0x30(%rsp)
    31d8:	4c 89 5c 24 28       	mov    %r11,0x28(%rsp)
    31dd:	48 89 4c 24 20       	mov    %rcx,0x20(%rsp)
    31e2:	48 89 7c 24 18       	mov    %rdi,0x18(%rsp)
    31e7:	e8 74 0a 00 00       	call   3c60 <keymatch>
    31ec:	48 8b 7c 24 18       	mov    0x18(%rsp),%rdi
    31f1:	48 8b 4c 24 20       	mov    0x20(%rsp),%rcx
    31f6:	85 c0                	test   %eax,%eax
    31f8:	4c 8b 5c 24 28       	mov    0x28(%rsp),%r11
    31fd:	44 8b 54 24 30       	mov    0x30(%rsp),%r10d
    3202:	74 5e                	je     3262 <parse_switches.constprop.0+0x352>
/home/tenebris/Disk/Racing-code/examples/23-libjpeg-divide-by-zero/libjpeg-turbo-2.0.90/cjpeg.c:294
      if (!printed_version) {
    3204:	83 3d 4d be 00 00 00 	cmpl   $0x0,0xbe4d(%rip)        # f058 <printed_version.0>
    320b:	0f 84 72 01 00 00    	je     3383 <parse_switches.constprop.0+0x473>
/home/tenebris/Disk/Racing-code/examples/23-libjpeg-divide-by-zero/libjpeg-turbo-2.0.90/cjpeg.c:302
      cinfo->err->trace_level++;
    3211:	48 8b 45 00          	mov    0x0(%rbp),%rax
    3215:	83 40 7c 01          	addl   $0x1,0x7c(%rax)
/home/tenebris/Disk/Racing-code/examples/23-libjpeg-divide-by-zero/libjpeg-turbo-2.0.90/cjpeg.c:289
    } else if (keymatch(arg, "debug", 1) || keymatch(arg, "verbose", 1)) {
    3219:	e9 bb fe ff ff       	jmp    30d9 <parse_switches.constprop.0+0x1c9>
/home/tenebris/Disk/Racing-code/examples/23-libjpeg-divide-by-zero/libjpeg-turbo-2.0.90/cjpeg.c:282
      } else if (keymatch(argv[argn], "fast", 2)) {
    321e:	48 8b 44 24 28       	mov    0x28(%rsp),%rax
    3223:	ba 02 00 00 00       	mov    $0x2,%edx
    3228:	44 89 54 24 20       	mov    %r10d,0x20(%rsp)
    322d:	48 8d 35 4f 7e 00 00 	lea    0x7e4f(%rip),%rsi        # b083 <_IO_stdin_used+0x83>
    3234:	4c 89 5c 24 18       	mov    %r11,0x18(%rsp)
    3239:	48 8b 38             	mov    (%rax),%rdi
    323c:	e8 1f 0a 00 00       	call   3c60 <keymatch>
    3241:	4c 8b 5c 24 18       	mov    0x18(%rsp),%r11
    3246:	44 8b 54 24 20       	mov    0x20(%rsp),%r10d
    324b:	85 c0                	test   %eax,%eax
    324d:	0f 84 c4 01 00 00    	je     3417 <parse_switches.constprop.0+0x507>
/home/tenebris/Disk/Racing-code/examples/23-libjpeg-divide-by-zero/libjpeg-turbo-2.0.90/cjpeg.c:283
        cinfo->dct_method = JDCT_IFAST;
    3253:	c7 85 14 01 00 00 01 	movl   $0x1,0x114(%rbp)
    325a:	00 00 00 
    325d:	e9 77 fe ff ff       	jmp    30d9 <parse_switches.constprop.0+0x1c9>
/home/tenebris/Disk/Racing-code/examples/23-libjpeg-divide-by-zero/libjpeg-turbo-2.0.90/cjpeg.c:289
    } else if (keymatch(arg, "debug", 1) || keymatch(arg, "verbose", 1)) {
    3262:	ba 01 00 00 00       	mov    $0x1,%edx
    3267:	48 8d 35 26 7e 00 00 	lea    0x7e26(%rip),%rsi        # b094 <_IO_stdin_used+0x94>
    326e:	44 89 54 24 30       	mov    %r10d,0x30(%rsp)
    3273:	4c 89 5c 24 28       	mov    %r11,0x28(%rsp)
    3278:	48 89 4c 24 20       	mov    %rcx,0x20(%rsp)
    327d:	48 89 7c 24 18       	mov    %rdi,0x18(%rsp)
    3282:	e8 d9 09 00 00       	call   3c60 <keymatch>
    3287:	48 8b 7c 24 18       	mov    0x18(%rsp),%rdi
    328c:	48 8b 4c 24 20       	mov    0x20(%rsp),%rcx
    3291:	85 c0                	test   %eax,%eax
    3293:	4c 8b 5c 24 28       	mov    0x28(%rsp),%r11
    3298:	44 8b 54 24 30       	mov    0x30(%rsp),%r10d
    329d:	0f 85 61 ff ff ff    	jne    3204 <parse_switches.constprop.0+0x2f4>
/home/tenebris/Disk/Racing-code/examples/23-libjpeg-divide-by-zero/libjpeg-turbo-2.0.90/cjpeg.c:304
    } else if (keymatch(arg, "version", 4)) {
    32a3:	ba 04 00 00 00       	mov    $0x4,%edx
    32a8:	48 8d 35 3a 7e 00 00 	lea    0x7e3a(%rip),%rsi        # b0e9 <_IO_stdin_used+0xe9>
    32af:	44 89 54 24 30       	mov    %r10d,0x30(%rsp)
    32b4:	4c 89 5c 24 28       	mov    %r11,0x28(%rsp)
    32b9:	48 89 4c 24 20       	mov    %rcx,0x20(%rsp)
    32be:	48 89 7c 24 18       	mov    %rdi,0x18(%rsp)
    32c3:	e8 98 09 00 00       	call   3c60 <keymatch>
    32c8:	48 8b 7c 24 18       	mov    0x18(%rsp),%rdi
    32cd:	48 8b 4c 24 20       	mov    0x20(%rsp),%rcx
    32d2:	85 c0                	test   %eax,%eax
    32d4:	4c 8b 5c 24 28       	mov    0x28(%rsp),%r11
    32d9:	44 8b 54 24 30       	mov    0x30(%rsp),%r10d
    32de:	0f 85 26 02 00 00    	jne    350a <parse_switches.constprop.0+0x5fa>
/home/tenebris/Disk/Racing-code/examples/23-libjpeg-divide-by-zero/libjpeg-turbo-2.0.90/cjpeg.c:309
    } else if (keymatch(arg, "grayscale", 2) ||
    32e4:	ba 02 00 00 00       	mov    $0x2,%edx
    32e9:	48 8d 35 01 7e 00 00 	lea    0x7e01(%rip),%rsi        # b0f1 <_IO_stdin_used+0xf1>
    32f0:	44 89 54 24 30       	mov    %r10d,0x30(%rsp)
    32f5:	4c 89 5c 24 28       	mov    %r11,0x28(%rsp)
    32fa:	48 89 4c 24 20       	mov    %rcx,0x20(%rsp)
    32ff:	48 89 7c 24 18       	mov    %rdi,0x18(%rsp)
    3304:	e8 57 09 00 00       	call   3c60 <keymatch>
    3309:	48 8b 7c 24 18       	mov    0x18(%rsp),%rdi
    330e:	48 8b 4c 24 20       	mov    0x20(%rsp),%rcx
    3313:	85 c0                	test   %eax,%eax
    3315:	4c 8b 5c 24 28       	mov    0x28(%rsp),%r11
    331a:	44 8b 54 24 30       	mov    0x30(%rsp),%r10d
    331f:	75 3c                	jne    335d <parse_switches.constprop.0+0x44d>
/home/tenebris/Disk/Racing-code/examples/23-libjpeg-divide-by-zero/libjpeg-turbo-2.0.90/cjpeg.c:310
               keymatch(arg, "greyscale", 2)) {
    3321:	ba 02 00 00 00       	mov    $0x2,%edx
    3326:	48 8d 35 ce 7d 00 00 	lea    0x7dce(%rip),%rsi        # b0fb <_IO_stdin_used+0xfb>
    332d:	44 89 54 24 30       	mov    %r10d,0x30(%rsp)
    3332:	4c 89 5c 24 28       	mov    %r11,0x28(%rsp)
    3337:	48 89 7c 24 18       	mov    %rdi,0x18(%rsp)
    333c:	48 89 4c 24 20       	mov    %rcx,0x20(%rsp)
    3341:	e8 1a 09 00 00       	call   3c60 <keymatch>
/home/tenebris/Disk/Racing-code/examples/23-libjpeg-divide-by-zero/libjpeg-turbo-2.0.90/cjpeg.c:309
    } else if (keymatch(arg, "grayscale", 2) ||
    3346:	48 8b 7c 24 18       	mov    0x18(%rsp),%rdi
    334b:	4c 8b 5c 24 28       	mov    0x28(%rsp),%r11
    3350:	85 c0                	test   %eax,%eax
    3352:	44 8b 54 24 30       	mov    0x30(%rsp),%r10d
    3357:	0f 84 03 01 00 00    	je     3460 <parse_switches.constprop.0+0x550>
/home/tenebris/Disk/Racing-code/examples/23-libjpeg-divide-by-zero/libjpeg-turbo-2.0.90/cjpeg.c:312
      jpeg_set_colorspace(cinfo, JCS_GRAYSCALE);
    335d:	be 01 00 00 00       	mov    $0x1,%esi
    3362:	48 89 ef             	mov    %rbp,%rdi
    3365:	44 89 54 24 20       	mov    %r10d,0x20(%rsp)
    336a:	4c 89 5c 24 18       	mov    %r11,0x18(%rsp)
    336f:	e8 ec f0 ff ff       	call   2460 <jpeg_set_colorspace@plt>
    3374:	4c 8b 5c 24 18       	mov    0x18(%rsp),%r11
    3379:	44 8b 54 24 20       	mov    0x20(%rsp),%r10d
    337e:	e9 56 fd ff ff       	jmp    30d9 <parse_switches.constprop.0+0x1c9>
fprintf():
/usr/include/x86_64-linux-gnu/bits/stdio2.h:105
    3383:	48 8b 3d b6 bc 00 00 	mov    0xbcb6(%rip),%rdi        # f040 <stderr@GLIBC_2.2.5>
    338a:	4c 8d 0d 0b 7d 00 00 	lea    0x7d0b(%rip),%r9        # b09c <_IO_stdin_used+0x9c>
    3391:	31 c0                	xor    %eax,%eax
    3393:	4c 8d 05 0b 7d 00 00 	lea    0x7d0b(%rip),%r8        # b0a5 <_IO_stdin_used+0xa5>
    339a:	48 8d 0d 0b 7d 00 00 	lea    0x7d0b(%rip),%rcx        # b0ac <_IO_stdin_used+0xac>
    33a1:	be 01 00 00 00       	mov    $0x1,%esi
    33a6:	44 89 54 24 20       	mov    %r10d,0x20(%rsp)
    33ab:	48 8d 15 08 7d 00 00 	lea    0x7d08(%rip),%rdx        # b0ba <_IO_stdin_used+0xba>
    33b2:	4c 89 5c 24 18       	mov    %r11,0x18(%rsp)
    33b7:	e8 94 f0 ff ff       	call   2450 <__fprintf_chk@plt>
    33bc:	48 8b 3d 7d bc 00 00 	mov    0xbc7d(%rip),%rdi        # f040 <stderr@GLIBC_2.2.5>
    33c3:	be 01 00 00 00       	mov    $0x1,%esi
    33c8:	31 c0                	xor    %eax,%eax
    33ca:	48 8d 0d c7 85 00 00 	lea    0x85c7(%rip),%rcx        # b998 <_IO_stdin_used+0x998>
    33d1:	48 8d 15 fc 7c 00 00 	lea    0x7cfc(%rip),%rdx        # b0d4 <_IO_stdin_used+0xd4>
    33d8:	e8 73 f0 ff ff       	call   2450 <__fprintf_chk@plt>
    33dd:	48 8b 3d 5c bc 00 00 	mov    0xbc5c(%rip),%rdi        # f040 <stderr@GLIBC_2.2.5>
    33e4:	be 01 00 00 00       	mov    $0x1,%esi
    33e9:	31 c0                	xor    %eax,%eax
    33eb:	48 8d 0d e7 7c 00 00 	lea    0x7ce7(%rip),%rcx        # b0d9 <_IO_stdin_used+0xd9>
    33f2:	48 8d 15 c7 87 00 00 	lea    0x87c7(%rip),%rdx        # bbc0 <_IO_stdin_used+0xbc0>
    33f9:	e8 52 f0 ff ff       	call   2450 <__fprintf_chk@plt>
parse_switches():
/home/tenebris/Disk/Racing-code/examples/23-libjpeg-divide-by-zero/libjpeg-turbo-2.0.90/cjpeg.c:300
        printed_version = TRUE;
    33fe:	44 8b 54 24 20       	mov    0x20(%rsp),%r10d
    3403:	4c 8b 5c 24 18       	mov    0x18(%rsp),%r11
    3408:	c7 05 46 bc 00 00 01 	movl   $0x1,0xbc46(%rip)        # f058 <printed_version.0>
    340f:	00 00 00 
    3412:	e9 fa fd ff ff       	jmp    3211 <parse_switches.constprop.0+0x301>
/home/tenebris/Disk/Racing-code/examples/23-libjpeg-divide-by-zero/libjpeg-turbo-2.0.90/cjpeg.c:284
      } else if (keymatch(argv[argn], "float", 2)) {
    3417:	48 8b 44 24 28       	mov    0x28(%rsp),%rax
    341c:	ba 02 00 00 00       	mov    $0x2,%edx
    3421:	44 89 54 24 20       	mov    %r10d,0x20(%rsp)
    3426:	48 8d 35 5b 7c 00 00 	lea    0x7c5b(%rip),%rsi        # b088 <_IO_stdin_used+0x88>
    342d:	4c 89 5c 24 18       	mov    %r11,0x18(%rsp)
    3432:	48 8b 38             	mov    (%rax),%rdi
    3435:	e8 26 08 00 00       	call   3c60 <keymatch>
    343a:	85 c0                	test   %eax,%eax
    343c:	0f 84 f8 fc ff ff    	je     313a <parse_switches.constprop.0+0x22a>
/home/tenebris/Disk/Racing-code/examples/23-libjpeg-divide-by-zero/libjpeg-turbo-2.0.90/cjpeg.c:285
        cinfo->dct_method = JDCT_FLOAT;
    3442:	c7 85 14 01 00 00 02 	movl   $0x2,0x114(%rbp)
    3449:	00 00 00 
    344c:	4c 8b 5c 24 18       	mov    0x18(%rsp),%r11
    3451:	44 8b 54 24 20       	mov    0x20(%rsp),%r10d
    3456:	e9 7e fc ff ff       	jmp    30d9 <parse_switches.constprop.0+0x1c9>
/home/tenebris/Disk/Racing-code/examples/23-libjpeg-divide-by-zero/libjpeg-turbo-2.0.90/cjpeg.c:498
}
    345b:	e8 60 ee ff ff       	call   22c0 <__stack_chk_fail@plt>
/home/tenebris/Disk/Racing-code/examples/23-libjpeg-divide-by-zero/libjpeg-turbo-2.0.90/cjpeg.c:314
    } else if (keymatch(arg, "rgb", 3)) {
    3460:	ba 03 00 00 00       	mov    $0x3,%edx
    3465:	48 8d 35 99 7c 00 00 	lea    0x7c99(%rip),%rsi        # b105 <_IO_stdin_used+0x105>
    346c:	e8 ef 07 00 00       	call   3c60 <keymatch>
    3471:	48 8b 7c 24 18       	mov    0x18(%rsp),%rdi
    3476:	48 8b 4c 24 20       	mov    0x20(%rsp),%rcx
    347b:	85 c0                	test   %eax,%eax
    347d:	4c 8b 5c 24 28       	mov    0x28(%rsp),%r11
    3482:	44 8b 54 24 30       	mov    0x30(%rsp),%r10d
    3487:	74 26                	je     34af <parse_switches.constprop.0+0x59f>
/home/tenebris/Disk/Racing-code/examples/23-libjpeg-divide-by-zero/libjpeg-turbo-2.0.90/cjpeg.c:316
      jpeg_set_colorspace(cinfo, JCS_RGB);
    3489:	be 02 00 00 00       	mov    $0x2,%esi
    348e:	48 89 ef             	mov    %rbp,%rdi
    3491:	44 89 54 24 20       	mov    %r10d,0x20(%rsp)
    3496:	4c 89 5c 24 18       	mov    %r11,0x18(%rsp)
    349b:	e8 c0 ef ff ff       	call   2460 <jpeg_set_colorspace@plt>
    34a0:	4c 8b 5c 24 18       	mov    0x18(%rsp),%r11
    34a5:	44 8b 54 24 20       	mov    0x20(%rsp),%r10d
    34aa:	e9 2a fc ff ff       	jmp    30d9 <parse_switches.constprop.0+0x1c9>
/home/tenebris/Disk/Racing-code/examples/23-libjpeg-divide-by-zero/libjpeg-turbo-2.0.90/cjpeg.c:318
    } else if (keymatch(arg, "icc", 1)) {
    34af:	ba 01 00 00 00       	mov    $0x1,%edx
    34b4:	48 8d 35 4e 7c 00 00 	lea    0x7c4e(%rip),%rsi        # b109 <_IO_stdin_used+0x109>
    34bb:	44 89 54 24 30       	mov    %r10d,0x30(%rsp)
    34c0:	4c 89 5c 24 28       	mov    %r11,0x28(%rsp)
    34c5:	48 89 4c 24 20       	mov    %rcx,0x20(%rsp)
    34ca:	48 89 7c 24 18       	mov    %rdi,0x18(%rsp)
    34cf:	e8 8c 07 00 00       	call   3c60 <keymatch>
    34d4:	48 8b 7c 24 18       	mov    0x18(%rsp),%rdi
    34d9:	48 8b 4c 24 20       	mov    0x20(%rsp),%rcx
    34de:	85 c0                	test   %eax,%eax
    34e0:	4c 8b 5c 24 28       	mov    0x28(%rsp),%r11
    34e5:	44 8b 54 24 30       	mov    0x30(%rsp),%r10d
    34ea:	74 54                	je     3540 <parse_switches.constprop.0+0x630>
/home/tenebris/Disk/Racing-code/examples/23-libjpeg-divide-by-zero/libjpeg-turbo-2.0.90/cjpeg.c:320
      if (++argn >= argc)       /* advance to next argument */
    34ec:	41 83 c4 01          	add    $0x1,%r12d
    34f0:	45 39 e5             	cmp    %r12d,%r13d
    34f3:	0f 8e 41 fc ff ff    	jle    313a <parse_switches.constprop.0+0x22a>
/home/tenebris/Disk/Racing-code/examples/23-libjpeg-divide-by-zero/libjpeg-turbo-2.0.90/cjpeg.c:322
      icc_filename = argv[argn];
    34f9:	48 8b 44 0b 08       	mov    0x8(%rbx,%rcx,1),%rax
    34fe:	48 89 05 63 bb 00 00 	mov    %rax,0xbb63(%rip)        # f068 <icc_filename>
    3505:	e9 cf fb ff ff       	jmp    30d9 <parse_switches.constprop.0+0x1c9>
fprintf():
/usr/include/x86_64-linux-gnu/bits/stdio2.h:105
    350a:	48 8b 3d 2f bb 00 00 	mov    0xbb2f(%rip),%rdi        # f040 <stderr@GLIBC_2.2.5>
    3511:	4c 8d 0d 84 7b 00 00 	lea    0x7b84(%rip),%r9        # b09c <_IO_stdin_used+0x9c>
    3518:	31 c0                	xor    %eax,%eax
    351a:	4c 8d 05 84 7b 00 00 	lea    0x7b84(%rip),%r8        # b0a5 <_IO_stdin_used+0xa5>
    3521:	48 8d 0d 84 7b 00 00 	lea    0x7b84(%rip),%rcx        # b0ac <_IO_stdin_used+0xac>
    3528:	48 8d 15 8b 7b 00 00 	lea    0x7b8b(%rip),%rdx        # b0ba <_IO_stdin_used+0xba>
    352f:	be 01 00 00 00       	mov    $0x1,%esi
    3534:	e8 17 ef ff ff       	call   2450 <__fprintf_chk@plt>
parse_switches():
/home/tenebris/Disk/Racing-code/examples/23-libjpeg-divide-by-zero/libjpeg-turbo-2.0.90/cjpeg.c:307
      exit(EXIT_SUCCESS);
    3539:	31 ff                	xor    %edi,%edi
    353b:	e8 f0 ee ff ff       	call   2430 <exit@plt>
/home/tenebris/Disk/Racing-code/examples/23-libjpeg-divide-by-zero/libjpeg-turbo-2.0.90/cjpeg.c:324
    } else if (keymatch(arg, "maxmemory", 3)) {
    3540:	ba 03 00 00 00       	mov    $0x3,%edx
    3545:	48 8d 35 c1 7b 00 00 	lea    0x7bc1(%rip),%rsi        # b10d <_IO_stdin_used+0x10d>
    354c:	44 89 54 24 30       	mov    %r10d,0x30(%rsp)
    3551:	4c 89 5c 24 28       	mov    %r11,0x28(%rsp)
    3556:	48 89 4c 24 20       	mov    %rcx,0x20(%rsp)
    355b:	48 89 7c 24 18       	mov    %rdi,0x18(%rsp)
    3560:	e8 fb 06 00 00       	call   3c60 <keymatch>
    3565:	48 8b 7c 24 18       	mov    0x18(%rsp),%rdi
    356a:	48 8b 4c 24 20       	mov    0x20(%rsp),%rcx
    356f:	85 c0                	test   %eax,%eax
    3571:	4c 8b 5c 24 28       	mov    0x28(%rsp),%r11
    3576:	44 8b 54 24 30       	mov    0x30(%rsp),%r10d
    357b:	74 73                	je     35f0 <parse_switches.constprop.0+0x6e0>
/home/tenebris/Disk/Racing-code/examples/23-libjpeg-divide-by-zero/libjpeg-turbo-2.0.90/cjpeg.c:329
      if (++argn >= argc)       /* advance to next argument */
    357d:	41 83 c4 01          	add    $0x1,%r12d
    3581:	44 89 54 24 20       	mov    %r10d,0x20(%rsp)
    3586:	4c 89 5c 24 18       	mov    %r11,0x18(%rsp)
/home/tenebris/Disk/Racing-code/examples/23-libjpeg-divide-by-zero/libjpeg-turbo-2.0.90/cjpeg.c:327
      char ch = 'x';
    358b:	c6 44 24 42 78       	movb   $0x78,0x42(%rsp)
/home/tenebris/Disk/Racing-code/examples/23-libjpeg-divide-by-zero/libjpeg-turbo-2.0.90/cjpeg.c:329
      if (++argn >= argc)       /* advance to next argument */
    3590:	45 39 e5             	cmp    %r12d,%r13d
    3593:	0f 8e a1 fb ff ff    	jle    313a <parse_switches.constprop.0+0x22a>
/home/tenebris/Disk/Racing-code/examples/23-libjpeg-divide-by-zero/libjpeg-turbo-2.0.90/cjpeg.c:331
      if (sscanf(argv[argn], "%ld%c", &lval, &ch) < 1)
    3599:	48 8b 7c 0b 08       	mov    0x8(%rbx,%rcx,1),%rdi
    359e:	4c 8d 44 24 42       	lea    0x42(%rsp),%r8
    35a3:	31 c0                	xor    %eax,%eax
    35a5:	48 8d 54 24 48       	lea    0x48(%rsp),%rdx
    35aa:	4c 89 c1             	mov    %r8,%rcx
    35ad:	48 8d 35 63 7b 00 00 	lea    0x7b63(%rip),%rsi        # b117 <_IO_stdin_used+0x117>
    35b4:	e8 b7 ed ff ff       	call   2370 <__isoc99_sscanf@plt>
    35b9:	85 c0                	test   %eax,%eax
    35bb:	0f 8e 79 fb ff ff    	jle    313a <parse_switches.constprop.0+0x22a>
/home/tenebris/Disk/Racing-code/examples/23-libjpeg-divide-by-zero/libjpeg-turbo-2.0.90/cjpeg.c:333
      if (ch == 'm' || ch == 'M')
    35c1:	0f b6 44 24 42       	movzbl 0x42(%rsp),%eax
    35c6:	4c 8b 5c 24 18       	mov    0x18(%rsp),%r11
    35cb:	44 8b 54 24 20       	mov    0x20(%rsp),%r10d
    35d0:	83 e0 df             	and    $0xffffffdf,%eax
    35d3:	3c 4d                	cmp    $0x4d,%al
    35d5:	74 65                	je     363c <parse_switches.constprop.0+0x72c>
    35d7:	48 8b 44 24 48       	mov    0x48(%rsp),%rax
/home/tenebris/Disk/Racing-code/examples/23-libjpeg-divide-by-zero/libjpeg-turbo-2.0.90/cjpeg.c:335
      cinfo->mem->max_memory_to_use = lval * 1000L;
    35dc:	48 69 c0 e8 03 00 00 	imul   $0x3e8,%rax,%rax
    35e3:	48 8b 55 08          	mov    0x8(%rbp),%rdx
    35e7:	48 89 42 58          	mov    %rax,0x58(%rdx)
    35eb:	e9 e9 fa ff ff       	jmp    30d9 <parse_switches.constprop.0+0x1c9>
/home/tenebris/Disk/Racing-code/examples/23-libjpeg-divide-by-zero/libjpeg-turbo-2.0.90/cjpeg.c:337
    } else if (keymatch(arg, "optimize", 1) || keymatch(arg, "optimise", 1)) {
    35f0:	ba 01 00 00 00       	mov    $0x1,%edx
    35f5:	48 8d 35 21 7b 00 00 	lea    0x7b21(%rip),%rsi        # b11d <_IO_stdin_used+0x11d>
    35fc:	44 89 54 24 30       	mov    %r10d,0x30(%rsp)
    3601:	4c 89 5c 24 28       	mov    %r11,0x28(%rsp)
    3606:	48 89 4c 24 20       	mov    %rcx,0x20(%rsp)
    360b:	48 89 7c 24 18       	mov    %rdi,0x18(%rsp)
    3610:	e8 4b 06 00 00       	call   3c60 <keymatch>
    3615:	48 8b 7c 24 18       	mov    0x18(%rsp),%rdi
    361a:	48 8b 4c 24 20       	mov    0x20(%rsp),%rcx
    361f:	85 c0                	test   %eax,%eax
    3621:	4c 8b 5c 24 28       	mov    0x28(%rsp),%r11
    3626:	44 8b 54 24 30       	mov    0x30(%rsp),%r10d
    362b:	74 1f                	je     364c <parse_switches.constprop.0+0x73c>
/home/tenebris/Disk/Racing-code/examples/23-libjpeg-divide-by-zero/libjpeg-turbo-2.0.90/cjpeg.c:340
      cinfo->optimize_coding = TRUE;
    362d:	c7 85 08 01 00 00 01 	movl   $0x1,0x108(%rbp)
    3634:	00 00 00 
    3637:	e9 9d fa ff ff       	jmp    30d9 <parse_switches.constprop.0+0x1c9>
/home/tenebris/Disk/Racing-code/examples/23-libjpeg-divide-by-zero/libjpeg-turbo-2.0.90/cjpeg.c:334
        lval *= 1000L;
    363c:	48 69 44 24 48 e8 03 	imul   $0x3e8,0x48(%rsp),%rax
    3643:	00 00 
    3645:	48 89 44 24 48       	mov    %rax,0x48(%rsp)
    364a:	eb 90                	jmp    35dc <parse_switches.constprop.0+0x6cc>
/home/tenebris/Disk/Racing-code/examples/23-libjpeg-divide-by-zero/libjpeg-turbo-2.0.90/cjpeg.c:337
    } else if (keymatch(arg, "optimize", 1) || keymatch(arg, "optimise", 1)) {
    364c:	ba 01 00 00 00       	mov    $0x1,%edx
    3651:	48 8d 35 ce 7a 00 00 	lea    0x7ace(%rip),%rsi        # b126 <_IO_stdin_used+0x126>
    3658:	44 89 54 24 30       	mov    %r10d,0x30(%rsp)
    365d:	4c 89 5c 24 28       	mov    %r11,0x28(%rsp)
    3662:	48 89 7c 24 18       	mov    %rdi,0x18(%rsp)
    3667:	48 89 4c 24 20       	mov    %rcx,0x20(%rsp)
    366c:	e8 ef 05 00 00       	call   3c60 <keymatch>
    3671:	48 8b 7c 24 18       	mov    0x18(%rsp),%rdi
    3676:	4c 8b 5c 24 28       	mov    0x28(%rsp),%r11
    367b:	85 c0                	test   %eax,%eax
    367d:	44 8b 54 24 30       	mov    0x30(%rsp),%r10d
    3682:	75 a9                	jne    362d <parse_switches.constprop.0+0x71d>
/home/tenebris/Disk/Racing-code/examples/23-libjpeg-divide-by-zero/libjpeg-turbo-2.0.90/cjpeg.c:347
    } else if (keymatch(arg, "outfile", 4)) {
    3684:	ba 04 00 00 00       	mov    $0x4,%edx
    3689:	48 8d 35 9f 7a 00 00 	lea    0x7a9f(%rip),%rsi        # b12f <_IO_stdin_used+0x12f>
    3690:	e8 cb 05 00 00       	call   3c60 <keymatch>
    3695:	48 8b 7c 24 18       	mov    0x18(%rsp),%rdi
    369a:	48 8b 4c 24 20       	mov    0x20(%rsp),%rcx
    369f:	85 c0                	test   %eax,%eax
    36a1:	4c 8b 5c 24 28       	mov    0x28(%rsp),%r11
    36a6:	44 8b 54 24 30       	mov    0x30(%rsp),%r10d
    36ab:	74 1e                	je     36cb <parse_switches.constprop.0+0x7bb>
/home/tenebris/Disk/Racing-code/examples/23-libjpeg-divide-by-zero/libjpeg-turbo-2.0.90/cjpeg.c:349
      if (++argn >= argc)       /* advance to next argument */
    36ad:	41 83 c4 01          	add    $0x1,%r12d
    36b1:	45 39 e5             	cmp    %r12d,%r13d
    36b4:	0f 8e 80 fa ff ff    	jle    313a <parse_switches.constprop.0+0x22a>
/home/tenebris/Disk/Racing-code/examples/23-libjpeg-divide-by-zero/libjpeg-turbo-2.0.90/cjpeg.c:351
      outfilename = argv[argn]; /* save it away for later use */
    36ba:	48 8b 44 0b 08       	mov    0x8(%rbx,%rcx,1),%rax
    36bf:	48 89 05 9a b9 00 00 	mov    %rax,0xb99a(%rip)        # f060 <outfilename>
    36c6:	e9 0e fa ff ff       	jmp    30d9 <parse_switches.constprop.0+0x1c9>
/home/tenebris/Disk/Racing-code/examples/23-libjpeg-divide-by-zero/libjpeg-turbo-2.0.90/cjpeg.c:353
    } else if (keymatch(arg, "progressive", 1)) {
    36cb:	ba 01 00 00 00       	mov    $0x1,%edx
    36d0:	48 8d 35 60 7a 00 00 	lea    0x7a60(%rip),%rsi        # b137 <_IO_stdin_used+0x137>
    36d7:	44 89 54 24 30       	mov    %r10d,0x30(%rsp)
    36dc:	4c 89 5c 24 28       	mov    %r11,0x28(%rsp)
    36e1:	48 89 7c 24 18       	mov    %rdi,0x18(%rsp)
    36e6:	48 89 4c 24 20       	mov    %rcx,0x20(%rsp)
    36eb:	e8 70 05 00 00       	call   3c60 <keymatch>
    36f0:	48 8b 7c 24 18       	mov    0x18(%rsp),%rdi
    36f5:	4c 8b 5c 24 28       	mov    0x28(%rsp),%r11
    36fa:	85 c0                	test   %eax,%eax
    36fc:	44 8b 54 24 30       	mov    0x30(%rsp),%r10d
    3701:	74 0d                	je     3710 <parse_switches.constprop.0+0x800>
/home/tenebris/Disk/Racing-code/examples/23-libjpeg-divide-by-zero/libjpeg-turbo-2.0.90/cjpeg.c:356
      simple_progressive = TRUE;
    3703:	c7 44 24 38 01 00 00 	movl   $0x1,0x38(%rsp)
    370a:	00 
    370b:	e9 c9 f9 ff ff       	jmp    30d9 <parse_switches.constprop.0+0x1c9>
/home/tenebris/Disk/Racing-code/examples/23-libjpeg-divide-by-zero/libjpeg-turbo-2.0.90/cjpeg.c:364
    } else if (keymatch(arg, "memdst", 2)) {
    3710:	ba 02 00 00 00       	mov    $0x2,%edx
    3715:	48 8d 35 27 7a 00 00 	lea    0x7a27(%rip),%rsi        # b143 <_IO_stdin_used+0x143>
    371c:	e8 3f 05 00 00       	call   3c60 <keymatch>
    3721:	48 8b 7c 24 18       	mov    0x18(%rsp),%rdi
    3726:	48 8b 4c 24 20       	mov    0x20(%rsp),%rcx
    372b:	85 c0                	test   %eax,%eax
    372d:	4c 8b 5c 24 28       	mov    0x28(%rsp),%r11
    3732:	44 8b 54 24 30       	mov    0x30(%rsp),%r10d
    3737:	74 0f                	je     3748 <parse_switches.constprop.0+0x838>
/home/tenebris/Disk/Racing-code/examples/23-libjpeg-divide-by-zero/libjpeg-turbo-2.0.90/cjpeg.c:367
      memdst = TRUE;
    3739:	c7 05 11 b9 00 00 01 	movl   $0x1,0xb911(%rip)        # f054 <memdst>
    3740:	00 00 00 
    3743:	e9 91 f9 ff ff       	jmp    30d9 <parse_switches.constprop.0+0x1c9>
/home/tenebris/Disk/Racing-code/examples/23-libjpeg-divide-by-zero/libjpeg-turbo-2.0.90/cjpeg.c:374
    } else if (keymatch(arg, "quality", 1)) {
    3748:	ba 01 00 00 00       	mov    $0x1,%edx
    374d:	48 8d 35 f6 79 00 00 	lea    0x79f6(%rip),%rsi        # b14a <_IO_stdin_used+0x14a>
    3754:	44 89 54 24 30       	mov    %r10d,0x30(%rsp)
    3759:	4c 89 5c 24 28       	mov    %r11,0x28(%rsp)
    375e:	48 89 4c 24 20       	mov    %rcx,0x20(%rsp)
    3763:	48 89 7c 24 18       	mov    %rdi,0x18(%rsp)
    3768:	e8 f3 04 00 00       	call   3c60 <keymatch>
    376d:	48 8b 7c 24 18       	mov    0x18(%rsp),%rdi
    3772:	48 8b 4c 24 20       	mov    0x20(%rsp),%rcx
    3777:	85 c0                	test   %eax,%eax
    3779:	4c 8b 5c 24 28       	mov    0x28(%rsp),%r11
    377e:	44 8b 54 24 30       	mov    0x30(%rsp),%r10d
    3783:	74 17                	je     379c <parse_switches.constprop.0+0x88c>
/home/tenebris/Disk/Racing-code/examples/23-libjpeg-divide-by-zero/libjpeg-turbo-2.0.90/cjpeg.c:376
      if (++argn >= argc)       /* advance to next argument */
    3785:	41 83 c4 01          	add    $0x1,%r12d
    3789:	45 39 e5             	cmp    %r12d,%r13d
    378c:	0f 8e a8 f9 ff ff    	jle    313a <parse_switches.constprop.0+0x22a>
/home/tenebris/Disk/Racing-code/examples/23-libjpeg-divide-by-zero/libjpeg-turbo-2.0.90/cjpeg.c:378
      qualityarg = argv[argn];
    3792:	4c 8b 5c 0b 08       	mov    0x8(%rbx,%rcx,1),%r11
    3797:	e9 3d f9 ff ff       	jmp    30d9 <parse_switches.constprop.0+0x1c9>
/home/tenebris/Disk/Racing-code/examples/23-libjpeg-divide-by-zero/libjpeg-turbo-2.0.90/cjpeg.c:380
    } else if (keymatch(arg, "qslots", 2)) {
    379c:	ba 02 00 00 00       	mov    $0x2,%edx
    37a1:	48 8d 35 aa 79 00 00 	lea    0x79aa(%rip),%rsi        # b152 <_IO_stdin_used+0x152>
    37a8:	44 89 54 24 30       	mov    %r10d,0x30(%rsp)
    37ad:	4c 89 5c 24 28       	mov    %r11,0x28(%rsp)
    37b2:	48 89 4c 24 20       	mov    %rcx,0x20(%rsp)
    37b7:	48 89 7c 24 18       	mov    %rdi,0x18(%rsp)
    37bc:	e8 9f 04 00 00       	call   3c60 <keymatch>
    37c1:	48 8b 7c 24 18       	mov    0x18(%rsp),%rdi
    37c6:	48 8b 4c 24 20       	mov    0x20(%rsp),%rcx
    37cb:	85 c0                	test   %eax,%eax
    37cd:	4c 8b 5c 24 28       	mov    0x28(%rsp),%r11
    37d2:	44 8b 54 24 30       	mov    0x30(%rsp),%r10d
    37d7:	74 1c                	je     37f5 <parse_switches.constprop.0+0x8e5>
/home/tenebris/Disk/Racing-code/examples/23-libjpeg-divide-by-zero/libjpeg-turbo-2.0.90/cjpeg.c:382
      if (++argn >= argc)       /* advance to next argument */
    37d9:	41 83 c4 01          	add    $0x1,%r12d
    37dd:	45 39 e5             	cmp    %r12d,%r13d
    37e0:	0f 8e 54 f9 ff ff    	jle    313a <parse_switches.constprop.0+0x22a>
/home/tenebris/Disk/Racing-code/examples/23-libjpeg-divide-by-zero/libjpeg-turbo-2.0.90/cjpeg.c:384
      qslotsarg = argv[argn];
    37e6:	48 8b 44 0b 08       	mov    0x8(%rbx,%rcx,1),%rax
    37eb:	48 89 44 24 08       	mov    %rax,0x8(%rsp)
    37f0:	e9 e4 f8 ff ff       	jmp    30d9 <parse_switches.constprop.0+0x1c9>
/home/tenebris/Disk/Racing-code/examples/23-libjpeg-divide-by-zero/libjpeg-turbo-2.0.90/cjpeg.c:390
    } else if (keymatch(arg, "qtables", 2)) {
    37f5:	ba 02 00 00 00       	mov    $0x2,%edx
    37fa:	48 8d 35 58 79 00 00 	lea    0x7958(%rip),%rsi        # b159 <_IO_stdin_used+0x159>
    3801:	44 89 54 24 30       	mov    %r10d,0x30(%rsp)
    3806:	4c 89 5c 24 28       	mov    %r11,0x28(%rsp)
    380b:	48 89 4c 24 20       	mov    %rcx,0x20(%rsp)
    3810:	48 89 7c 24 18       	mov    %rdi,0x18(%rsp)
    3815:	e8 46 04 00 00       	call   3c60 <keymatch>
    381a:	48 8b 7c 24 18       	mov    0x18(%rsp),%rdi
    381f:	48 8b 4c 24 20       	mov    0x20(%rsp),%rcx
    3824:	85 c0                	test   %eax,%eax
    3826:	4c 8b 5c 24 28       	mov    0x28(%rsp),%r11
    382b:	44 8b 54 24 30       	mov    0x30(%rsp),%r10d
    3830:	74 1c                	je     384e <parse_switches.constprop.0+0x93e>
/home/tenebris/Disk/Racing-code/examples/23-libjpeg-divide-by-zero/libjpeg-turbo-2.0.90/cjpeg.c:392
      if (++argn >= argc)       /* advance to next argument */
    3832:	41 83 c4 01          	add    $0x1,%r12d
    3836:	45 39 e5             	cmp    %r12d,%r13d
    3839:	0f 8e fb f8 ff ff    	jle    313a <parse_switches.constprop.0+0x22a>
/home/tenebris/Disk/Racing-code/examples/23-libjpeg-divide-by-zero/libjpeg-turbo-2.0.90/cjpeg.c:394
      qtablefile = argv[argn];
    383f:	48 8b 44 0b 08       	mov    0x8(%rbx,%rcx,1),%rax
    3844:	48 89 44 24 10       	mov    %rax,0x10(%rsp)
    3849:	e9 8b f8 ff ff       	jmp    30d9 <parse_switches.constprop.0+0x1c9>
/home/tenebris/Disk/Racing-code/examples/23-libjpeg-divide-by-zero/libjpeg-turbo-2.0.90/cjpeg.c:397
    } else if (keymatch(arg, "report", 3)) {
    384e:	ba 03 00 00 00       	mov    $0x3,%edx
    3853:	48 8d 35 07 79 00 00 	lea    0x7907(%rip),%rsi        # b161 <_IO_stdin_used+0x161>
    385a:	44 89 54 24 30       	mov    %r10d,0x30(%rsp)
    385f:	4c 89 5c 24 28       	mov    %r11,0x28(%rsp)
    3864:	48 89 4c 24 20       	mov    %rcx,0x20(%rsp)
    3869:	48 89 7c 24 18       	mov    %rdi,0x18(%rsp)
    386e:	e8 ed 03 00 00       	call   3c60 <keymatch>
    3873:	48 8b 7c 24 18       	mov    0x18(%rsp),%rdi
    3878:	48 8b 4c 24 20       	mov    0x20(%rsp),%rcx
    387d:	85 c0                	test   %eax,%eax
    387f:	4c 8b 5c 24 28       	mov    0x28(%rsp),%r11
    3884:	44 8b 54 24 30       	mov    0x30(%rsp),%r10d
    3889:	74 0f                	je     389a <parse_switches.constprop.0+0x98a>
/home/tenebris/Disk/Racing-code/examples/23-libjpeg-divide-by-zero/libjpeg-turbo-2.0.90/cjpeg.c:398
      report = TRUE;
    388b:	c7 05 bb b7 00 00 01 	movl   $0x1,0xb7bb(%rip)        # f050 <report>
    3892:	00 00 00 
    3895:	e9 3f f8 ff ff       	jmp    30d9 <parse_switches.constprop.0+0x1c9>
/home/tenebris/Disk/Racing-code/examples/23-libjpeg-divide-by-zero/libjpeg-turbo-2.0.90/cjpeg.c:400
    } else if (keymatch(arg, "restart", 1)) {
    389a:	ba 01 00 00 00       	mov    $0x1,%edx
    389f:	48 8d 35 c2 78 00 00 	lea    0x78c2(%rip),%rsi        # b168 <_IO_stdin_used+0x168>
    38a6:	44 89 54 24 3c       	mov    %r10d,0x3c(%rsp)
    38ab:	4c 89 5c 24 30       	mov    %r11,0x30(%rsp)
    38b0:	48 89 4c 24 20       	mov    %rcx,0x20(%rsp)
    38b5:	48 89 7c 24 18       	mov    %rdi,0x18(%rsp)
    38ba:	89 44 24 28          	mov    %eax,0x28(%rsp)
    38be:	e8 9d 03 00 00       	call   3c60 <keymatch>
    38c3:	48 8b 7c 24 18       	mov    0x18(%rsp),%rdi
    38c8:	48 8b 4c 24 20       	mov    0x20(%rsp),%rcx
    38cd:	85 c0                	test   %eax,%eax
    38cf:	4c 8b 5c 24 30       	mov    0x30(%rsp),%r11
    38d4:	44 8b 54 24 3c       	mov    0x3c(%rsp),%r10d
    38d9:	0f 84 86 00 00 00    	je     3965 <parse_switches.constprop.0+0xa55>
/home/tenebris/Disk/Racing-code/examples/23-libjpeg-divide-by-zero/libjpeg-turbo-2.0.90/cjpeg.c:405
      if (++argn >= argc)       /* advance to next argument */
    38df:	41 83 c4 01          	add    $0x1,%r12d
    38e3:	44 89 54 24 20       	mov    %r10d,0x20(%rsp)
    38e8:	4c 89 5c 24 18       	mov    %r11,0x18(%rsp)
/home/tenebris/Disk/Racing-code/examples/23-libjpeg-divide-by-zero/libjpeg-turbo-2.0.90/cjpeg.c:403
      char ch = 'x';
    38ed:	c6 44 24 43 78       	movb   $0x78,0x43(%rsp)
/home/tenebris/Disk/Racing-code/examples/23-libjpeg-divide-by-zero/libjpeg-turbo-2.0.90/cjpeg.c:405
      if (++argn >= argc)       /* advance to next argument */
    38f2:	45 39 e5             	cmp    %r12d,%r13d
    38f5:	0f 8e 3f f8 ff ff    	jle    313a <parse_switches.constprop.0+0x22a>
/home/tenebris/Disk/Racing-code/examples/23-libjpeg-divide-by-zero/libjpeg-turbo-2.0.90/cjpeg.c:407
      if (sscanf(argv[argn], "%ld%c", &lval, &ch) < 1)
    38fb:	48 8b 7c 0b 08       	mov    0x8(%rbx,%rcx,1),%rdi
    3900:	4c 8d 4c 24 43       	lea    0x43(%rsp),%r9
    3905:	31 c0                	xor    %eax,%eax
    3907:	48 8d 54 24 50       	lea    0x50(%rsp),%rdx
    390c:	4c 89 c9             	mov    %r9,%rcx
    390f:	48 8d 35 01 78 00 00 	lea    0x7801(%rip),%rsi        # b117 <_IO_stdin_used+0x117>
    3916:	e8 55 ea ff ff       	call   2370 <__isoc99_sscanf@plt>
    391b:	85 c0                	test   %eax,%eax
    391d:	0f 8e 17 f8 ff ff    	jle    313a <parse_switches.constprop.0+0x22a>
/home/tenebris/Disk/Racing-code/examples/23-libjpeg-divide-by-zero/libjpeg-turbo-2.0.90/cjpeg.c:409
      if (lval < 0 || lval > 65535L)
    3923:	48 8b 44 24 50       	mov    0x50(%rsp),%rax
    3928:	48 3d ff ff 00 00    	cmp    $0xffff,%rax
    392e:	0f 87 06 f8 ff ff    	ja     313a <parse_switches.constprop.0+0x22a>
/home/tenebris/Disk/Racing-code/examples/23-libjpeg-divide-by-zero/libjpeg-turbo-2.0.90/cjpeg.c:411
      if (ch == 'b' || ch == 'B') {
    3934:	0f b6 54 24 43       	movzbl 0x43(%rsp),%edx
    3939:	4c 8b 5c 24 18       	mov    0x18(%rsp),%r11
/home/tenebris/Disk/Racing-code/examples/23-libjpeg-divide-by-zero/libjpeg-turbo-2.0.90/cjpeg.c:415
        cinfo->restart_in_rows = (int)lval;
    393e:	41 89 c0             	mov    %eax,%r8d
/home/tenebris/Disk/Racing-code/examples/23-libjpeg-divide-by-zero/libjpeg-turbo-2.0.90/cjpeg.c:411
      if (ch == 'b' || ch == 'B') {
    3941:	44 8b 54 24 20       	mov    0x20(%rsp),%r10d
    3946:	83 e2 df             	and    $0xffffffdf,%edx
    3949:	80 fa 42             	cmp    $0x42,%dl
    394c:	75 0b                	jne    3959 <parse_switches.constprop.0+0xa49>
/home/tenebris/Disk/Racing-code/examples/23-libjpeg-divide-by-zero/libjpeg-turbo-2.0.90/cjpeg.c:412
        cinfo->restart_interval = (unsigned int)lval;
    394e:	89 85 18 01 00 00    	mov    %eax,0x118(%rbp)
/home/tenebris/Disk/Racing-code/examples/23-libjpeg-divide-by-zero/libjpeg-turbo-2.0.90/cjpeg.c:413
        cinfo->restart_in_rows = 0; /* else prior '-restart n' overrides me */
    3954:	44 8b 44 24 28       	mov    0x28(%rsp),%r8d
    3959:	44 89 85 1c 01 00 00 	mov    %r8d,0x11c(%rbp)
    3960:	e9 74 f7 ff ff       	jmp    30d9 <parse_switches.constprop.0+0x1c9>
/home/tenebris/Disk/Racing-code/examples/23-libjpeg-divide-by-zero/libjpeg-turbo-2.0.90/cjpeg.c:419
    } else if (keymatch(arg, "sample", 2)) {
    3965:	ba 02 00 00 00       	mov    $0x2,%edx
    396a:	48 8d 35 ff 77 00 00 	lea    0x77ff(%rip),%rsi        # b170 <_IO_stdin_used+0x170>
    3971:	44 89 54 24 30       	mov    %r10d,0x30(%rsp)
    3976:	4c 89 5c 24 28       	mov    %r11,0x28(%rsp)
    397b:	48 89 4c 24 20       	mov    %rcx,0x20(%rsp)
    3980:	48 89 7c 24 18       	mov    %rdi,0x18(%rsp)
    3985:	e8 d6 02 00 00       	call   3c60 <keymatch>
    398a:	48 8b 7c 24 18       	mov    0x18(%rsp),%rdi
    398f:	48 8b 4c 24 20       	mov    0x20(%rsp),%rcx
    3994:	85 c0                	test   %eax,%eax
    3996:	4c 8b 5c 24 28       	mov    0x28(%rsp),%r11
    399b:	44 8b 54 24 30       	mov    0x30(%rsp),%r10d
    39a0:	74 17                	je     39b9 <parse_switches.constprop.0+0xaa9>
/home/tenebris/Disk/Racing-code/examples/23-libjpeg-divide-by-zero/libjpeg-turbo-2.0.90/cjpeg.c:421
      if (++argn >= argc)       /* advance to next argument */
    39a2:	41 83 c4 01          	add    $0x1,%r12d
    39a6:	45 39 e5             	cmp    %r12d,%r13d
    39a9:	0f 8e 8b f7 ff ff    	jle    313a <parse_switches.constprop.0+0x22a>
/home/tenebris/Disk/Racing-code/examples/23-libjpeg-divide-by-zero/libjpeg-turbo-2.0.90/cjpeg.c:423
      samplearg = argv[argn];
    39af:	4c 8b 74 0b 08       	mov    0x8(%rbx,%rcx,1),%r14
    39b4:	e9 20 f7 ff ff       	jmp    30d9 <parse_switches.constprop.0+0x1c9>
/home/tenebris/Disk/Racing-code/examples/23-libjpeg-divide-by-zero/libjpeg-turbo-2.0.90/cjpeg.c:429
    } else if (keymatch(arg, "scans", 4)) {
    39b9:	ba 04 00 00 00       	mov    $0x4,%edx
    39be:	48 8d 35 b2 77 00 00 	lea    0x77b2(%rip),%rsi        # b177 <_IO_stdin_used+0x177>
    39c5:	44 89 54 24 30       	mov    %r10d,0x30(%rsp)
    39ca:	4c 89 5c 24 28       	mov    %r11,0x28(%rsp)
    39cf:	48 89 4c 24 20       	mov    %rcx,0x20(%rsp)
    39d4:	48 89 7c 24 18       	mov    %rdi,0x18(%rsp)
    39d9:	e8 82 02 00 00       	call   3c60 <keymatch>
    39de:	48 8b 7c 24 18       	mov    0x18(%rsp),%rdi
    39e3:	48 8b 4c 24 20       	mov    0x20(%rsp),%rcx
    39e8:	85 c0                	test   %eax,%eax
    39ea:	4c 8b 5c 24 28       	mov    0x28(%rsp),%r11
    39ef:	44 8b 54 24 30       	mov    0x30(%rsp),%r10d
    39f4:	74 17                	je     3a0d <parse_switches.constprop.0+0xafd>
/home/tenebris/Disk/Racing-code/examples/23-libjpeg-divide-by-zero/libjpeg-turbo-2.0.90/cjpeg.c:432
      if (++argn >= argc)       /* advance to next argument */
    39f6:	41 83 c4 01          	add    $0x1,%r12d
    39fa:	45 39 e5             	cmp    %r12d,%r13d
    39fd:	0f 8e 37 f7 ff ff    	jle    313a <parse_switches.constprop.0+0x22a>
/home/tenebris/Disk/Racing-code/examples/23-libjpeg-divide-by-zero/libjpeg-turbo-2.0.90/cjpeg.c:434
      scansarg = argv[argn];
    3a03:	4c 8b 7c 0b 08       	mov    0x8(%rbx,%rcx,1),%r15
    3a08:	e9 cc f6 ff ff       	jmp    30d9 <parse_switches.constprop.0+0x1c9>
/home/tenebris/Disk/Racing-code/examples/23-libjpeg-divide-by-zero/libjpeg-turbo-2.0.90/cjpeg.c:442
    } else if (keymatch(arg, "smooth", 2)) {
    3a0d:	ba 02 00 00 00       	mov    $0x2,%edx
    3a12:	48 8d 35 64 77 00 00 	lea    0x7764(%rip),%rsi        # b17d <_IO_stdin_used+0x17d>
    3a19:	44 89 54 24 30       	mov    %r10d,0x30(%rsp)
    3a1e:	4c 89 5c 24 20       	mov    %r11,0x20(%rsp)
    3a23:	48 89 7c 24 18       	mov    %rdi,0x18(%rsp)
    3a28:	48 89 4c 24 28       	mov    %rcx,0x28(%rsp)
    3a2d:	e8 2e 02 00 00       	call   3c60 <keymatch>
    3a32:	4c 8b 5c 24 20       	mov    0x20(%rsp),%r11
    3a37:	44 8b 54 24 30       	mov    0x30(%rsp),%r10d
    3a3c:	85 c0                	test   %eax,%eax
    3a3e:	48 8b 7c 24 18       	mov    0x18(%rsp),%rdi
    3a43:	44 89 54 24 20       	mov    %r10d,0x20(%rsp)
    3a48:	4c 89 5c 24 18       	mov    %r11,0x18(%rsp)
    3a4d:	74 55                	je     3aa4 <parse_switches.constprop.0+0xb94>
/home/tenebris/Disk/Racing-code/examples/23-libjpeg-divide-by-zero/libjpeg-turbo-2.0.90/cjpeg.c:446
      if (++argn >= argc)       /* advance to next argument */
    3a4f:	41 83 c4 01          	add    $0x1,%r12d
    3a53:	45 39 e5             	cmp    %r12d,%r13d
    3a56:	0f 8e de f6 ff ff    	jle    313a <parse_switches.constprop.0+0x22a>
/home/tenebris/Disk/Racing-code/examples/23-libjpeg-divide-by-zero/libjpeg-turbo-2.0.90/cjpeg.c:448
      if (sscanf(argv[argn], "%d", &val) != 1)
    3a5c:	48 8b 4c 24 28       	mov    0x28(%rsp),%rcx
    3a61:	31 c0                	xor    %eax,%eax
    3a63:	48 8d 54 24 44       	lea    0x44(%rsp),%rdx
    3a68:	48 8d 35 dd 77 00 00 	lea    0x77dd(%rip),%rsi        # b24c <_IO_stdin_used+0x24c>
    3a6f:	48 8b 7c 0b 08       	mov    0x8(%rbx,%rcx,1),%rdi
    3a74:	e8 f7 e8 ff ff       	call   2370 <__isoc99_sscanf@plt>
    3a79:	83 e8 01             	sub    $0x1,%eax
    3a7c:	0f 85 b8 f6 ff ff    	jne    313a <parse_switches.constprop.0+0x22a>
/home/tenebris/Disk/Racing-code/examples/23-libjpeg-divide-by-zero/libjpeg-turbo-2.0.90/cjpeg.c:450
      if (val < 0 || val > 100)
    3a82:	8b 44 24 44          	mov    0x44(%rsp),%eax
    3a86:	83 f8 64             	cmp    $0x64,%eax
    3a89:	0f 87 ab f6 ff ff    	ja     313a <parse_switches.constprop.0+0x22a>
/home/tenebris/Disk/Racing-code/examples/23-libjpeg-divide-by-zero/libjpeg-turbo-2.0.90/cjpeg.c:452
      cinfo->smoothing_factor = val;
    3a8f:	4c 8b 5c 24 18       	mov    0x18(%rsp),%r11
    3a94:	44 8b 54 24 20       	mov    0x20(%rsp),%r10d
    3a99:	89 85 10 01 00 00    	mov    %eax,0x110(%rbp)
    3a9f:	e9 35 f6 ff ff       	jmp    30d9 <parse_switches.constprop.0+0x1c9>
/home/tenebris/Disk/Racing-code/examples/23-libjpeg-divide-by-zero/libjpeg-turbo-2.0.90/cjpeg.c:454
    } else if (keymatch(arg, "targa", 1)) {
    3aa4:	ba 01 00 00 00       	mov    $0x1,%edx
    3aa9:	48 8d 35 d4 76 00 00 	lea    0x76d4(%rip),%rsi        # b184 <_IO_stdin_used+0x184>
    3ab0:	e8 ab 01 00 00       	call   3c60 <keymatch>
    3ab5:	85 c0                	test   %eax,%eax
    3ab7:	0f 84 7d f6 ff ff    	je     313a <parse_switches.constprop.0+0x22a>
/home/tenebris/Disk/Racing-code/examples/23-libjpeg-divide-by-zero/libjpeg-turbo-2.0.90/cjpeg.c:456
      is_targa = TRUE;
    3abd:	c7 05 b1 b5 00 00 01 	movl   $0x1,0xb5b1(%rip)        # f078 <is_targa>
    3ac4:	00 00 00 
    3ac7:	4c 8b 5c 24 18       	mov    0x18(%rsp),%r11
    3acc:	44 8b 54 24 20       	mov    0x20(%rsp),%r10d
    3ad1:	e9 03 f6 ff ff       	jmp    30d9 <parse_switches.constprop.0+0x1c9>
parse_switches.constprop.0():
    3ad6:	66 2e 0f 1f 84 00 00 	cs nopw 0x0(%rax,%rax,1)
    3add:	00 00 00 

0000000000003ae0 <progress_monitor>:
progress_monitor():
/home/tenebris/Disk/Racing-code/examples/23-libjpeg-divide-by-zero/libjpeg-turbo-2.0.90/cdjpeg.c:30
 * Optional progress monitor: display a percent-done figure on stderr.
 */

METHODDEF(void)
progress_monitor(j_common_ptr cinfo)
{
    3ae0:	f3 0f 1e fa          	endbr64 
    3ae4:	48 83 ec 08          	sub    $0x8,%rsp
/home/tenebris/Disk/Racing-code/examples/23-libjpeg-divide-by-zero/libjpeg-turbo-2.0.90/cdjpeg.c:31
  cd_progress_ptr prog = (cd_progress_ptr)cinfo->progress;
    3ae8:	48 8b 77 10          	mov    0x10(%rdi),%rsi
/home/tenebris/Disk/Racing-code/examples/23-libjpeg-divide-by-zero/libjpeg-turbo-2.0.90/cdjpeg.c:33

  if (prog->max_scans != 0 && cinfo->is_decompressor) {
    3aec:	44 8b 46 28          	mov    0x28(%rsi),%r8d
    3af0:	45 85 c0             	test   %r8d,%r8d
    3af3:	74 16                	je     3b0b <progress_monitor+0x2b>
/home/tenebris/Disk/Racing-code/examples/23-libjpeg-divide-by-zero/libjpeg-turbo-2.0.90/cdjpeg.c:33 (discriminator 1)
    3af5:	8b 57 20             	mov    0x20(%rdi),%edx
    3af8:	85 d2                	test   %edx,%edx
    3afa:	74 0f                	je     3b0b <progress_monitor+0x2b>
/home/tenebris/Disk/Racing-code/examples/23-libjpeg-divide-by-zero/libjpeg-turbo-2.0.90/cdjpeg.c:34
    int scan_no = ((j_decompress_ptr)cinfo)->input_scan_number;
    3afc:	8b 8f ac 00 00 00    	mov    0xac(%rdi),%ecx
/home/tenebris/Disk/Racing-code/examples/23-libjpeg-divide-by-zero/libjpeg-turbo-2.0.90/cdjpeg.c:36

    if (scan_no > (int)prog->max_scans) {
    3b02:	41 39 c8             	cmp    %ecx,%r8d
    3b05:	0f 8c a0 00 00 00    	jl     3bab <progress_monitor+0xcb>
/home/tenebris/Disk/Racing-code/examples/23-libjpeg-divide-by-zero/libjpeg-turbo-2.0.90/cdjpeg.c:43
              prog->max_scans);
      exit(EXIT_FAILURE);
    }
  }

  if (prog->report) {
    3b0b:	8b 46 2c             	mov    0x2c(%rsi),%eax
    3b0e:	85 c0                	test   %eax,%eax
    3b10:	74 6e                	je     3b80 <progress_monitor+0xa0>
/home/tenebris/Disk/Racing-code/examples/23-libjpeg-divide-by-zero/libjpeg-turbo-2.0.90/cdjpeg.c:46
    int total_passes = prog->pub.total_passes + prog->total_extra_passes;
    int percent_done =
      (int)(prog->pub.pass_counter * 100L / prog->pub.pass_limit);
    3b12:	48 8b 46 08          	mov    0x8(%rsi),%rax
    3b16:	48 8d 04 80          	lea    (%rax,%rax,4),%rax
    3b1a:	48 8d 04 80          	lea    (%rax,%rax,4),%rax
    3b1e:	48 c1 e0 02          	shl    $0x2,%rax
    3b22:	48 99                	cqto   
    3b24:	48 f7 7e 10          	idivq  0x10(%rsi)
/home/tenebris/Disk/Racing-code/examples/23-libjpeg-divide-by-zero/libjpeg-turbo-2.0.90/cdjpeg.c:45
    int percent_done =
    3b28:	89 c1                	mov    %eax,%ecx
/home/tenebris/Disk/Racing-code/examples/23-libjpeg-divide-by-zero/libjpeg-turbo-2.0.90/cdjpeg.c:48

    if (percent_done != prog->percent_done) {
    3b2a:	39 46 30             	cmp    %eax,0x30(%rsi)
    3b2d:	74 51                	je     3b80 <progress_monitor+0xa0>
/home/tenebris/Disk/Racing-code/examples/23-libjpeg-divide-by-zero/libjpeg-turbo-2.0.90/cdjpeg.c:44
    int total_passes = prog->pub.total_passes + prog->total_extra_passes;
    3b2f:	44 8b 46 24          	mov    0x24(%rsi),%r8d
    3b33:	44 03 46 1c          	add    0x1c(%rsi),%r8d
/home/tenebris/Disk/Racing-code/examples/23-libjpeg-divide-by-zero/libjpeg-turbo-2.0.90/cdjpeg.c:49
      prog->percent_done = percent_done;
    3b37:	89 46 30             	mov    %eax,0x30(%rsi)
/home/tenebris/Disk/Racing-code/examples/23-libjpeg-divide-by-zero/libjpeg-turbo-2.0.90/cdjpeg.c:37
      fprintf(stderr, "Scan number %d exceeds maximum scans (%d)\n", scan_no,
    3b3a:	48 8b 3d ff b4 00 00 	mov    0xb4ff(%rip),%rdi        # f040 <stderr@GLIBC_2.2.5>
/home/tenebris/Disk/Racing-code/examples/23-libjpeg-divide-by-zero/libjpeg-turbo-2.0.90/cdjpeg.c:50
      if (total_passes > 1) {
    3b41:	41 83 f8 01          	cmp    $0x1,%r8d
    3b45:	7e 41                	jle    3b88 <progress_monitor+0xa8>
/home/tenebris/Disk/Racing-code/examples/23-libjpeg-divide-by-zero/libjpeg-turbo-2.0.90/cdjpeg.c:52
        fprintf(stderr, "\rPass %d/%d: %3d%% ",
                prog->pub.completed_passes + prog->completed_extra_passes + 1,
    3b47:	8b 4e 20             	mov    0x20(%rsi),%ecx
    3b4a:	03 4e 18             	add    0x18(%rsi),%ecx
fprintf():
/usr/include/x86_64-linux-gnu/bits/stdio2.h:105
    3b4d:	41 89 c1             	mov    %eax,%r9d
    3b50:	48 8d 15 6c 85 00 00 	lea    0x856c(%rip),%rdx        # c0c3 <_IO_stdin_used+0x10c3>
progress_monitor():
/home/tenebris/Disk/Racing-code/examples/23-libjpeg-divide-by-zero/libjpeg-turbo-2.0.90/cdjpeg.c:51
        fprintf(stderr, "\rPass %d/%d: %3d%% ",
    3b57:	83 c1 01             	add    $0x1,%ecx
fprintf():
/usr/include/x86_64-linux-gnu/bits/stdio2.h:105
    3b5a:	be 01 00 00 00       	mov    $0x1,%esi
    3b5f:	31 c0                	xor    %eax,%eax
    3b61:	e8 ea e8 ff ff       	call   2450 <__fprintf_chk@plt>
progress_monitor():
/home/tenebris/Disk/Racing-code/examples/23-libjpeg-divide-by-zero/libjpeg-turbo-2.0.90/cdjpeg.c:57
                total_passes, percent_done);
      } else {
        fprintf(stderr, "\r %3d%% ", percent_done);
      }
      fflush(stderr);
    3b66:	48 8b 3d d3 b4 00 00 	mov    0xb4d3(%rip),%rdi        # f040 <stderr@GLIBC_2.2.5>
/home/tenebris/Disk/Racing-code/examples/23-libjpeg-divide-by-zero/libjpeg-turbo-2.0.90/cdjpeg.c:60
    }
  }
}
    3b6d:	48 83 c4 08          	add    $0x8,%rsp
/home/tenebris/Disk/Racing-code/examples/23-libjpeg-divide-by-zero/libjpeg-turbo-2.0.90/cdjpeg.c:57
      fflush(stderr);
    3b71:	e9 ea e7 ff ff       	jmp    2360 <fflush@plt>
    3b76:	66 2e 0f 1f 84 00 00 	cs nopw 0x0(%rax,%rax,1)
    3b7d:	00 00 00 
/home/tenebris/Disk/Racing-code/examples/23-libjpeg-divide-by-zero/libjpeg-turbo-2.0.90/cdjpeg.c:60
}
    3b80:	48 83 c4 08          	add    $0x8,%rsp
    3b84:	c3                   	ret    
    3b85:	0f 1f 00             	nopl   (%rax)
fprintf():
/usr/include/x86_64-linux-gnu/bits/stdio2.h:105
    3b88:	48 8d 15 48 85 00 00 	lea    0x8548(%rip),%rdx        # c0d7 <_IO_stdin_used+0x10d7>
    3b8f:	be 01 00 00 00       	mov    $0x1,%esi
    3b94:	31 c0                	xor    %eax,%eax
    3b96:	e8 b5 e8 ff ff       	call   2450 <__fprintf_chk@plt>
progress_monitor():
/home/tenebris/Disk/Racing-code/examples/23-libjpeg-divide-by-zero/libjpeg-turbo-2.0.90/cdjpeg.c:57
      fflush(stderr);
    3b9b:	48 8b 3d 9e b4 00 00 	mov    0xb49e(%rip),%rdi        # f040 <stderr@GLIBC_2.2.5>
/home/tenebris/Disk/Racing-code/examples/23-libjpeg-divide-by-zero/libjpeg-turbo-2.0.90/cdjpeg.c:60
}
    3ba2:	48 83 c4 08          	add    $0x8,%rsp
/home/tenebris/Disk/Racing-code/examples/23-libjpeg-divide-by-zero/libjpeg-turbo-2.0.90/cdjpeg.c:57
      fflush(stderr);
    3ba6:	e9 b5 e7 ff ff       	jmp    2360 <fflush@plt>
fprintf():
/usr/include/x86_64-linux-gnu/bits/stdio2.h:105
    3bab:	48 8b 3d 8e b4 00 00 	mov    0xb48e(%rip),%rdi        # f040 <stderr@GLIBC_2.2.5>
    3bb2:	48 8d 15 df 84 00 00 	lea    0x84df(%rip),%rdx        # c098 <_IO_stdin_used+0x1098>
    3bb9:	be 01 00 00 00       	mov    $0x1,%esi
    3bbe:	31 c0                	xor    %eax,%eax
    3bc0:	e8 8b e8 ff ff       	call   2450 <__fprintf_chk@plt>
progress_monitor():
/home/tenebris/Disk/Racing-code/examples/23-libjpeg-divide-by-zero/libjpeg-turbo-2.0.90/cdjpeg.c:39
      exit(EXIT_FAILURE);
    3bc5:	bf 01 00 00 00       	mov    $0x1,%edi
    3bca:	e8 61 e8 ff ff       	call   2430 <exit@plt>
    3bcf:	90                   	nop

0000000000003bd0 <start_progress_monitor>:
start_progress_monitor():
/home/tenebris/Disk/Racing-code/examples/23-libjpeg-divide-by-zero/libjpeg-turbo-2.0.90/cdjpeg.c:65


GLOBAL(void)
start_progress_monitor(j_common_ptr cinfo, cd_progress_ptr progress)
{
    3bd0:	f3 0f 1e fa          	endbr64 
/home/tenebris/Disk/Racing-code/examples/23-libjpeg-divide-by-zero/libjpeg-turbo-2.0.90/cdjpeg.c:67
  /* Enable progress display, unless trace output is on */
  if (cinfo->err->trace_level == 0) {
    3bd4:	48 8b 07             	mov    (%rdi),%rax
    3bd7:	8b 40 7c             	mov    0x7c(%rax),%eax
    3bda:	85 c0                	test   %eax,%eax
    3bdc:	75 28                	jne    3c06 <start_progress_monitor+0x36>
/home/tenebris/Disk/Racing-code/examples/23-libjpeg-divide-by-zero/libjpeg-turbo-2.0.90/cdjpeg.c:68
    progress->pub.progress_monitor = progress_monitor;
    3bde:	48 8d 05 fb fe ff ff 	lea    -0x105(%rip),%rax        # 3ae0 <progress_monitor>
/home/tenebris/Disk/Racing-code/examples/23-libjpeg-divide-by-zero/libjpeg-turbo-2.0.90/cdjpeg.c:69
    progress->completed_extra_passes = 0;
    3be5:	48 c7 46 20 00 00 00 	movq   $0x0,0x20(%rsi)
    3bec:	00 
/home/tenebris/Disk/Racing-code/examples/23-libjpeg-divide-by-zero/libjpeg-turbo-2.0.90/cdjpeg.c:68
    progress->pub.progress_monitor = progress_monitor;
    3bed:	48 89 06             	mov    %rax,(%rsi)
/home/tenebris/Disk/Racing-code/examples/23-libjpeg-divide-by-zero/libjpeg-turbo-2.0.90/cdjpeg.c:72
    progress->total_extra_passes = 0;
    progress->max_scans = 0;
    progress->report = FALSE;
    3bf0:	48 8b 05 01 85 00 00 	mov    0x8501(%rip),%rax        # c0f8 <_IO_stdin_used+0x10f8>
/home/tenebris/Disk/Racing-code/examples/23-libjpeg-divide-by-zero/libjpeg-turbo-2.0.90/cdjpeg.c:71
    progress->max_scans = 0;
    3bf7:	c7 46 28 00 00 00 00 	movl   $0x0,0x28(%rsi)
/home/tenebris/Disk/Racing-code/examples/23-libjpeg-divide-by-zero/libjpeg-turbo-2.0.90/cdjpeg.c:72
    progress->report = FALSE;
    3bfe:	48 89 46 2c          	mov    %rax,0x2c(%rsi)
/home/tenebris/Disk/Racing-code/examples/23-libjpeg-divide-by-zero/libjpeg-turbo-2.0.90/cdjpeg.c:74
    progress->percent_done = -1;
    cinfo->progress = &progress->pub;
    3c02:	48 89 77 10          	mov    %rsi,0x10(%rdi)
/home/tenebris/Disk/Racing-code/examples/23-libjpeg-divide-by-zero/libjpeg-turbo-2.0.90/cdjpeg.c:76
  }
}
    3c06:	c3                   	ret    
    3c07:	66 0f 1f 84 00 00 00 	nopw   0x0(%rax,%rax,1)
    3c0e:	00 00 

0000000000003c10 <end_progress_monitor>:
end_progress_monitor():
/home/tenebris/Disk/Racing-code/examples/23-libjpeg-divide-by-zero/libjpeg-turbo-2.0.90/cdjpeg.c:81


GLOBAL(void)
end_progress_monitor(j_common_ptr cinfo)
{
    3c10:	f3 0f 1e fa          	endbr64 
/home/tenebris/Disk/Racing-code/examples/23-libjpeg-divide-by-zero/libjpeg-turbo-2.0.90/cdjpeg.c:83
  /* Clear away progress display */
  if (cinfo->err->trace_level == 0) {
    3c14:	48 8b 07             	mov    (%rdi),%rax
    3c17:	8b 40 7c             	mov    0x7c(%rax),%eax
    3c1a:	85 c0                	test   %eax,%eax
    3c1c:	74 02                	je     3c20 <end_progress_monitor+0x10>
    3c1e:	c3                   	ret    
    3c1f:	90                   	nop
/home/tenebris/Disk/Racing-code/examples/23-libjpeg-divide-by-zero/libjpeg-turbo-2.0.90/cdjpeg.c:81
{
    3c20:	48 83 ec 08          	sub    $0x8,%rsp
fprintf():
/usr/include/x86_64-linux-gnu/bits/stdio2.h:105
    3c24:	ba 12 00 00 00       	mov    $0x12,%edx
    3c29:	be 01 00 00 00       	mov    $0x1,%esi
    3c2e:	48 8b 0d 0b b4 00 00 	mov    0xb40b(%rip),%rcx        # f040 <stderr@GLIBC_2.2.5>
    3c35:	48 8d 3d a4 84 00 00 	lea    0x84a4(%rip),%rdi        # c0e0 <_IO_stdin_used+0x10e0>
    3c3c:	e8 ff e7 ff ff       	call   2440 <fwrite@plt>
end_progress_monitor():
/home/tenebris/Disk/Racing-code/examples/23-libjpeg-divide-by-zero/libjpeg-turbo-2.0.90/cdjpeg.c:85
    fprintf(stderr, "\r                \r");
    fflush(stderr);
    3c41:	48 8b 3d f8 b3 00 00 	mov    0xb3f8(%rip),%rdi        # f040 <stderr@GLIBC_2.2.5>
/home/tenebris/Disk/Racing-code/examples/23-libjpeg-divide-by-zero/libjpeg-turbo-2.0.90/cdjpeg.c:87
  }
}
    3c48:	48 83 c4 08          	add    $0x8,%rsp
/home/tenebris/Disk/Racing-code/examples/23-libjpeg-divide-by-zero/libjpeg-turbo-2.0.90/cdjpeg.c:85
    fflush(stderr);
    3c4c:	e9 0f e7 ff ff       	jmp    2360 <fflush@plt>
    3c51:	66 66 2e 0f 1f 84 00 	data16 cs nopw 0x0(%rax,%rax,1)
    3c58:	00 00 00 00 
    3c5c:	0f 1f 40 00          	nopl   0x0(%rax)

0000000000003c60 <keymatch>:
keymatch():
/home/tenebris/Disk/Racing-code/examples/23-libjpeg-divide-by-zero/libjpeg-turbo-2.0.90/cdjpeg.c:98
 * minchars is length of minimum legal abbreviation.
 */

GLOBAL(boolean)
keymatch(char *arg, const char *keyword, int minchars)
{
    3c60:	f3 0f 1e fa          	endbr64 
    3c64:	41 57                	push   %r15
    3c66:	41 56                	push   %r14
    3c68:	41 55                	push   %r13
    3c6a:	41 54                	push   %r12
    3c6c:	55                   	push   %rbp
    3c6d:	53                   	push   %rbx
    3c6e:	48 83 ec 18          	sub    $0x18,%rsp
/home/tenebris/Disk/Racing-code/examples/23-libjpeg-divide-by-zero/libjpeg-turbo-2.0.90/cdjpeg.c:102
  register int ca, ck;
  register int nmatched = 0;

  while ((ca = *arg++) != '\0') {
    3c72:	4c 0f be 3f          	movsbq (%rdi),%r15
/home/tenebris/Disk/Racing-code/examples/23-libjpeg-divide-by-zero/libjpeg-turbo-2.0.90/cdjpeg.c:98
{
    3c76:	89 54 24 0c          	mov    %edx,0xc(%rsp)
/home/tenebris/Disk/Racing-code/examples/23-libjpeg-divide-by-zero/libjpeg-turbo-2.0.90/cdjpeg.c:102
  while ((ca = *arg++) != '\0') {
    3c7a:	45 85 ff             	test   %r15d,%r15d
    3c7d:	74 64                	je     3ce3 <keymatch+0x83>
    3c7f:	49 89 fc             	mov    %rdi,%r12
    3c82:	49 89 f5             	mov    %rsi,%r13
    3c85:	4c 89 fb             	mov    %r15,%rbx
    3c88:	31 ed                	xor    %ebp,%ebp
    3c8a:	eb 3a                	jmp    3cc6 <keymatch+0x66>
    3c8c:	0f 1f 40 00          	nopl   0x0(%rax)
/home/tenebris/Disk/Racing-code/examples/23-libjpeg-divide-by-zero/libjpeg-turbo-2.0.90/cdjpeg.c:105
    if ((ck = *keyword++) == '\0')
      return FALSE;             /* arg longer than keyword, no good */
    if (isupper(ca))            /* force arg to lcase (assume ck is already) */
    3c90:	e8 fb e7 ff ff       	call   2490 <__ctype_b_loc@plt>
    3c95:	48 8b 00             	mov    (%rax),%rax
    3c98:	f6 44 58 01 01       	testb  $0x1,0x1(%rax,%rbx,2)
    3c9d:	74 0c                	je     3cab <keymatch+0x4b>
tolower():
/usr/include/ctype.h:209

# ifdef __USE_EXTERN_INLINES
__extern_inline int
__NTH (tolower (int __c))
{
  return __c >= -128 && __c < 256 ? (*__ctype_tolower_loc ())[__c] : __c;
    3c9f:	e8 dc e7 ff ff       	call   2480 <__ctype_tolower_loc@plt>
    3ca4:	48 8b 00             	mov    (%rax),%rax
    3ca7:	44 8b 3c 98          	mov    (%rax,%rbx,4),%r15d
keymatch():
/home/tenebris/Disk/Racing-code/examples/23-libjpeg-divide-by-zero/libjpeg-turbo-2.0.90/cdjpeg.c:107
      ca = tolower(ca);
    if (ca != ck)
    3cab:	45 39 f7             	cmp    %r14d,%r15d
    3cae:	75 48                	jne    3cf8 <keymatch+0x98>
/home/tenebris/Disk/Racing-code/examples/23-libjpeg-divide-by-zero/libjpeg-turbo-2.0.90/cdjpeg.c:102
  while ((ca = *arg++) != '\0') {
    3cb0:	49 0f be 5c 2c 01    	movsbq 0x1(%r12,%rbp,1),%rbx
    3cb6:	8d 45 01             	lea    0x1(%rbp),%eax
    3cb9:	48 83 c5 01          	add    $0x1,%rbp
    3cbd:	44 0f be fb          	movsbl %bl,%r15d
    3cc1:	45 85 ff             	test   %r15d,%r15d
    3cc4:	74 22                	je     3ce8 <keymatch+0x88>
/home/tenebris/Disk/Racing-code/examples/23-libjpeg-divide-by-zero/libjpeg-turbo-2.0.90/cdjpeg.c:103
    if ((ck = *keyword++) == '\0')
    3cc6:	45 0f be 74 2d 00    	movsbl 0x0(%r13,%rbp,1),%r14d
    3ccc:	45 85 f6             	test   %r14d,%r14d
    3ccf:	75 bf                	jne    3c90 <keymatch+0x30>
/home/tenebris/Disk/Racing-code/examples/23-libjpeg-divide-by-zero/libjpeg-turbo-2.0.90/cdjpeg.c:115
  }
  /* reached end of argument; fail if it's too short for unique abbrev */
  if (nmatched < minchars)
    return FALSE;
  return TRUE;                  /* A-OK */
}
    3cd1:	48 83 c4 18          	add    $0x18,%rsp
    3cd5:	44 89 f0             	mov    %r14d,%eax
    3cd8:	5b                   	pop    %rbx
    3cd9:	5d                   	pop    %rbp
    3cda:	41 5c                	pop    %r12
    3cdc:	41 5d                	pop    %r13
    3cde:	41 5e                	pop    %r14
    3ce0:	41 5f                	pop    %r15
    3ce2:	c3                   	ret    
/home/tenebris/Disk/Racing-code/examples/23-libjpeg-divide-by-zero/libjpeg-turbo-2.0.90/cdjpeg.c:100
  register int nmatched = 0;
    3ce3:	31 c0                	xor    %eax,%eax
    3ce5:	0f 1f 00             	nopl   (%rax)
/home/tenebris/Disk/Racing-code/examples/23-libjpeg-divide-by-zero/libjpeg-turbo-2.0.90/cdjpeg.c:112
  if (nmatched < minchars)
    3ce8:	45 31 f6             	xor    %r14d,%r14d
    3ceb:	39 44 24 0c          	cmp    %eax,0xc(%rsp)
    3cef:	41 0f 9e c6          	setle  %r14b
    3cf3:	eb dc                	jmp    3cd1 <keymatch+0x71>
    3cf5:	0f 1f 00             	nopl   (%rax)
/home/tenebris/Disk/Racing-code/examples/23-libjpeg-divide-by-zero/libjpeg-turbo-2.0.90/cdjpeg.c:104
      return FALSE;             /* arg longer than keyword, no good */
    3cf8:	45 31 f6             	xor    %r14d,%r14d
    3cfb:	eb d4                	jmp    3cd1 <keymatch+0x71>
    3cfd:	0f 1f 00             	nopl   (%rax)

0000000000003d00 <read_stdin>:
read_stdin():
/home/tenebris/Disk/Racing-code/examples/23-libjpeg-divide-by-zero/libjpeg-turbo-2.0.90/cdjpeg.c:125
 * Non-Unix systems often require some hacking to get out of text mode.
 */

GLOBAL(FILE *)
read_stdin(void)
{
    3d00:	f3 0f 1e fa          	endbr64 
/home/tenebris/Disk/Racing-code/examples/23-libjpeg-divide-by-zero/libjpeg-turbo-2.0.90/cdjpeg.c:138
    fprintf(stderr, "Cannot reopen stdin\n");
    exit(EXIT_FAILURE);
  }
#endif
  return input_file;
}
    3d04:	48 8b 05 25 b3 00 00 	mov    0xb325(%rip),%rax        # f030 <stdin@GLIBC_2.2.5>
    3d0b:	c3                   	ret    
    3d0c:	0f 1f 40 00          	nopl   0x0(%rax)

0000000000003d10 <write_stdout>:
write_stdout():
/home/tenebris/Disk/Racing-code/examples/23-libjpeg-divide-by-zero/libjpeg-turbo-2.0.90/cdjpeg.c:143


GLOBAL(FILE *)
write_stdout(void)
{
    3d10:	f3 0f 1e fa          	endbr64 
/home/tenebris/Disk/Racing-code/examples/23-libjpeg-divide-by-zero/libjpeg-turbo-2.0.90/cdjpeg.c:156
    fprintf(stderr, "Cannot reopen stdout\n");
    exit(EXIT_FAILURE);
  }
#endif
  return output_file;
}
    3d14:	48 8b 05 05 b3 00 00 	mov    0xb305(%rip),%rax        # f020 <stdout@GLIBC_2.2.5>
    3d1b:	c3                   	ret    
    3d1c:	0f 1f 40 00          	nopl   0x0(%rax)

0000000000003d20 <get_interlaced_row>:
get_interlaced_row():
/home/tenebris/Disk/Racing-code/examples/23-libjpeg-divide-by-zero/libjpeg-turbo-2.0.90/rdgif.c:605
 * we read from the virtual array.
 */

METHODDEF(JDIMENSION)
get_interlaced_row(j_compress_ptr cinfo, cjpeg_source_ptr sinfo)
{
    3d20:	f3 0f 1e fa          	endbr64 
    3d24:	41 54                	push   %r12
    3d26:	49 89 fc             	mov    %rdi,%r12
    3d29:	55                   	push   %rbp
    3d2a:	48 89 f5             	mov    %rsi,%rbp
    3d2d:	53                   	push   %rbx
/home/tenebris/Disk/Racing-code/examples/23-libjpeg-divide-by-zero/libjpeg-turbo-2.0.90/rdgif.c:614
  register JDIMENSION col;
  register JSAMPARRAY colormap = source->colormap;
  JDIMENSION irow;

  /* Figure out which row of interlaced image is needed, and access it. */
  switch ((int)(source->cur_row_number & 7)) {
    3d2e:	8b 86 a8 01 00 00    	mov    0x1a8(%rsi),%eax
/home/tenebris/Disk/Racing-code/examples/23-libjpeg-divide-by-zero/libjpeg-turbo-2.0.90/rdgif.c:610
  register JSAMPARRAY colormap = source->colormap;
    3d34:	48 8b 5e 38          	mov    0x38(%rsi),%rbx
/home/tenebris/Disk/Racing-code/examples/23-libjpeg-divide-by-zero/libjpeg-turbo-2.0.90/rdgif.c:614
  switch ((int)(source->cur_row_number & 7)) {
    3d38:	89 c2                	mov    %eax,%edx
    3d3a:	83 e2 07             	and    $0x7,%edx
    3d3d:	83 fa 04             	cmp    $0x4,%edx
    3d40:	0f 84 ca 00 00 00    	je     3e10 <get_interlaced_row+0xf0>
    3d46:	0f 8f a4 00 00 00    	jg     3df0 <get_interlaced_row+0xd0>
/home/tenebris/Disk/Racing-code/examples/23-libjpeg-divide-by-zero/libjpeg-turbo-2.0.90/rdgif.c:616
  case 0:                       /* first-pass row */
    irow = source->cur_row_number >> 3;
    3d4c:	41 89 c1             	mov    %eax,%r9d
    3d4f:	41 c1 e9 03          	shr    $0x3,%r9d
/home/tenebris/Disk/Racing-code/examples/23-libjpeg-divide-by-zero/libjpeg-turbo-2.0.90/rdgif.c:614
  switch ((int)(source->cur_row_number & 7)) {
    3d53:	85 d2                	test   %edx,%edx
    3d55:	74 15                	je     3d6c <get_interlaced_row+0x4c>
    3d57:	83 fa 02             	cmp    $0x2,%edx
    3d5a:	0f 85 99 00 00 00    	jne    3df9 <get_interlaced_row+0xd9>
/home/tenebris/Disk/Racing-code/examples/23-libjpeg-divide-by-zero/libjpeg-turbo-2.0.90/rdgif.c:623
  case 4:                       /* second-pass row */
    irow = (source->cur_row_number >> 3) + source->pass2_offset;
    break;
  case 2:                       /* third-pass row */
  case 6:
    irow = (source->cur_row_number >> 2) + source->pass3_offset;
    3d60:	c1 e8 02             	shr    $0x2,%eax
    3d63:	03 85 b0 01 00 00    	add    0x1b0(%rbp),%eax
    3d69:	41 89 c1             	mov    %eax,%r9d
/home/tenebris/Disk/Racing-code/examples/23-libjpeg-divide-by-zero/libjpeg-turbo-2.0.90/rdgif.c:628
    break;
  default:                      /* fourth-pass row */
    irow = (source->cur_row_number >> 1) + source->pass4_offset;
  }
  sptr = *(*cinfo->mem->access_virt_sarray)
    3d6c:	49 8b 44 24 08       	mov    0x8(%r12),%rax
    3d71:	b9 01 00 00 00       	mov    $0x1,%ecx
    3d76:	44 89 ca             	mov    %r9d,%edx
    3d79:	45 31 c0             	xor    %r8d,%r8d
    3d7c:	48 8b b5 a0 01 00 00 	mov    0x1a0(%rbp),%rsi
    3d83:	4c 89 e7             	mov    %r12,%rdi
    3d86:	ff 50 38             	call   *0x38(%rax)
/home/tenebris/Disk/Racing-code/examples/23-libjpeg-divide-by-zero/libjpeg-turbo-2.0.90/rdgif.c:633
    ((j_common_ptr)cinfo, source->interlaced_image, irow, (JDIMENSION)1,
     FALSE);
  /* Scan the row, expand colormap, and output */
  ptr = source->pub.buffer[0];
  for (col = cinfo->image_width; col > 0; col--) {
    3d89:	41 8b 54 24 30       	mov    0x30(%r12),%edx
/home/tenebris/Disk/Racing-code/examples/23-libjpeg-divide-by-zero/libjpeg-turbo-2.0.90/rdgif.c:628
  sptr = *(*cinfo->mem->access_virt_sarray)
    3d8e:	48 8b 08             	mov    (%rax),%rcx
/home/tenebris/Disk/Racing-code/examples/23-libjpeg-divide-by-zero/libjpeg-turbo-2.0.90/rdgif.c:632
  ptr = source->pub.buffer[0];
    3d91:	48 8b 45 20          	mov    0x20(%rbp),%rax
    3d95:	48 8b 00             	mov    (%rax),%rax
/home/tenebris/Disk/Racing-code/examples/23-libjpeg-divide-by-zero/libjpeg-turbo-2.0.90/rdgif.c:633
  for (col = cinfo->image_width; col > 0; col--) {
    3d98:	85 d2                	test   %edx,%edx
    3d9a:	74 3e                	je     3dda <get_interlaced_row+0xba>
    3d9c:	48 8d 3c 52          	lea    (%rdx,%rdx,2),%rdi
    3da0:	48 01 c7             	add    %rax,%rdi
    3da3:	0f 1f 44 00 00       	nopl   0x0(%rax,%rax,1)
/home/tenebris/Disk/Racing-code/examples/23-libjpeg-divide-by-zero/libjpeg-turbo-2.0.90/rdgif.c:635 (discriminator 3)
    c = *sptr++;
    *ptr++ = colormap[CM_RED][c];
    3da8:	0f b6 11             	movzbl (%rcx),%edx
    3dab:	48 8b 33             	mov    (%rbx),%rsi
    3dae:	48 83 c0 03          	add    $0x3,%rax
/home/tenebris/Disk/Racing-code/examples/23-libjpeg-divide-by-zero/libjpeg-turbo-2.0.90/rdgif.c:634 (discriminator 3)
    c = *sptr++;
    3db2:	48 83 c1 01          	add    $0x1,%rcx
/home/tenebris/Disk/Racing-code/examples/23-libjpeg-divide-by-zero/libjpeg-turbo-2.0.90/rdgif.c:635 (discriminator 3)
    *ptr++ = colormap[CM_RED][c];
    3db6:	0f b6 34 16          	movzbl (%rsi,%rdx,1),%esi
    3dba:	40 88 70 fd          	mov    %sil,-0x3(%rax)
/home/tenebris/Disk/Racing-code/examples/23-libjpeg-divide-by-zero/libjpeg-turbo-2.0.90/rdgif.c:636 (discriminator 3)
    *ptr++ = colormap[CM_GREEN][c];
    3dbe:	48 8b 73 08          	mov    0x8(%rbx),%rsi
    3dc2:	0f b6 34 16          	movzbl (%rsi,%rdx,1),%esi
    3dc6:	40 88 70 fe          	mov    %sil,-0x2(%rax)
/home/tenebris/Disk/Racing-code/examples/23-libjpeg-divide-by-zero/libjpeg-turbo-2.0.90/rdgif.c:637 (discriminator 3)
    *ptr++ = colormap[CM_BLUE][c];
    3dca:	48 8b 73 10          	mov    0x10(%rbx),%rsi
    3dce:	0f b6 14 16          	movzbl (%rsi,%rdx,1),%edx
    3dd2:	88 50 ff             	mov    %dl,-0x1(%rax)
/home/tenebris/Disk/Racing-code/examples/23-libjpeg-divide-by-zero/libjpeg-turbo-2.0.90/rdgif.c:633 (discriminator 3)
  for (col = cinfo->image_width; col > 0; col--) {
    3dd5:	48 39 f8             	cmp    %rdi,%rax
    3dd8:	75 ce                	jne    3da8 <get_interlaced_row+0x88>
/home/tenebris/Disk/Racing-code/examples/23-libjpeg-divide-by-zero/libjpeg-turbo-2.0.90/rdgif.c:641
  }
  source->cur_row_number++;     /* for next time */
  return 1;
}
    3dda:	5b                   	pop    %rbx
/home/tenebris/Disk/Racing-code/examples/23-libjpeg-divide-by-zero/libjpeg-turbo-2.0.90/rdgif.c:639
  source->cur_row_number++;     /* for next time */
    3ddb:	83 85 a8 01 00 00 01 	addl   $0x1,0x1a8(%rbp)
/home/tenebris/Disk/Racing-code/examples/23-libjpeg-divide-by-zero/libjpeg-turbo-2.0.90/rdgif.c:641
}
    3de2:	b8 01 00 00 00       	mov    $0x1,%eax
    3de7:	5d                   	pop    %rbp
    3de8:	41 5c                	pop    %r12
    3dea:	c3                   	ret    
    3deb:	0f 1f 44 00 00       	nopl   0x0(%rax,%rax,1)
/home/tenebris/Disk/Racing-code/examples/23-libjpeg-divide-by-zero/libjpeg-turbo-2.0.90/rdgif.c:614
  switch ((int)(source->cur_row_number & 7)) {
    3df0:	83 fa 06             	cmp    $0x6,%edx
    3df3:	0f 84 67 ff ff ff    	je     3d60 <get_interlaced_row+0x40>
/home/tenebris/Disk/Racing-code/examples/23-libjpeg-divide-by-zero/libjpeg-turbo-2.0.90/rdgif.c:626
    irow = (source->cur_row_number >> 1) + source->pass4_offset;
    3df9:	d1 e8                	shr    %eax
    3dfb:	03 85 b4 01 00 00    	add    0x1b4(%rbp),%eax
    3e01:	41 89 c1             	mov    %eax,%r9d
    3e04:	e9 63 ff ff ff       	jmp    3d6c <get_interlaced_row+0x4c>
    3e09:	0f 1f 80 00 00 00 00 	nopl   0x0(%rax)
/home/tenebris/Disk/Racing-code/examples/23-libjpeg-divide-by-zero/libjpeg-turbo-2.0.90/rdgif.c:619
    irow = (source->cur_row_number >> 3) + source->pass2_offset;
    3e10:	c1 e8 03             	shr    $0x3,%eax
    3e13:	03 86 ac 01 00 00    	add    0x1ac(%rsi),%eax
    3e19:	41 89 c1             	mov    %eax,%r9d
/home/tenebris/Disk/Racing-code/examples/23-libjpeg-divide-by-zero/libjpeg-turbo-2.0.90/rdgif.c:620
    break;
    3e1c:	e9 4b ff ff ff       	jmp    3d6c <get_interlaced_row+0x4c>
    3e21:	66 66 2e 0f 1f 84 00 	data16 cs nopw 0x0(%rax,%rax,1)
    3e28:	00 00 00 00 
    3e2c:	0f 1f 40 00          	nopl   0x0(%rax)

0000000000003e30 <finish_input_gif>:
finish_input_gif():
/home/tenebris/Disk/Racing-code/examples/23-libjpeg-divide-by-zero/libjpeg-turbo-2.0.90/rdgif.c:650
 * Finish up at the end of the file.
 */

METHODDEF(void)
finish_input_gif(j_compress_ptr cinfo, cjpeg_source_ptr sinfo)
{
    3e30:	f3 0f 1e fa          	endbr64 
/home/tenebris/Disk/Racing-code/examples/23-libjpeg-divide-by-zero/libjpeg-turbo-2.0.90/rdgif.c:652
  /* no work */
}
    3e34:	c3                   	ret    
    3e35:	66 66 2e 0f 1f 84 00 	data16 cs nopw 0x0(%rax,%rax,1)
    3e3c:	00 00 00 00 

0000000000003e40 <ReadColorMap>:
ReadColorMap():
/home/tenebris/Disk/Racing-code/examples/23-libjpeg-divide-by-zero/libjpeg-turbo-2.0.90/rdgif.c:345
{
    3e40:	41 56                	push   %r14
    3e42:	4c 63 f6             	movslq %esi,%r14
    3e45:	41 55                	push   %r13
    3e47:	49 89 d5             	mov    %rdx,%r13
    3e4a:	41 54                	push   %r12
    3e4c:	49 89 fc             	mov    %rdi,%r12
    3e4f:	55                   	push   %rbp
    3e50:	53                   	push   %rbx
    3e51:	31 db                	xor    %ebx,%ebx
    3e53:	0f 1f 44 00 00       	nopl   0x0(%rax,%rax,1)
ReadByte():
/home/tenebris/Disk/Racing-code/examples/23-libjpeg-divide-by-zero/libjpeg-turbo-2.0.90/rdgif.c:145
  if ((c = getc(infile)) == EOF)
    3e58:	49 8b 7c 24 18       	mov    0x18(%r12),%rdi
    3e5d:	e8 0e e6 ff ff       	call   2470 <getc@plt>
    3e62:	89 c5                	mov    %eax,%ebp
    3e64:	83 f8 ff             	cmp    $0xffffffff,%eax
    3e67:	75 11                	jne    3e7a <ReadColorMap+0x3a>
    3e69:	49 8b 7c 24 30       	mov    0x30(%r12),%rdi
/home/tenebris/Disk/Racing-code/examples/23-libjpeg-divide-by-zero/libjpeg-turbo-2.0.90/rdgif.c:146
    ERREXIT(sinfo->cinfo, JERR_INPUT_EOF);
    3e6e:	48 8b 07             	mov    (%rdi),%rax
    3e71:	c7 40 28 2b 00 00 00 	movl   $0x2b,0x28(%rax)
    3e78:	ff 10                	call   *(%rax)
ReadColorMap():
/home/tenebris/Disk/Racing-code/examples/23-libjpeg-divide-by-zero/libjpeg-turbo-2.0.90/rdgif.c:354
    cmap[CM_RED][i]   = (JSAMPLE)UPSCALE(ReadByte(sinfo));
    3e7a:	49 8b 45 00          	mov    0x0(%r13),%rax
    3e7e:	40 88 2c 18          	mov    %bpl,(%rax,%rbx,1)
ReadByte():
/home/tenebris/Disk/Racing-code/examples/23-libjpeg-divide-by-zero/libjpeg-turbo-2.0.90/rdgif.c:145
  if ((c = getc(infile)) == EOF)
    3e82:	49 8b 7c 24 18       	mov    0x18(%r12),%rdi
    3e87:	e8 e4 e5 ff ff       	call   2470 <getc@plt>
    3e8c:	89 c5                	mov    %eax,%ebp
    3e8e:	83 f8 ff             	cmp    $0xffffffff,%eax
    3e91:	75 11                	jne    3ea4 <ReadColorMap+0x64>
    3e93:	49 8b 7c 24 30       	mov    0x30(%r12),%rdi
/home/tenebris/Disk/Racing-code/examples/23-libjpeg-divide-by-zero/libjpeg-turbo-2.0.90/rdgif.c:146
    ERREXIT(sinfo->cinfo, JERR_INPUT_EOF);
    3e98:	48 8b 07             	mov    (%rdi),%rax
    3e9b:	c7 40 28 2b 00 00 00 	movl   $0x2b,0x28(%rax)
    3ea2:	ff 10                	call   *(%rax)
ReadColorMap():
/home/tenebris/Disk/Racing-code/examples/23-libjpeg-divide-by-zero/libjpeg-turbo-2.0.90/rdgif.c:355
    cmap[CM_GREEN][i] = (JSAMPLE)UPSCALE(ReadByte(sinfo));
    3ea4:	49 8b 45 08          	mov    0x8(%r13),%rax
    3ea8:	40 88 2c 18          	mov    %bpl,(%rax,%rbx,1)
ReadByte():
/home/tenebris/Disk/Racing-code/examples/23-libjpeg-divide-by-zero/libjpeg-turbo-2.0.90/rdgif.c:145
  if ((c = getc(infile)) == EOF)
    3eac:	49 8b 7c 24 18       	mov    0x18(%r12),%rdi
    3eb1:	e8 ba e5 ff ff       	call   2470 <getc@plt>
    3eb6:	83 f8 ff             	cmp    $0xffffffff,%eax
    3eb9:	74 1d                	je     3ed8 <ReadColorMap+0x98>
ReadColorMap():
/home/tenebris/Disk/Racing-code/examples/23-libjpeg-divide-by-zero/libjpeg-turbo-2.0.90/rdgif.c:356
    cmap[CM_BLUE][i]  = (JSAMPLE)UPSCALE(ReadByte(sinfo));
    3ebb:	49 8b 55 10          	mov    0x10(%r13),%rdx
    3ebf:	88 04 1a             	mov    %al,(%rdx,%rbx,1)
/home/tenebris/Disk/Racing-code/examples/23-libjpeg-divide-by-zero/libjpeg-turbo-2.0.90/rdgif.c:348
  for (i = 0; i < cmaplen; i++) {
    3ec2:	48 83 c3 01          	add    $0x1,%rbx
    3ec6:	49 39 de             	cmp    %rbx,%r14
    3ec9:	75 8d                	jne    3e58 <ReadColorMap+0x18>
/home/tenebris/Disk/Racing-code/examples/23-libjpeg-divide-by-zero/libjpeg-turbo-2.0.90/rdgif.c:358
}
    3ecb:	5b                   	pop    %rbx
    3ecc:	5d                   	pop    %rbp
    3ecd:	41 5c                	pop    %r12
    3ecf:	41 5d                	pop    %r13
    3ed1:	41 5e                	pop    %r14
    3ed3:	c3                   	ret    
    3ed4:	0f 1f 40 00          	nopl   0x0(%rax)
    3ed8:	49 8b 7c 24 30       	mov    0x30(%r12),%rdi
ReadByte():
/home/tenebris/Disk/Racing-code/examples/23-libjpeg-divide-by-zero/libjpeg-turbo-2.0.90/rdgif.c:146
    ERREXIT(sinfo->cinfo, JERR_INPUT_EOF);
    3edd:	48 8b 07             	mov    (%rdi),%rax
    3ee0:	c7 40 28 2b 00 00 00 	movl   $0x2b,0x28(%rax)
    3ee7:	ff 10                	call   *(%rax)
ReadColorMap():
/home/tenebris/Disk/Racing-code/examples/23-libjpeg-divide-by-zero/libjpeg-turbo-2.0.90/rdgif.c:356
    cmap[CM_BLUE][i]  = (JSAMPLE)UPSCALE(ReadByte(sinfo));
    3ee9:	49 8b 45 10          	mov    0x10(%r13),%rax
    3eed:	c6 04 18 ff          	movb   $0xff,(%rax,%rbx,1)
/home/tenebris/Disk/Racing-code/examples/23-libjpeg-divide-by-zero/libjpeg-turbo-2.0.90/rdgif.c:348
  for (i = 0; i < cmaplen; i++) {
    3ef1:	48 83 c3 01          	add    $0x1,%rbx
    3ef5:	49 39 de             	cmp    %rbx,%r14
    3ef8:	0f 85 5a ff ff ff    	jne    3e58 <ReadColorMap+0x18>
/home/tenebris/Disk/Racing-code/examples/23-libjpeg-divide-by-zero/libjpeg-turbo-2.0.90/rdgif.c:358
}
    3efe:	5b                   	pop    %rbx
    3eff:	5d                   	pop    %rbp
    3f00:	41 5c                	pop    %r12
    3f02:	41 5d                	pop    %r13
    3f04:	41 5e                	pop    %r14
    3f06:	c3                   	ret    
    3f07:	66 0f 1f 84 00 00 00 	nopw   0x0(%rax,%rax,1)
    3f0e:	00 00 

0000000000003f10 <GetDataBlock>:
GetDataBlock():
/home/tenebris/Disk/Racing-code/examples/23-libjpeg-divide-by-zero/libjpeg-turbo-2.0.90/rdgif.c:155
{
    3f10:	41 55                	push   %r13
    3f12:	49 89 f5             	mov    %rsi,%r13
    3f15:	41 54                	push   %r12
    3f17:	55                   	push   %rbp
    3f18:	53                   	push   %rbx
    3f19:	48 89 fb             	mov    %rdi,%rbx
    3f1c:	48 83 ec 08          	sub    $0x8,%rsp
ReadByte():
/home/tenebris/Disk/Racing-code/examples/23-libjpeg-divide-by-zero/libjpeg-turbo-2.0.90/rdgif.c:145
  if ((c = getc(infile)) == EOF)
    3f20:	48 8b 7f 18          	mov    0x18(%rdi),%rdi
    3f24:	e8 47 e5 ff ff       	call   2470 <getc@plt>
    3f29:	41 89 c4             	mov    %eax,%r12d
    3f2c:	83 f8 ff             	cmp    $0xffffffff,%eax
    3f2f:	74 20                	je     3f51 <GetDataBlock+0x41>
GetDataBlock():
/home/tenebris/Disk/Racing-code/examples/23-libjpeg-divide-by-zero/libjpeg-turbo-2.0.90/rdgif.c:159
  if (count > 0) {
    3f31:	85 c0                	test   %eax,%eax
    3f33:	7e 2c                	jle    3f61 <GetDataBlock+0x51>
/home/tenebris/Disk/Racing-code/examples/23-libjpeg-divide-by-zero/libjpeg-turbo-2.0.90/rdgif.c:160
    if (!ReadOK(sinfo->pub.input_file, buf, count))
    3f35:	48 63 e8             	movslq %eax,%rbp
fread():
/usr/include/x86_64-linux-gnu/bits/stdio2.h:293
    return __fread_alias (__ptr, __size, __n, __stream);
    3f38:	48 8b 4b 18          	mov    0x18(%rbx),%rcx
    3f3c:	be 01 00 00 00       	mov    $0x1,%esi
    3f41:	4c 89 ef             	mov    %r13,%rdi
    3f44:	48 89 ea             	mov    %rbp,%rdx
    3f47:	e8 44 e3 ff ff       	call   2290 <fread@plt>
GetDataBlock():
/home/tenebris/Disk/Racing-code/examples/23-libjpeg-divide-by-zero/libjpeg-turbo-2.0.90/rdgif.c:160
    3f4c:	48 39 c5             	cmp    %rax,%rbp
    3f4f:	74 10                	je     3f61 <GetDataBlock+0x51>
/home/tenebris/Disk/Racing-code/examples/23-libjpeg-divide-by-zero/libjpeg-turbo-2.0.90/rdgif.c:161
      ERREXIT(sinfo->cinfo, JERR_INPUT_EOF);
    3f51:	48 8b 7b 30          	mov    0x30(%rbx),%rdi
    3f55:	48 8b 07             	mov    (%rdi),%rax
    3f58:	c7 40 28 2b 00 00 00 	movl   $0x2b,0x28(%rax)
    3f5f:	ff 10                	call   *(%rax)
/home/tenebris/Disk/Racing-code/examples/23-libjpeg-divide-by-zero/libjpeg-turbo-2.0.90/rdgif.c:164
}
    3f61:	48 83 c4 08          	add    $0x8,%rsp
    3f65:	44 89 e0             	mov    %r12d,%eax
    3f68:	5b                   	pop    %rbx
    3f69:	5d                   	pop    %rbp
    3f6a:	41 5c                	pop    %r12
    3f6c:	41 5d                	pop    %r13
    3f6e:	c3                   	ret    
    3f6f:	90                   	nop

0000000000003f70 <DoExtension>:
DoExtension():
/home/tenebris/Disk/Racing-code/examples/23-libjpeg-divide-by-zero/libjpeg-turbo-2.0.90/rdgif.c:365
{
    3f70:	41 54                	push   %r12
    3f72:	55                   	push   %rbp
    3f73:	48 89 fd             	mov    %rdi,%rbp
    3f76:	53                   	push   %rbx
    3f77:	48 81 ec 10 01 00 00 	sub    $0x110,%rsp
ReadByte():
/home/tenebris/Disk/Racing-code/examples/23-libjpeg-divide-by-zero/libjpeg-turbo-2.0.90/rdgif.c:145
  if ((c = getc(infile)) == EOF)
    3f7e:	48 8b 7f 18          	mov    0x18(%rdi),%rdi
DoExtension():
/home/tenebris/Disk/Racing-code/examples/23-libjpeg-divide-by-zero/libjpeg-turbo-2.0.90/rdgif.c:365
{
    3f82:	64 48 8b 04 25 28 00 	mov    %fs:0x28,%rax
    3f89:	00 00 
    3f8b:	48 89 84 24 08 01 00 	mov    %rax,0x108(%rsp)
    3f92:	00 
    3f93:	31 c0                	xor    %eax,%eax
ReadByte():
/home/tenebris/Disk/Racing-code/examples/23-libjpeg-divide-by-zero/libjpeg-turbo-2.0.90/rdgif.c:145
  if ((c = getc(infile)) == EOF)
    3f95:	e8 d6 e4 ff ff       	call   2470 <getc@plt>
    3f9a:	89 c3                	mov    %eax,%ebx
    3f9c:	83 f8 ff             	cmp    $0xffffffff,%eax
    3f9f:	75 10                	jne    3fb1 <DoExtension+0x41>
    3fa1:	48 8b 7d 30          	mov    0x30(%rbp),%rdi
/home/tenebris/Disk/Racing-code/examples/23-libjpeg-divide-by-zero/libjpeg-turbo-2.0.90/rdgif.c:146
    ERREXIT(sinfo->cinfo, JERR_INPUT_EOF);
    3fa5:	48 8b 07             	mov    (%rdi),%rax
    3fa8:	c7 40 28 2b 00 00 00 	movl   $0x2b,0x28(%rax)
    3faf:	ff 10                	call   *(%rax)
DoExtension():
/home/tenebris/Disk/Racing-code/examples/23-libjpeg-divide-by-zero/libjpeg-turbo-2.0.90/rdgif.c:370
  TRACEMS1(sinfo->cinfo, 1, JTRC_GIF_EXTENSION, extlabel);
    3fb1:	48 8b 7d 30          	mov    0x30(%rbp),%rdi
    3fb5:	be 01 00 00 00       	mov    $0x1,%esi
fread():
/usr/include/x86_64-linux-gnu/bits/stdio2.h:296
  if (__glibc_unsafe_len (__n, __size, sz))
    return __fread_chk_warn (__ptr, sz, __size, __n, __stream);
  return __fread_chk (__ptr, sz, __size, __n, __stream);
    3fba:	49 89 e4             	mov    %rsp,%r12
DoExtension():
/home/tenebris/Disk/Racing-code/examples/23-libjpeg-divide-by-zero/libjpeg-turbo-2.0.90/rdgif.c:370
    3fbd:	48 8b 07             	mov    (%rdi),%rax
    3fc0:	c7 40 28 fd 03 00 00 	movl   $0x3fd,0x28(%rax)
    3fc7:	89 58 2c             	mov    %ebx,0x2c(%rax)
    3fca:	ff 50 08             	call   *0x8(%rax)
ReadByte():
/home/tenebris/Disk/Racing-code/examples/23-libjpeg-divide-by-zero/libjpeg-turbo-2.0.90/rdgif.c:145
  if ((c = getc(infile)) == EOF)
    3fcd:	48 8b 7d 18          	mov    0x18(%rbp),%rdi
    3fd1:	e8 9a e4 ff ff       	call   2470 <getc@plt>
    3fd6:	83 f8 ff             	cmp    $0xffffffff,%eax
    3fd9:	74 64                	je     403f <DoExtension+0xcf>
GetDataBlock():
/home/tenebris/Disk/Racing-code/examples/23-libjpeg-divide-by-zero/libjpeg-turbo-2.0.90/rdgif.c:159
  if (count > 0) {
    3fdb:	85 c0                	test   %eax,%eax
    3fdd:	7f 21                	jg     4000 <DoExtension+0x90>
DoExtension():
/home/tenebris/Disk/Racing-code/examples/23-libjpeg-divide-by-zero/libjpeg-turbo-2.0.90/rdgif.c:373
}
    3fdf:	48 8b 84 24 08 01 00 	mov    0x108(%rsp),%rax
    3fe6:	00 
    3fe7:	64 48 2b 04 25 28 00 	sub    %fs:0x28,%rax
    3fee:	00 00 
    3ff0:	75 5f                	jne    4051 <DoExtension+0xe1>
    3ff2:	48 81 c4 10 01 00 00 	add    $0x110,%rsp
    3ff9:	5b                   	pop    %rbx
    3ffa:	5d                   	pop    %rbp
    3ffb:	41 5c                	pop    %r12
    3ffd:	c3                   	ret    
    3ffe:	66 90                	xchg   %ax,%ax
GetDataBlock():
/home/tenebris/Disk/Racing-code/examples/23-libjpeg-divide-by-zero/libjpeg-turbo-2.0.90/rdgif.c:160
    if (!ReadOK(sinfo->pub.input_file, buf, count))
    4000:	48 63 d8             	movslq %eax,%rbx
fread():
/usr/include/x86_64-linux-gnu/bits/stdio2.h:296
    4003:	4c 8b 45 18          	mov    0x18(%rbp),%r8
    4007:	ba 01 00 00 00       	mov    $0x1,%edx
    400c:	4c 89 e7             	mov    %r12,%rdi
    400f:	48 89 d9             	mov    %rbx,%rcx
    4012:	be 00 01 00 00       	mov    $0x100,%esi
    4017:	e8 c4 e3 ff ff       	call   23e0 <__fread_chk@plt>
GetDataBlock():
/home/tenebris/Disk/Racing-code/examples/23-libjpeg-divide-by-zero/libjpeg-turbo-2.0.90/rdgif.c:160
    401c:	48 39 d8             	cmp    %rbx,%rax
    401f:	74 ac                	je     3fcd <DoExtension+0x5d>
/home/tenebris/Disk/Racing-code/examples/23-libjpeg-divide-by-zero/libjpeg-turbo-2.0.90/rdgif.c:161
      ERREXIT(sinfo->cinfo, JERR_INPUT_EOF);
    4021:	48 8b 7d 30          	mov    0x30(%rbp),%rdi
    4025:	48 8b 07             	mov    (%rdi),%rax
    4028:	c7 40 28 2b 00 00 00 	movl   $0x2b,0x28(%rax)
    402f:	ff 10                	call   *(%rax)
ReadByte():
/home/tenebris/Disk/Racing-code/examples/23-libjpeg-divide-by-zero/libjpeg-turbo-2.0.90/rdgif.c:145
  if ((c = getc(infile)) == EOF)
    4031:	48 8b 7d 18          	mov    0x18(%rbp),%rdi
    4035:	e8 36 e4 ff ff       	call   2470 <getc@plt>
    403a:	83 f8 ff             	cmp    $0xffffffff,%eax
    403d:	75 9c                	jne    3fdb <DoExtension+0x6b>
    403f:	48 8b 7d 30          	mov    0x30(%rbp),%rdi
/home/tenebris/Disk/Racing-code/examples/23-libjpeg-divide-by-zero/libjpeg-turbo-2.0.90/rdgif.c:146
    ERREXIT(sinfo->cinfo, JERR_INPUT_EOF);
    4043:	48 8b 07             	mov    (%rdi),%rax
    4046:	c7 40 28 2b 00 00 00 	movl   $0x2b,0x28(%rax)
    404d:	ff 10                	call   *(%rax)
DoExtension():
/home/tenebris/Disk/Racing-code/examples/23-libjpeg-divide-by-zero/libjpeg-turbo-2.0.90/rdgif.c:373
}
    404f:	eb 8e                	jmp    3fdf <DoExtension+0x6f>
    4051:	e8 6a e2 ff ff       	call   22c0 <__stack_chk_fail@plt>
    4056:	66 2e 0f 1f 84 00 00 	cs nopw 0x0(%rax,%rax,1)
    405d:	00 00 00 

0000000000004060 <start_input_gif>:
start_input_gif():
/home/tenebris/Disk/Racing-code/examples/23-libjpeg-divide-by-zero/libjpeg-turbo-2.0.90/rdgif.c:382
{
    4060:	f3 0f 1e fa          	endbr64 
    4064:	41 57                	push   %r15
fread():
/usr/include/x86_64-linux-gnu/bits/stdio2.h:293
    return __fread_alias (__ptr, __size, __n, __stream);
    4066:	ba 06 00 00 00       	mov    $0x6,%edx
start_input_gif():
/home/tenebris/Disk/Racing-code/examples/23-libjpeg-divide-by-zero/libjpeg-turbo-2.0.90/rdgif.c:382
    406b:	41 56                	push   %r14
    406d:	41 55                	push   %r13
    406f:	41 54                	push   %r12
    4071:	55                   	push   %rbp
    4072:	48 89 fd             	mov    %rdi,%rbp
    4075:	53                   	push   %rbx
    4076:	48 89 f3             	mov    %rsi,%rbx
    4079:	48 83 ec 28          	sub    $0x28,%rsp
fread():
/usr/include/x86_64-linux-gnu/bits/stdio2.h:293
    407d:	48 8b 4e 18          	mov    0x18(%rsi),%rcx
    4081:	be 01 00 00 00       	mov    $0x1,%esi
start_input_gif():
/home/tenebris/Disk/Racing-code/examples/23-libjpeg-divide-by-zero/libjpeg-turbo-2.0.90/rdgif.c:382
    4086:	64 48 8b 04 25 28 00 	mov    %fs:0x28,%rax
    408d:	00 00 
    408f:	48 89 44 24 18       	mov    %rax,0x18(%rsp)
    4094:	31 c0                	xor    %eax,%eax
fread():
/usr/include/x86_64-linux-gnu/bits/stdio2.h:293
    4096:	4c 8d 6c 24 0e       	lea    0xe(%rsp),%r13
    409b:	4c 89 ef             	mov    %r13,%rdi
    409e:	e8 ed e1 ff ff       	call   2290 <fread@plt>
start_input_gif():
/home/tenebris/Disk/Racing-code/examples/23-libjpeg-divide-by-zero/libjpeg-turbo-2.0.90/rdgif.c:390
  if (!ReadOK(source->pub.input_file, hdrbuf, 6))
    40a3:	48 83 f8 06          	cmp    $0x6,%rax
    40a7:	74 10                	je     40b9 <start_input_gif+0x59>
/home/tenebris/Disk/Racing-code/examples/23-libjpeg-divide-by-zero/libjpeg-turbo-2.0.90/rdgif.c:391
    ERREXIT(cinfo, JERR_GIF_NOT);
    40a9:	48 8b 45 00          	mov    0x0(%rbp),%rax
    40ad:	48 89 ef             	mov    %rbp,%rdi
    40b0:	c7 40 28 fa 03 00 00 	movl   $0x3fa,0x28(%rax)
    40b7:	ff 10                	call   *(%rax)
/home/tenebris/Disk/Racing-code/examples/23-libjpeg-divide-by-zero/libjpeg-turbo-2.0.90/rdgif.c:392
  if (hdrbuf[0] != 'G' || hdrbuf[1] != 'I' || hdrbuf[2] != 'F')
    40b9:	80 7c 24 0e 47       	cmpb   $0x47,0xe(%rsp)
    40be:	0f 84 0c 04 00 00    	je     44d0 <start_input_gif+0x470>
/home/tenebris/Disk/Racing-code/examples/23-libjpeg-divide-by-zero/libjpeg-turbo-2.0.90/rdgif.c:393
    ERREXIT(cinfo, JERR_GIF_NOT);
    40c4:	48 8b 45 00          	mov    0x0(%rbp),%rax
    40c8:	48 89 ef             	mov    %rbp,%rdi
    40cb:	c7 40 28 fa 03 00 00 	movl   $0x3fa,0x28(%rax)
    40d2:	ff 10                	call   *(%rax)
/home/tenebris/Disk/Racing-code/examples/23-libjpeg-divide-by-zero/libjpeg-turbo-2.0.90/rdgif.c:398
  if ((hdrbuf[3] != '8' || hdrbuf[4] != '7' || hdrbuf[5] != 'a') &&
    40d4:	0f b6 54 24 11       	movzbl 0x11(%rsp),%edx
    40d9:	0f b6 74 24 13       	movzbl 0x13(%rsp),%esi
    40de:	0f b6 4c 24 12       	movzbl 0x12(%rsp),%ecx
    40e3:	80 fa 38             	cmp    $0x38,%dl
    40e6:	0f 84 c4 03 00 00    	je     44b0 <start_input_gif+0x450>
/home/tenebris/Disk/Racing-code/examples/23-libjpeg-divide-by-zero/libjpeg-turbo-2.0.90/rdgif.c:400
    TRACEMS3(cinfo, 1, JTRC_GIF_BADVERSION, hdrbuf[3], hdrbuf[4], hdrbuf[5]);
    40ec:	48 8b 45 00          	mov    0x0(%rbp),%rax
    40f0:	48 89 ef             	mov    %rbp,%rdi
    40f3:	89 70 34             	mov    %esi,0x34(%rax)
    40f6:	be 01 00 00 00       	mov    $0x1,%esi
    40fb:	89 50 2c             	mov    %edx,0x2c(%rax)
    40fe:	89 48 30             	mov    %ecx,0x30(%rax)
    4101:	c7 40 28 fc 03 00 00 	movl   $0x3fc,0x28(%rax)
    4108:	ff 50 08             	call   *0x8(%rax)
fread():
/usr/include/x86_64-linux-gnu/bits/stdio2.h:293 (discriminator 1)
    410b:	48 8b 4b 18          	mov    0x18(%rbx),%rcx
    410f:	ba 07 00 00 00       	mov    $0x7,%edx
    4114:	be 01 00 00 00       	mov    $0x1,%esi
    4119:	4c 89 ef             	mov    %r13,%rdi
    411c:	e8 6f e1 ff ff       	call   2290 <fread@plt>
start_input_gif():
/home/tenebris/Disk/Racing-code/examples/23-libjpeg-divide-by-zero/libjpeg-turbo-2.0.90/rdgif.c:403 (discriminator 1)
  if (!ReadOK(source->pub.input_file, hdrbuf, 7))
    4121:	48 83 f8 07          	cmp    $0x7,%rax
    4125:	74 10                	je     4137 <start_input_gif+0xd7>
/home/tenebris/Disk/Racing-code/examples/23-libjpeg-divide-by-zero/libjpeg-turbo-2.0.90/rdgif.c:404
    ERREXIT(cinfo, JERR_INPUT_EOF);
    4127:	48 8b 45 00          	mov    0x0(%rbp),%rax
    412b:	48 89 ef             	mov    %rbp,%rdi
    412e:	c7 40 28 2b 00 00 00 	movl   $0x2b,0x28(%rax)
    4135:	ff 10                	call   *(%rax)
/home/tenebris/Disk/Racing-code/examples/23-libjpeg-divide-by-zero/libjpeg-turbo-2.0.90/rdgif.c:408
  aspectRatio = UCH(hdrbuf[6]);
    4137:	0f b6 44 24 14       	movzbl 0x14(%rsp),%eax
/home/tenebris/Disk/Racing-code/examples/23-libjpeg-divide-by-zero/libjpeg-turbo-2.0.90/rdgif.c:409
  if (aspectRatio != 0 && aspectRatio != 49)
    413c:	85 c0                	test   %eax,%eax
    413e:	74 1b                	je     415b <start_input_gif+0xfb>
    4140:	83 f8 31             	cmp    $0x31,%eax
    4143:	74 16                	je     415b <start_input_gif+0xfb>
/home/tenebris/Disk/Racing-code/examples/23-libjpeg-divide-by-zero/libjpeg-turbo-2.0.90/rdgif.c:410
    TRACEMS(cinfo, 1, JTRC_GIF_NONSQUARE);
    4145:	48 8b 45 00          	mov    0x0(%rbp),%rax
    4149:	be 01 00 00 00       	mov    $0x1,%esi
    414e:	48 89 ef             	mov    %rbp,%rdi
    4151:	c7 40 28 fe 03 00 00 	movl   $0x3fe,0x28(%rax)
    4158:	ff 50 08             	call   *0x8(%rax)
/home/tenebris/Disk/Racing-code/examples/23-libjpeg-divide-by-zero/libjpeg-turbo-2.0.90/rdgif.c:413
  source->colormap = (*cinfo->mem->alloc_sarray)
    415b:	48 8b 45 08          	mov    0x8(%rbp),%rax
    415f:	b9 03 00 00 00       	mov    $0x3,%ecx
    4164:	48 89 ef             	mov    %rbp,%rdi
/home/tenebris/Disk/Racing-code/examples/23-libjpeg-divide-by-zero/libjpeg-turbo-2.0.90/rdgif.c:416
  colormaplen = 0;              /* indicate initialization */
    4167:	45 31 f6             	xor    %r14d,%r14d
/home/tenebris/Disk/Racing-code/examples/23-libjpeg-divide-by-zero/libjpeg-turbo-2.0.90/rdgif.c:413
  source->colormap = (*cinfo->mem->alloc_sarray)
    416a:	ba 00 01 00 00       	mov    $0x100,%edx
    416f:	be 01 00 00 00       	mov    $0x1,%esi
    4174:	ff 50 10             	call   *0x10(%rax)
/home/tenebris/Disk/Racing-code/examples/23-libjpeg-divide-by-zero/libjpeg-turbo-2.0.90/rdgif.c:419
  if (BitSet(hdrbuf[4], COLORMAPFLAG)) {
    4177:	0f b6 4c 24 12       	movzbl 0x12(%rsp),%ecx
/home/tenebris/Disk/Racing-code/examples/23-libjpeg-divide-by-zero/libjpeg-turbo-2.0.90/rdgif.c:413
  source->colormap = (*cinfo->mem->alloc_sarray)
    417c:	48 89 43 38          	mov    %rax,0x38(%rbx)
/home/tenebris/Disk/Racing-code/examples/23-libjpeg-divide-by-zero/libjpeg-turbo-2.0.90/rdgif.c:419
  if (BitSet(hdrbuf[4], COLORMAPFLAG)) {
    4180:	84 c9                	test   %cl,%cl
    4182:	0f 88 88 03 00 00    	js     4510 <start_input_gif+0x4b0>
ReadByte():
/home/tenebris/Disk/Racing-code/examples/23-libjpeg-divide-by-zero/libjpeg-turbo-2.0.90/rdgif.c:145
  if ((c = getc(infile)) == EOF)
    4188:	48 8b 7b 18          	mov    0x18(%rbx),%rdi
    418c:	e8 df e2 ff ff       	call   2470 <getc@plt>
    4191:	41 89 c4             	mov    %eax,%r12d
    4194:	83 f8 ff             	cmp    $0xffffffff,%eax
    4197:	0f 84 83 02 00 00    	je     4420 <start_input_gif+0x3c0>
start_input_gif():
/home/tenebris/Disk/Racing-code/examples/23-libjpeg-divide-by-zero/libjpeg-turbo-2.0.90/rdgif.c:430
    if (c == ';')               /* GIF terminator?? */
    419d:	83 f8 3b             	cmp    $0x3b,%eax
    41a0:	0f 84 aa 02 00 00    	je     4450 <start_input_gif+0x3f0>
/home/tenebris/Disk/Racing-code/examples/23-libjpeg-divide-by-zero/libjpeg-turbo-2.0.90/rdgif.c:433
    if (c == '!') {             /* Extension */
    41a6:	83 f8 21             	cmp    $0x21,%eax
    41a9:	0f 84 f1 02 00 00    	je     44a0 <start_input_gif+0x440>
/home/tenebris/Disk/Racing-code/examples/23-libjpeg-divide-by-zero/libjpeg-turbo-2.0.90/rdgif.c:438
    if (c != ',') {             /* Not an image separator? */
    41af:	83 f8 2c             	cmp    $0x2c,%eax
    41b2:	0f 85 78 02 00 00    	jne    4430 <start_input_gif+0x3d0>
fread():
/usr/include/x86_64-linux-gnu/bits/stdio2.h:293
    41b8:	48 8b 4b 18          	mov    0x18(%rbx),%rcx
    41bc:	ba 09 00 00 00       	mov    $0x9,%edx
    41c1:	be 01 00 00 00       	mov    $0x1,%esi
    41c6:	4c 89 ef             	mov    %r13,%rdi
    41c9:	e8 c2 e0 ff ff       	call   2290 <fread@plt>
start_input_gif():
/home/tenebris/Disk/Racing-code/examples/23-libjpeg-divide-by-zero/libjpeg-turbo-2.0.90/rdgif.c:444
    if (!ReadOK(source->pub.input_file, hdrbuf, 9))
    41ce:	48 83 f8 09          	cmp    $0x9,%rax
    41d2:	74 10                	je     41e4 <start_input_gif+0x184>
/home/tenebris/Disk/Racing-code/examples/23-libjpeg-divide-by-zero/libjpeg-turbo-2.0.90/rdgif.c:445
      ERREXIT(cinfo, JERR_INPUT_EOF);
    41d4:	48 8b 45 00          	mov    0x0(%rbp),%rax
    41d8:	48 89 ef             	mov    %rbp,%rdi
    41db:	c7 40 28 2b 00 00 00 	movl   $0x2b,0x28(%rax)
    41e2:	ff 10                	call   *(%rax)
/home/tenebris/Disk/Racing-code/examples/23-libjpeg-divide-by-zero/libjpeg-turbo-2.0.90/rdgif.c:447
    width = LM_to_uint(hdrbuf, 4);
    41e4:	44 0f b6 64 24 13    	movzbl 0x13(%rsp),%r12d
    41ea:	0f b6 44 24 12       	movzbl 0x12(%rsp),%eax
/home/tenebris/Disk/Racing-code/examples/23-libjpeg-divide-by-zero/libjpeg-turbo-2.0.90/rdgif.c:448
    height = LM_to_uint(hdrbuf, 6);
    41ef:	44 0f b6 6c 24 15    	movzbl 0x15(%rsp),%r13d
/home/tenebris/Disk/Racing-code/examples/23-libjpeg-divide-by-zero/libjpeg-turbo-2.0.90/rdgif.c:449
    source->is_interlaced = (BitSet(hdrbuf[8], INTERLACE) != 0);
    41f5:	0f b6 4c 24 16       	movzbl 0x16(%rsp),%ecx
/home/tenebris/Disk/Racing-code/examples/23-libjpeg-divide-by-zero/libjpeg-turbo-2.0.90/rdgif.c:447
    width = LM_to_uint(hdrbuf, 4);
    41fa:	41 c1 e4 08          	shl    $0x8,%r12d
    41fe:	41 01 c4             	add    %eax,%r12d
/home/tenebris/Disk/Racing-code/examples/23-libjpeg-divide-by-zero/libjpeg-turbo-2.0.90/rdgif.c:448
    height = LM_to_uint(hdrbuf, 6);
    4201:	0f b6 44 24 14       	movzbl 0x14(%rsp),%eax
    4206:	41 c1 e5 08          	shl    $0x8,%r13d
    420a:	41 01 c5             	add    %eax,%r13d
/home/tenebris/Disk/Racing-code/examples/23-libjpeg-divide-by-zero/libjpeg-turbo-2.0.90/rdgif.c:449
    source->is_interlaced = (BitSet(hdrbuf[8], INTERLACE) != 0);
    420d:	89 c8                	mov    %ecx,%eax
    420f:	c0 e8 06             	shr    $0x6,%al
    4212:	83 e0 01             	and    $0x1,%eax
    4215:	89 83 98 01 00 00    	mov    %eax,0x198(%rbx)
/home/tenebris/Disk/Racing-code/examples/23-libjpeg-divide-by-zero/libjpeg-turbo-2.0.90/rdgif.c:454
    if (BitSet(hdrbuf[8], COLORMAPFLAG)) {
    421b:	84 c9                	test   %cl,%cl
    421d:	0f 88 cd 02 00 00    	js     44f0 <start_input_gif+0x490>
ReadByte():
/home/tenebris/Disk/Racing-code/examples/23-libjpeg-divide-by-zero/libjpeg-turbo-2.0.90/rdgif.c:145
  if ((c = getc(infile)) == EOF)
    4223:	48 8b 7b 18          	mov    0x18(%rbx),%rdi
    4227:	e8 44 e2 ff ff       	call   2470 <getc@plt>
    422c:	41 89 c7             	mov    %eax,%r15d
    422f:	83 f8 ff             	cmp    $0xffffffff,%eax
    4232:	0f 84 30 02 00 00    	je     4468 <start_input_gif+0x408>
start_input_gif():
/home/tenebris/Disk/Racing-code/examples/23-libjpeg-divide-by-zero/libjpeg-turbo-2.0.90/rdgif.c:459
    source->input_code_size = ReadByte(source); /* get min-code-size byte */
    4238:	89 83 58 01 00 00    	mov    %eax,0x158(%rbx)
/home/tenebris/Disk/Racing-code/examples/23-libjpeg-divide-by-zero/libjpeg-turbo-2.0.90/rdgif.c:460
    if (source->input_code_size < 2 || source->input_code_size > 8)
    423e:	8d 40 fe             	lea    -0x2(%rax),%eax
    4241:	83 f8 06             	cmp    $0x6,%eax
    4244:	0f 87 38 02 00 00    	ja     4482 <start_input_gif+0x422>
/home/tenebris/Disk/Racing-code/examples/23-libjpeg-divide-by-zero/libjpeg-turbo-2.0.90/rdgif.c:471
    (*cinfo->mem->alloc_large) ((j_common_ptr)cinfo, JPOOL_IMAGE,
    424a:	48 8b 45 08          	mov    0x8(%rbp),%rax
    424e:	ba 00 20 00 00       	mov    $0x2000,%edx
    4253:	be 01 00 00 00       	mov    $0x1,%esi
    4258:	48 89 ef             	mov    %rbp,%rdi
    425b:	ff 50 08             	call   *0x8(%rax)
/home/tenebris/Disk/Racing-code/examples/23-libjpeg-divide-by-zero/libjpeg-turbo-2.0.90/rdgif.c:474
    (*cinfo->mem->alloc_large) ((j_common_ptr)cinfo, JPOOL_IMAGE,
    425e:	ba 00 10 00 00       	mov    $0x1000,%edx
    4263:	be 01 00 00 00       	mov    $0x1,%esi
    4268:	48 89 ef             	mov    %rbp,%rdi
/home/tenebris/Disk/Racing-code/examples/23-libjpeg-divide-by-zero/libjpeg-turbo-2.0.90/rdgif.c:470
  source->symbol_head = (UINT16 *)
    426b:	48 89 83 78 01 00 00 	mov    %rax,0x178(%rbx)
/home/tenebris/Disk/Racing-code/examples/23-libjpeg-divide-by-zero/libjpeg-turbo-2.0.90/rdgif.c:474
    (*cinfo->mem->alloc_large) ((j_common_ptr)cinfo, JPOOL_IMAGE,
    4272:	48 8b 45 08          	mov    0x8(%rbp),%rax
    4276:	ff 50 08             	call   *0x8(%rax)
/home/tenebris/Disk/Racing-code/examples/23-libjpeg-divide-by-zero/libjpeg-turbo-2.0.90/rdgif.c:477
    (*cinfo->mem->alloc_large) ((j_common_ptr)cinfo, JPOOL_IMAGE,
    4279:	ba 00 10 00 00       	mov    $0x1000,%edx
    427e:	be 01 00 00 00       	mov    $0x1,%esi
    4283:	48 89 ef             	mov    %rbp,%rdi
/home/tenebris/Disk/Racing-code/examples/23-libjpeg-divide-by-zero/libjpeg-turbo-2.0.90/rdgif.c:473
  source->symbol_tail = (UINT8 *)
    4286:	48 89 83 80 01 00 00 	mov    %rax,0x180(%rbx)
/home/tenebris/Disk/Racing-code/examples/23-libjpeg-divide-by-zero/libjpeg-turbo-2.0.90/rdgif.c:477
    (*cinfo->mem->alloc_large) ((j_common_ptr)cinfo, JPOOL_IMAGE,
    428d:	48 8b 45 08          	mov    0x8(%rbp),%rax
    4291:	ff 50 08             	call   *0x8(%rax)
InitLZWCode():
/home/tenebris/Disk/Racing-code/examples/23-libjpeg-divide-by-zero/libjpeg-turbo-2.0.90/rdgif.c:204
  sinfo->clear_code = 1 << sinfo->input_code_size;
    4294:	8b 8b 58 01 00 00    	mov    0x158(%rbx),%ecx
/home/tenebris/Disk/Racing-code/examples/23-libjpeg-divide-by-zero/libjpeg-turbo-2.0.90/rdgif.c:194
  sinfo->last_byte = 2;         /* make safe to "recopy last two bytes" */
    429a:	66 0f 6f 05 5e 7e 00 	movdqa 0x7e5e(%rip),%xmm0        # c100 <_IO_stdin_used+0x1100>
    42a1:	00 
/home/tenebris/Disk/Racing-code/examples/23-libjpeg-divide-by-zero/libjpeg-turbo-2.0.90/rdgif.c:200
  sinfo->out_of_blocks = FALSE;
    42a2:	c7 83 54 01 00 00 00 	movl   $0x0,0x154(%rbx)
    42a9:	00 00 00 
start_input_gif():
/home/tenebris/Disk/Racing-code/examples/23-libjpeg-divide-by-zero/libjpeg-turbo-2.0.90/rdgif.c:477
    (*cinfo->mem->alloc_large) ((j_common_ptr)cinfo, JPOOL_IMAGE,
    42ac:	49 89 c0             	mov    %rax,%r8
InitLZWCode():
/home/tenebris/Disk/Racing-code/examples/23-libjpeg-divide-by-zero/libjpeg-turbo-2.0.90/rdgif.c:195
  sinfo->code_buf[0] = 0;
    42af:	31 c0                	xor    %eax,%eax
    42b1:	66 89 43 40          	mov    %ax,0x40(%rbx)
/home/tenebris/Disk/Racing-code/examples/23-libjpeg-divide-by-zero/libjpeg-turbo-2.0.90/rdgif.c:204
  sinfo->clear_code = 1 << sinfo->input_code_size;
    42b5:	b8 01 00 00 00       	mov    $0x1,%eax
ReInitLZW():
/home/tenebris/Disk/Racing-code/examples/23-libjpeg-divide-by-zero/libjpeg-turbo-2.0.90/rdgif.c:182
  sinfo->code_size = sinfo->input_code_size + 1;
    42ba:	8d 71 01             	lea    0x1(%rcx),%esi
InitLZWCode():
/home/tenebris/Disk/Racing-code/examples/23-libjpeg-divide-by-zero/libjpeg-turbo-2.0.90/rdgif.c:204
  sinfo->clear_code = 1 << sinfo->input_code_size;
    42bd:	d3 e0                	shl    %cl,%eax
/home/tenebris/Disk/Racing-code/examples/23-libjpeg-divide-by-zero/libjpeg-turbo-2.0.90/rdgif.c:194
  sinfo->last_byte = 2;         /* make safe to "recopy last two bytes" */
    42bf:	0f 11 83 44 01 00 00 	movups %xmm0,0x144(%rbx)
ReInitLZW():
/home/tenebris/Disk/Racing-code/examples/23-libjpeg-divide-by-zero/libjpeg-turbo-2.0.90/rdgif.c:182
  sinfo->code_size = sinfo->input_code_size + 1;
    42c6:	66 0f 6e c6          	movd   %esi,%xmm0
InitLZWCode():
/home/tenebris/Disk/Racing-code/examples/23-libjpeg-divide-by-zero/libjpeg-turbo-2.0.90/rdgif.c:205
  sinfo->end_code = sinfo->clear_code + 1;
    42ca:	8d 50 01             	lea    0x1(%rax),%edx
ReInitLZW():
/home/tenebris/Disk/Racing-code/examples/23-libjpeg-divide-by-zero/libjpeg-turbo-2.0.90/rdgif.c:183
  sinfo->limit_code = sinfo->clear_code << 1;   /* 2^code_size */
    42cd:	8d 0c 00             	lea    (%rax,%rax,1),%ecx
InitLZWCode():
/home/tenebris/Disk/Racing-code/examples/23-libjpeg-divide-by-zero/libjpeg-turbo-2.0.90/rdgif.c:204
  sinfo->clear_code = 1 << sinfo->input_code_size;
    42d0:	66 0f 6e c8          	movd   %eax,%xmm1
ReInitLZW():
/home/tenebris/Disk/Racing-code/examples/23-libjpeg-divide-by-zero/libjpeg-turbo-2.0.90/rdgif.c:184
  sinfo->max_code = sinfo->clear_code + 2;      /* first unused code value */
    42d4:	83 c0 02             	add    $0x2,%eax
InitLZWCode():
/home/tenebris/Disk/Racing-code/examples/23-libjpeg-divide-by-zero/libjpeg-turbo-2.0.90/rdgif.c:204
  sinfo->clear_code = 1 << sinfo->input_code_size;
    42d7:	66 0f 6e da          	movd   %edx,%xmm3
    42db:	66 0f 6e d1          	movd   %ecx,%xmm2
start_input_gif():
/home/tenebris/Disk/Racing-code/examples/23-libjpeg-divide-by-zero/libjpeg-turbo-2.0.90/rdgif.c:486
  if (source->is_interlaced) {
    42df:	8b 93 98 01 00 00    	mov    0x198(%rbx),%edx
ReInitLZW():
/home/tenebris/Disk/Racing-code/examples/23-libjpeg-divide-by-zero/libjpeg-turbo-2.0.90/rdgif.c:184
  sinfo->max_code = sinfo->clear_code + 2;      /* first unused code value */
    42e5:	89 83 6c 01 00 00    	mov    %eax,0x16c(%rbx)
InitLZWCode():
/home/tenebris/Disk/Racing-code/examples/23-libjpeg-divide-by-zero/libjpeg-turbo-2.0.90/rdgif.c:204
  sinfo->clear_code = 1 << sinfo->input_code_size;
    42eb:	66 0f 62 c2          	punpckldq %xmm2,%xmm0
    42ef:	66 0f 62 cb          	punpckldq %xmm3,%xmm1
start_input_gif():
/home/tenebris/Disk/Racing-code/examples/23-libjpeg-divide-by-zero/libjpeg-turbo-2.0.90/rdgif.c:204
    42f3:	48 8d 05 f6 03 00 00 	lea    0x3f6(%rip),%rax        # 46f0 <get_pixel_rows>
InitLZWCode():
/home/tenebris/Disk/Racing-code/examples/23-libjpeg-divide-by-zero/libjpeg-turbo-2.0.90/rdgif.c:204
    42fa:	66 0f 6c c8          	punpcklqdq %xmm0,%xmm1
start_input_gif():
/home/tenebris/Disk/Racing-code/examples/23-libjpeg-divide-by-zero/libjpeg-turbo-2.0.90/rdgif.c:476
  source->symbol_stack = (UINT8 *)
    42fe:	66 49 0f 6e c0       	movq   %r8,%xmm0
    4303:	66 0f 6c c0          	punpcklqdq %xmm0,%xmm0
InitLZWCode():
/home/tenebris/Disk/Racing-code/examples/23-libjpeg-divide-by-zero/libjpeg-turbo-2.0.90/rdgif.c:204
  sinfo->clear_code = 1 << sinfo->input_code_size;
    4307:	0f 11 8b 5c 01 00 00 	movups %xmm1,0x15c(%rbx)
start_input_gif():
/home/tenebris/Disk/Racing-code/examples/23-libjpeg-divide-by-zero/libjpeg-turbo-2.0.90/rdgif.c:476
  source->symbol_stack = (UINT8 *)
    430e:	0f 11 83 88 01 00 00 	movups %xmm0,0x188(%rbx)
/home/tenebris/Disk/Racing-code/examples/23-libjpeg-divide-by-zero/libjpeg-turbo-2.0.90/rdgif.c:486
  if (source->is_interlaced) {
    4315:	85 d2                	test   %edx,%edx
    4317:	74 38                	je     4351 <start_input_gif+0x2f1>
/home/tenebris/Disk/Racing-code/examples/23-libjpeg-divide-by-zero/libjpeg-turbo-2.0.90/rdgif.c:491
    source->interlaced_image = (*cinfo->mem->request_virt_sarray)
    4319:	48 8b 45 08          	mov    0x8(%rbp),%rax
    431d:	41 b9 01 00 00 00    	mov    $0x1,%r9d
    4323:	45 89 e8             	mov    %r13d,%r8d
    4326:	44 89 e1             	mov    %r12d,%ecx
    4329:	31 d2                	xor    %edx,%edx
    432b:	be 01 00 00 00       	mov    $0x1,%esi
    4330:	48 89 ef             	mov    %rbp,%rdi
    4333:	ff 50 20             	call   *0x20(%rax)
    4336:	48 89 83 a0 01 00 00 	mov    %rax,0x1a0(%rbx)
/home/tenebris/Disk/Racing-code/examples/23-libjpeg-divide-by-zero/libjpeg-turbo-2.0.90/rdgif.c:494
    if (cinfo->progress != NULL) {
    433d:	48 8b 45 10          	mov    0x10(%rbp),%rax
    4341:	48 85 c0             	test   %rax,%rax
    4344:	74 04                	je     434a <start_input_gif+0x2ea>
/home/tenebris/Disk/Racing-code/examples/23-libjpeg-divide-by-zero/libjpeg-turbo-2.0.90/rdgif.c:496
      progress->total_extra_passes++; /* count file input as separate pass */
    4346:	83 40 24 01          	addl   $0x1,0x24(%rax)
/home/tenebris/Disk/Racing-code/examples/23-libjpeg-divide-by-zero/libjpeg-turbo-2.0.90/rdgif.c:498
    source->pub.get_pixel_rows = load_interlaced_image;
    434a:	48 8d 05 1f 08 00 00 	lea    0x81f(%rip),%rax        # 4b70 <load_interlaced_image>
    4351:	48 89 43 08          	mov    %rax,0x8(%rbx)
/home/tenebris/Disk/Racing-code/examples/23-libjpeg-divide-by-zero/libjpeg-turbo-2.0.90/rdgif.c:504
  source->pub.buffer = (*cinfo->mem->alloc_sarray)
    4355:	48 8b 45 08          	mov    0x8(%rbp),%rax
    4359:	43 8d 14 64          	lea    (%r12,%r12,2),%edx
    435d:	48 89 ef             	mov    %rbp,%rdi
    4360:	b9 01 00 00 00       	mov    $0x1,%ecx
    4365:	be 01 00 00 00       	mov    $0x1,%esi
    436a:	ff 50 10             	call   *0x10(%rax)
/home/tenebris/Disk/Racing-code/examples/23-libjpeg-divide-by-zero/libjpeg-turbo-2.0.90/rdgif.c:507
  source->pub.buffer_height = 1;
    436d:	c7 43 28 01 00 00 00 	movl   $0x1,0x28(%rbx)
/home/tenebris/Disk/Racing-code/examples/23-libjpeg-divide-by-zero/libjpeg-turbo-2.0.90/rdgif.c:504
  source->pub.buffer = (*cinfo->mem->alloc_sarray)
    4374:	48 89 43 20          	mov    %rax,0x20(%rbx)
/home/tenebris/Disk/Racing-code/examples/23-libjpeg-divide-by-zero/libjpeg-turbo-2.0.90/rdgif.c:510
  for (c = colormaplen; c < source->clear_code; c++) {
    4378:	49 63 c6             	movslq %r14d,%rax
    437b:	44 3b b3 5c 01 00 00 	cmp    0x15c(%rbx),%r14d
    4382:	7d 33                	jge    43b7 <start_input_gif+0x357>
    4384:	0f 1f 40 00          	nopl   0x0(%rax)
/home/tenebris/Disk/Racing-code/examples/23-libjpeg-divide-by-zero/libjpeg-turbo-2.0.90/rdgif.c:513 (discriminator 3)
    source->colormap[CM_BLUE][c]  = CENTERJSAMPLE;
    4388:	48 8b 53 38          	mov    0x38(%rbx),%rdx
    438c:	48 8b 52 10          	mov    0x10(%rdx),%rdx
    4390:	c6 04 02 80          	movb   $0x80,(%rdx,%rax,1)
/home/tenebris/Disk/Racing-code/examples/23-libjpeg-divide-by-zero/libjpeg-turbo-2.0.90/rdgif.c:512 (discriminator 3)
    source->colormap[CM_GREEN][c] =
    4394:	48 8b 53 38          	mov    0x38(%rbx),%rdx
    4398:	48 8b 52 08          	mov    0x8(%rdx),%rdx
    439c:	c6 04 02 80          	movb   $0x80,(%rdx,%rax,1)
/home/tenebris/Disk/Racing-code/examples/23-libjpeg-divide-by-zero/libjpeg-turbo-2.0.90/rdgif.c:511 (discriminator 3)
    source->colormap[CM_RED][c]   =
    43a0:	48 8b 53 38          	mov    0x38(%rbx),%rdx
    43a4:	48 8b 12             	mov    (%rdx),%rdx
    43a7:	c6 04 02 80          	movb   $0x80,(%rdx,%rax,1)
/home/tenebris/Disk/Racing-code/examples/23-libjpeg-divide-by-zero/libjpeg-turbo-2.0.90/rdgif.c:510 (discriminator 3)
  for (c = colormaplen; c < source->clear_code; c++) {
    43ab:	48 83 c0 01          	add    $0x1,%rax
    43af:	39 83 5c 01 00 00    	cmp    %eax,0x15c(%rbx)
    43b5:	7f d1                	jg     4388 <start_input_gif+0x328>
/home/tenebris/Disk/Racing-code/examples/23-libjpeg-divide-by-zero/libjpeg-turbo-2.0.90/rdgif.c:519
  cinfo->data_precision = BITS_IN_JSAMPLE; /* we always rescale data to this */
    43b7:	c7 45 48 08 00 00 00 	movl   $0x8,0x48(%rbp)
/home/tenebris/Disk/Racing-code/examples/23-libjpeg-divide-by-zero/libjpeg-turbo-2.0.90/rdgif.c:523
  TRACEMS3(cinfo, 1, JTRC_GIF, width, height, colormaplen);
    43be:	be 01 00 00 00       	mov    $0x1,%esi
    43c3:	48 89 ef             	mov    %rbp,%rdi
/home/tenebris/Disk/Racing-code/examples/23-libjpeg-divide-by-zero/libjpeg-turbo-2.0.90/rdgif.c:518
  cinfo->input_components = NUMCOLORS;
    43c6:	48 b8 03 00 00 00 02 	movabs $0x200000003,%rax
    43cd:	00 00 00 
    43d0:	48 89 45 38          	mov    %rax,0x38(%rbp)
/home/tenebris/Disk/Racing-code/examples/23-libjpeg-divide-by-zero/libjpeg-turbo-2.0.90/rdgif.c:523
  TRACEMS3(cinfo, 1, JTRC_GIF, width, height, colormaplen);
    43d4:	48 8b 45 00          	mov    0x0(%rbp),%rax
/home/tenebris/Disk/Racing-code/examples/23-libjpeg-divide-by-zero/libjpeg-turbo-2.0.90/rdgif.c:520
  cinfo->image_width = width;
    43d8:	44 89 65 30          	mov    %r12d,0x30(%rbp)
/home/tenebris/Disk/Racing-code/examples/23-libjpeg-divide-by-zero/libjpeg-turbo-2.0.90/rdgif.c:521
  cinfo->image_height = height;
    43dc:	44 89 6d 34          	mov    %r13d,0x34(%rbp)
/home/tenebris/Disk/Racing-code/examples/23-libjpeg-divide-by-zero/libjpeg-turbo-2.0.90/rdgif.c:523
  TRACEMS3(cinfo, 1, JTRC_GIF, width, height, colormaplen);
    43e0:	44 89 60 2c          	mov    %r12d,0x2c(%rax)
    43e4:	44 89 68 30          	mov    %r13d,0x30(%rax)
    43e8:	44 89 70 34          	mov    %r14d,0x34(%rax)
    43ec:	c7 40 28 fb 03 00 00 	movl   $0x3fb,0x28(%rax)
    43f3:	ff 50 08             	call   *0x8(%rax)
/home/tenebris/Disk/Racing-code/examples/23-libjpeg-divide-by-zero/libjpeg-turbo-2.0.90/rdgif.c:524
}
    43f6:	48 8b 44 24 18       	mov    0x18(%rsp),%rax
    43fb:	64 48 2b 04 25 28 00 	sub    %fs:0x28,%rax
    4402:	00 00 
    4404:	0f 85 25 01 00 00    	jne    452f <start_input_gif+0x4cf>
    440a:	48 83 c4 28          	add    $0x28,%rsp
    440e:	5b                   	pop    %rbx
    440f:	5d                   	pop    %rbp
    4410:	41 5c                	pop    %r12
    4412:	41 5d                	pop    %r13
    4414:	41 5e                	pop    %r14
    4416:	41 5f                	pop    %r15
    4418:	c3                   	ret    
    4419:	0f 1f 80 00 00 00 00 	nopl   0x0(%rax)
    4420:	48 8b 7b 30          	mov    0x30(%rbx),%rdi
ReadByte():
/home/tenebris/Disk/Racing-code/examples/23-libjpeg-divide-by-zero/libjpeg-turbo-2.0.90/rdgif.c:146
    ERREXIT(sinfo->cinfo, JERR_INPUT_EOF);
    4424:	48 8b 07             	mov    (%rdi),%rax
    4427:	c7 40 28 2b 00 00 00 	movl   $0x2b,0x28(%rax)
    442e:	ff 10                	call   *(%rax)
start_input_gif():
/home/tenebris/Disk/Racing-code/examples/23-libjpeg-divide-by-zero/libjpeg-turbo-2.0.90/rdgif.c:439 (discriminator 1)
      WARNMS1(cinfo, JWRN_GIF_CHAR, c);
    4430:	48 8b 45 00          	mov    0x0(%rbp),%rax
    4434:	be ff ff ff ff       	mov    $0xffffffff,%esi
    4439:	48 89 ef             	mov    %rbp,%rdi
    443c:	c7 40 28 00 04 00 00 	movl   $0x400,0x28(%rax)
    4443:	44 89 60 2c          	mov    %r12d,0x2c(%rax)
    4447:	ff 50 08             	call   *0x8(%rax)
/home/tenebris/Disk/Racing-code/examples/23-libjpeg-divide-by-zero/libjpeg-turbo-2.0.90/rdgif.c:440 (discriminator 1)
      continue;
    444a:	e9 39 fd ff ff       	jmp    4188 <start_input_gif+0x128>
    444f:	90                   	nop
/home/tenebris/Disk/Racing-code/examples/23-libjpeg-divide-by-zero/libjpeg-turbo-2.0.90/rdgif.c:431
      ERREXIT(cinfo, JERR_GIF_IMAGENOTFOUND);
    4450:	48 8b 45 00          	mov    0x0(%rbp),%rax
    4454:	48 89 ef             	mov    %rbp,%rdi
    4457:	c7 40 28 f9 03 00 00 	movl   $0x3f9,0x28(%rax)
    445e:	ff 10                	call   *(%rax)
/home/tenebris/Disk/Racing-code/examples/23-libjpeg-divide-by-zero/libjpeg-turbo-2.0.90/rdgif.c:438
    if (c != ',') {             /* Not an image separator? */
    4460:	eb ce                	jmp    4430 <start_input_gif+0x3d0>
    4462:	66 0f 1f 44 00 00    	nopw   0x0(%rax,%rax,1)
    4468:	48 8b 7b 30          	mov    0x30(%rbx),%rdi
ReadByte():
/home/tenebris/Disk/Racing-code/examples/23-libjpeg-divide-by-zero/libjpeg-turbo-2.0.90/rdgif.c:146
    ERREXIT(sinfo->cinfo, JERR_INPUT_EOF);
    446c:	48 8b 07             	mov    (%rdi),%rax
    446f:	c7 40 28 2b 00 00 00 	movl   $0x2b,0x28(%rax)
    4476:	ff 10                	call   *(%rax)
start_input_gif():
/home/tenebris/Disk/Racing-code/examples/23-libjpeg-divide-by-zero/libjpeg-turbo-2.0.90/rdgif.c:459
    source->input_code_size = ReadByte(source); /* get min-code-size byte */
    4478:	c7 83 58 01 00 00 ff 	movl   $0xffffffff,0x158(%rbx)
    447f:	ff ff ff 
/home/tenebris/Disk/Racing-code/examples/23-libjpeg-divide-by-zero/libjpeg-turbo-2.0.90/rdgif.c:461
      ERREXIT1(cinfo, JERR_GIF_CODESIZE, source->input_code_size);
    4482:	48 8b 45 00          	mov    0x0(%rbp),%rax
    4486:	48 89 ef             	mov    %rbp,%rdi
    4489:	c7 40 28 f7 03 00 00 	movl   $0x3f7,0x28(%rax)
    4490:	44 89 78 2c          	mov    %r15d,0x2c(%rax)
    4494:	ff 10                	call   *(%rax)
    4496:	e9 af fd ff ff       	jmp    424a <start_input_gif+0x1ea>
    449b:	0f 1f 44 00 00       	nopl   0x0(%rax,%rax,1)
/home/tenebris/Disk/Racing-code/examples/23-libjpeg-divide-by-zero/libjpeg-turbo-2.0.90/rdgif.c:434 (discriminator 1)
      DoExtension(source);
    44a0:	48 89 df             	mov    %rbx,%rdi
    44a3:	e8 c8 fa ff ff       	call   3f70 <DoExtension>
/home/tenebris/Disk/Racing-code/examples/23-libjpeg-divide-by-zero/libjpeg-turbo-2.0.90/rdgif.c:435 (discriminator 1)
      continue;
    44a8:	e9 db fc ff ff       	jmp    4188 <start_input_gif+0x128>
    44ad:	0f 1f 00             	nopl   (%rax)
/home/tenebris/Disk/Racing-code/examples/23-libjpeg-divide-by-zero/libjpeg-turbo-2.0.90/rdgif.c:398 (discriminator 1)
  if ((hdrbuf[3] != '8' || hdrbuf[4] != '7' || hdrbuf[5] != 'a') &&
    44b0:	8d 41 c9             	lea    -0x37(%rcx),%eax
    44b3:	a8 fd                	test   $0xfd,%al
    44b5:	0f 85 31 fc ff ff    	jne    40ec <start_input_gif+0x8c>
/home/tenebris/Disk/Racing-code/examples/23-libjpeg-divide-by-zero/libjpeg-turbo-2.0.90/rdgif.c:398 (discriminator 2)
    44bb:	40 80 fe 61          	cmp    $0x61,%sil
    44bf:	0f 85 27 fc ff ff    	jne    40ec <start_input_gif+0x8c>
    44c5:	e9 41 fc ff ff       	jmp    410b <start_input_gif+0xab>
    44ca:	66 0f 1f 44 00 00    	nopw   0x0(%rax,%rax,1)
/home/tenebris/Disk/Racing-code/examples/23-libjpeg-divide-by-zero/libjpeg-turbo-2.0.90/rdgif.c:392 (discriminator 1)
  if (hdrbuf[0] != 'G' || hdrbuf[1] != 'I' || hdrbuf[2] != 'F')
    44d0:	80 7c 24 0f 49       	cmpb   $0x49,0xf(%rsp)
    44d5:	0f 85 e9 fb ff ff    	jne    40c4 <start_input_gif+0x64>
/home/tenebris/Disk/Racing-code/examples/23-libjpeg-divide-by-zero/libjpeg-turbo-2.0.90/rdgif.c:392 (discriminator 2)
    44db:	80 7c 24 10 46       	cmpb   $0x46,0x10(%rsp)
    44e0:	0f 85 de fb ff ff    	jne    40c4 <start_input_gif+0x64>
    44e6:	e9 e9 fb ff ff       	jmp    40d4 <start_input_gif+0x74>
    44eb:	0f 1f 44 00 00       	nopl   0x0(%rax,%rax,1)
/home/tenebris/Disk/Racing-code/examples/23-libjpeg-divide-by-zero/libjpeg-turbo-2.0.90/rdgif.c:455
      colormaplen = 2 << (hdrbuf[8] & 0x07);
    44f0:	83 e1 07             	and    $0x7,%ecx
    44f3:	41 be 02 00 00 00    	mov    $0x2,%r14d
/home/tenebris/Disk/Racing-code/examples/23-libjpeg-divide-by-zero/libjpeg-turbo-2.0.90/rdgif.c:456
      ReadColorMap(source, colormaplen, source->colormap);
    44f9:	48 8b 53 38          	mov    0x38(%rbx),%rdx
    44fd:	48 89 df             	mov    %rbx,%rdi
/home/tenebris/Disk/Racing-code/examples/23-libjpeg-divide-by-zero/libjpeg-turbo-2.0.90/rdgif.c:455
      colormaplen = 2 << (hdrbuf[8] & 0x07);
    4500:	41 d3 e6             	shl    %cl,%r14d
/home/tenebris/Disk/Racing-code/examples/23-libjpeg-divide-by-zero/libjpeg-turbo-2.0.90/rdgif.c:456
      ReadColorMap(source, colormaplen, source->colormap);
    4503:	44 89 f6             	mov    %r14d,%esi
    4506:	e8 35 f9 ff ff       	call   3e40 <ReadColorMap>
    450b:	e9 13 fd ff ff       	jmp    4223 <start_input_gif+0x1c3>
/home/tenebris/Disk/Racing-code/examples/23-libjpeg-divide-by-zero/libjpeg-turbo-2.0.90/rdgif.c:420
    colormaplen = 2 << (hdrbuf[4] & 0x07);
    4510:	83 e1 07             	and    $0x7,%ecx
    4513:	41 be 02 00 00 00    	mov    $0x2,%r14d
/home/tenebris/Disk/Racing-code/examples/23-libjpeg-divide-by-zero/libjpeg-turbo-2.0.90/rdgif.c:421
    ReadColorMap(source, colormaplen, source->colormap);
    4519:	48 89 c2             	mov    %rax,%rdx
    451c:	48 89 df             	mov    %rbx,%rdi
/home/tenebris/Disk/Racing-code/examples/23-libjpeg-divide-by-zero/libjpeg-turbo-2.0.90/rdgif.c:420
    colormaplen = 2 << (hdrbuf[4] & 0x07);
    451f:	41 d3 e6             	shl    %cl,%r14d
/home/tenebris/Disk/Racing-code/examples/23-libjpeg-divide-by-zero/libjpeg-turbo-2.0.90/rdgif.c:421
    ReadColorMap(source, colormaplen, source->colormap);
    4522:	44 89 f6             	mov    %r14d,%esi
    4525:	e8 16 f9 ff ff       	call   3e40 <ReadColorMap>
    452a:	e9 59 fc ff ff       	jmp    4188 <start_input_gif+0x128>
/home/tenebris/Disk/Racing-code/examples/23-libjpeg-divide-by-zero/libjpeg-turbo-2.0.90/rdgif.c:524
}
    452f:	e8 8c dd ff ff       	call   22c0 <__stack_chk_fail@plt>
    4534:	66 66 2e 0f 1f 84 00 	data16 cs nopw 0x0(%rax,%rax,1)
    453b:	00 00 00 00 
    453f:	90                   	nop

0000000000004540 <GetCode>:
GetCode():
/home/tenebris/Disk/Racing-code/examples/23-libjpeg-divide-by-zero/libjpeg-turbo-2.0.90/rdgif.c:214
{
    4540:	41 55                	push   %r13
    4542:	41 54                	push   %r12
    4544:	55                   	push   %rbp
    4545:	53                   	push   %rbx
    4546:	48 89 fb             	mov    %rdi,%rbx
    4549:	48 83 ec 08          	sub    $0x8,%rsp
/home/tenebris/Disk/Racing-code/examples/23-libjpeg-divide-by-zero/libjpeg-turbo-2.0.90/rdgif.c:218
  while (sinfo->cur_bit + sinfo->code_size > sinfo->last_bit) {
    454d:	8b 97 4c 01 00 00    	mov    0x14c(%rdi),%edx
    4553:	8b 8f 64 01 00 00    	mov    0x164(%rdi),%ecx
    4559:	8d 34 11             	lea    (%rcx,%rdx,1),%esi
    455c:	3b b7 48 01 00 00    	cmp    0x148(%rdi),%esi
    4562:	0f 8e 08 01 00 00    	jle    4670 <GetCode+0x130>
/home/tenebris/Disk/Racing-code/examples/23-libjpeg-divide-by-zero/libjpeg-turbo-2.0.90/rdgif.c:233
    if ((count = GetDataBlock(sinfo, &sinfo->code_buf[2])) == 0) {
    4568:	4c 8d 67 42          	lea    0x42(%rdi),%r12
    456c:	eb 72                	jmp    45e0 <GetCode+0xa0>
    456e:	66 90                	xchg   %ax,%ax
GetDataBlock():
/home/tenebris/Disk/Racing-code/examples/23-libjpeg-divide-by-zero/libjpeg-turbo-2.0.90/rdgif.c:160
    if (!ReadOK(sinfo->pub.input_file, buf, count))
    4570:	4c 63 e8             	movslq %eax,%r13
fread():
/usr/include/x86_64-linux-gnu/bits/stdio2.h:293
    4573:	48 8b 4b 18          	mov    0x18(%rbx),%rcx
    4577:	be 01 00 00 00       	mov    $0x1,%esi
    457c:	4c 89 e7             	mov    %r12,%rdi
    457f:	4c 89 ea             	mov    %r13,%rdx
    4582:	e8 09 dd ff ff       	call   2290 <fread@plt>
GetDataBlock():
/home/tenebris/Disk/Racing-code/examples/23-libjpeg-divide-by-zero/libjpeg-turbo-2.0.90/rdgif.c:160
    4587:	49 39 c5             	cmp    %rax,%r13
    458a:	74 10                	je     459c <GetCode+0x5c>
/home/tenebris/Disk/Racing-code/examples/23-libjpeg-divide-by-zero/libjpeg-turbo-2.0.90/rdgif.c:161
      ERREXIT(sinfo->cinfo, JERR_INPUT_EOF);
    458c:	48 8b 7b 30          	mov    0x30(%rbx),%rdi
    4590:	48 8b 07             	mov    (%rdi),%rax
    4593:	c7 40 28 2b 00 00 00 	movl   $0x2b,0x28(%rax)
    459a:	ff 10                	call   *(%rax)
GetCode():
/home/tenebris/Disk/Racing-code/examples/23-libjpeg-divide-by-zero/libjpeg-turbo-2.0.90/rdgif.c:240
    sinfo->last_byte = 2 + count;
    459c:	83 c5 02             	add    $0x2,%ebp
/home/tenebris/Disk/Racing-code/examples/23-libjpeg-divide-by-zero/libjpeg-turbo-2.0.90/rdgif.c:239
    sinfo->cur_bit = (sinfo->cur_bit - sinfo->last_bit) + 16;
    459f:	8b 93 4c 01 00 00    	mov    0x14c(%rbx),%edx
/home/tenebris/Disk/Racing-code/examples/23-libjpeg-divide-by-zero/libjpeg-turbo-2.0.90/rdgif.c:218
  while (sinfo->cur_bit + sinfo->code_size > sinfo->last_bit) {
    45a5:	8b 8b 64 01 00 00    	mov    0x164(%rbx),%ecx
/home/tenebris/Disk/Racing-code/examples/23-libjpeg-divide-by-zero/libjpeg-turbo-2.0.90/rdgif.c:239
    sinfo->cur_bit = (sinfo->cur_bit - sinfo->last_bit) + 16;
    45ab:	2b 93 48 01 00 00    	sub    0x148(%rbx),%edx
/home/tenebris/Disk/Racing-code/examples/23-libjpeg-divide-by-zero/libjpeg-turbo-2.0.90/rdgif.c:241
    sinfo->last_bit = sinfo->last_byte * 8;
    45b1:	8d 04 ed 00 00 00 00 	lea    0x0(,%rbp,8),%eax
/home/tenebris/Disk/Racing-code/examples/23-libjpeg-divide-by-zero/libjpeg-turbo-2.0.90/rdgif.c:240
    sinfo->last_byte = 2 + count;
    45b8:	66 0f 6e c5          	movd   %ebp,%xmm0
/home/tenebris/Disk/Racing-code/examples/23-libjpeg-divide-by-zero/libjpeg-turbo-2.0.90/rdgif.c:239
    sinfo->cur_bit = (sinfo->cur_bit - sinfo->last_bit) + 16;
    45bc:	83 c2 10             	add    $0x10,%edx
/home/tenebris/Disk/Racing-code/examples/23-libjpeg-divide-by-zero/libjpeg-turbo-2.0.90/rdgif.c:240
    sinfo->last_byte = 2 + count;
    45bf:	66 0f 6e c8          	movd   %eax,%xmm1
    45c3:	66 0f 62 c1          	punpckldq %xmm1,%xmm0
/home/tenebris/Disk/Racing-code/examples/23-libjpeg-divide-by-zero/libjpeg-turbo-2.0.90/rdgif.c:218
  while (sinfo->cur_bit + sinfo->code_size > sinfo->last_bit) {
    45c7:	8d 34 0a             	lea    (%rdx,%rcx,1),%esi
/home/tenebris/Disk/Racing-code/examples/23-libjpeg-divide-by-zero/libjpeg-turbo-2.0.90/rdgif.c:239
    sinfo->cur_bit = (sinfo->cur_bit - sinfo->last_bit) + 16;
    45ca:	89 93 4c 01 00 00    	mov    %edx,0x14c(%rbx)
/home/tenebris/Disk/Racing-code/examples/23-libjpeg-divide-by-zero/libjpeg-turbo-2.0.90/rdgif.c:240
    sinfo->last_byte = 2 + count;
    45d0:	66 0f d6 83 44 01 00 	movq   %xmm0,0x144(%rbx)
    45d7:	00 
/home/tenebris/Disk/Racing-code/examples/23-libjpeg-divide-by-zero/libjpeg-turbo-2.0.90/rdgif.c:218
  while (sinfo->cur_bit + sinfo->code_size > sinfo->last_bit) {
    45d8:	39 f0                	cmp    %esi,%eax
    45da:	0f 8d 90 00 00 00    	jge    4670 <GetCode+0x130>
/home/tenebris/Disk/Racing-code/examples/23-libjpeg-divide-by-zero/libjpeg-turbo-2.0.90/rdgif.c:221
    if (sinfo->first_time) {
    45e0:	8b 93 50 01 00 00    	mov    0x150(%rbx),%edx
    45e6:	85 d2                	test   %edx,%edx
    45e8:	0f 85 da 00 00 00    	jne    46c8 <GetCode+0x188>
/home/tenebris/Disk/Racing-code/examples/23-libjpeg-divide-by-zero/libjpeg-turbo-2.0.90/rdgif.c:225
    if (sinfo->out_of_blocks) {
    45ee:	8b 83 54 01 00 00    	mov    0x154(%rbx),%eax
    45f4:	85 c0                	test   %eax,%eax
    45f6:	75 4d                	jne    4645 <GetCode+0x105>
/home/tenebris/Disk/Racing-code/examples/23-libjpeg-divide-by-zero/libjpeg-turbo-2.0.90/rdgif.c:230
    sinfo->code_buf[0] = sinfo->code_buf[sinfo->last_byte-2];
    45f8:	8b 83 44 01 00 00    	mov    0x144(%rbx),%eax
ReadByte():
/home/tenebris/Disk/Racing-code/examples/23-libjpeg-divide-by-zero/libjpeg-turbo-2.0.90/rdgif.c:145
  if ((c = getc(infile)) == EOF)
    45fe:	48 8b 7b 18          	mov    0x18(%rbx),%rdi
GetCode():
/home/tenebris/Disk/Racing-code/examples/23-libjpeg-divide-by-zero/libjpeg-turbo-2.0.90/rdgif.c:230
    sinfo->code_buf[0] = sinfo->code_buf[sinfo->last_byte-2];
    4602:	8d 50 fe             	lea    -0x2(%rax),%edx
/home/tenebris/Disk/Racing-code/examples/23-libjpeg-divide-by-zero/libjpeg-turbo-2.0.90/rdgif.c:231
    sinfo->code_buf[1] = sinfo->code_buf[sinfo->last_byte-1];
    4605:	83 e8 01             	sub    $0x1,%eax
/home/tenebris/Disk/Racing-code/examples/23-libjpeg-divide-by-zero/libjpeg-turbo-2.0.90/rdgif.c:230
    sinfo->code_buf[0] = sinfo->code_buf[sinfo->last_byte-2];
    4608:	48 63 d2             	movslq %edx,%rdx
/home/tenebris/Disk/Racing-code/examples/23-libjpeg-divide-by-zero/libjpeg-turbo-2.0.90/rdgif.c:231
    sinfo->code_buf[1] = sinfo->code_buf[sinfo->last_byte-1];
    460b:	48 98                	cltq   
/home/tenebris/Disk/Racing-code/examples/23-libjpeg-divide-by-zero/libjpeg-turbo-2.0.90/rdgif.c:230
    sinfo->code_buf[0] = sinfo->code_buf[sinfo->last_byte-2];
    460d:	0f b6 54 13 40       	movzbl 0x40(%rbx,%rdx,1),%edx
    4612:	88 53 40             	mov    %dl,0x40(%rbx)
/home/tenebris/Disk/Racing-code/examples/23-libjpeg-divide-by-zero/libjpeg-turbo-2.0.90/rdgif.c:231
    sinfo->code_buf[1] = sinfo->code_buf[sinfo->last_byte-1];
    4615:	0f b6 44 03 40       	movzbl 0x40(%rbx,%rax,1),%eax
    461a:	88 43 41             	mov    %al,0x41(%rbx)
ReadByte():
/home/tenebris/Disk/Racing-code/examples/23-libjpeg-divide-by-zero/libjpeg-turbo-2.0.90/rdgif.c:145
  if ((c = getc(infile)) == EOF)
    461d:	e8 4e de ff ff       	call   2470 <getc@plt>
    4622:	89 c5                	mov    %eax,%ebp
    4624:	83 f8 ff             	cmp    $0xffffffff,%eax
    4627:	0f 84 5f ff ff ff    	je     458c <GetCode+0x4c>
GetDataBlock():
/home/tenebris/Disk/Racing-code/examples/23-libjpeg-divide-by-zero/libjpeg-turbo-2.0.90/rdgif.c:159
  if (count > 0) {
    462d:	85 c0                	test   %eax,%eax
    462f:	0f 8f 3b ff ff ff    	jg     4570 <GetCode+0x30>
GetCode():
/home/tenebris/Disk/Racing-code/examples/23-libjpeg-divide-by-zero/libjpeg-turbo-2.0.90/rdgif.c:233
    if ((count = GetDataBlock(sinfo, &sinfo->code_buf[2])) == 0) {
    4635:	0f 85 61 ff ff ff    	jne    459c <GetCode+0x5c>
/home/tenebris/Disk/Racing-code/examples/23-libjpeg-divide-by-zero/libjpeg-turbo-2.0.90/rdgif.c:234
      sinfo->out_of_blocks = TRUE;
    463b:	c7 83 54 01 00 00 01 	movl   $0x1,0x154(%rbx)
    4642:	00 00 00 
/home/tenebris/Disk/Racing-code/examples/23-libjpeg-divide-by-zero/libjpeg-turbo-2.0.90/rdgif.c:235
      WARNMS(sinfo->cinfo, JWRN_GIF_NOMOREDATA);
    4645:	48 8b 7b 30          	mov    0x30(%rbx),%rdi
    4649:	be ff ff ff ff       	mov    $0xffffffff,%esi
    464e:	48 8b 07             	mov    (%rdi),%rax
    4651:	c7 40 28 02 04 00 00 	movl   $0x402,0x28(%rax)
    4658:	ff 50 08             	call   *0x8(%rax)
/home/tenebris/Disk/Racing-code/examples/23-libjpeg-divide-by-zero/libjpeg-turbo-2.0.90/rdgif.c:236
      return sinfo->end_code;   /* fake something useful */
    465b:	8b 83 60 01 00 00    	mov    0x160(%rbx),%eax
/home/tenebris/Disk/Racing-code/examples/23-libjpeg-divide-by-zero/libjpeg-turbo-2.0.90/rdgif.c:256
}
    4661:	48 83 c4 08          	add    $0x8,%rsp
    4665:	5b                   	pop    %rbx
    4666:	5d                   	pop    %rbp
    4667:	41 5c                	pop    %r12
    4669:	41 5d                	pop    %r13
    466b:	c3                   	ret    
    466c:	0f 1f 40 00          	nopl   0x0(%rax)
/home/tenebris/Disk/Racing-code/examples/23-libjpeg-divide-by-zero/libjpeg-turbo-2.0.90/rdgif.c:245
  offs = sinfo->cur_bit >> 3;   /* byte containing cur_bit */
    4670:	89 d7                	mov    %edx,%edi
    4672:	c1 ff 03             	sar    $0x3,%edi
/home/tenebris/Disk/Racing-code/examples/23-libjpeg-divide-by-zero/libjpeg-turbo-2.0.90/rdgif.c:246
  accum = UCH(sinfo->code_buf[offs + 2]);
    4675:	8d 47 02             	lea    0x2(%rdi),%eax
    4678:	48 98                	cltq   
    467a:	44 0f b6 44 03 40    	movzbl 0x40(%rbx,%rax,1),%r8d
/home/tenebris/Disk/Racing-code/examples/23-libjpeg-divide-by-zero/libjpeg-turbo-2.0.90/rdgif.c:248
  accum |= UCH(sinfo->code_buf[offs + 1]);
    4680:	8d 47 01             	lea    0x1(%rdi),%eax
/home/tenebris/Disk/Racing-code/examples/23-libjpeg-divide-by-zero/libjpeg-turbo-2.0.90/rdgif.c:250
  accum |= UCH(sinfo->code_buf[offs]);
    4683:	48 63 ff             	movslq %edi,%rdi
/home/tenebris/Disk/Racing-code/examples/23-libjpeg-divide-by-zero/libjpeg-turbo-2.0.90/rdgif.c:248
  accum |= UCH(sinfo->code_buf[offs + 1]);
    4686:	48 98                	cltq   
/home/tenebris/Disk/Racing-code/examples/23-libjpeg-divide-by-zero/libjpeg-turbo-2.0.90/rdgif.c:250
  accum |= UCH(sinfo->code_buf[offs]);
    4688:	0f b6 7c 3b 40       	movzbl 0x40(%rbx,%rdi,1),%edi
/home/tenebris/Disk/Racing-code/examples/23-libjpeg-divide-by-zero/libjpeg-turbo-2.0.90/rdgif.c:248
  accum |= UCH(sinfo->code_buf[offs + 1]);
    468d:	0f b6 44 03 40       	movzbl 0x40(%rbx,%rax,1),%eax
/home/tenebris/Disk/Racing-code/examples/23-libjpeg-divide-by-zero/libjpeg-turbo-2.0.90/rdgif.c:247
  accum <<= 8;
    4692:	41 c1 e0 08          	shl    $0x8,%r8d
/home/tenebris/Disk/Racing-code/examples/23-libjpeg-divide-by-zero/libjpeg-turbo-2.0.90/rdgif.c:254
  sinfo->cur_bit += sinfo->code_size;
    4696:	89 b3 4c 01 00 00    	mov    %esi,0x14c(%rbx)
/home/tenebris/Disk/Racing-code/examples/23-libjpeg-divide-by-zero/libjpeg-turbo-2.0.90/rdgif.c:256
}
    469c:	48 83 c4 08          	add    $0x8,%rsp
    46a0:	5b                   	pop    %rbx
    46a1:	5d                   	pop    %rbp
/home/tenebris/Disk/Racing-code/examples/23-libjpeg-divide-by-zero/libjpeg-turbo-2.0.90/rdgif.c:248
  accum |= UCH(sinfo->code_buf[offs + 1]);
    46a2:	44 09 c0             	or     %r8d,%eax
/home/tenebris/Disk/Racing-code/examples/23-libjpeg-divide-by-zero/libjpeg-turbo-2.0.90/rdgif.c:256
}
    46a5:	41 5c                	pop    %r12
    46a7:	41 5d                	pop    %r13
/home/tenebris/Disk/Racing-code/examples/23-libjpeg-divide-by-zero/libjpeg-turbo-2.0.90/rdgif.c:249
  accum <<= 8;
    46a9:	c1 e0 08             	shl    $0x8,%eax
/home/tenebris/Disk/Racing-code/examples/23-libjpeg-divide-by-zero/libjpeg-turbo-2.0.90/rdgif.c:250
  accum |= UCH(sinfo->code_buf[offs]);
    46ac:	09 c7                	or     %eax,%edi
/home/tenebris/Disk/Racing-code/examples/23-libjpeg-divide-by-zero/libjpeg-turbo-2.0.90/rdgif.c:255
  return accum & ((1 << sinfo->code_size) - 1);
    46ae:	b8 01 00 00 00       	mov    $0x1,%eax
    46b3:	d3 e0                	shl    %cl,%eax
/home/tenebris/Disk/Racing-code/examples/23-libjpeg-divide-by-zero/libjpeg-turbo-2.0.90/rdgif.c:253
  accum >>= (sinfo->cur_bit & 7);
    46b5:	89 d1                	mov    %edx,%ecx
    46b7:	83 e1 07             	and    $0x7,%ecx
/home/tenebris/Disk/Racing-code/examples/23-libjpeg-divide-by-zero/libjpeg-turbo-2.0.90/rdgif.c:255
  return accum & ((1 << sinfo->code_size) - 1);
    46ba:	83 e8 01             	sub    $0x1,%eax
/home/tenebris/Disk/Racing-code/examples/23-libjpeg-divide-by-zero/libjpeg-turbo-2.0.90/rdgif.c:253
  accum >>= (sinfo->cur_bit & 7);
    46bd:	d3 ff                	sar    %cl,%edi
/home/tenebris/Disk/Racing-code/examples/23-libjpeg-divide-by-zero/libjpeg-turbo-2.0.90/rdgif.c:255
  return accum & ((1 << sinfo->code_size) - 1);
    46bf:	21 f8                	and    %edi,%eax
/home/tenebris/Disk/Racing-code/examples/23-libjpeg-divide-by-zero/libjpeg-turbo-2.0.90/rdgif.c:256
}
    46c1:	c3                   	ret    
    46c2:	66 0f 1f 44 00 00    	nopw   0x0(%rax,%rax,1)
/home/tenebris/Disk/Racing-code/examples/23-libjpeg-divide-by-zero/libjpeg-turbo-2.0.90/rdgif.c:222
      sinfo->first_time = FALSE;
    46c8:	c7 83 50 01 00 00 00 	movl   $0x0,0x150(%rbx)
    46cf:	00 00 00 
/home/tenebris/Disk/Racing-code/examples/23-libjpeg-divide-by-zero/libjpeg-turbo-2.0.90/rdgif.c:223
      return sinfo->clear_code;
    46d2:	8b 83 5c 01 00 00    	mov    0x15c(%rbx),%eax
/home/tenebris/Disk/Racing-code/examples/23-libjpeg-divide-by-zero/libjpeg-turbo-2.0.90/rdgif.c:256
}
    46d8:	48 83 c4 08          	add    $0x8,%rsp
    46dc:	5b                   	pop    %rbx
    46dd:	5d                   	pop    %rbp
    46de:	41 5c                	pop    %r12
    46e0:	41 5d                	pop    %r13
    46e2:	c3                   	ret    
    46e3:	66 66 2e 0f 1f 84 00 	data16 cs nopw 0x0(%rax,%rax,1)
    46ea:	00 00 00 00 
    46ee:	66 90                	xchg   %ax,%ax

00000000000046f0 <get_pixel_rows>:
get_pixel_rows():
/home/tenebris/Disk/Racing-code/examples/23-libjpeg-divide-by-zero/libjpeg-turbo-2.0.90/rdgif.c:535
{
    46f0:	f3 0f 1e fa          	endbr64 
    46f4:	41 57                	push   %r15
    46f6:	41 56                	push   %r14
    46f8:	41 55                	push   %r13
    46fa:	41 54                	push   %r12
    46fc:	55                   	push   %rbp
    46fd:	53                   	push   %rbx
    46fe:	48 81 ec 28 01 00 00 	sub    $0x128,%rsp
/home/tenebris/Disk/Racing-code/examples/23-libjpeg-divide-by-zero/libjpeg-turbo-2.0.90/rdgif.c:540
  register JSAMPARRAY colormap = source->colormap;
    4705:	4c 8b 76 38          	mov    0x38(%rsi),%r14
/home/tenebris/Disk/Racing-code/examples/23-libjpeg-divide-by-zero/libjpeg-turbo-2.0.90/rdgif.c:535
{
    4709:	64 48 8b 04 25 28 00 	mov    %fs:0x28,%rax
    4710:	00 00 
    4712:	48 89 84 24 18 01 00 	mov    %rax,0x118(%rsp)
    4719:	00 
    471a:	31 c0                	xor    %eax,%eax
/home/tenebris/Disk/Racing-code/examples/23-libjpeg-divide-by-zero/libjpeg-turbo-2.0.90/rdgif.c:542
  ptr = source->pub.buffer[0];
    471c:	48 8b 46 20          	mov    0x20(%rsi),%rax
    4720:	4c 8b 20             	mov    (%rax),%r12
/home/tenebris/Disk/Racing-code/examples/23-libjpeg-divide-by-zero/libjpeg-turbo-2.0.90/rdgif.c:543
  for (col = cinfo->image_width; col > 0; col--) {
    4723:	8b 47 30             	mov    0x30(%rdi),%eax
    4726:	85 c0                	test   %eax,%eax
    4728:	0f 84 8a 01 00 00    	je     48b8 <get_pixel_rows+0x1c8>
    472e:	4c 8d 3c 40          	lea    (%rax,%rax,2),%r15
    4732:	48 89 f3             	mov    %rsi,%rbx
GetCode():
/home/tenebris/Disk/Racing-code/examples/23-libjpeg-divide-by-zero/libjpeg-turbo-2.0.90/rdgif.c:233
    if ((count = GetDataBlock(sinfo, &sinfo->code_buf[2])) == 0) {
    4735:	4c 8d 6e 42          	lea    0x42(%rsi),%r13
    4739:	4b 8d 04 3c          	lea    (%r12,%r15,1),%rax
    473d:	48 89 44 24 08       	mov    %rax,0x8(%rsp)
    4742:	eb 48                	jmp    478c <get_pixel_rows+0x9c>
    4744:	0f 1f 40 00          	nopl   0x0(%rax)
LZWReadByte():
/home/tenebris/Disk/Racing-code/examples/23-libjpeg-divide-by-zero/libjpeg-turbo-2.0.90/rdgif.c:268
    return (int)(*(--sinfo->sp));
    4748:	48 8d 50 ff          	lea    -0x1(%rax),%rdx
    474c:	48 89 93 90 01 00 00 	mov    %rdx,0x190(%rbx)
get_pixel_rows():
/home/tenebris/Disk/Racing-code/examples/23-libjpeg-divide-by-zero/libjpeg-turbo-2.0.90/rdgif.c:545
    *ptr++ = colormap[CM_RED][c];
    4753:	0f b6 40 ff          	movzbl -0x1(%rax),%eax
    4757:	49 8b 16             	mov    (%r14),%rdx
    475a:	49 83 c4 03          	add    $0x3,%r12
    475e:	0f b6 14 02          	movzbl (%rdx,%rax,1),%edx
    4762:	41 88 54 24 fd       	mov    %dl,-0x3(%r12)
/home/tenebris/Disk/Racing-code/examples/23-libjpeg-divide-by-zero/libjpeg-turbo-2.0.90/rdgif.c:546
    *ptr++ = colormap[CM_GREEN][c];
    4767:	49 8b 56 08          	mov    0x8(%r14),%rdx
    476b:	0f b6 14 02          	movzbl (%rdx,%rax,1),%edx
    476f:	41 88 54 24 fe       	mov    %dl,-0x2(%r12)
/home/tenebris/Disk/Racing-code/examples/23-libjpeg-divide-by-zero/libjpeg-turbo-2.0.90/rdgif.c:547
    *ptr++ = colormap[CM_BLUE][c];
    4774:	49 8b 56 10          	mov    0x10(%r14),%rdx
    4778:	0f b6 04 02          	movzbl (%rdx,%rax,1),%eax
    477c:	41 88 44 24 ff       	mov    %al,-0x1(%r12)
/home/tenebris/Disk/Racing-code/examples/23-libjpeg-divide-by-zero/libjpeg-turbo-2.0.90/rdgif.c:543
  for (col = cinfo->image_width; col > 0; col--) {
    4781:	4c 39 64 24 08       	cmp    %r12,0x8(%rsp)
    4786:	0f 84 2c 01 00 00    	je     48b8 <get_pixel_rows+0x1c8>
LZWReadByte():
/home/tenebris/Disk/Racing-code/examples/23-libjpeg-divide-by-zero/libjpeg-turbo-2.0.90/rdgif.c:267
  if (sinfo->sp > sinfo->symbol_stack)
    478c:	48 8b 83 90 01 00 00 	mov    0x190(%rbx),%rax
    4793:	48 3b 83 88 01 00 00 	cmp    0x188(%rbx),%rax
    479a:	77 ac                	ja     4748 <get_pixel_rows+0x58>
/home/tenebris/Disk/Racing-code/examples/23-libjpeg-divide-by-zero/libjpeg-turbo-2.0.90/rdgif.c:271
  code = GetCode(sinfo);
    479c:	48 89 df             	mov    %rbx,%rdi
    479f:	e8 9c fd ff ff       	call   4540 <GetCode>
/home/tenebris/Disk/Racing-code/examples/23-libjpeg-divide-by-zero/libjpeg-turbo-2.0.90/rdgif.c:273
  if (code == sinfo->clear_code) {
    47a4:	8b 93 5c 01 00 00    	mov    0x15c(%rbx),%edx
    47aa:	39 d0                	cmp    %edx,%eax
    47ac:	0f 84 3e 01 00 00    	je     48f0 <get_pixel_rows+0x200>
/home/tenebris/Disk/Racing-code/examples/23-libjpeg-divide-by-zero/libjpeg-turbo-2.0.90/rdgif.c:289
  if (code == sinfo->end_code) {
    47b2:	3b 83 60 01 00 00    	cmp    0x160(%rbx),%eax
    47b8:	0f 84 19 03 00 00    	je     4ad7 <get_pixel_rows+0x3e7>
/home/tenebris/Disk/Racing-code/examples/23-libjpeg-divide-by-zero/libjpeg-turbo-2.0.90/rdgif.c:304
  if (code >= sinfo->max_code) { /* special case for not-yet-defined symbol */
    47be:	89 c7                	mov    %eax,%edi
    47c0:	3b 83 6c 01 00 00    	cmp    0x16c(%rbx),%eax
    47c6:	7c 40                	jl     4808 <get_pixel_rows+0x118>
/home/tenebris/Disk/Racing-code/examples/23-libjpeg-divide-by-zero/libjpeg-turbo-2.0.90/rdgif.c:306
    if (code > sinfo->max_code) {
    47c8:	7e 18                	jle    47e2 <get_pixel_rows+0xf2>
/home/tenebris/Disk/Racing-code/examples/23-libjpeg-divide-by-zero/libjpeg-turbo-2.0.90/rdgif.c:307
      WARNMS(sinfo->cinfo, JWRN_GIF_BADDATA);
    47ca:	48 8b 7b 30          	mov    0x30(%rbx),%rdi
    47ce:	be ff ff ff ff       	mov    $0xffffffff,%esi
    47d3:	48 8b 07             	mov    (%rdi),%rax
    47d6:	c7 40 28 ff 03 00 00 	movl   $0x3ff,0x28(%rax)
    47dd:	ff 50 08             	call   *0x8(%rax)
/home/tenebris/Disk/Racing-code/examples/23-libjpeg-divide-by-zero/libjpeg-turbo-2.0.90/rdgif.c:308
      incode = 0;               /* prevent creation of loops in symbol table */
    47e0:	31 ff                	xor    %edi,%edi
/home/tenebris/Disk/Racing-code/examples/23-libjpeg-divide-by-zero/libjpeg-turbo-2.0.90/rdgif.c:311
    *(sinfo->sp++) = (UINT8)sinfo->firstcode;
    47e2:	48 8b 83 90 01 00 00 	mov    0x190(%rbx),%rax
    47e9:	8b 93 74 01 00 00    	mov    0x174(%rbx),%edx
    47ef:	48 8d 48 01          	lea    0x1(%rax),%rcx
    47f3:	48 89 8b 90 01 00 00 	mov    %rcx,0x190(%rbx)
    47fa:	88 10                	mov    %dl,(%rax)
/home/tenebris/Disk/Racing-code/examples/23-libjpeg-divide-by-zero/libjpeg-turbo-2.0.90/rdgif.c:312
    code = sinfo->oldcode;
    47fc:	8b 83 70 01 00 00    	mov    0x170(%rbx),%eax
/home/tenebris/Disk/Racing-code/examples/23-libjpeg-divide-by-zero/libjpeg-turbo-2.0.90/rdgif.c:316
  while (code >= sinfo->clear_code) {
    4802:	8b 93 5c 01 00 00    	mov    0x15c(%rbx),%edx
    4808:	39 d0                	cmp    %edx,%eax
    480a:	7c 3a                	jl     4846 <get_pixel_rows+0x156>
    480c:	0f 1f 40 00          	nopl   0x0(%rax)
/home/tenebris/Disk/Racing-code/examples/23-libjpeg-divide-by-zero/libjpeg-turbo-2.0.90/rdgif.c:317
    *(sinfo->sp++) = sinfo->symbol_tail[code]; /* tail is a byte value */
    4810:	48 8b 93 90 01 00 00 	mov    0x190(%rbx),%rdx
    4817:	48 8b 8b 80 01 00 00 	mov    0x180(%rbx),%rcx
    481e:	48 98                	cltq   
    4820:	48 01 c1             	add    %rax,%rcx
    4823:	48 8d 72 01          	lea    0x1(%rdx),%rsi
    4827:	48 89 b3 90 01 00 00 	mov    %rsi,0x190(%rbx)
    482e:	0f b6 09             	movzbl (%rcx),%ecx
    4831:	88 0a                	mov    %cl,(%rdx)
/home/tenebris/Disk/Racing-code/examples/23-libjpeg-divide-by-zero/libjpeg-turbo-2.0.90/rdgif.c:318
    code = sinfo->symbol_head[code]; /* head is another LZW symbol */
    4833:	48 8b 93 78 01 00 00 	mov    0x178(%rbx),%rdx
    483a:	0f b7 04 42          	movzwl (%rdx,%rax,2),%eax
/home/tenebris/Disk/Racing-code/examples/23-libjpeg-divide-by-zero/libjpeg-turbo-2.0.90/rdgif.c:316
  while (code >= sinfo->clear_code) {
    483e:	3b 83 5c 01 00 00    	cmp    0x15c(%rbx),%eax
    4844:	7d ca                	jge    4810 <get_pixel_rows+0x120>
/home/tenebris/Disk/Racing-code/examples/23-libjpeg-divide-by-zero/libjpeg-turbo-2.0.90/rdgif.c:324
  if ((code = sinfo->max_code) < LZW_TABLE_SIZE) {
    4846:	48 63 93 6c 01 00 00 	movslq 0x16c(%rbx),%rdx
/home/tenebris/Disk/Racing-code/examples/23-libjpeg-divide-by-zero/libjpeg-turbo-2.0.90/rdgif.c:321
  sinfo->firstcode = code;      /* save for possible future use */
    484d:	89 83 74 01 00 00    	mov    %eax,0x174(%rbx)
/home/tenebris/Disk/Racing-code/examples/23-libjpeg-divide-by-zero/libjpeg-turbo-2.0.90/rdgif.c:324
  if ((code = sinfo->max_code) < LZW_TABLE_SIZE) {
    4853:	81 fa ff 0f 00 00    	cmp    $0xfff,%edx
    4859:	7f 49                	jg     48a4 <get_pixel_rows+0x1b4>
/home/tenebris/Disk/Racing-code/examples/23-libjpeg-divide-by-zero/libjpeg-turbo-2.0.90/rdgif.c:326
    sinfo->symbol_head[code] = (UINT16)sinfo->oldcode;
    485b:	48 8b 8b 78 01 00 00 	mov    0x178(%rbx),%rcx
    4862:	8b b3 70 01 00 00    	mov    0x170(%rbx),%esi
    4868:	66 89 34 51          	mov    %si,(%rcx,%rdx,2)
/home/tenebris/Disk/Racing-code/examples/23-libjpeg-divide-by-zero/libjpeg-turbo-2.0.90/rdgif.c:327
    sinfo->symbol_tail[code] = (UINT8)sinfo->firstcode;
    486c:	48 8b 8b 80 01 00 00 	mov    0x180(%rbx),%rcx
    4873:	88 04 11             	mov    %al,(%rcx,%rdx,1)
/home/tenebris/Disk/Racing-code/examples/23-libjpeg-divide-by-zero/libjpeg-turbo-2.0.90/rdgif.c:328
    sinfo->max_code++;
    4876:	8b 83 6c 01 00 00    	mov    0x16c(%rbx),%eax
/home/tenebris/Disk/Racing-code/examples/23-libjpeg-divide-by-zero/libjpeg-turbo-2.0.90/rdgif.c:330
    if (sinfo->max_code >= sinfo->limit_code &&
    487c:	8b 93 68 01 00 00    	mov    0x168(%rbx),%edx
/home/tenebris/Disk/Racing-code/examples/23-libjpeg-divide-by-zero/libjpeg-turbo-2.0.90/rdgif.c:328
    sinfo->max_code++;
    4882:	83 c0 01             	add    $0x1,%eax
    4885:	89 83 6c 01 00 00    	mov    %eax,0x16c(%rbx)
/home/tenebris/Disk/Racing-code/examples/23-libjpeg-divide-by-zero/libjpeg-turbo-2.0.90/rdgif.c:330
    if (sinfo->max_code >= sinfo->limit_code &&
    488b:	39 d0                	cmp    %edx,%eax
    488d:	7c 0f                	jl     489e <get_pixel_rows+0x1ae>
/home/tenebris/Disk/Racing-code/examples/23-libjpeg-divide-by-zero/libjpeg-turbo-2.0.90/rdgif.c:331
        sinfo->code_size < MAX_LZW_BITS) {
    488f:	8b 83 64 01 00 00    	mov    0x164(%rbx),%eax
/home/tenebris/Disk/Racing-code/examples/23-libjpeg-divide-by-zero/libjpeg-turbo-2.0.90/rdgif.c:330
    if (sinfo->max_code >= sinfo->limit_code &&
    4895:	83 f8 0b             	cmp    $0xb,%eax
    4898:	0f 8e a7 02 00 00    	jle    4b45 <get_pixel_rows+0x455>
/home/tenebris/Disk/Racing-code/examples/23-libjpeg-divide-by-zero/libjpeg-turbo-2.0.90/rdgif.c:338
  return sinfo->firstcode;      /* return first byte of symbol's expansion */
    489e:	8b 83 74 01 00 00    	mov    0x174(%rbx),%eax
/home/tenebris/Disk/Racing-code/examples/23-libjpeg-divide-by-zero/libjpeg-turbo-2.0.90/rdgif.c:337
  sinfo->oldcode = incode;      /* save last input symbol for future use */
    48a4:	89 bb 70 01 00 00    	mov    %edi,0x170(%rbx)
get_pixel_rows():
/home/tenebris/Disk/Racing-code/examples/23-libjpeg-divide-by-zero/libjpeg-turbo-2.0.90/rdgif.c:545
    *ptr++ = colormap[CM_RED][c];
    48aa:	48 98                	cltq   
LZWReadByte():
/home/tenebris/Disk/Racing-code/examples/23-libjpeg-divide-by-zero/libjpeg-turbo-2.0.90/rdgif.c:338
  return sinfo->firstcode;      /* return first byte of symbol's expansion */
    48ac:	e9 a6 fe ff ff       	jmp    4757 <get_pixel_rows+0x67>
    48b1:	0f 1f 80 00 00 00 00 	nopl   0x0(%rax)
get_pixel_rows():
/home/tenebris/Disk/Racing-code/examples/23-libjpeg-divide-by-zero/libjpeg-turbo-2.0.90/rdgif.c:550
}
    48b8:	48 8b 84 24 18 01 00 	mov    0x118(%rsp),%rax
    48bf:	00 
    48c0:	64 48 2b 04 25 28 00 	sub    %fs:0x28,%rax
    48c7:	00 00 
    48c9:	0f 85 94 02 00 00    	jne    4b63 <get_pixel_rows+0x473>
    48cf:	48 81 c4 28 01 00 00 	add    $0x128,%rsp
    48d6:	b8 01 00 00 00       	mov    $0x1,%eax
    48db:	5b                   	pop    %rbx
    48dc:	5d                   	pop    %rbp
    48dd:	41 5c                	pop    %r12
    48df:	41 5d                	pop    %r13
    48e1:	41 5e                	pop    %r14
    48e3:	41 5f                	pop    %r15
    48e5:	c3                   	ret    
    48e6:	66 2e 0f 1f 84 00 00 	cs nopw 0x0(%rax,%rax,1)
    48ed:	00 00 00 
ReInitLZW():
/home/tenebris/Disk/Racing-code/examples/23-libjpeg-divide-by-zero/libjpeg-turbo-2.0.90/rdgif.c:183
  sinfo->limit_code = sinfo->clear_code << 1;   /* 2^code_size */
    48f0:	8d 0c 00             	lea    (%rax,%rax,1),%ecx
/home/tenebris/Disk/Racing-code/examples/23-libjpeg-divide-by-zero/libjpeg-turbo-2.0.90/rdgif.c:182
  sinfo->code_size = sinfo->input_code_size + 1;
    48f3:	8b b3 58 01 00 00    	mov    0x158(%rbx),%esi
/home/tenebris/Disk/Racing-code/examples/23-libjpeg-divide-by-zero/libjpeg-turbo-2.0.90/rdgif.c:184
  sinfo->max_code = sinfo->clear_code + 2;      /* first unused code value */
    48f9:	83 c0 02             	add    $0x2,%eax
    48fc:	89 83 6c 01 00 00    	mov    %eax,0x16c(%rbx)
/home/tenebris/Disk/Racing-code/examples/23-libjpeg-divide-by-zero/libjpeg-turbo-2.0.90/rdgif.c:185
  sinfo->sp = sinfo->symbol_stack;              /* init stack to empty */
    4902:	48 8b 83 88 01 00 00 	mov    0x188(%rbx),%rax
/home/tenebris/Disk/Racing-code/examples/23-libjpeg-divide-by-zero/libjpeg-turbo-2.0.90/rdgif.c:182
  sinfo->code_size = sinfo->input_code_size + 1;
    4909:	66 0f 6e d1          	movd   %ecx,%xmm2
    490d:	8d 56 01             	lea    0x1(%rsi),%edx
    4910:	66 0f 6e c2          	movd   %edx,%xmm0
/home/tenebris/Disk/Racing-code/examples/23-libjpeg-divide-by-zero/libjpeg-turbo-2.0.90/rdgif.c:185
  sinfo->sp = sinfo->symbol_stack;              /* init stack to empty */
    4914:	48 89 83 90 01 00 00 	mov    %rax,0x190(%rbx)
/home/tenebris/Disk/Racing-code/examples/23-libjpeg-divide-by-zero/libjpeg-turbo-2.0.90/rdgif.c:182
  sinfo->code_size = sinfo->input_code_size + 1;
    491b:	66 0f 62 c2          	punpckldq %xmm2,%xmm0
    491f:	66 0f d6 83 64 01 00 	movq   %xmm0,0x164(%rbx)
    4926:	00 
/home/tenebris/Disk/Racing-code/examples/23-libjpeg-divide-by-zero/libjpeg-turbo-2.0.90/rdgif.c:185
  sinfo->sp = sinfo->symbol_stack;              /* init stack to empty */
    4927:	66 0f 1f 84 00 00 00 	nopw   0x0(%rax,%rax,1)
    492e:	00 00 
GetCode():
/home/tenebris/Disk/Racing-code/examples/23-libjpeg-divide-by-zero/libjpeg-turbo-2.0.90/rdgif.c:218
  while (sinfo->cur_bit + sinfo->code_size > sinfo->last_bit) {
    4930:	8b 8b 4c 01 00 00    	mov    0x14c(%rbx),%ecx
    4936:	8d 3c 11             	lea    (%rcx,%rdx,1),%edi
    4939:	39 bb 48 01 00 00    	cmp    %edi,0x148(%rbx)
    493f:	7c 7f                	jl     49c0 <get_pixel_rows+0x2d0>
    4941:	e9 12 01 00 00       	jmp    4a58 <get_pixel_rows+0x368>
    4946:	66 2e 0f 1f 84 00 00 	cs nopw 0x0(%rax,%rax,1)
    494d:	00 00 00 
fread():
/usr/include/x86_64-linux-gnu/bits/stdio2.h:293
    4950:	48 8b 4b 18          	mov    0x18(%rbx),%rcx
GetDataBlock():
/home/tenebris/Disk/Racing-code/examples/23-libjpeg-divide-by-zero/libjpeg-turbo-2.0.90/rdgif.c:160
    if (!ReadOK(sinfo->pub.input_file, buf, count))
    4954:	48 63 d0             	movslq %eax,%rdx
fread():
/usr/include/x86_64-linux-gnu/bits/stdio2.h:293
    4957:	be 01 00 00 00       	mov    $0x1,%esi
    495c:	4c 89 ef             	mov    %r13,%rdi
    495f:	49 89 d7             	mov    %rdx,%r15
    4962:	e8 29 d9 ff ff       	call   2290 <fread@plt>
GetDataBlock():
/home/tenebris/Disk/Racing-code/examples/23-libjpeg-divide-by-zero/libjpeg-turbo-2.0.90/rdgif.c:160
    4967:	49 39 c7             	cmp    %rax,%r15
    496a:	74 10                	je     497c <get_pixel_rows+0x28c>
/home/tenebris/Disk/Racing-code/examples/23-libjpeg-divide-by-zero/libjpeg-turbo-2.0.90/rdgif.c:161
      ERREXIT(sinfo->cinfo, JERR_INPUT_EOF);
    496c:	48 8b 7b 30          	mov    0x30(%rbx),%rdi
    4970:	48 8b 07             	mov    (%rdi),%rax
    4973:	c7 40 28 2b 00 00 00 	movl   $0x2b,0x28(%rax)
    497a:	ff 10                	call   *(%rax)
GetCode():
/home/tenebris/Disk/Racing-code/examples/23-libjpeg-divide-by-zero/libjpeg-turbo-2.0.90/rdgif.c:240
    sinfo->last_byte = 2 + count;
    497c:	83 c5 02             	add    $0x2,%ebp
/home/tenebris/Disk/Racing-code/examples/23-libjpeg-divide-by-zero/libjpeg-turbo-2.0.90/rdgif.c:239
    sinfo->cur_bit = (sinfo->cur_bit - sinfo->last_bit) + 16;
    497f:	8b 8b 4c 01 00 00    	mov    0x14c(%rbx),%ecx
/home/tenebris/Disk/Racing-code/examples/23-libjpeg-divide-by-zero/libjpeg-turbo-2.0.90/rdgif.c:218
  while (sinfo->cur_bit + sinfo->code_size > sinfo->last_bit) {
    4985:	8b 93 64 01 00 00    	mov    0x164(%rbx),%edx
/home/tenebris/Disk/Racing-code/examples/23-libjpeg-divide-by-zero/libjpeg-turbo-2.0.90/rdgif.c:239
    sinfo->cur_bit = (sinfo->cur_bit - sinfo->last_bit) + 16;
    498b:	2b 8b 48 01 00 00    	sub    0x148(%rbx),%ecx
/home/tenebris/Disk/Racing-code/examples/23-libjpeg-divide-by-zero/libjpeg-turbo-2.0.90/rdgif.c:241
    sinfo->last_bit = sinfo->last_byte * 8;
    4991:	8d 04 ed 00 00 00 00 	lea    0x0(,%rbp,8),%eax
/home/tenebris/Disk/Racing-code/examples/23-libjpeg-divide-by-zero/libjpeg-turbo-2.0.90/rdgif.c:240
    sinfo->last_byte = 2 + count;
    4998:	66 0f 6e c5          	movd   %ebp,%xmm0
/home/tenebris/Disk/Racing-code/examples/23-libjpeg-divide-by-zero/libjpeg-turbo-2.0.90/rdgif.c:239
    sinfo->cur_bit = (sinfo->cur_bit - sinfo->last_bit) + 16;
    499c:	83 c1 10             	add    $0x10,%ecx
/home/tenebris/Disk/Racing-code/examples/23-libjpeg-divide-by-zero/libjpeg-turbo-2.0.90/rdgif.c:240
    sinfo->last_byte = 2 + count;
    499f:	66 0f 6e c8          	movd   %eax,%xmm1
    49a3:	66 0f 62 c1          	punpckldq %xmm1,%xmm0
/home/tenebris/Disk/Racing-code/examples/23-libjpeg-divide-by-zero/libjpeg-turbo-2.0.90/rdgif.c:218
  while (sinfo->cur_bit + sinfo->code_size > sinfo->last_bit) {
    49a7:	8d 3c 11             	lea    (%rcx,%rdx,1),%edi
/home/tenebris/Disk/Racing-code/examples/23-libjpeg-divide-by-zero/libjpeg-turbo-2.0.90/rdgif.c:239
    sinfo->cur_bit = (sinfo->cur_bit - sinfo->last_bit) + 16;
    49aa:	89 8b 4c 01 00 00    	mov    %ecx,0x14c(%rbx)
/home/tenebris/Disk/Racing-code/examples/23-libjpeg-divide-by-zero/libjpeg-turbo-2.0.90/rdgif.c:240
    sinfo->last_byte = 2 + count;
    49b0:	66 0f d6 83 44 01 00 	movq   %xmm0,0x144(%rbx)
    49b7:	00 
/home/tenebris/Disk/Racing-code/examples/23-libjpeg-divide-by-zero/libjpeg-turbo-2.0.90/rdgif.c:218
  while (sinfo->cur_bit + sinfo->code_size > sinfo->last_bit) {
    49b8:	39 f8                	cmp    %edi,%eax
    49ba:	0f 8d 98 00 00 00    	jge    4a58 <get_pixel_rows+0x368>
/home/tenebris/Disk/Racing-code/examples/23-libjpeg-divide-by-zero/libjpeg-turbo-2.0.90/rdgif.c:221
    if (sinfo->first_time) {
    49c0:	8b 8b 50 01 00 00    	mov    0x150(%rbx),%ecx
    49c6:	85 c9                	test   %ecx,%ecx
    49c8:	0f 85 fa 00 00 00    	jne    4ac8 <get_pixel_rows+0x3d8>
/home/tenebris/Disk/Racing-code/examples/23-libjpeg-divide-by-zero/libjpeg-turbo-2.0.90/rdgif.c:225
    if (sinfo->out_of_blocks) {
    49ce:	8b 93 54 01 00 00    	mov    0x154(%rbx),%edx
    49d4:	85 d2                	test   %edx,%edx
    49d6:	75 4d                	jne    4a25 <get_pixel_rows+0x335>
/home/tenebris/Disk/Racing-code/examples/23-libjpeg-divide-by-zero/libjpeg-turbo-2.0.90/rdgif.c:230
    sinfo->code_buf[0] = sinfo->code_buf[sinfo->last_byte-2];
    49d8:	8b 83 44 01 00 00    	mov    0x144(%rbx),%eax
ReadByte():
/home/tenebris/Disk/Racing-code/examples/23-libjpeg-divide-by-zero/libjpeg-turbo-2.0.90/rdgif.c:145
  if ((c = getc(infile)) == EOF)
    49de:	48 8b 7b 18          	mov    0x18(%rbx),%rdi
GetCode():
/home/tenebris/Disk/Racing-code/examples/23-libjpeg-divide-by-zero/libjpeg-turbo-2.0.90/rdgif.c:230
    sinfo->code_buf[0] = sinfo->code_buf[sinfo->last_byte-2];
    49e2:	8d 50 fe             	lea    -0x2(%rax),%edx
/home/tenebris/Disk/Racing-code/examples/23-libjpeg-divide-by-zero/libjpeg-turbo-2.0.90/rdgif.c:231
    sinfo->code_buf[1] = sinfo->code_buf[sinfo->last_byte-1];
    49e5:	83 e8 01             	sub    $0x1,%eax
/home/tenebris/Disk/Racing-code/examples/23-libjpeg-divide-by-zero/libjpeg-turbo-2.0.90/rdgif.c:230
    sinfo->code_buf[0] = sinfo->code_buf[sinfo->last_byte-2];
    49e8:	48 63 d2             	movslq %edx,%rdx
/home/tenebris/Disk/Racing-code/examples/23-libjpeg-divide-by-zero/libjpeg-turbo-2.0.90/rdgif.c:231
    sinfo->code_buf[1] = sinfo->code_buf[sinfo->last_byte-1];
    49eb:	48 98                	cltq   
/home/tenebris/Disk/Racing-code/examples/23-libjpeg-divide-by-zero/libjpeg-turbo-2.0.90/rdgif.c:230
    sinfo->code_buf[0] = sinfo->code_buf[sinfo->last_byte-2];
    49ed:	0f b6 54 13 40       	movzbl 0x40(%rbx,%rdx,1),%edx
    49f2:	88 53 40             	mov    %dl,0x40(%rbx)
/home/tenebris/Disk/Racing-code/examples/23-libjpeg-divide-by-zero/libjpeg-turbo-2.0.90/rdgif.c:231
    sinfo->code_buf[1] = sinfo->code_buf[sinfo->last_byte-1];
    49f5:	0f b6 44 03 40       	movzbl 0x40(%rbx,%rax,1),%eax
    49fa:	88 43 41             	mov    %al,0x41(%rbx)
ReadByte():
/home/tenebris/Disk/Racing-code/examples/23-libjpeg-divide-by-zero/libjpeg-turbo-2.0.90/rdgif.c:145
  if ((c = getc(infile)) == EOF)
    49fd:	e8 6e da ff ff       	call   2470 <getc@plt>
    4a02:	89 c5                	mov    %eax,%ebp
    4a04:	83 f8 ff             	cmp    $0xffffffff,%eax
    4a07:	0f 84 5f ff ff ff    	je     496c <get_pixel_rows+0x27c>
GetDataBlock():
/home/tenebris/Disk/Racing-code/examples/23-libjpeg-divide-by-zero/libjpeg-turbo-2.0.90/rdgif.c:159
  if (count > 0) {
    4a0d:	85 c0                	test   %eax,%eax
    4a0f:	0f 8f 3b ff ff ff    	jg     4950 <get_pixel_rows+0x260>
GetCode():
/home/tenebris/Disk/Racing-code/examples/23-libjpeg-divide-by-zero/libjpeg-turbo-2.0.90/rdgif.c:233
    if ((count = GetDataBlock(sinfo, &sinfo->code_buf[2])) == 0) {
    4a15:	0f 85 61 ff ff ff    	jne    497c <get_pixel_rows+0x28c>
/home/tenebris/Disk/Racing-code/examples/23-libjpeg-divide-by-zero/libjpeg-turbo-2.0.90/rdgif.c:234
      sinfo->out_of_blocks = TRUE;
    4a1b:	c7 83 54 01 00 00 01 	movl   $0x1,0x154(%rbx)
    4a22:	00 00 00 
/home/tenebris/Disk/Racing-code/examples/23-libjpeg-divide-by-zero/libjpeg-turbo-2.0.90/rdgif.c:235
      WARNMS(sinfo->cinfo, JWRN_GIF_NOMOREDATA);
    4a25:	48 8b 7b 30          	mov    0x30(%rbx),%rdi
    4a29:	be ff ff ff ff       	mov    $0xffffffff,%esi
    4a2e:	48 8b 07             	mov    (%rdi),%rax
    4a31:	c7 40 28 02 04 00 00 	movl   $0x402,0x28(%rax)
    4a38:	ff 50 08             	call   *0x8(%rax)
/home/tenebris/Disk/Racing-code/examples/23-libjpeg-divide-by-zero/libjpeg-turbo-2.0.90/rdgif.c:236
      return sinfo->end_code;   /* fake something useful */
    4a3b:	8b 93 60 01 00 00    	mov    0x160(%rbx),%edx
LZWReadByte():
/home/tenebris/Disk/Racing-code/examples/23-libjpeg-divide-by-zero/libjpeg-turbo-2.0.90/rdgif.c:279
    } while (code == sinfo->clear_code);
    4a41:	39 93 5c 01 00 00    	cmp    %edx,0x15c(%rbx)
    4a47:	75 61                	jne    4aaa <get_pixel_rows+0x3ba>
GetCode():
/home/tenebris/Disk/Racing-code/examples/23-libjpeg-divide-by-zero/libjpeg-turbo-2.0.90/rdgif.c:218
  while (sinfo->cur_bit + sinfo->code_size > sinfo->last_bit) {
    4a49:	8b 93 64 01 00 00    	mov    0x164(%rbx),%edx
    4a4f:	e9 dc fe ff ff       	jmp    4930 <get_pixel_rows+0x240>
    4a54:	0f 1f 40 00          	nopl   0x0(%rax)
/home/tenebris/Disk/Racing-code/examples/23-libjpeg-divide-by-zero/libjpeg-turbo-2.0.90/rdgif.c:245
  offs = sinfo->cur_bit >> 3;   /* byte containing cur_bit */
    4a58:	89 c8                	mov    %ecx,%eax
/home/tenebris/Disk/Racing-code/examples/23-libjpeg-divide-by-zero/libjpeg-turbo-2.0.90/rdgif.c:253
  accum >>= (sinfo->cur_bit & 7);
    4a5a:	83 e1 07             	and    $0x7,%ecx
/home/tenebris/Disk/Racing-code/examples/23-libjpeg-divide-by-zero/libjpeg-turbo-2.0.90/rdgif.c:245
  offs = sinfo->cur_bit >> 3;   /* byte containing cur_bit */
    4a5d:	c1 f8 03             	sar    $0x3,%eax
/home/tenebris/Disk/Racing-code/examples/23-libjpeg-divide-by-zero/libjpeg-turbo-2.0.90/rdgif.c:246
  accum = UCH(sinfo->code_buf[offs + 2]);
    4a60:	8d 70 02             	lea    0x2(%rax),%esi
    4a63:	48 63 f6             	movslq %esi,%rsi
    4a66:	44 0f b6 44 33 40    	movzbl 0x40(%rbx,%rsi,1),%r8d
/home/tenebris/Disk/Racing-code/examples/23-libjpeg-divide-by-zero/libjpeg-turbo-2.0.90/rdgif.c:248
  accum |= UCH(sinfo->code_buf[offs + 1]);
    4a6c:	8d 70 01             	lea    0x1(%rax),%esi
/home/tenebris/Disk/Racing-code/examples/23-libjpeg-divide-by-zero/libjpeg-turbo-2.0.90/rdgif.c:250
  accum |= UCH(sinfo->code_buf[offs]);
    4a6f:	48 98                	cltq   
/home/tenebris/Disk/Racing-code/examples/23-libjpeg-divide-by-zero/libjpeg-turbo-2.0.90/rdgif.c:248
  accum |= UCH(sinfo->code_buf[offs + 1]);
    4a71:	48 63 f6             	movslq %esi,%rsi
/home/tenebris/Disk/Racing-code/examples/23-libjpeg-divide-by-zero/libjpeg-turbo-2.0.90/rdgif.c:250
  accum |= UCH(sinfo->code_buf[offs]);
    4a74:	0f b6 44 03 40       	movzbl 0x40(%rbx,%rax,1),%eax
/home/tenebris/Disk/Racing-code/examples/23-libjpeg-divide-by-zero/libjpeg-turbo-2.0.90/rdgif.c:248
  accum |= UCH(sinfo->code_buf[offs + 1]);
    4a79:	0f b6 74 33 40       	movzbl 0x40(%rbx,%rsi,1),%esi
/home/tenebris/Disk/Racing-code/examples/23-libjpeg-divide-by-zero/libjpeg-turbo-2.0.90/rdgif.c:247
  accum <<= 8;
    4a7e:	41 c1 e0 08          	shl    $0x8,%r8d
/home/tenebris/Disk/Racing-code/examples/23-libjpeg-divide-by-zero/libjpeg-turbo-2.0.90/rdgif.c:254
  sinfo->cur_bit += sinfo->code_size;
    4a82:	89 bb 4c 01 00 00    	mov    %edi,0x14c(%rbx)
/home/tenebris/Disk/Racing-code/examples/23-libjpeg-divide-by-zero/libjpeg-turbo-2.0.90/rdgif.c:248
  accum |= UCH(sinfo->code_buf[offs + 1]);
    4a88:	44 09 c6             	or     %r8d,%esi
/home/tenebris/Disk/Racing-code/examples/23-libjpeg-divide-by-zero/libjpeg-turbo-2.0.90/rdgif.c:249
  accum <<= 8;
    4a8b:	c1 e6 08             	shl    $0x8,%esi
/home/tenebris/Disk/Racing-code/examples/23-libjpeg-divide-by-zero/libjpeg-turbo-2.0.90/rdgif.c:250
  accum |= UCH(sinfo->code_buf[offs]);
    4a8e:	09 f0                	or     %esi,%eax
/home/tenebris/Disk/Racing-code/examples/23-libjpeg-divide-by-zero/libjpeg-turbo-2.0.90/rdgif.c:255
  return accum & ((1 << sinfo->code_size) - 1);
    4a90:	be 01 00 00 00       	mov    $0x1,%esi
/home/tenebris/Disk/Racing-code/examples/23-libjpeg-divide-by-zero/libjpeg-turbo-2.0.90/rdgif.c:253
  accum >>= (sinfo->cur_bit & 7);
    4a95:	d3 f8                	sar    %cl,%eax
/home/tenebris/Disk/Racing-code/examples/23-libjpeg-divide-by-zero/libjpeg-turbo-2.0.90/rdgif.c:255
  return accum & ((1 << sinfo->code_size) - 1);
    4a97:	89 d1                	mov    %edx,%ecx
    4a99:	d3 e6                	shl    %cl,%esi
    4a9b:	83 ee 01             	sub    $0x1,%esi
    4a9e:	21 f0                	and    %esi,%eax
    4aa0:	89 c2                	mov    %eax,%edx
LZWReadByte():
/home/tenebris/Disk/Racing-code/examples/23-libjpeg-divide-by-zero/libjpeg-turbo-2.0.90/rdgif.c:279
    } while (code == sinfo->clear_code);
    4aa2:	39 93 5c 01 00 00    	cmp    %edx,0x15c(%rbx)
    4aa8:	74 9f                	je     4a49 <get_pixel_rows+0x359>
get_pixel_rows():
/home/tenebris/Disk/Racing-code/examples/23-libjpeg-divide-by-zero/libjpeg-turbo-2.0.90/rdgif.c:545
    *ptr++ = colormap[CM_RED][c];
    4aaa:	48 63 c2             	movslq %edx,%rax
LZWReadByte():
/home/tenebris/Disk/Racing-code/examples/23-libjpeg-divide-by-zero/libjpeg-turbo-2.0.90/rdgif.c:280
    if (code > sinfo->clear_code) { /* make sure it is a raw byte */
    4aad:	7c 77                	jl     4b26 <get_pixel_rows+0x436>
/home/tenebris/Disk/Racing-code/examples/23-libjpeg-divide-by-zero/libjpeg-turbo-2.0.90/rdgif.c:285
    sinfo->firstcode = sinfo->oldcode = code;
    4aaf:	66 0f 6e da          	movd   %edx,%xmm3
    4ab3:	66 0f 70 c3 e0       	pshufd $0xe0,%xmm3,%xmm0
    4ab8:	66 0f d6 83 70 01 00 	movq   %xmm0,0x170(%rbx)
    4abf:	00 
/home/tenebris/Disk/Racing-code/examples/23-libjpeg-divide-by-zero/libjpeg-turbo-2.0.90/rdgif.c:286
    return code;
    4ac0:	e9 92 fc ff ff       	jmp    4757 <get_pixel_rows+0x67>
    4ac5:	0f 1f 00             	nopl   (%rax)
GetCode():
/home/tenebris/Disk/Racing-code/examples/23-libjpeg-divide-by-zero/libjpeg-turbo-2.0.90/rdgif.c:222
      sinfo->first_time = FALSE;
    4ac8:	c7 83 50 01 00 00 00 	movl   $0x0,0x150(%rbx)
    4acf:	00 00 00 
LZWReadByte():
/home/tenebris/Disk/Racing-code/examples/23-libjpeg-divide-by-zero/libjpeg-turbo-2.0.90/rdgif.c:279
    } while (code == sinfo->clear_code);
    4ad2:	e9 72 ff ff ff       	jmp    4a49 <get_pixel_rows+0x359>
/home/tenebris/Disk/Racing-code/examples/23-libjpeg-divide-by-zero/libjpeg-turbo-2.0.90/rdgif.c:291
    if (!sinfo->out_of_blocks) {
    4ad7:	8b 83 54 01 00 00    	mov    0x154(%rbx),%eax
    4add:	85 c0                	test   %eax,%eax
    4adf:	75 28                	jne    4b09 <get_pixel_rows+0x419>
    4ae1:	48 8d 6c 24 10       	lea    0x10(%rsp),%rbp
    4ae6:	66 2e 0f 1f 84 00 00 	cs nopw 0x0(%rax,%rax,1)
    4aed:	00 00 00 
SkipDataBlocks():
/home/tenebris/Disk/Racing-code/examples/23-libjpeg-divide-by-zero/libjpeg-turbo-2.0.90/rdgif.c:173
  while (GetDataBlock(sinfo, buf) > 0)
    4af0:	48 89 ee             	mov    %rbp,%rsi
    4af3:	48 89 df             	mov    %rbx,%rdi
    4af6:	e8 15 f4 ff ff       	call   3f10 <GetDataBlock>
    4afb:	85 c0                	test   %eax,%eax
    4afd:	7f f1                	jg     4af0 <get_pixel_rows+0x400>
LZWReadByte():
/home/tenebris/Disk/Racing-code/examples/23-libjpeg-divide-by-zero/libjpeg-turbo-2.0.90/rdgif.c:293
      sinfo->out_of_blocks = TRUE;
    4aff:	c7 83 54 01 00 00 01 	movl   $0x1,0x154(%rbx)
    4b06:	00 00 00 
/home/tenebris/Disk/Racing-code/examples/23-libjpeg-divide-by-zero/libjpeg-turbo-2.0.90/rdgif.c:296
    WARNMS(sinfo->cinfo, JWRN_GIF_ENDCODE);
    4b09:	48 8b 7b 30          	mov    0x30(%rbx),%rdi
    4b0d:	be ff ff ff ff       	mov    $0xffffffff,%esi
    4b12:	48 8b 07             	mov    (%rdi),%rax
    4b15:	c7 40 28 01 04 00 00 	movl   $0x401,0x28(%rax)
    4b1c:	ff 50 08             	call   *0x8(%rax)
/home/tenebris/Disk/Racing-code/examples/23-libjpeg-divide-by-zero/libjpeg-turbo-2.0.90/rdgif.c:298
    return 0;                   /* fake something usable */
    4b1f:	31 c0                	xor    %eax,%eax
    4b21:	e9 31 fc ff ff       	jmp    4757 <get_pixel_rows+0x67>
/home/tenebris/Disk/Racing-code/examples/23-libjpeg-divide-by-zero/libjpeg-turbo-2.0.90/rdgif.c:281
      WARNMS(sinfo->cinfo, JWRN_GIF_BADDATA);
    4b26:	48 8b 7b 30          	mov    0x30(%rbx),%rdi
    4b2a:	be ff ff ff ff       	mov    $0xffffffff,%esi
    4b2f:	48 8b 07             	mov    (%rdi),%rax
    4b32:	c7 40 28 ff 03 00 00 	movl   $0x3ff,0x28(%rax)
    4b39:	ff 50 08             	call   *0x8(%rax)
    4b3c:	31 c0                	xor    %eax,%eax
/home/tenebris/Disk/Racing-code/examples/23-libjpeg-divide-by-zero/libjpeg-turbo-2.0.90/rdgif.c:282
      code = 0;                 /* use something valid */
    4b3e:	31 d2                	xor    %edx,%edx
    4b40:	e9 6a ff ff ff       	jmp    4aaf <get_pixel_rows+0x3bf>
/home/tenebris/Disk/Racing-code/examples/23-libjpeg-divide-by-zero/libjpeg-turbo-2.0.90/rdgif.c:332
      sinfo->code_size++;
    4b45:	83 c0 01             	add    $0x1,%eax
/home/tenebris/Disk/Racing-code/examples/23-libjpeg-divide-by-zero/libjpeg-turbo-2.0.90/rdgif.c:333
      sinfo->limit_code <<= 1;  /* keep equal to 2^code_size */
    4b48:	01 d2                	add    %edx,%edx
/home/tenebris/Disk/Racing-code/examples/23-libjpeg-divide-by-zero/libjpeg-turbo-2.0.90/rdgif.c:332
      sinfo->code_size++;
    4b4a:	66 0f 6e c0          	movd   %eax,%xmm0
    4b4e:	66 0f 6e e2          	movd   %edx,%xmm4
    4b52:	66 0f 62 c4          	punpckldq %xmm4,%xmm0
    4b56:	66 0f d6 83 64 01 00 	movq   %xmm0,0x164(%rbx)
    4b5d:	00 
    4b5e:	e9 3b fd ff ff       	jmp    489e <get_pixel_rows+0x1ae>
get_pixel_rows():
/home/tenebris/Disk/Racing-code/examples/23-libjpeg-divide-by-zero/libjpeg-turbo-2.0.90/rdgif.c:550
}
    4b63:	e8 58 d7 ff ff       	call   22c0 <__stack_chk_fail@plt>
    4b68:	0f 1f 84 00 00 00 00 	nopl   0x0(%rax,%rax,1)
    4b6f:	00 

0000000000004b70 <load_interlaced_image>:
load_interlaced_image():
/home/tenebris/Disk/Racing-code/examples/23-libjpeg-divide-by-zero/libjpeg-turbo-2.0.90/rdgif.c:561
{
    4b70:	f3 0f 1e fa          	endbr64 
    4b74:	41 57                	push   %r15
    4b76:	41 56                	push   %r14
    4b78:	49 89 f6             	mov    %rsi,%r14
    4b7b:	41 55                	push   %r13
    4b7d:	49 89 fd             	mov    %rdi,%r13
    4b80:	41 54                	push   %r12
    4b82:	55                   	push   %rbp
    4b83:	53                   	push   %rbx
    4b84:	48 81 ec 38 01 00 00 	sub    $0x138,%rsp
/home/tenebris/Disk/Racing-code/examples/23-libjpeg-divide-by-zero/libjpeg-turbo-2.0.90/rdgif.c:566
  cd_progress_ptr progress = (cd_progress_ptr)cinfo->progress;
    4b8b:	64 48 8b 04 25 28 00 	mov    %fs:0x28,%rax
    4b92:	00 00 
    4b94:	48 89 84 24 28 01 00 	mov    %rax,0x128(%rsp)
    4b9b:	00 
    4b9c:	48 8b 47 10          	mov    0x10(%rdi),%rax
    4ba0:	48 89 44 24 18       	mov    %rax,0x18(%rsp)
/home/tenebris/Disk/Racing-code/examples/23-libjpeg-divide-by-zero/libjpeg-turbo-2.0.90/rdgif.c:569
  for (row = 0; row < cinfo->image_height; row++) {
    4ba5:	8b 47 34             	mov    0x34(%rdi),%eax
    4ba8:	85 c0                	test   %eax,%eax
    4baa:	0f 84 e7 04 00 00    	je     5097 <load_interlaced_image+0x527>
    4bb0:	c7 44 24 14 00 00 00 	movl   $0x0,0x14(%rsp)
    4bb7:	00 
GetCode():
/home/tenebris/Disk/Racing-code/examples/23-libjpeg-divide-by-zero/libjpeg-turbo-2.0.90/rdgif.c:233
    if ((count = GetDataBlock(sinfo, &sinfo->code_buf[2])) == 0) {
    4bb8:	48 8d 5e 42          	lea    0x42(%rsi),%rbx
    4bbc:	0f 1f 40 00          	nopl   0x0(%rax)
load_interlaced_image():
/home/tenebris/Disk/Racing-code/examples/23-libjpeg-divide-by-zero/libjpeg-turbo-2.0.90/rdgif.c:570
    if (progress != NULL) {
    4bc0:	48 8b 74 24 18       	mov    0x18(%rsp),%rsi
    4bc5:	48 85 f6             	test   %rsi,%rsi
    4bc8:	74 1a                	je     4be4 <load_interlaced_image+0x74>
/home/tenebris/Disk/Racing-code/examples/23-libjpeg-divide-by-zero/libjpeg-turbo-2.0.90/rdgif.c:571
      progress->pub.pass_counter = (long)row;
    4bca:	8b 54 24 14          	mov    0x14(%rsp),%edx
/home/tenebris/Disk/Racing-code/examples/23-libjpeg-divide-by-zero/libjpeg-turbo-2.0.90/rdgif.c:572
      progress->pub.pass_limit = (long)cinfo->image_height;
    4bce:	66 0f 6e c0          	movd   %eax,%xmm0
/home/tenebris/Disk/Racing-code/examples/23-libjpeg-divide-by-zero/libjpeg-turbo-2.0.90/rdgif.c:573
      (*progress->pub.progress_monitor) ((j_common_ptr)cinfo);
    4bd2:	4c 89 ef             	mov    %r13,%rdi
/home/tenebris/Disk/Racing-code/examples/23-libjpeg-divide-by-zero/libjpeg-turbo-2.0.90/rdgif.c:571
      progress->pub.pass_counter = (long)row;
    4bd5:	66 48 0f 6e ca       	movq   %rdx,%xmm1
    4bda:	66 0f 6c c8          	punpcklqdq %xmm0,%xmm1
    4bde:	0f 11 4e 08          	movups %xmm1,0x8(%rsi)
/home/tenebris/Disk/Racing-code/examples/23-libjpeg-divide-by-zero/libjpeg-turbo-2.0.90/rdgif.c:573
      (*progress->pub.progress_monitor) ((j_common_ptr)cinfo);
    4be2:	ff 16                	call   *(%rsi)
/home/tenebris/Disk/Racing-code/examples/23-libjpeg-divide-by-zero/libjpeg-turbo-2.0.90/rdgif.c:575
    sptr = *(*cinfo->mem->access_virt_sarray)
    4be4:	49 8b 45 08          	mov    0x8(%r13),%rax
    4be8:	8b 54 24 14          	mov    0x14(%rsp),%edx
    4bec:	b9 01 00 00 00       	mov    $0x1,%ecx
    4bf1:	4c 89 ef             	mov    %r13,%rdi
    4bf4:	49 8b b6 a0 01 00 00 	mov    0x1a0(%r14),%rsi
    4bfb:	41 b8 01 00 00 00    	mov    $0x1,%r8d
    4c01:	ff 50 38             	call   *0x38(%rax)
/home/tenebris/Disk/Racing-code/examples/23-libjpeg-divide-by-zero/libjpeg-turbo-2.0.90/rdgif.c:578
    for (col = cinfo->image_width; col > 0; col--) {
    4c04:	45 8b 65 30          	mov    0x30(%r13),%r12d
/home/tenebris/Disk/Racing-code/examples/23-libjpeg-divide-by-zero/libjpeg-turbo-2.0.90/rdgif.c:575
    sptr = *(*cinfo->mem->access_virt_sarray)
    4c08:	48 8b 28             	mov    (%rax),%rbp
/home/tenebris/Disk/Racing-code/examples/23-libjpeg-divide-by-zero/libjpeg-turbo-2.0.90/rdgif.c:578
    for (col = cinfo->image_width; col > 0; col--) {
    4c0b:	4a 8d 74 25 00       	lea    0x0(%rbp,%r12,1),%rsi
    4c10:	48 89 74 24 08       	mov    %rsi,0x8(%rsp)
    4c15:	45 85 e4             	test   %r12d,%r12d
    4c18:	75 27                	jne    4c41 <load_interlaced_image+0xd1>
    4c1a:	e9 7c 01 00 00       	jmp    4d9b <load_interlaced_image+0x22b>
    4c1f:	90                   	nop
LZWReadByte():
/home/tenebris/Disk/Racing-code/examples/23-libjpeg-divide-by-zero/libjpeg-turbo-2.0.90/rdgif.c:268
    return (int)(*(--sinfo->sp));
    4c20:	48 8d 50 ff          	lea    -0x1(%rax),%rdx
    4c24:	49 89 96 90 01 00 00 	mov    %rdx,0x190(%r14)
    4c2b:	0f b6 40 ff          	movzbl -0x1(%rax),%eax
load_interlaced_image():
/home/tenebris/Disk/Racing-code/examples/23-libjpeg-divide-by-zero/libjpeg-turbo-2.0.90/rdgif.c:579
      *sptr++ = (JSAMPLE)LZWReadByte(source);
    4c2f:	48 83 c5 01          	add    $0x1,%rbp
    4c33:	88 45 ff             	mov    %al,-0x1(%rbp)
/home/tenebris/Disk/Racing-code/examples/23-libjpeg-divide-by-zero/libjpeg-turbo-2.0.90/rdgif.c:578
    for (col = cinfo->image_width; col > 0; col--) {
    4c36:	48 3b 6c 24 08       	cmp    0x8(%rsp),%rbp
    4c3b:	0f 84 5a 01 00 00    	je     4d9b <load_interlaced_image+0x22b>
LZWReadByte():
/home/tenebris/Disk/Racing-code/examples/23-libjpeg-divide-by-zero/libjpeg-turbo-2.0.90/rdgif.c:267
  if (sinfo->sp > sinfo->symbol_stack)
    4c41:	49 8b 86 90 01 00 00 	mov    0x190(%r14),%rax
    4c48:	49 3b 86 88 01 00 00 	cmp    0x188(%r14),%rax
