
lua_trace:     file format elf64-x86-64


Disassembly of section .init:

0000000000004000 <_init>:
_init():
    4000:	f3 0f 1e fa          	endbr64 
    4004:	48 83 ec 08          	sub    $0x8,%rsp
    4008:	48 8b 05 d1 ef 02 00 	mov    0x2efd1(%rip),%rax        # 32fe0 <__gmon_start__@Base>
    400f:	48 85 c0             	test   %rax,%rax
    4012:	74 02                	je     4016 <_init+0x16>
    4014:	ff d0                	call   *%rax
    4016:	48 83 c4 08          	add    $0x8,%rsp
    401a:	c3                   	ret    

Disassembly of section .plt:

0000000000004020 <.plt>:
    4020:	ff 35 22 ed 02 00    	push   0x2ed22(%rip)        # 32d48 <_GLOBAL_OFFSET_TABLE_+0x8>
    4026:	f2 ff 25 23 ed 02 00 	bnd jmp *0x2ed23(%rip)        # 32d50 <_GLOBAL_OFFSET_TABLE_+0x10>
    402d:	0f 1f 00             	nopl   (%rax)
    4030:	f3 0f 1e fa          	endbr64 
    4034:	68 00 00 00 00       	push   $0x0
    4039:	f2 e9 e1 ff ff ff    	bnd jmp 4020 <_init+0x20>
    403f:	90                   	nop
    4040:	f3 0f 1e fa          	endbr64 
    4044:	68 01 00 00 00       	push   $0x1
    4049:	f2 e9 d1 ff ff ff    	bnd jmp 4020 <_init+0x20>
    404f:	90                   	nop
    4050:	f3 0f 1e fa          	endbr64 
    4054:	68 02 00 00 00       	push   $0x2
    4059:	f2 e9 c1 ff ff ff    	bnd jmp 4020 <_init+0x20>
    405f:	90                   	nop
    4060:	f3 0f 1e fa          	endbr64 
    4064:	68 03 00 00 00       	push   $0x3
    4069:	f2 e9 b1 ff ff ff    	bnd jmp 4020 <_init+0x20>
    406f:	90                   	nop
    4070:	f3 0f 1e fa          	endbr64 
    4074:	68 04 00 00 00       	push   $0x4
    4079:	f2 e9 a1 ff ff ff    	bnd jmp 4020 <_init+0x20>
    407f:	90                   	nop
    4080:	f3 0f 1e fa          	endbr64 
    4084:	68 05 00 00 00       	push   $0x5
    4089:	f2 e9 91 ff ff ff    	bnd jmp 4020 <_init+0x20>
    408f:	90                   	nop
    4090:	f3 0f 1e fa          	endbr64 
    4094:	68 06 00 00 00       	push   $0x6
    4099:	f2 e9 81 ff ff ff    	bnd jmp 4020 <_init+0x20>
    409f:	90                   	nop
    40a0:	f3 0f 1e fa          	endbr64 
    40a4:	68 07 00 00 00       	push   $0x7
    40a9:	f2 e9 71 ff ff ff    	bnd jmp 4020 <_init+0x20>
    40af:	90                   	nop
    40b0:	f3 0f 1e fa          	endbr64 
    40b4:	68 08 00 00 00       	push   $0x8
    40b9:	f2 e9 61 ff ff ff    	bnd jmp 4020 <_init+0x20>
    40bf:	90                   	nop
    40c0:	f3 0f 1e fa          	endbr64 
    40c4:	68 09 00 00 00       	push   $0x9
    40c9:	f2 e9 51 ff ff ff    	bnd jmp 4020 <_init+0x20>
    40cf:	90                   	nop
    40d0:	f3 0f 1e fa          	endbr64 
    40d4:	68 0a 00 00 00       	push   $0xa
    40d9:	f2 e9 41 ff ff ff    	bnd jmp 4020 <_init+0x20>
    40df:	90                   	nop
    40e0:	f3 0f 1e fa          	endbr64 
    40e4:	68 0b 00 00 00       	push   $0xb
    40e9:	f2 e9 31 ff ff ff    	bnd jmp 4020 <_init+0x20>
    40ef:	90                   	nop
    40f0:	f3 0f 1e fa          	endbr64 
    40f4:	68 0c 00 00 00       	push   $0xc
    40f9:	f2 e9 21 ff ff ff    	bnd jmp 4020 <_init+0x20>
    40ff:	90                   	nop
    4100:	f3 0f 1e fa          	endbr64 
    4104:	68 0d 00 00 00       	push   $0xd
    4109:	f2 e9 11 ff ff ff    	bnd jmp 4020 <_init+0x20>
    410f:	90                   	nop
    4110:	f3 0f 1e fa          	endbr64 
    4114:	68 0e 00 00 00       	push   $0xe
    4119:	f2 e9 01 ff ff ff    	bnd jmp 4020 <_init+0x20>
    411f:	90                   	nop
    4120:	f3 0f 1e fa          	endbr64 
    4124:	68 0f 00 00 00       	push   $0xf
    4129:	f2 e9 f1 fe ff ff    	bnd jmp 4020 <_init+0x20>
    412f:	90                   	nop
    4130:	f3 0f 1e fa          	endbr64 
    4134:	68 10 00 00 00       	push   $0x10
    4139:	f2 e9 e1 fe ff ff    	bnd jmp 4020 <_init+0x20>
    413f:	90                   	nop
    4140:	f3 0f 1e fa          	endbr64 
    4144:	68 11 00 00 00       	push   $0x11
    4149:	f2 e9 d1 fe ff ff    	bnd jmp 4020 <_init+0x20>
    414f:	90                   	nop
    4150:	f3 0f 1e fa          	endbr64 
    4154:	68 12 00 00 00       	push   $0x12
    4159:	f2 e9 c1 fe ff ff    	bnd jmp 4020 <_init+0x20>
    415f:	90                   	nop
    4160:	f3 0f 1e fa          	endbr64 
    4164:	68 13 00 00 00       	push   $0x13
    4169:	f2 e9 b1 fe ff ff    	bnd jmp 4020 <_init+0x20>
    416f:	90                   	nop
    4170:	f3 0f 1e fa          	endbr64 
    4174:	68 14 00 00 00       	push   $0x14
    4179:	f2 e9 a1 fe ff ff    	bnd jmp 4020 <_init+0x20>
    417f:	90                   	nop
    4180:	f3 0f 1e fa          	endbr64 
    4184:	68 15 00 00 00       	push   $0x15
    4189:	f2 e9 91 fe ff ff    	bnd jmp 4020 <_init+0x20>
    418f:	90                   	nop
    4190:	f3 0f 1e fa          	endbr64 
    4194:	68 16 00 00 00       	push   $0x16
    4199:	f2 e9 81 fe ff ff    	bnd jmp 4020 <_init+0x20>
    419f:	90                   	nop
    41a0:	f3 0f 1e fa          	endbr64 
    41a4:	68 17 00 00 00       	push   $0x17
    41a9:	f2 e9 71 fe ff ff    	bnd jmp 4020 <_init+0x20>
    41af:	90                   	nop
    41b0:	f3 0f 1e fa          	endbr64 
    41b4:	68 18 00 00 00       	push   $0x18
    41b9:	f2 e9 61 fe ff ff    	bnd jmp 4020 <_init+0x20>
    41bf:	90                   	nop
    41c0:	f3 0f 1e fa          	endbr64 
    41c4:	68 19 00 00 00       	push   $0x19
    41c9:	f2 e9 51 fe ff ff    	bnd jmp 4020 <_init+0x20>
    41cf:	90                   	nop
    41d0:	f3 0f 1e fa          	endbr64 
    41d4:	68 1a 00 00 00       	push   $0x1a
    41d9:	f2 e9 41 fe ff ff    	bnd jmp 4020 <_init+0x20>
    41df:	90                   	nop
    41e0:	f3 0f 1e fa          	endbr64 
    41e4:	68 1b 00 00 00       	push   $0x1b
    41e9:	f2 e9 31 fe ff ff    	bnd jmp 4020 <_init+0x20>
    41ef:	90                   	nop
    41f0:	f3 0f 1e fa          	endbr64 
    41f4:	68 1c 00 00 00       	push   $0x1c
    41f9:	f2 e9 21 fe ff ff    	bnd jmp 4020 <_init+0x20>
    41ff:	90                   	nop
    4200:	f3 0f 1e fa          	endbr64 
    4204:	68 1d 00 00 00       	push   $0x1d
    4209:	f2 e9 11 fe ff ff    	bnd jmp 4020 <_init+0x20>
    420f:	90                   	nop
    4210:	f3 0f 1e fa          	endbr64 
    4214:	68 1e 00 00 00       	push   $0x1e
    4219:	f2 e9 01 fe ff ff    	bnd jmp 4020 <_init+0x20>
    421f:	90                   	nop
    4220:	f3 0f 1e fa          	endbr64 
    4224:	68 1f 00 00 00       	push   $0x1f
    4229:	f2 e9 f1 fd ff ff    	bnd jmp 4020 <_init+0x20>
    422f:	90                   	nop
    4230:	f3 0f 1e fa          	endbr64 
    4234:	68 20 00 00 00       	push   $0x20
    4239:	f2 e9 e1 fd ff ff    	bnd jmp 4020 <_init+0x20>
    423f:	90                   	nop
    4240:	f3 0f 1e fa          	endbr64 
    4244:	68 21 00 00 00       	push   $0x21
    4249:	f2 e9 d1 fd ff ff    	bnd jmp 4020 <_init+0x20>
    424f:	90                   	nop
    4250:	f3 0f 1e fa          	endbr64 
    4254:	68 22 00 00 00       	push   $0x22
    4259:	f2 e9 c1 fd ff ff    	bnd jmp 4020 <_init+0x20>
    425f:	90                   	nop
    4260:	f3 0f 1e fa          	endbr64 
    4264:	68 23 00 00 00       	push   $0x23
    4269:	f2 e9 b1 fd ff ff    	bnd jmp 4020 <_init+0x20>
    426f:	90                   	nop
    4270:	f3 0f 1e fa          	endbr64 
    4274:	68 24 00 00 00       	push   $0x24
    4279:	f2 e9 a1 fd ff ff    	bnd jmp 4020 <_init+0x20>
    427f:	90                   	nop
    4280:	f3 0f 1e fa          	endbr64 
    4284:	68 25 00 00 00       	push   $0x25
    4289:	f2 e9 91 fd ff ff    	bnd jmp 4020 <_init+0x20>
    428f:	90                   	nop
    4290:	f3 0f 1e fa          	endbr64 
    4294:	68 26 00 00 00       	push   $0x26
    4299:	f2 e9 81 fd ff ff    	bnd jmp 4020 <_init+0x20>
    429f:	90                   	nop
    42a0:	f3 0f 1e fa          	endbr64 
    42a4:	68 27 00 00 00       	push   $0x27
    42a9:	f2 e9 71 fd ff ff    	bnd jmp 4020 <_init+0x20>
    42af:	90                   	nop
    42b0:	f3 0f 1e fa          	endbr64 
    42b4:	68 28 00 00 00       	push   $0x28
    42b9:	f2 e9 61 fd ff ff    	bnd jmp 4020 <_init+0x20>
    42bf:	90                   	nop
    42c0:	f3 0f 1e fa          	endbr64 
    42c4:	68 29 00 00 00       	push   $0x29
    42c9:	f2 e9 51 fd ff ff    	bnd jmp 4020 <_init+0x20>
    42cf:	90                   	nop
    42d0:	f3 0f 1e fa          	endbr64 
    42d4:	68 2a 00 00 00       	push   $0x2a
    42d9:	f2 e9 41 fd ff ff    	bnd jmp 4020 <_init+0x20>
    42df:	90                   	nop
    42e0:	f3 0f 1e fa          	endbr64 
    42e4:	68 2b 00 00 00       	push   $0x2b
    42e9:	f2 e9 31 fd ff ff    	bnd jmp 4020 <_init+0x20>
    42ef:	90                   	nop
    42f0:	f3 0f 1e fa          	endbr64 
    42f4:	68 2c 00 00 00       	push   $0x2c
    42f9:	f2 e9 21 fd ff ff    	bnd jmp 4020 <_init+0x20>
    42ff:	90                   	nop
    4300:	f3 0f 1e fa          	endbr64 
    4304:	68 2d 00 00 00       	push   $0x2d
    4309:	f2 e9 11 fd ff ff    	bnd jmp 4020 <_init+0x20>
    430f:	90                   	nop
    4310:	f3 0f 1e fa          	endbr64 
    4314:	68 2e 00 00 00       	push   $0x2e
    4319:	f2 e9 01 fd ff ff    	bnd jmp 4020 <_init+0x20>
    431f:	90                   	nop
    4320:	f3 0f 1e fa          	endbr64 
    4324:	68 2f 00 00 00       	push   $0x2f
    4329:	f2 e9 f1 fc ff ff    	bnd jmp 4020 <_init+0x20>
    432f:	90                   	nop
    4330:	f3 0f 1e fa          	endbr64 
    4334:	68 30 00 00 00       	push   $0x30
    4339:	f2 e9 e1 fc ff ff    	bnd jmp 4020 <_init+0x20>
    433f:	90                   	nop
    4340:	f3 0f 1e fa          	endbr64 
    4344:	68 31 00 00 00       	push   $0x31
    4349:	f2 e9 d1 fc ff ff    	bnd jmp 4020 <_init+0x20>
    434f:	90                   	nop
    4350:	f3 0f 1e fa          	endbr64 
    4354:	68 32 00 00 00       	push   $0x32
    4359:	f2 e9 c1 fc ff ff    	bnd jmp 4020 <_init+0x20>
    435f:	90                   	nop
    4360:	f3 0f 1e fa          	endbr64 
    4364:	68 33 00 00 00       	push   $0x33
    4369:	f2 e9 b1 fc ff ff    	bnd jmp 4020 <_init+0x20>
    436f:	90                   	nop
    4370:	f3 0f 1e fa          	endbr64 
    4374:	68 34 00 00 00       	push   $0x34
    4379:	f2 e9 a1 fc ff ff    	bnd jmp 4020 <_init+0x20>
    437f:	90                   	nop
    4380:	f3 0f 1e fa          	endbr64 
    4384:	68 35 00 00 00       	push   $0x35
    4389:	f2 e9 91 fc ff ff    	bnd jmp 4020 <_init+0x20>
    438f:	90                   	nop
    4390:	f3 0f 1e fa          	endbr64 
    4394:	68 36 00 00 00       	push   $0x36
    4399:	f2 e9 81 fc ff ff    	bnd jmp 4020 <_init+0x20>
    439f:	90                   	nop
    43a0:	f3 0f 1e fa          	endbr64 
    43a4:	68 37 00 00 00       	push   $0x37
    43a9:	f2 e9 71 fc ff ff    	bnd jmp 4020 <_init+0x20>
    43af:	90                   	nop
    43b0:	f3 0f 1e fa          	endbr64 
    43b4:	68 38 00 00 00       	push   $0x38
    43b9:	f2 e9 61 fc ff ff    	bnd jmp 4020 <_init+0x20>
    43bf:	90                   	nop
    43c0:	f3 0f 1e fa          	endbr64 
    43c4:	68 39 00 00 00       	push   $0x39
    43c9:	f2 e9 51 fc ff ff    	bnd jmp 4020 <_init+0x20>
    43cf:	90                   	nop
    43d0:	f3 0f 1e fa          	endbr64 
    43d4:	68 3a 00 00 00       	push   $0x3a
    43d9:	f2 e9 41 fc ff ff    	bnd jmp 4020 <_init+0x20>
    43df:	90                   	nop
    43e0:	f3 0f 1e fa          	endbr64 
    43e4:	68 3b 00 00 00       	push   $0x3b
    43e9:	f2 e9 31 fc ff ff    	bnd jmp 4020 <_init+0x20>
    43ef:	90                   	nop
    43f0:	f3 0f 1e fa          	endbr64 
    43f4:	68 3c 00 00 00       	push   $0x3c
    43f9:	f2 e9 21 fc ff ff    	bnd jmp 4020 <_init+0x20>
    43ff:	90                   	nop
    4400:	f3 0f 1e fa          	endbr64 
    4404:	68 3d 00 00 00       	push   $0x3d
    4409:	f2 e9 11 fc ff ff    	bnd jmp 4020 <_init+0x20>
    440f:	90                   	nop
    4410:	f3 0f 1e fa          	endbr64 
    4414:	68 3e 00 00 00       	push   $0x3e
    4419:	f2 e9 01 fc ff ff    	bnd jmp 4020 <_init+0x20>
    441f:	90                   	nop
    4420:	f3 0f 1e fa          	endbr64 
    4424:	68 3f 00 00 00       	push   $0x3f
    4429:	f2 e9 f1 fb ff ff    	bnd jmp 4020 <_init+0x20>
    442f:	90                   	nop
    4430:	f3 0f 1e fa          	endbr64 
    4434:	68 40 00 00 00       	push   $0x40
    4439:	f2 e9 e1 fb ff ff    	bnd jmp 4020 <_init+0x20>
    443f:	90                   	nop
    4440:	f3 0f 1e fa          	endbr64 
    4444:	68 41 00 00 00       	push   $0x41
    4449:	f2 e9 d1 fb ff ff    	bnd jmp 4020 <_init+0x20>
    444f:	90                   	nop
    4450:	f3 0f 1e fa          	endbr64 
    4454:	68 42 00 00 00       	push   $0x42
    4459:	f2 e9 c1 fb ff ff    	bnd jmp 4020 <_init+0x20>
    445f:	90                   	nop
    4460:	f3 0f 1e fa          	endbr64 
    4464:	68 43 00 00 00       	push   $0x43
    4469:	f2 e9 b1 fb ff ff    	bnd jmp 4020 <_init+0x20>
    446f:	90                   	nop
    4470:	f3 0f 1e fa          	endbr64 
    4474:	68 44 00 00 00       	push   $0x44
    4479:	f2 e9 a1 fb ff ff    	bnd jmp 4020 <_init+0x20>
    447f:	90                   	nop
    4480:	f3 0f 1e fa          	endbr64 
    4484:	68 45 00 00 00       	push   $0x45
    4489:	f2 e9 91 fb ff ff    	bnd jmp 4020 <_init+0x20>
    448f:	90                   	nop
    4490:	f3 0f 1e fa          	endbr64 
    4494:	68 46 00 00 00       	push   $0x46
    4499:	f2 e9 81 fb ff ff    	bnd jmp 4020 <_init+0x20>
    449f:	90                   	nop
    44a0:	f3 0f 1e fa          	endbr64 
    44a4:	68 47 00 00 00       	push   $0x47
    44a9:	f2 e9 71 fb ff ff    	bnd jmp 4020 <_init+0x20>
    44af:	90                   	nop
    44b0:	f3 0f 1e fa          	endbr64 
    44b4:	68 48 00 00 00       	push   $0x48
    44b9:	f2 e9 61 fb ff ff    	bnd jmp 4020 <_init+0x20>
    44bf:	90                   	nop
    44c0:	f3 0f 1e fa          	endbr64 
    44c4:	68 49 00 00 00       	push   $0x49
    44c9:	f2 e9 51 fb ff ff    	bnd jmp 4020 <_init+0x20>
    44cf:	90                   	nop
    44d0:	f3 0f 1e fa          	endbr64 
    44d4:	68 4a 00 00 00       	push   $0x4a
    44d9:	f2 e9 41 fb ff ff    	bnd jmp 4020 <_init+0x20>
    44df:	90                   	nop
    44e0:	f3 0f 1e fa          	endbr64 
    44e4:	68 4b 00 00 00       	push   $0x4b
    44e9:	f2 e9 31 fb ff ff    	bnd jmp 4020 <_init+0x20>
    44ef:	90                   	nop
    44f0:	f3 0f 1e fa          	endbr64 
    44f4:	68 4c 00 00 00       	push   $0x4c
    44f9:	f2 e9 21 fb ff ff    	bnd jmp 4020 <_init+0x20>
    44ff:	90                   	nop
    4500:	f3 0f 1e fa          	endbr64 
    4504:	68 4d 00 00 00       	push   $0x4d
    4509:	f2 e9 11 fb ff ff    	bnd jmp 4020 <_init+0x20>
    450f:	90                   	nop
    4510:	f3 0f 1e fa          	endbr64 
    4514:	68 4e 00 00 00       	push   $0x4e
    4519:	f2 e9 01 fb ff ff    	bnd jmp 4020 <_init+0x20>
    451f:	90                   	nop

Disassembly of section .plt.got:

0000000000004520 <__cxa_finalize@plt>:
    4520:	f3 0f 1e fa          	endbr64 
    4524:	f2 ff 25 c5 ea 02 00 	bnd jmp *0x2eac5(%rip)        # 32ff0 <__cxa_finalize@GLIBC_2.2.5>
    452b:	0f 1f 44 00 00       	nopl   0x0(%rax,%rax,1)

Disassembly of section .plt.sec:

0000000000004530 <getenv@plt>:
    4530:	f3 0f 1e fa          	endbr64 
    4534:	f2 ff 25 1d e8 02 00 	bnd jmp *0x2e81d(%rip)        # 32d58 <getenv@GLIBC_2.2.5>
    453b:	0f 1f 44 00 00       	nopl   0x0(%rax,%rax,1)

0000000000004540 <free@plt>:
    4540:	f3 0f 1e fa          	endbr64 
    4544:	f2 ff 25 15 e8 02 00 	bnd jmp *0x2e815(%rip)        # 32d60 <free@GLIBC_2.2.5>
    454b:	0f 1f 44 00 00       	nopl   0x0(%rax,%rax,1)

0000000000004550 <localtime@plt>:
    4550:	f3 0f 1e fa          	endbr64 
    4554:	f2 ff 25 0d e8 02 00 	bnd jmp *0x2e80d(%rip)        # 32d68 <localtime@GLIBC_2.2.5>
    455b:	0f 1f 44 00 00       	nopl   0x0(%rax,%rax,1)

0000000000004560 <__errno_location@plt>:
    4560:	f3 0f 1e fa          	endbr64 
    4564:	f2 ff 25 05 e8 02 00 	bnd jmp *0x2e805(%rip)        # 32d70 <__errno_location@GLIBC_2.2.5>
    456b:	0f 1f 44 00 00       	nopl   0x0(%rax,%rax,1)

0000000000004570 <ldexp@plt>:
    4570:	f3 0f 1e fa          	endbr64 
    4574:	f2 ff 25 fd e7 02 00 	bnd jmp *0x2e7fd(%rip)        # 32d78 <ldexp@GLIBC_2.2.5>
    457b:	0f 1f 44 00 00       	nopl   0x0(%rax,%rax,1)

0000000000004580 <strncpy@plt>:
    4580:	f3 0f 1e fa          	endbr64 
    4584:	f2 ff 25 f5 e7 02 00 	bnd jmp *0x2e7f5(%rip)        # 32d80 <strncpy@GLIBC_2.2.5>
    458b:	0f 1f 44 00 00       	nopl   0x0(%rax,%rax,1)

0000000000004590 <remove@plt>:
    4590:	f3 0f 1e fa          	endbr64 
    4594:	f2 ff 25 ed e7 02 00 	bnd jmp *0x2e7ed(%rip)        # 32d88 <remove@GLIBC_2.2.5>
    459b:	0f 1f 44 00 00       	nopl   0x0(%rax,%rax,1)

00000000000045a0 <__isoc99_fscanf@plt>:
    45a0:	f3 0f 1e fa          	endbr64 
    45a4:	f2 ff 25 e5 e7 02 00 	bnd jmp *0x2e7e5(%rip)        # 32d90 <__isoc99_fscanf@GLIBC_2.7>
    45ab:	0f 1f 44 00 00       	nopl   0x0(%rax,%rax,1)

00000000000045b0 <toupper@plt>:
    45b0:	f3 0f 1e fa          	endbr64 
    45b4:	f2 ff 25 dd e7 02 00 	bnd jmp *0x2e7dd(%rip)        # 32d98 <toupper@GLIBC_2.2.5>
    45bb:	0f 1f 44 00 00       	nopl   0x0(%rax,%rax,1)

00000000000045c0 <ferror@plt>:
    45c0:	f3 0f 1e fa          	endbr64 
    45c4:	f2 ff 25 d5 e7 02 00 	bnd jmp *0x2e7d5(%rip)        # 32da0 <ferror@GLIBC_2.2.5>
    45cb:	0f 1f 44 00 00       	nopl   0x0(%rax,%rax,1)

00000000000045d0 <isatty@plt>:
    45d0:	f3 0f 1e fa          	endbr64 
    45d4:	f2 ff 25 cd e7 02 00 	bnd jmp *0x2e7cd(%rip)        # 32da8 <isatty@GLIBC_2.2.5>
    45db:	0f 1f 44 00 00       	nopl   0x0(%rax,%rax,1)

00000000000045e0 <fread@plt>:
    45e0:	f3 0f 1e fa          	endbr64 
    45e4:	f2 ff 25 c5 e7 02 00 	bnd jmp *0x2e7c5(%rip)        # 32db0 <fread@GLIBC_2.2.5>
    45eb:	0f 1f 44 00 00       	nopl   0x0(%rax,%rax,1)

00000000000045f0 <strtod@plt>:
    45f0:	f3 0f 1e fa          	endbr64 
    45f4:	f2 ff 25 bd e7 02 00 	bnd jmp *0x2e7bd(%rip)        # 32db8 <strtod@GLIBC_2.2.5>
    45fb:	0f 1f 44 00 00       	nopl   0x0(%rax,%rax,1)

0000000000004600 <atan@plt>:
    4600:	f3 0f 1e fa          	endbr64 
    4604:	f2 ff 25 b5 e7 02 00 	bnd jmp *0x2e7b5(%rip)        # 32dc0 <atan@GLIBC_2.2.5>
    460b:	0f 1f 44 00 00       	nopl   0x0(%rax,%rax,1)

0000000000004610 <pow@plt>:
    4610:	f3 0f 1e fa          	endbr64 
    4614:	f2 ff 25 ad e7 02 00 	bnd jmp *0x2e7ad(%rip)        # 32dc8 <pow@GLIBC_2.29>
    461b:	0f 1f 44 00 00       	nopl   0x0(%rax,%rax,1)

0000000000004620 <clock@plt>:
    4620:	f3 0f 1e fa          	endbr64 
    4624:	f2 ff 25 a5 e7 02 00 	bnd jmp *0x2e7a5(%rip)        # 32dd0 <clock@GLIBC_2.2.5>
    462b:	0f 1f 44 00 00       	nopl   0x0(%rax,%rax,1)

0000000000004630 <fclose@plt>:
    4630:	f3 0f 1e fa          	endbr64 
    4634:	f2 ff 25 9d e7 02 00 	bnd jmp *0x2e79d(%rip)        # 32dd8 <fclose@GLIBC_2.2.5>
    463b:	0f 1f 44 00 00       	nopl   0x0(%rax,%rax,1)

0000000000004640 <strlen@plt>:
    4640:	f3 0f 1e fa          	endbr64 
    4644:	f2 ff 25 95 e7 02 00 	bnd jmp *0x2e795(%rip)        # 32de0 <strlen@GLIBC_2.2.5>
    464b:	0f 1f 44 00 00       	nopl   0x0(%rax,%rax,1)

0000000000004650 <__stack_chk_fail@plt>:
    4650:	f3 0f 1e fa          	endbr64 
    4654:	f2 ff 25 8d e7 02 00 	bnd jmp *0x2e78d(%rip)        # 32de8 <__stack_chk_fail@GLIBC_2.4>
    465b:	0f 1f 44 00 00       	nopl   0x0(%rax,%rax,1)

0000000000004660 <system@plt>:
    4660:	f3 0f 1e fa          	endbr64 
    4664:	f2 ff 25 85 e7 02 00 	bnd jmp *0x2e785(%rip)        # 32df0 <system@GLIBC_2.2.5>
    466b:	0f 1f 44 00 00       	nopl   0x0(%rax,%rax,1)

0000000000004670 <strchr@plt>:
    4670:	f3 0f 1e fa          	endbr64 
    4674:	f2 ff 25 7d e7 02 00 	bnd jmp *0x2e77d(%rip)        # 32df8 <strchr@GLIBC_2.2.5>
    467b:	0f 1f 44 00 00       	nopl   0x0(%rax,%rax,1)

0000000000004680 <difftime@plt>:
    4680:	f3 0f 1e fa          	endbr64 
    4684:	f2 ff 25 75 e7 02 00 	bnd jmp *0x2e775(%rip)        # 32e00 <difftime@GLIBC_2.2.5>
    468b:	0f 1f 44 00 00       	nopl   0x0(%rax,%rax,1)

0000000000004690 <pclose@plt>:
    4690:	f3 0f 1e fa          	endbr64 
    4694:	f2 ff 25 6d e7 02 00 	bnd jmp *0x2e76d(%rip)        # 32e08 <pclose@GLIBC_2.2.5>
    469b:	0f 1f 44 00 00       	nopl   0x0(%rax,%rax,1)

00000000000046a0 <fputs@plt>:
    46a0:	f3 0f 1e fa          	endbr64 
    46a4:	f2 ff 25 65 e7 02 00 	bnd jmp *0x2e765(%rip)        # 32e10 <fputs@GLIBC_2.2.5>
    46ab:	0f 1f 44 00 00       	nopl   0x0(%rax,%rax,1)

00000000000046b0 <strncat@plt>:
    46b0:	f3 0f 1e fa          	endbr64 
    46b4:	f2 ff 25 5d e7 02 00 	bnd jmp *0x2e75d(%rip)        # 32e18 <strncat@GLIBC_2.2.5>
    46bb:	0f 1f 44 00 00       	nopl   0x0(%rax,%rax,1)

00000000000046c0 <log@plt>:
    46c0:	f3 0f 1e fa          	endbr64 
    46c4:	f2 ff 25 55 e7 02 00 	bnd jmp *0x2e755(%rip)        # 32e20 <log@GLIBC_2.29>
    46cb:	0f 1f 44 00 00       	nopl   0x0(%rax,%rax,1)

00000000000046d0 <fmod@plt>:
    46d0:	f3 0f 1e fa          	endbr64 
    46d4:	f2 ff 25 4d e7 02 00 	bnd jmp *0x2e74d(%rip)        # 32e28 <fmod@GLIBC_2.2.5>
    46db:	0f 1f 44 00 00       	nopl   0x0(%rax,%rax,1)

00000000000046e0 <cos@plt>:
    46e0:	f3 0f 1e fa          	endbr64 
    46e4:	f2 ff 25 45 e7 02 00 	bnd jmp *0x2e745(%rip)        # 32e30 <cos@GLIBC_2.2.5>
    46eb:	0f 1f 44 00 00       	nopl   0x0(%rax,%rax,1)

00000000000046f0 <fputc@plt>:
    46f0:	f3 0f 1e fa          	endbr64 
    46f4:	f2 ff 25 3d e7 02 00 	bnd jmp *0x2e73d(%rip)        # 32e38 <fputc@GLIBC_2.2.5>
    46fb:	0f 1f 44 00 00       	nopl   0x0(%rax,%rax,1)

0000000000004700 <strcspn@plt>:
    4700:	f3 0f 1e fa          	endbr64 
    4704:	f2 ff 25 35 e7 02 00 	bnd jmp *0x2e735(%rip)        # 32e40 <strcspn@GLIBC_2.2.5>
    470b:	0f 1f 44 00 00       	nopl   0x0(%rax,%rax,1)

0000000000004710 <memchr@plt>:
    4710:	f3 0f 1e fa          	endbr64 
    4714:	f2 ff 25 2d e7 02 00 	bnd jmp *0x2e72d(%rip)        # 32e48 <memchr@GLIBC_2.2.5>
    471b:	0f 1f 44 00 00       	nopl   0x0(%rax,%rax,1)

0000000000004720 <acos@plt>:
    4720:	f3 0f 1e fa          	endbr64 
    4724:	f2 ff 25 25 e7 02 00 	bnd jmp *0x2e725(%rip)        # 32e50 <acos@GLIBC_2.2.5>
    472b:	0f 1f 44 00 00       	nopl   0x0(%rax,%rax,1)

0000000000004730 <srand@plt>:
    4730:	f3 0f 1e fa          	endbr64 
    4734:	f2 ff 25 1d e7 02 00 	bnd jmp *0x2e71d(%rip)        # 32e58 <srand@GLIBC_2.2.5>
    473b:	0f 1f 44 00 00       	nopl   0x0(%rax,%rax,1)

0000000000004740 <memcmp@plt>:
    4740:	f3 0f 1e fa          	endbr64 
    4744:	f2 ff 25 15 e7 02 00 	bnd jmp *0x2e715(%rip)        # 32e60 <memcmp@GLIBC_2.2.5>
    474b:	0f 1f 44 00 00       	nopl   0x0(%rax,%rax,1)

0000000000004750 <fgets@plt>:
    4750:	f3 0f 1e fa          	endbr64 
    4754:	f2 ff 25 0d e7 02 00 	bnd jmp *0x2e70d(%rip)        # 32e68 <fgets@GLIBC_2.2.5>
    475b:	0f 1f 44 00 00       	nopl   0x0(%rax,%rax,1)

0000000000004760 <frexp@plt>:
    4760:	f3 0f 1e fa          	endbr64 
    4764:	f2 ff 25 05 e7 02 00 	bnd jmp *0x2e705(%rip)        # 32e70 <frexp@GLIBC_2.2.5>
    476b:	0f 1f 44 00 00       	nopl   0x0(%rax,%rax,1)

0000000000004770 <_setjmp@plt>:
    4770:	f3 0f 1e fa          	endbr64 
    4774:	f2 ff 25 fd e6 02 00 	bnd jmp *0x2e6fd(%rip)        # 32e78 <_setjmp@GLIBC_2.2.5>
    477b:	0f 1f 44 00 00       	nopl   0x0(%rax,%rax,1)

0000000000004780 <tmpfile@plt>:
    4780:	f3 0f 1e fa          	endbr64 
    4784:	f2 ff 25 f5 e6 02 00 	bnd jmp *0x2e6f5(%rip)        # 32e80 <tmpfile@GLIBC_2.2.5>
    478b:	0f 1f 44 00 00       	nopl   0x0(%rax,%rax,1)

0000000000004790 <strcmp@plt>:
    4790:	f3 0f 1e fa          	endbr64 
    4794:	f2 ff 25 ed e6 02 00 	bnd jmp *0x2e6ed(%rip)        # 32e88 <strcmp@GLIBC_2.2.5>
    479b:	0f 1f 44 00 00       	nopl   0x0(%rax,%rax,1)

00000000000047a0 <signal@plt>:
    47a0:	f3 0f 1e fa          	endbr64 
    47a4:	f2 ff 25 e5 e6 02 00 	bnd jmp *0x2e6e5(%rip)        # 32e90 <signal@GLIBC_2.2.5>
    47ab:	0f 1f 44 00 00       	nopl   0x0(%rax,%rax,1)

00000000000047b0 <log10@plt>:
    47b0:	f3 0f 1e fa          	endbr64 
    47b4:	f2 ff 25 dd e6 02 00 	bnd jmp *0x2e6dd(%rip)        # 32e98 <log10@GLIBC_2.2.5>
    47bb:	0f 1f 44 00 00       	nopl   0x0(%rax,%rax,1)

00000000000047c0 <fprintf@plt>:
    47c0:	f3 0f 1e fa          	endbr64 
    47c4:	f2 ff 25 d5 e6 02 00 	bnd jmp *0x2e6d5(%rip)        # 32ea0 <fprintf@GLIBC_2.2.5>
    47cb:	0f 1f 44 00 00       	nopl   0x0(%rax,%rax,1)

00000000000047d0 <ftell@plt>:
    47d0:	f3 0f 1e fa          	endbr64 
    47d4:	f2 ff 25 cd e6 02 00 	bnd jmp *0x2e6cd(%rip)        # 32ea8 <ftell@GLIBC_2.2.5>
    47db:	0f 1f 44 00 00       	nopl   0x0(%rax,%rax,1)

00000000000047e0 <feof@plt>:
    47e0:	f3 0f 1e fa          	endbr64 
    47e4:	f2 ff 25 c5 e6 02 00 	bnd jmp *0x2e6c5(%rip)        # 32eb0 <feof@GLIBC_2.2.5>
    47eb:	0f 1f 44 00 00       	nopl   0x0(%rax,%rax,1)

00000000000047f0 <memcpy@plt>:
    47f0:	f3 0f 1e fa          	endbr64 
    47f4:	f2 ff 25 bd e6 02 00 	bnd jmp *0x2e6bd(%rip)        # 32eb8 <memcpy@GLIBC_2.14>
    47fb:	0f 1f 44 00 00       	nopl   0x0(%rax,%rax,1)

0000000000004800 <time@plt>:
    4800:	f3 0f 1e fa          	endbr64 
    4804:	f2 ff 25 b5 e6 02 00 	bnd jmp *0x2e6b5(%rip)        # 32ec0 <time@GLIBC_2.2.5>
    480b:	0f 1f 44 00 00       	nopl   0x0(%rax,%rax,1)

0000000000004810 <tolower@plt>:
    4810:	f3 0f 1e fa          	endbr64 
    4814:	f2 ff 25 ad e6 02 00 	bnd jmp *0x2e6ad(%rip)        # 32ec8 <tolower@GLIBC_2.2.5>
    481b:	0f 1f 44 00 00       	nopl   0x0(%rax,%rax,1)

0000000000004820 <fflush@plt>:
    4820:	f3 0f 1e fa          	endbr64 
    4824:	f2 ff 25 a5 e6 02 00 	bnd jmp *0x2e6a5(%rip)        # 32ed0 <fflush@GLIBC_2.2.5>
    482b:	0f 1f 44 00 00       	nopl   0x0(%rax,%rax,1)

0000000000004830 <tan@plt>:
    4830:	f3 0f 1e fa          	endbr64 
    4834:	f2 ff 25 9d e6 02 00 	bnd jmp *0x2e69d(%rip)        # 32ed8 <tan@GLIBC_2.2.5>
    483b:	0f 1f 44 00 00       	nopl   0x0(%rax,%rax,1)

0000000000004840 <ungetc@plt>:
    4840:	f3 0f 1e fa          	endbr64 
    4844:	f2 ff 25 95 e6 02 00 	bnd jmp *0x2e695(%rip)        # 32ee0 <ungetc@GLIBC_2.2.5>
    484b:	0f 1f 44 00 00       	nopl   0x0(%rax,%rax,1)

0000000000004850 <strcoll@plt>:
    4850:	f3 0f 1e fa          	endbr64 
    4854:	f2 ff 25 8d e6 02 00 	bnd jmp *0x2e68d(%rip)        # 32ee8 <strcoll@GLIBC_2.2.5>
    485b:	0f 1f 44 00 00       	nopl   0x0(%rax,%rax,1)

0000000000004860 <mktime@plt>:
    4860:	f3 0f 1e fa          	endbr64 
    4864:	f2 ff 25 85 e6 02 00 	bnd jmp *0x2e685(%rip)        # 32ef0 <mktime@GLIBC_2.2.5>
    486b:	0f 1f 44 00 00       	nopl   0x0(%rax,%rax,1)

0000000000004870 <atan2@plt>:
    4870:	f3 0f 1e fa          	endbr64 
    4874:	f2 ff 25 7d e6 02 00 	bnd jmp *0x2e67d(%rip)        # 32ef8 <atan2@GLIBC_2.2.5>
    487b:	0f 1f 44 00 00       	nopl   0x0(%rax,%rax,1)

0000000000004880 <strpbrk@plt>:
    4880:	f3 0f 1e fa          	endbr64 
    4884:	f2 ff 25 75 e6 02 00 	bnd jmp *0x2e675(%rip)        # 32f00 <strpbrk@GLIBC_2.2.5>
    488b:	0f 1f 44 00 00       	nopl   0x0(%rax,%rax,1)

0000000000004890 <fseek@plt>:
    4890:	f3 0f 1e fa          	endbr64 
    4894:	f2 ff 25 6d e6 02 00 	bnd jmp *0x2e66d(%rip)        # 32f08 <fseek@GLIBC_2.2.5>
    489b:	0f 1f 44 00 00       	nopl   0x0(%rax,%rax,1)

00000000000048a0 <realloc@plt>:
    48a0:	f3 0f 1e fa          	endbr64 
    48a4:	f2 ff 25 65 e6 02 00 	bnd jmp *0x2e665(%rip)        # 32f10 <realloc@GLIBC_2.2.5>
    48ab:	0f 1f 44 00 00       	nopl   0x0(%rax,%rax,1)

00000000000048b0 <setlocale@plt>:
    48b0:	f3 0f 1e fa          	endbr64 
    48b4:	f2 ff 25 5d e6 02 00 	bnd jmp *0x2e65d(%rip)        # 32f18 <setlocale@GLIBC_2.2.5>
    48bb:	0f 1f 44 00 00       	nopl   0x0(%rax,%rax,1)

00000000000048c0 <longjmp@plt>:
    48c0:	f3 0f 1e fa          	endbr64 
    48c4:	f2 ff 25 55 e6 02 00 	bnd jmp *0x2e655(%rip)        # 32f20 <longjmp@GLIBC_2.2.5>
    48cb:	0f 1f 44 00 00       	nopl   0x0(%rax,%rax,1)

00000000000048d0 <strftime@plt>:
    48d0:	f3 0f 1e fa          	endbr64 
    48d4:	f2 ff 25 4d e6 02 00 	bnd jmp *0x2e64d(%rip)        # 32f28 <strftime@GLIBC_2.2.5>
    48db:	0f 1f 44 00 00       	nopl   0x0(%rax,%rax,1)

00000000000048e0 <popen@plt>:
    48e0:	f3 0f 1e fa          	endbr64 
    48e4:	f2 ff 25 45 e6 02 00 	bnd jmp *0x2e645(%rip)        # 32f30 <popen@GLIBC_2.2.5>
    48eb:	0f 1f 44 00 00       	nopl   0x0(%rax,%rax,1)

00000000000048f0 <fopen@plt>:
    48f0:	f3 0f 1e fa          	endbr64 
    48f4:	f2 ff 25 3d e6 02 00 	bnd jmp *0x2e63d(%rip)        # 32f38 <fopen@GLIBC_2.2.5>
    48fb:	0f 1f 44 00 00       	nopl   0x0(%rax,%rax,1)

0000000000004900 <rename@plt>:
    4900:	f3 0f 1e fa          	endbr64 
    4904:	f2 ff 25 35 e6 02 00 	bnd jmp *0x2e635(%rip)        # 32f40 <rename@GLIBC_2.2.5>
    490b:	0f 1f 44 00 00       	nopl   0x0(%rax,%rax,1)

0000000000004910 <gmtime@plt>:
    4910:	f3 0f 1e fa          	endbr64 
    4914:	f2 ff 25 2d e6 02 00 	bnd jmp *0x2e62d(%rip)        # 32f48 <gmtime@GLIBC_2.2.5>
    491b:	0f 1f 44 00 00       	nopl   0x0(%rax,%rax,1)

0000000000004920 <sin@plt>:
    4920:	f3 0f 1e fa          	endbr64 
    4924:	f2 ff 25 25 e6 02 00 	bnd jmp *0x2e625(%rip)        # 32f50 <sin@GLIBC_2.2.5>
    492b:	0f 1f 44 00 00       	nopl   0x0(%rax,%rax,1)

0000000000004930 <strtoul@plt>:
    4930:	f3 0f 1e fa          	endbr64 
    4934:	f2 ff 25 1d e6 02 00 	bnd jmp *0x2e61d(%rip)        # 32f58 <strtoul@GLIBC_2.2.5>
    493b:	0f 1f 44 00 00       	nopl   0x0(%rax,%rax,1)

0000000000004940 <floor@plt>:
    4940:	f3 0f 1e fa          	endbr64 
    4944:	f2 ff 25 15 e6 02 00 	bnd jmp *0x2e615(%rip)        # 32f60 <floor@GLIBC_2.2.5>
    494b:	0f 1f 44 00 00       	nopl   0x0(%rax,%rax,1)

0000000000004950 <strcat@plt>:
    4950:	f3 0f 1e fa          	endbr64 
    4954:	f2 ff 25 0d e6 02 00 	bnd jmp *0x2e60d(%rip)        # 32f68 <strcat@GLIBC_2.2.5>
    495b:	0f 1f 44 00 00       	nopl   0x0(%rax,%rax,1)

0000000000004960 <asin@plt>:
    4960:	f3 0f 1e fa          	endbr64 
    4964:	f2 ff 25 05 e6 02 00 	bnd jmp *0x2e605(%rip)        # 32f70 <asin@GLIBC_2.2.5>
    496b:	0f 1f 44 00 00       	nopl   0x0(%rax,%rax,1)

0000000000004970 <sprintf@plt>:
    4970:	f3 0f 1e fa          	endbr64 
    4974:	f2 ff 25 fd e5 02 00 	bnd jmp *0x2e5fd(%rip)        # 32f78 <sprintf@GLIBC_2.2.5>
    497b:	0f 1f 44 00 00       	nopl   0x0(%rax,%rax,1)

0000000000004980 <exit@plt>:
    4980:	f3 0f 1e fa          	endbr64 
    4984:	f2 ff 25 f5 e5 02 00 	bnd jmp *0x2e5f5(%rip)        # 32f80 <exit@GLIBC_2.2.5>
    498b:	0f 1f 44 00 00       	nopl   0x0(%rax,%rax,1)

0000000000004990 <fwrite@plt>:
    4990:	f3 0f 1e fa          	endbr64 
    4994:	f2 ff 25 ed e5 02 00 	bnd jmp *0x2e5ed(%rip)        # 32f88 <fwrite@GLIBC_2.2.5>
    499b:	0f 1f 44 00 00       	nopl   0x0(%rax,%rax,1)

00000000000049a0 <sqrt@plt>:
    49a0:	f3 0f 1e fa          	endbr64 
    49a4:	f2 ff 25 e5 e5 02 00 	bnd jmp *0x2e5e5(%rip)        # 32f90 <sqrt@GLIBC_2.2.5>
    49ab:	0f 1f 44 00 00       	nopl   0x0(%rax,%rax,1)

00000000000049b0 <strerror@plt>:
    49b0:	f3 0f 1e fa          	endbr64 
    49b4:	f2 ff 25 dd e5 02 00 	bnd jmp *0x2e5dd(%rip)        # 32f98 <strerror@GLIBC_2.2.5>
    49bb:	0f 1f 44 00 00       	nopl   0x0(%rax,%rax,1)

00000000000049c0 <ceil@plt>:
    49c0:	f3 0f 1e fa          	endbr64 
    49c4:	f2 ff 25 d5 e5 02 00 	bnd jmp *0x2e5d5(%rip)        # 32fa0 <ceil@GLIBC_2.2.5>
    49cb:	0f 1f 44 00 00       	nopl   0x0(%rax,%rax,1)

00000000000049d0 <getc@plt>:
    49d0:	f3 0f 1e fa          	endbr64 
    49d4:	f2 ff 25 cd e5 02 00 	bnd jmp *0x2e5cd(%rip)        # 32fa8 <getc@GLIBC_2.2.5>
    49db:	0f 1f 44 00 00       	nopl   0x0(%rax,%rax,1)

00000000000049e0 <strstr@plt>:
    49e0:	f3 0f 1e fa          	endbr64 
    49e4:	f2 ff 25 c5 e5 02 00 	bnd jmp *0x2e5c5(%rip)        # 32fb0 <strstr@GLIBC_2.2.5>
    49eb:	0f 1f 44 00 00       	nopl   0x0(%rax,%rax,1)

00000000000049f0 <exp@plt>:
    49f0:	f3 0f 1e fa          	endbr64 
    49f4:	f2 ff 25 bd e5 02 00 	bnd jmp *0x2e5bd(%rip)        # 32fb8 <exp@GLIBC_2.29>
    49fb:	0f 1f 44 00 00       	nopl   0x0(%rax,%rax,1)

0000000000004a00 <rand@plt>:
    4a00:	f3 0f 1e fa          	endbr64 
    4a04:	f2 ff 25 b5 e5 02 00 	bnd jmp *0x2e5b5(%rip)        # 32fc0 <rand@GLIBC_2.2.5>
    4a0b:	0f 1f 44 00 00       	nopl   0x0(%rax,%rax,1)

0000000000004a10 <__ctype_b_loc@plt>:
    4a10:	f3 0f 1e fa          	endbr64 
    4a14:	f2 ff 25 ad e5 02 00 	bnd jmp *0x2e5ad(%rip)        # 32fc8 <__ctype_b_loc@GLIBC_2.3>
    4a1b:	0f 1f 44 00 00       	nopl   0x0(%rax,%rax,1)

Disassembly of section .text:

0000000000004a20 <_start>:
_start():
    4a20:	f3 0f 1e fa          	endbr64 
    4a24:	31 ed                	xor    %ebp,%ebp
    4a26:	49 89 d1             	mov    %rdx,%r9
    4a29:	5e                   	pop    %rsi
    4a2a:	48 89 e2             	mov    %rsp,%rdx
    4a2d:	48 83 e4 f0          	and    $0xfffffffffffffff0,%rsp
    4a31:	50                   	push   %rax
    4a32:	54                   	push   %rsp
    4a33:	45 31 c0             	xor    %r8d,%r8d
    4a36:	31 c9                	xor    %ecx,%ecx
    4a38:	48 8d 3d 27 0f 00 00 	lea    0xf27(%rip),%rdi        # 5966 <main>
    4a3f:	ff 15 8b e5 02 00    	call   *0x2e58b(%rip)        # 32fd0 <__libc_start_main@GLIBC_2.34>
    4a45:	f4                   	hlt    
    4a46:	66 2e 0f 1f 84 00 00 	cs nopw 0x0(%rax,%rax,1)
    4a4d:	00 00 00 

0000000000004a50 <deregister_tm_clones>:
deregister_tm_clones():
    4a50:	48 8d 3d c1 e5 02 00 	lea    0x2e5c1(%rip),%rdi        # 33018 <__TMC_END__>
    4a57:	48 8d 05 ba e5 02 00 	lea    0x2e5ba(%rip),%rax        # 33018 <__TMC_END__>
    4a5e:	48 39 f8             	cmp    %rdi,%rax
    4a61:	74 15                	je     4a78 <deregister_tm_clones+0x28>
    4a63:	48 8b 05 6e e5 02 00 	mov    0x2e56e(%rip),%rax        # 32fd8 <_ITM_deregisterTMCloneTable@Base>
    4a6a:	48 85 c0             	test   %rax,%rax
    4a6d:	74 09                	je     4a78 <deregister_tm_clones+0x28>
    4a6f:	ff e0                	jmp    *%rax
    4a71:	0f 1f 80 00 00 00 00 	nopl   0x0(%rax)
    4a78:	c3                   	ret    
    4a79:	0f 1f 80 00 00 00 00 	nopl   0x0(%rax)

0000000000004a80 <register_tm_clones>:
register_tm_clones():
    4a80:	48 8d 3d 91 e5 02 00 	lea    0x2e591(%rip),%rdi        # 33018 <__TMC_END__>
    4a87:	48 8d 35 8a e5 02 00 	lea    0x2e58a(%rip),%rsi        # 33018 <__TMC_END__>
    4a8e:	48 29 fe             	sub    %rdi,%rsi
    4a91:	48 89 f0             	mov    %rsi,%rax
    4a94:	48 c1 ee 3f          	shr    $0x3f,%rsi
    4a98:	48 c1 f8 03          	sar    $0x3,%rax
    4a9c:	48 01 c6             	add    %rax,%rsi
    4a9f:	48 d1 fe             	sar    %rsi
    4aa2:	74 14                	je     4ab8 <register_tm_clones+0x38>
    4aa4:	48 8b 05 3d e5 02 00 	mov    0x2e53d(%rip),%rax        # 32fe8 <_ITM_registerTMCloneTable@Base>
    4aab:	48 85 c0             	test   %rax,%rax
    4aae:	74 08                	je     4ab8 <register_tm_clones+0x38>
    4ab0:	ff e0                	jmp    *%rax
    4ab2:	66 0f 1f 44 00 00    	nopw   0x0(%rax,%rax,1)
    4ab8:	c3                   	ret    
    4ab9:	0f 1f 80 00 00 00 00 	nopl   0x0(%rax)

0000000000004ac0 <__do_global_dtors_aux>:
__do_global_dtors_aux():
    4ac0:	f3 0f 1e fa          	endbr64 
    4ac4:	80 3d 7d e5 02 00 00 	cmpb   $0x0,0x2e57d(%rip)        # 33048 <completed.0>
    4acb:	75 2b                	jne    4af8 <__do_global_dtors_aux+0x38>
    4acd:	55                   	push   %rbp
    4ace:	48 83 3d 1a e5 02 00 	cmpq   $0x0,0x2e51a(%rip)        # 32ff0 <__cxa_finalize@GLIBC_2.2.5>
    4ad5:	00 
    4ad6:	48 89 e5             	mov    %rsp,%rbp
    4ad9:	74 0c                	je     4ae7 <__do_global_dtors_aux+0x27>
    4adb:	48 8b 3d 26 e5 02 00 	mov    0x2e526(%rip),%rdi        # 33008 <__dso_handle>
    4ae2:	e8 39 fa ff ff       	call   4520 <__cxa_finalize@plt>
    4ae7:	e8 64 ff ff ff       	call   4a50 <deregister_tm_clones>
    4aec:	c6 05 55 e5 02 00 01 	movb   $0x1,0x2e555(%rip)        # 33048 <completed.0>
    4af3:	5d                   	pop    %rbp
    4af4:	c3                   	ret    
    4af5:	0f 1f 00             	nopl   (%rax)
    4af8:	c3                   	ret    
    4af9:	0f 1f 80 00 00 00 00 	nopl   0x0(%rax)

0000000000004b00 <frame_dummy>:
frame_dummy():
    4b00:	f3 0f 1e fa          	endbr64 
    4b04:	e9 77 ff ff ff       	jmp    4a80 <register_tm_clones>

0000000000004b09 <lstop>:
lstop():
/home/tenebris/Documents/RootCauseAnalysis/evaluation/test_bin/lua-5.0/src/lua/lua.c:85
    4b09:	f3 0f 1e fa          	endbr64 
    4b0d:	55                   	push   %rbp
    4b0e:	48 89 e5             	mov    %rsp,%rbp
    4b11:	48 83 ec 10          	sub    $0x10,%rsp
    4b15:	48 89 7d f8          	mov    %rdi,-0x8(%rbp)
    4b19:	48 89 75 f0          	mov    %rsi,-0x10(%rbp)
/home/tenebris/Documents/RootCauseAnalysis/evaluation/test_bin/lua-5.0/src/lua/lua.c:87
    4b1d:	48 8b 45 f8          	mov    -0x8(%rbp),%rax
    4b21:	b9 00 00 00 00       	mov    $0x0,%ecx
    4b26:	ba 00 00 00 00       	mov    $0x0,%edx
    4b2b:	be 00 00 00 00       	mov    $0x0,%esi
    4b30:	48 89 c7             	mov    %rax,%rdi
    4b33:	e8 0d 33 00 00       	call   7e45 <lua_sethook>
/home/tenebris/Documents/RootCauseAnalysis/evaluation/test_bin/lua-5.0/src/lua/lua.c:88
    4b38:	48 8b 45 f8          	mov    -0x8(%rbp),%rax
    4b3c:	48 8d 15 f1 34 02 00 	lea    0x234f1(%rip),%rdx        # 28034 <_IO_stdin_used+0x34>
    4b43:	48 89 d6             	mov    %rdx,%rsi
    4b46:	48 89 c7             	mov    %rax,%rdi
    4b49:	b8 00 00 00 00       	mov    $0x0,%eax
    4b4e:	e8 5e 83 01 00       	call   1ceb1 <luaL_error>
/home/tenebris/Documents/RootCauseAnalysis/evaluation/test_bin/lua-5.0/src/lua/lua.c:89
    4b53:	90                   	nop
    4b54:	c9                   	leave  
    4b55:	c3                   	ret    

0000000000004b56 <laction>:
laction():
/home/tenebris/Documents/RootCauseAnalysis/evaluation/test_bin/lua-5.0/src/lua/lua.c:92
    4b56:	f3 0f 1e fa          	endbr64 
    4b5a:	55                   	push   %rbp
    4b5b:	48 89 e5             	mov    %rsp,%rbp
    4b5e:	48 83 ec 10          	sub    $0x10,%rsp
    4b62:	89 7d fc             	mov    %edi,-0x4(%rbp)
/home/tenebris/Documents/RootCauseAnalysis/evaluation/test_bin/lua-5.0/src/lua/lua.c:93
    4b65:	8b 45 fc             	mov    -0x4(%rbp),%eax
    4b68:	be 00 00 00 00       	mov    $0x0,%esi
    4b6d:	89 c7                	mov    %eax,%edi
    4b6f:	e8 2c fc ff ff       	call   47a0 <signal@plt>
/home/tenebris/Documents/RootCauseAnalysis/evaluation/test_bin/lua-5.0/src/lua/lua.c:95
    4b74:	48 8b 05 e5 e4 02 00 	mov    0x2e4e5(%rip),%rax        # 33060 <L>
    4b7b:	b9 01 00 00 00       	mov    $0x1,%ecx
    4b80:	ba 0b 00 00 00       	mov    $0xb,%edx
    4b85:	48 8d 35 7d ff ff ff 	lea    -0x83(%rip),%rsi        # 4b09 <lstop>
    4b8c:	48 89 c7             	mov    %rax,%rdi
    4b8f:	e8 b1 32 00 00       	call   7e45 <lua_sethook>
/home/tenebris/Documents/RootCauseAnalysis/evaluation/test_bin/lua-5.0/src/lua/lua.c:96
    4b94:	90                   	nop
    4b95:	c9                   	leave  
    4b96:	c3                   	ret    

0000000000004b97 <print_usage>:
print_usage():
/home/tenebris/Documents/RootCauseAnalysis/evaluation/test_bin/lua-5.0/src/lua/lua.c:99
    4b97:	f3 0f 1e fa          	endbr64 
    4b9b:	55                   	push   %rbp
    4b9c:	48 89 e5             	mov    %rsp,%rbp
/home/tenebris/Documents/RootCauseAnalysis/evaluation/test_bin/lua-5.0/src/lua/lua.c:100
    4b9f:	48 8b 15 6a e4 02 00 	mov    0x2e46a(%rip),%rdx        # 33010 <progname>
    4ba6:	48 8b 05 93 e4 02 00 	mov    0x2e493(%rip),%rax        # 33040 <stderr@GLIBC_2.2.5>
    4bad:	48 8d 0d 94 34 02 00 	lea    0x23494(%rip),%rcx        # 28048 <_IO_stdin_used+0x48>
    4bb4:	48 89 ce             	mov    %rcx,%rsi
    4bb7:	48 89 c7             	mov    %rax,%rdi
    4bba:	b8 00 00 00 00       	mov    $0x0,%eax
    4bbf:	e8 fc fb ff ff       	call   47c0 <fprintf@plt>
/home/tenebris/Documents/RootCauseAnalysis/evaluation/test_bin/lua-5.0/src/lua/lua.c:110
    4bc4:	90                   	nop
    4bc5:	5d                   	pop    %rbp
    4bc6:	c3                   	ret    

0000000000004bc7 <l_message>:
l_message():
/home/tenebris/Documents/RootCauseAnalysis/evaluation/test_bin/lua-5.0/src/lua/lua.c:113
    4bc7:	f3 0f 1e fa          	endbr64 
    4bcb:	55                   	push   %rbp
    4bcc:	48 89 e5             	mov    %rsp,%rbp
    4bcf:	48 83 ec 10          	sub    $0x10,%rsp
    4bd3:	48 89 7d f8          	mov    %rdi,-0x8(%rbp)
    4bd7:	48 89 75 f0          	mov    %rsi,-0x10(%rbp)
/home/tenebris/Documents/RootCauseAnalysis/evaluation/test_bin/lua-5.0/src/lua/lua.c:114
    4bdb:	48 83 7d f8 00       	cmpq   $0x0,-0x8(%rbp)
    4be0:	74 22                	je     4c04 <l_message+0x3d>
/home/tenebris/Documents/RootCauseAnalysis/evaluation/test_bin/lua-5.0/src/lua/lua.c:114 (discriminator 1)
    4be2:	48 8b 05 57 e4 02 00 	mov    0x2e457(%rip),%rax        # 33040 <stderr@GLIBC_2.2.5>
    4be9:	48 8b 55 f8          	mov    -0x8(%rbp),%rdx
    4bed:	48 8d 0d 7c 35 02 00 	lea    0x2357c(%rip),%rcx        # 28170 <_IO_stdin_used+0x170>
    4bf4:	48 89 ce             	mov    %rcx,%rsi
    4bf7:	48 89 c7             	mov    %rax,%rdi
    4bfa:	b8 00 00 00 00       	mov    $0x0,%eax
    4bff:	e8 bc fb ff ff       	call   47c0 <fprintf@plt>
/home/tenebris/Documents/RootCauseAnalysis/evaluation/test_bin/lua-5.0/src/lua/lua.c:115
    4c04:	48 8b 05 35 e4 02 00 	mov    0x2e435(%rip),%rax        # 33040 <stderr@GLIBC_2.2.5>
    4c0b:	48 8b 55 f0          	mov    -0x10(%rbp),%rdx
    4c0f:	48 8d 0d 5f 35 02 00 	lea    0x2355f(%rip),%rcx        # 28175 <_IO_stdin_used+0x175>
    4c16:	48 89 ce             	mov    %rcx,%rsi
    4c19:	48 89 c7             	mov    %rax,%rdi
    4c1c:	b8 00 00 00 00       	mov    $0x0,%eax
    4c21:	e8 9a fb ff ff       	call   47c0 <fprintf@plt>
/home/tenebris/Documents/RootCauseAnalysis/evaluation/test_bin/lua-5.0/src/lua/lua.c:116
    4c26:	90                   	nop
    4c27:	c9                   	leave  
    4c28:	c3                   	ret    

0000000000004c29 <report>:
report():
/home/tenebris/Documents/RootCauseAnalysis/evaluation/test_bin/lua-5.0/src/lua/lua.c:119
    4c29:	f3 0f 1e fa          	endbr64 
    4c2d:	55                   	push   %rbp
    4c2e:	48 89 e5             	mov    %rsp,%rbp
    4c31:	48 83 ec 20          	sub    $0x20,%rsp
    4c35:	89 7d ec             	mov    %edi,-0x14(%rbp)
/home/tenebris/Documents/RootCauseAnalysis/evaluation/test_bin/lua-5.0/src/lua/lua.c:121
    4c38:	83 7d ec 00          	cmpl   $0x0,-0x14(%rbp)
    4c3c:	74 54                	je     4c92 <report+0x69>
/home/tenebris/Documents/RootCauseAnalysis/evaluation/test_bin/lua-5.0/src/lua/lua.c:122
    4c3e:	48 8b 05 1b e4 02 00 	mov    0x2e41b(%rip),%rax        # 33060 <L>
    4c45:	be ff ff ff ff       	mov    $0xffffffff,%esi
    4c4a:	48 89 c7             	mov    %rax,%rdi
    4c4d:	e8 e7 18 00 00       	call   6539 <lua_tostring>
    4c52:	48 89 45 f8          	mov    %rax,-0x8(%rbp)
/home/tenebris/Documents/RootCauseAnalysis/evaluation/test_bin/lua-5.0/src/lua/lua.c:123
    4c56:	48 83 7d f8 00       	cmpq   $0x0,-0x8(%rbp)
    4c5b:	75 0b                	jne    4c68 <report+0x3f>
/home/tenebris/Documents/RootCauseAnalysis/evaluation/test_bin/lua-5.0/src/lua/lua.c:123 (discriminator 1)
    4c5d:	48 8d 05 15 35 02 00 	lea    0x23515(%rip),%rax        # 28179 <_IO_stdin_used+0x179>
    4c64:	48 89 45 f8          	mov    %rax,-0x8(%rbp)
/home/tenebris/Documents/RootCauseAnalysis/evaluation/test_bin/lua-5.0/src/lua/lua.c:124
    4c68:	48 8b 05 a1 e3 02 00 	mov    0x2e3a1(%rip),%rax        # 33010 <progname>
    4c6f:	48 8b 55 f8          	mov    -0x8(%rbp),%rdx
    4c73:	48 89 d6             	mov    %rdx,%rsi
    4c76:	48 89 c7             	mov    %rax,%rdi
    4c79:	e8 49 ff ff ff       	call   4bc7 <l_message>
/home/tenebris/Documents/RootCauseAnalysis/evaluation/test_bin/lua-5.0/src/lua/lua.c:125
    4c7e:	48 8b 05 db e3 02 00 	mov    0x2e3db(%rip),%rax        # 33060 <L>
    4c85:	be fe ff ff ff       	mov    $0xfffffffe,%esi
    4c8a:	48 89 c7             	mov    %rax,%rdi
    4c8d:	e8 cd 11 00 00       	call   5e5f <lua_settop>
/home/tenebris/Documents/RootCauseAnalysis/evaluation/test_bin/lua-5.0/src/lua/lua.c:127
    4c92:	8b 45 ec             	mov    -0x14(%rbp),%eax
/home/tenebris/Documents/RootCauseAnalysis/evaluation/test_bin/lua-5.0/src/lua/lua.c:128
    4c95:	c9                   	leave  
    4c96:	c3                   	ret    

0000000000004c97 <lcall>:
lcall():
/home/tenebris/Documents/RootCauseAnalysis/evaluation/test_bin/lua-5.0/src/lua/lua.c:131
    4c97:	f3 0f 1e fa          	endbr64 
    4c9b:	55                   	push   %rbp
    4c9c:	48 89 e5             	mov    %rsp,%rbp
    4c9f:	48 83 ec 20          	sub    $0x20,%rsp
    4ca3:	89 7d ec             	mov    %edi,-0x14(%rbp)
    4ca6:	89 75 e8             	mov    %esi,-0x18(%rbp)
/home/tenebris/Documents/RootCauseAnalysis/evaluation/test_bin/lua-5.0/src/lua/lua.c:133
    4ca9:	48 8b 05 b0 e3 02 00 	mov    0x2e3b0(%rip),%rax        # 33060 <L>
    4cb0:	48 89 c7             	mov    %rax,%rdi
    4cb3:	e8 7f 11 00 00       	call   5e37 <lua_gettop>
    4cb8:	2b 45 ec             	sub    -0x14(%rbp),%eax
    4cbb:	89 45 f8             	mov    %eax,-0x8(%rbp)
/home/tenebris/Documents/RootCauseAnalysis/evaluation/test_bin/lua-5.0/src/lua/lua.c:134
    4cbe:	48 8b 05 9b e3 02 00 	mov    0x2e39b(%rip),%rax        # 33060 <L>
    4cc5:	ba 0a 00 00 00       	mov    $0xa,%edx
    4cca:	48 8d 0d c0 34 02 00 	lea    0x234c0(%rip),%rcx        # 28191 <_IO_stdin_used+0x191>
    4cd1:	48 89 ce             	mov    %rcx,%rsi
    4cd4:	48 89 c7             	mov    %rax,%rdi
    4cd7:	e8 b4 1b 00 00       	call   6890 <lua_pushlstring>
/home/tenebris/Documents/RootCauseAnalysis/evaluation/test_bin/lua-5.0/src/lua/lua.c:135
    4cdc:	48 8b 05 7d e3 02 00 	mov    0x2e37d(%rip),%rax        # 33060 <L>
    4ce3:	be ef d8 ff ff       	mov    $0xffffd8ef,%esi
    4ce8:	48 89 c7             	mov    %rax,%rdi
    4ceb:	e8 1b 20 00 00       	call   6d0b <lua_rawget>
/home/tenebris/Documents/RootCauseAnalysis/evaluation/test_bin/lua-5.0/src/lua/lua.c:136
    4cf0:	48 8b 05 69 e3 02 00 	mov    0x2e369(%rip),%rax        # 33060 <L>
    4cf7:	8b 55 f8             	mov    -0x8(%rbp),%edx
    4cfa:	89 d6                	mov    %edx,%esi
    4cfc:	48 89 c7             	mov    %rax,%rdi
    4cff:	e8 72 12 00 00       	call   5f76 <lua_insert>
/home/tenebris/Documents/RootCauseAnalysis/evaluation/test_bin/lua-5.0/src/lua/lua.c:137
    4d04:	48 8d 05 4b fe ff ff 	lea    -0x1b5(%rip),%rax        # 4b56 <laction>
    4d0b:	48 89 c6             	mov    %rax,%rsi
    4d0e:	bf 02 00 00 00       	mov    $0x2,%edi
    4d13:	e8 88 fa ff ff       	call   47a0 <signal@plt>
/home/tenebris/Documents/RootCauseAnalysis/evaluation/test_bin/lua-5.0/src/lua/lua.c:138
    4d18:	83 7d e8 00          	cmpl   $0x0,-0x18(%rbp)
    4d1c:	74 07                	je     4d25 <lcall+0x8e>
/home/tenebris/Documents/RootCauseAnalysis/evaluation/test_bin/lua-5.0/src/lua/lua.c:138 (discriminator 1)
    4d1e:	bf 00 00 00 00       	mov    $0x0,%edi
    4d23:	eb 05                	jmp    4d2a <lcall+0x93>
/home/tenebris/Documents/RootCauseAnalysis/evaluation/test_bin/lua-5.0/src/lua/lua.c:138 (discriminator 2)
    4d25:	bf ff ff ff ff       	mov    $0xffffffff,%edi
/home/tenebris/Documents/RootCauseAnalysis/evaluation/test_bin/lua-5.0/src/lua/lua.c:138 (discriminator 4)
    4d2a:	48 8b 05 2f e3 02 00 	mov    0x2e32f(%rip),%rax        # 33060 <L>
    4d31:	8b 55 f8             	mov    -0x8(%rbp),%edx
    4d34:	8b 75 ec             	mov    -0x14(%rbp),%esi
    4d37:	89 d1                	mov    %edx,%ecx
    4d39:	89 fa                	mov    %edi,%edx
    4d3b:	48 89 c7             	mov    %rax,%rdi
    4d3e:	e8 1a 26 00 00       	call   735d <lua_pcall>
    4d43:	89 45 fc             	mov    %eax,-0x4(%rbp)
/home/tenebris/Documents/RootCauseAnalysis/evaluation/test_bin/lua-5.0/src/lua/lua.c:139 (discriminator 4)
    4d46:	be 00 00 00 00       	mov    $0x0,%esi
    4d4b:	bf 02 00 00 00       	mov    $0x2,%edi
    4d50:	e8 4b fa ff ff       	call   47a0 <signal@plt>
/home/tenebris/Documents/RootCauseAnalysis/evaluation/test_bin/lua-5.0/src/lua/lua.c:140 (discriminator 4)
    4d55:	48 8b 05 04 e3 02 00 	mov    0x2e304(%rip),%rax        # 33060 <L>
    4d5c:	8b 55 f8             	mov    -0x8(%rbp),%edx
    4d5f:	89 d6                	mov    %edx,%esi
    4d61:	48 89 c7             	mov    %rax,%rdi
    4d64:	e8 89 11 00 00       	call   5ef2 <lua_remove>
/home/tenebris/Documents/RootCauseAnalysis/evaluation/test_bin/lua-5.0/src/lua/lua.c:141 (discriminator 4)
    4d69:	8b 45 fc             	mov    -0x4(%rbp),%eax
/home/tenebris/Documents/RootCauseAnalysis/evaluation/test_bin/lua-5.0/src/lua/lua.c:142 (discriminator 4)
    4d6c:	c9                   	leave  
    4d6d:	c3                   	ret    

0000000000004d6e <print_version>:
print_version():
/home/tenebris/Documents/RootCauseAnalysis/evaluation/test_bin/lua-5.0/src/lua/lua.c:145
    4d6e:	f3 0f 1e fa          	endbr64 
    4d72:	55                   	push   %rbp
    4d73:	48 89 e5             	mov    %rsp,%rbp
/home/tenebris/Documents/RootCauseAnalysis/evaluation/test_bin/lua-5.0/src/lua/lua.c:146
    4d76:	48 8d 05 23 34 02 00 	lea    0x23423(%rip),%rax        # 281a0 <_IO_stdin_used+0x1a0>
    4d7d:	48 89 c6             	mov    %rax,%rsi
    4d80:	bf 00 00 00 00       	mov    $0x0,%edi
    4d85:	e8 3d fe ff ff       	call   4bc7 <l_message>
/home/tenebris/Documents/RootCauseAnalysis/evaluation/test_bin/lua-5.0/src/lua/lua.c:147
    4d8a:	90                   	nop
    4d8b:	5d                   	pop    %rbp
    4d8c:	c3                   	ret    

0000000000004d8d <getargs>:
getargs():
/home/tenebris/Documents/RootCauseAnalysis/evaluation/test_bin/lua-5.0/src/lua/lua.c:150
    4d8d:	f3 0f 1e fa          	endbr64 
    4d91:	55                   	push   %rbp
    4d92:	48 89 e5             	mov    %rsp,%rbp
    4d95:	48 83 ec 20          	sub    $0x20,%rsp
    4d99:	48 89 7d e8          	mov    %rdi,-0x18(%rbp)
    4d9d:	89 75 e4             	mov    %esi,-0x1c(%rbp)
/home/tenebris/Documents/RootCauseAnalysis/evaluation/test_bin/lua-5.0/src/lua/lua.c:152
    4da0:	48 8b 05 b9 e2 02 00 	mov    0x2e2b9(%rip),%rax        # 33060 <L>
    4da7:	48 89 c7             	mov    %rax,%rdi
    4daa:	e8 5c 20 00 00       	call   6e0b <lua_newtable>
/home/tenebris/Documents/RootCauseAnalysis/evaluation/test_bin/lua-5.0/src/lua/lua.c:153
    4daf:	c7 45 fc 00 00 00 00 	movl   $0x0,-0x4(%rbp)
    4db6:	eb 68                	jmp    4e20 <getargs+0x93>
/home/tenebris/Documents/RootCauseAnalysis/evaluation/test_bin/lua-5.0/src/lua/lua.c:154 (discriminator 3)
    4db8:	8b 45 fc             	mov    -0x4(%rbp),%eax
    4dbb:	2b 45 e4             	sub    -0x1c(%rbp),%eax
    4dbe:	66 0f ef c9          	pxor   %xmm1,%xmm1
    4dc2:	f2 0f 2a c8          	cvtsi2sd %eax,%xmm1
    4dc6:	66 48 0f 7e ca       	movq   %xmm1,%rdx
    4dcb:	48 8b 05 8e e2 02 00 	mov    0x2e28e(%rip),%rax        # 33060 <L>
    4dd2:	66 48 0f 6e c2       	movq   %rdx,%xmm0
    4dd7:	48 89 c7             	mov    %rax,%rdi
    4dda:	e8 65 1a 00 00       	call   6844 <lua_pushnumber>
/home/tenebris/Documents/RootCauseAnalysis/evaluation/test_bin/lua-5.0/src/lua/lua.c:155 (discriminator 3)
    4ddf:	8b 45 fc             	mov    -0x4(%rbp),%eax
    4de2:	48 98                	cltq   
    4de4:	48 8d 14 c5 00 00 00 	lea    0x0(,%rax,8),%rdx
    4deb:	00 
    4dec:	48 8b 45 e8          	mov    -0x18(%rbp),%rax
    4df0:	48 01 d0             	add    %rdx,%rax
    4df3:	48 8b 10             	mov    (%rax),%rdx
    4df6:	48 8b 05 63 e2 02 00 	mov    0x2e263(%rip),%rax        # 33060 <L>
    4dfd:	48 89 d6             	mov    %rdx,%rsi
    4e00:	48 89 c7             	mov    %rax,%rdi
    4e03:	e8 15 1b 00 00       	call   691d <lua_pushstring>
/home/tenebris/Documents/RootCauseAnalysis/evaluation/test_bin/lua-5.0/src/lua/lua.c:156 (discriminator 3)
    4e08:	48 8b 05 51 e2 02 00 	mov    0x2e251(%rip),%rax        # 33060 <L>
    4e0f:	be fd ff ff ff       	mov    $0xfffffffd,%esi
    4e14:	48 89 c7             	mov    %rax,%rdi
    4e17:	e8 46 22 00 00       	call   7062 <lua_rawset>
/home/tenebris/Documents/RootCauseAnalysis/evaluation/test_bin/lua-5.0/src/lua/lua.c:153 (discriminator 3)
    4e1c:	83 45 fc 01          	addl   $0x1,-0x4(%rbp)
/home/tenebris/Documents/RootCauseAnalysis/evaluation/test_bin/lua-5.0/src/lua/lua.c:153 (discriminator 1)
    4e20:	8b 45 fc             	mov    -0x4(%rbp),%eax
    4e23:	48 98                	cltq   
    4e25:	48 8d 14 c5 00 00 00 	lea    0x0(,%rax,8),%rdx
    4e2c:	00 
    4e2d:	48 8b 45 e8          	mov    -0x18(%rbp),%rax
    4e31:	48 01 d0             	add    %rdx,%rax
    4e34:	48 8b 00             	mov    (%rax),%rax
    4e37:	48 85 c0             	test   %rax,%rax
    4e3a:	0f 85 78 ff ff ff    	jne    4db8 <getargs+0x2b>
/home/tenebris/Documents/RootCauseAnalysis/evaluation/test_bin/lua-5.0/src/lua/lua.c:159
    4e40:	48 8b 05 19 e2 02 00 	mov    0x2e219(%rip),%rax        # 33060 <L>
    4e47:	ba 01 00 00 00       	mov    $0x1,%edx
    4e4c:	48 8d 0d 7f 33 02 00 	lea    0x2337f(%rip),%rcx        # 281d2 <_IO_stdin_used+0x1d2>
    4e53:	48 89 ce             	mov    %rcx,%rsi
    4e56:	48 89 c7             	mov    %rax,%rdi
    4e59:	e8 32 1a 00 00       	call   6890 <lua_pushlstring>
/home/tenebris/Documents/RootCauseAnalysis/evaluation/test_bin/lua-5.0/src/lua/lua.c:160
    4e5e:	8b 45 fc             	mov    -0x4(%rbp),%eax
    4e61:	2b 45 e4             	sub    -0x1c(%rbp),%eax
    4e64:	83 e8 01             	sub    $0x1,%eax
    4e67:	66 0f ef d2          	pxor   %xmm2,%xmm2
    4e6b:	f2 0f 2a d0          	cvtsi2sd %eax,%xmm2
    4e6f:	66 48 0f 7e d2       	movq   %xmm2,%rdx
    4e74:	48 8b 05 e5 e1 02 00 	mov    0x2e1e5(%rip),%rax        # 33060 <L>
    4e7b:	66 48 0f 6e c2       	movq   %rdx,%xmm0
    4e80:	48 89 c7             	mov    %rax,%rdi
    4e83:	e8 bc 19 00 00       	call   6844 <lua_pushnumber>
/home/tenebris/Documents/RootCauseAnalysis/evaluation/test_bin/lua-5.0/src/lua/lua.c:161
    4e88:	48 8b 05 d1 e1 02 00 	mov    0x2e1d1(%rip),%rax        # 33060 <L>
    4e8f:	be fd ff ff ff       	mov    $0xfffffffd,%esi
    4e94:	48 89 c7             	mov    %rax,%rdi
    4e97:	e8 c6 21 00 00       	call   7062 <lua_rawset>
/home/tenebris/Documents/RootCauseAnalysis/evaluation/test_bin/lua-5.0/src/lua/lua.c:162
    4e9c:	90                   	nop
    4e9d:	c9                   	leave  
    4e9e:	c3                   	ret    

0000000000004e9f <docall>:
docall():
/home/tenebris/Documents/RootCauseAnalysis/evaluation/test_bin/lua-5.0/src/lua/lua.c:165
    4e9f:	f3 0f 1e fa          	endbr64 
    4ea3:	55                   	push   %rbp
    4ea4:	48 89 e5             	mov    %rsp,%rbp
    4ea7:	48 83 ec 10          	sub    $0x10,%rsp
    4eab:	89 7d fc             	mov    %edi,-0x4(%rbp)
/home/tenebris/Documents/RootCauseAnalysis/evaluation/test_bin/lua-5.0/src/lua/lua.c:166
    4eae:	83 7d fc 00          	cmpl   $0x0,-0x4(%rbp)
    4eb2:	75 12                	jne    4ec6 <docall+0x27>
/home/tenebris/Documents/RootCauseAnalysis/evaluation/test_bin/lua-5.0/src/lua/lua.c:166 (discriminator 1)
    4eb4:	be 01 00 00 00       	mov    $0x1,%esi
    4eb9:	bf 00 00 00 00       	mov    $0x0,%edi
    4ebe:	e8 d4 fd ff ff       	call   4c97 <lcall>
    4ec3:	89 45 fc             	mov    %eax,-0x4(%rbp)
/home/tenebris/Documents/RootCauseAnalysis/evaluation/test_bin/lua-5.0/src/lua/lua.c:167
    4ec6:	8b 45 fc             	mov    -0x4(%rbp),%eax
    4ec9:	89 c7                	mov    %eax,%edi
    4ecb:	e8 59 fd ff ff       	call   4c29 <report>
/home/tenebris/Documents/RootCauseAnalysis/evaluation/test_bin/lua-5.0/src/lua/lua.c:168
    4ed0:	c9                   	leave  
    4ed1:	c3                   	ret    

0000000000004ed2 <file_input>:
file_input():
/home/tenebris/Documents/RootCauseAnalysis/evaluation/test_bin/lua-5.0/src/lua/lua.c:171
    4ed2:	f3 0f 1e fa          	endbr64 
    4ed6:	55                   	push   %rbp
    4ed7:	48 89 e5             	mov    %rsp,%rbp
    4eda:	48 83 ec 10          	sub    $0x10,%rsp
    4ede:	48 89 7d f8          	mov    %rdi,-0x8(%rbp)
/home/tenebris/Documents/RootCauseAnalysis/evaluation/test_bin/lua-5.0/src/lua/lua.c:172
    4ee2:	48 8b 05 77 e1 02 00 	mov    0x2e177(%rip),%rax        # 33060 <L>
    4ee9:	48 8b 55 f8          	mov    -0x8(%rbp),%rdx
    4eed:	48 89 d6             	mov    %rdx,%rsi
    4ef0:	48 89 c7             	mov    %rax,%rdi
    4ef3:	e8 35 92 01 00       	call   1e12d <luaL_loadfile>
    4ef8:	89 c7                	mov    %eax,%edi
    4efa:	e8 a0 ff ff ff       	call   4e9f <docall>
/home/tenebris/Documents/RootCauseAnalysis/evaluation/test_bin/lua-5.0/src/lua/lua.c:173
    4eff:	c9                   	leave  
    4f00:	c3                   	ret    

0000000000004f01 <dostring>:
dostring():
/home/tenebris/Documents/RootCauseAnalysis/evaluation/test_bin/lua-5.0/src/lua/lua.c:176
    4f01:	f3 0f 1e fa          	endbr64 
    4f05:	55                   	push   %rbp
    4f06:	48 89 e5             	mov    %rsp,%rbp
    4f09:	48 83 ec 10          	sub    $0x10,%rsp
    4f0d:	48 89 7d f8          	mov    %rdi,-0x8(%rbp)
    4f11:	48 89 75 f0          	mov    %rsi,-0x10(%rbp)
/home/tenebris/Documents/RootCauseAnalysis/evaluation/test_bin/lua-5.0/src/lua/lua.c:177
    4f15:	48 8b 45 f8          	mov    -0x8(%rbp),%rax
    4f19:	48 89 c7             	mov    %rax,%rdi
    4f1c:	e8 1f f7 ff ff       	call   4640 <strlen@plt>
    4f21:	48 89 c7             	mov    %rax,%rdi
    4f24:	48 8b 05 35 e1 02 00 	mov    0x2e135(%rip),%rax        # 33060 <L>
    4f2b:	48 8b 55 f0          	mov    -0x10(%rbp),%rdx
    4f2f:	48 8b 75 f8          	mov    -0x8(%rbp),%rsi
    4f33:	48 89 d1             	mov    %rdx,%rcx
    4f36:	48 89 fa             	mov    %rdi,%rdx
    4f39:	48 89 c7             	mov    %rax,%rdi
    4f3c:	e8 fe 94 01 00       	call   1e43f <luaL_loadbuffer>
    4f41:	89 c7                	mov    %eax,%edi
    4f43:	e8 57 ff ff ff       	call   4e9f <docall>
/home/tenebris/Documents/RootCauseAnalysis/evaluation/test_bin/lua-5.0/src/lua/lua.c:178
    4f48:	c9                   	leave  
    4f49:	c3                   	ret    

0000000000004f4a <load_file>:
load_file():
/home/tenebris/Documents/RootCauseAnalysis/evaluation/test_bin/lua-5.0/src/lua/lua.c:181
    4f4a:	f3 0f 1e fa          	endbr64 
    4f4e:	55                   	push   %rbp
    4f4f:	48 89 e5             	mov    %rsp,%rbp
    4f52:	48 83 ec 10          	sub    $0x10,%rsp
    4f56:	48 89 7d f8          	mov    %rdi,-0x8(%rbp)
/home/tenebris/Documents/RootCauseAnalysis/evaluation/test_bin/lua-5.0/src/lua/lua.c:182
    4f5a:	48 8b 05 ff e0 02 00 	mov    0x2e0ff(%rip),%rax        # 33060 <L>
    4f61:	ba 07 00 00 00       	mov    $0x7,%edx
    4f66:	48 8d 0d 67 32 02 00 	lea    0x23267(%rip),%rcx        # 281d4 <_IO_stdin_used+0x1d4>
    4f6d:	48 89 ce             	mov    %rcx,%rsi
    4f70:	48 89 c7             	mov    %rax,%rdi
    4f73:	e8 18 19 00 00       	call   6890 <lua_pushlstring>
/home/tenebris/Documents/RootCauseAnalysis/evaluation/test_bin/lua-5.0/src/lua/lua.c:183
    4f78:	48 8b 05 e1 e0 02 00 	mov    0x2e0e1(%rip),%rax        # 33060 <L>
    4f7f:	be ef d8 ff ff       	mov    $0xffffd8ef,%esi
    4f84:	48 89 c7             	mov    %rax,%rdi
    4f87:	e8 7f 1d 00 00       	call   6d0b <lua_rawget>
/home/tenebris/Documents/RootCauseAnalysis/evaluation/test_bin/lua-5.0/src/lua/lua.c:184
    4f8c:	48 8b 05 cd e0 02 00 	mov    0x2e0cd(%rip),%rax        # 33060 <L>
    4f93:	be ff ff ff ff       	mov    $0xffffffff,%esi
    4f98:	48 89 c7             	mov    %rax,%rdi
    4f9b:	e8 50 11 00 00       	call   60f0 <lua_type>
    4fa0:	83 f8 06             	cmp    $0x6,%eax
    4fa3:	74 22                	je     4fc7 <load_file+0x7d>
/home/tenebris/Documents/RootCauseAnalysis/evaluation/test_bin/lua-5.0/src/lua/lua.c:185
    4fa5:	48 8b 05 b4 e0 02 00 	mov    0x2e0b4(%rip),%rax        # 33060 <L>
    4fac:	be fe ff ff ff       	mov    $0xfffffffe,%esi
    4fb1:	48 89 c7             	mov    %rax,%rdi
    4fb4:	e8 a6 0e 00 00       	call   5e5f <lua_settop>
/home/tenebris/Documents/RootCauseAnalysis/evaluation/test_bin/lua-5.0/src/lua/lua.c:186
    4fb9:	48 8b 45 f8          	mov    -0x8(%rbp),%rax
    4fbd:	48 89 c7             	mov    %rax,%rdi
    4fc0:	e8 0d ff ff ff       	call   4ed2 <file_input>
    4fc5:	eb 2c                	jmp    4ff3 <load_file+0xa9>
/home/tenebris/Documents/RootCauseAnalysis/evaluation/test_bin/lua-5.0/src/lua/lua.c:189
    4fc7:	48 8b 05 92 e0 02 00 	mov    0x2e092(%rip),%rax        # 33060 <L>
    4fce:	48 8b 55 f8          	mov    -0x8(%rbp),%rdx
    4fd2:	48 89 d6             	mov    %rdx,%rsi
    4fd5:	48 89 c7             	mov    %rax,%rdi
    4fd8:	e8 40 19 00 00       	call   691d <lua_pushstring>
/home/tenebris/Documents/RootCauseAnalysis/evaluation/test_bin/lua-5.0/src/lua/lua.c:190
    4fdd:	be 01 00 00 00       	mov    $0x1,%esi
    4fe2:	bf 01 00 00 00       	mov    $0x1,%edi
    4fe7:	e8 ab fc ff ff       	call   4c97 <lcall>
    4fec:	89 c7                	mov    %eax,%edi
    4fee:	e8 36 fc ff ff       	call   4c29 <report>
/home/tenebris/Documents/RootCauseAnalysis/evaluation/test_bin/lua-5.0/src/lua/lua.c:192
    4ff3:	c9                   	leave  
    4ff4:	c3                   	ret    

0000000000004ff5 <readline>:
readline():
/home/tenebris/Documents/RootCauseAnalysis/evaluation/test_bin/lua-5.0/src/lua/lua.c:217
    4ff5:	f3 0f 1e fa          	endbr64 
    4ff9:	55                   	push   %rbp
    4ffa:	48 89 e5             	mov    %rsp,%rbp
    4ffd:	48 83 ec 10          	sub    $0x10,%rsp
    5001:	48 89 7d f8          	mov    %rdi,-0x8(%rbp)
    5005:	48 89 75 f0          	mov    %rsi,-0x10(%rbp)
/home/tenebris/Documents/RootCauseAnalysis/evaluation/test_bin/lua-5.0/src/lua/lua.c:219
    5009:	48 83 7d f0 00       	cmpq   $0x0,-0x10(%rbp)
    500e:	74 25                	je     5035 <readline+0x40>
/home/tenebris/Documents/RootCauseAnalysis/evaluation/test_bin/lua-5.0/src/lua/lua.c:220
    5010:	48 8b 15 09 e0 02 00 	mov    0x2e009(%rip),%rdx        # 33020 <stdout@GLIBC_2.2.5>
    5017:	48 8b 45 f0          	mov    -0x10(%rbp),%rax
    501b:	48 89 d6             	mov    %rdx,%rsi
    501e:	48 89 c7             	mov    %rax,%rdi
    5021:	e8 7a f6 ff ff       	call   46a0 <fputs@plt>
/home/tenebris/Documents/RootCauseAnalysis/evaluation/test_bin/lua-5.0/src/lua/lua.c:221
    5026:	48 8b 05 f3 df 02 00 	mov    0x2dff3(%rip),%rax        # 33020 <stdout@GLIBC_2.2.5>
    502d:	48 89 c7             	mov    %rax,%rdi
    5030:	e8 eb f7 ff ff       	call   4820 <fflush@plt>
/home/tenebris/Documents/RootCauseAnalysis/evaluation/test_bin/lua-5.0/src/lua/lua.c:223
    5035:	48 8b 05 f4 df 02 00 	mov    0x2dff4(%rip),%rax        # 33030 <stdin@GLIBC_2.2.5>
    503c:	48 89 c2             	mov    %rax,%rdx
    503f:	be 00 02 00 00       	mov    $0x200,%esi
    5044:	48 8d 05 35 e0 02 00 	lea    0x2e035(%rip),%rax        # 33080 <buffer.0>
    504b:	48 89 c7             	mov    %rax,%rdi
    504e:	e8 fd f6 ff ff       	call   4750 <fgets@plt>
    5053:	48 85 c0             	test   %rax,%rax
    5056:	75 07                	jne    505f <readline+0x6a>
/home/tenebris/Documents/RootCauseAnalysis/evaluation/test_bin/lua-5.0/src/lua/lua.c:224
    5058:	b8 00 00 00 00       	mov    $0x0,%eax
    505d:	eb 1b                	jmp    507a <readline+0x85>
/home/tenebris/Documents/RootCauseAnalysis/evaluation/test_bin/lua-5.0/src/lua/lua.c:226
    505f:	48 8b 45 f8          	mov    -0x8(%rbp),%rax
    5063:	48 8d 15 16 e0 02 00 	lea    0x2e016(%rip),%rdx        # 33080 <buffer.0>
    506a:	48 89 d6             	mov    %rdx,%rsi
    506d:	48 89 c7             	mov    %rax,%rdi
    5070:	e8 a8 18 00 00       	call   691d <lua_pushstring>
/home/tenebris/Documents/RootCauseAnalysis/evaluation/test_bin/lua-5.0/src/lua/lua.c:227
    5075:	b8 01 00 00 00       	mov    $0x1,%eax
/home/tenebris/Documents/RootCauseAnalysis/evaluation/test_bin/lua-5.0/src/lua/lua.c:229
    507a:	c9                   	leave  
    507b:	c3                   	ret    

000000000000507c <get_prompt>:
get_prompt():
/home/tenebris/Documents/RootCauseAnalysis/evaluation/test_bin/lua-5.0/src/lua/lua.c:234
    507c:	f3 0f 1e fa          	endbr64 
    5080:	55                   	push   %rbp
    5081:	48 89 e5             	mov    %rsp,%rbp
    5084:	48 83 ec 20          	sub    $0x20,%rsp
    5088:	89 7d ec             	mov    %edi,-0x14(%rbp)
/home/tenebris/Documents/RootCauseAnalysis/evaluation/test_bin/lua-5.0/src/lua/lua.c:235
    508b:	48 c7 45 f8 00 00 00 	movq   $0x0,-0x8(%rbp)
    5092:	00 
/home/tenebris/Documents/RootCauseAnalysis/evaluation/test_bin/lua-5.0/src/lua/lua.c:236
    5093:	83 7d ec 00          	cmpl   $0x0,-0x14(%rbp)
    5097:	74 09                	je     50a2 <get_prompt+0x26>
/home/tenebris/Documents/RootCauseAnalysis/evaluation/test_bin/lua-5.0/src/lua/lua.c:236 (discriminator 1)
    5099:	48 8d 05 3c 31 02 00 	lea    0x2313c(%rip),%rax        # 281dc <_IO_stdin_used+0x1dc>
    50a0:	eb 07                	jmp    50a9 <get_prompt+0x2d>
/home/tenebris/Documents/RootCauseAnalysis/evaluation/test_bin/lua-5.0/src/lua/lua.c:236 (discriminator 2)
    50a2:	48 8d 05 3b 31 02 00 	lea    0x2313b(%rip),%rax        # 281e4 <_IO_stdin_used+0x1e4>
/home/tenebris/Documents/RootCauseAnalysis/evaluation/test_bin/lua-5.0/src/lua/lua.c:236 (discriminator 4)
    50a9:	48 8b 15 b0 df 02 00 	mov    0x2dfb0(%rip),%rdx        # 33060 <L>
    50b0:	48 89 c6             	mov    %rax,%rsi
    50b3:	48 89 d7             	mov    %rdx,%rdi
    50b6:	e8 62 18 00 00       	call   691d <lua_pushstring>
/home/tenebris/Documents/RootCauseAnalysis/evaluation/test_bin/lua-5.0/src/lua/lua.c:237 (discriminator 4)
    50bb:	48 8b 05 9e df 02 00 	mov    0x2df9e(%rip),%rax        # 33060 <L>
    50c2:	be ef d8 ff ff       	mov    $0xffffd8ef,%esi
    50c7:	48 89 c7             	mov    %rax,%rdi
    50ca:	e8 3c 1c 00 00       	call   6d0b <lua_rawget>
/home/tenebris/Documents/RootCauseAnalysis/evaluation/test_bin/lua-5.0/src/lua/lua.c:238 (discriminator 4)
    50cf:	48 8b 05 8a df 02 00 	mov    0x2df8a(%rip),%rax        # 33060 <L>
    50d6:	be ff ff ff ff       	mov    $0xffffffff,%esi
    50db:	48 89 c7             	mov    %rax,%rdi
    50de:	e8 56 14 00 00       	call   6539 <lua_tostring>
    50e3:	48 89 45 f8          	mov    %rax,-0x8(%rbp)
/home/tenebris/Documents/RootCauseAnalysis/evaluation/test_bin/lua-5.0/src/lua/lua.c:239 (discriminator 4)
    50e7:	48 83 7d f8 00       	cmpq   $0x0,-0x8(%rbp)
    50ec:	75 1a                	jne    5108 <get_prompt+0x8c>
/home/tenebris/Documents/RootCauseAnalysis/evaluation/test_bin/lua-5.0/src/lua/lua.c:239 (discriminator 1)
    50ee:	83 7d ec 00          	cmpl   $0x0,-0x14(%rbp)
    50f2:	74 09                	je     50fd <get_prompt+0x81>
/home/tenebris/Documents/RootCauseAnalysis/evaluation/test_bin/lua-5.0/src/lua/lua.c:239 (discriminator 2)
    50f4:	48 8d 05 f2 30 02 00 	lea    0x230f2(%rip),%rax        # 281ed <_IO_stdin_used+0x1ed>
    50fb:	eb 07                	jmp    5104 <get_prompt+0x88>
/home/tenebris/Documents/RootCauseAnalysis/evaluation/test_bin/lua-5.0/src/lua/lua.c:239 (discriminator 3)
    50fd:	48 8d 05 ec 30 02 00 	lea    0x230ec(%rip),%rax        # 281f0 <_IO_stdin_used+0x1f0>
/home/tenebris/Documents/RootCauseAnalysis/evaluation/test_bin/lua-5.0/src/lua/lua.c:239 (discriminator 5)
    5104:	48 89 45 f8          	mov    %rax,-0x8(%rbp)
/home/tenebris/Documents/RootCauseAnalysis/evaluation/test_bin/lua-5.0/src/lua/lua.c:240
    5108:	48 8b 05 51 df 02 00 	mov    0x2df51(%rip),%rax        # 33060 <L>
    510f:	be fe ff ff ff       	mov    $0xfffffffe,%esi
    5114:	48 89 c7             	mov    %rax,%rdi
    5117:	e8 43 0d 00 00       	call   5e5f <lua_settop>
/home/tenebris/Documents/RootCauseAnalysis/evaluation/test_bin/lua-5.0/src/lua/lua.c:241
    511c:	48 8b 45 f8          	mov    -0x8(%rbp),%rax
/home/tenebris/Documents/RootCauseAnalysis/evaluation/test_bin/lua-5.0/src/lua/lua.c:242
    5120:	c9                   	leave  
    5121:	c3                   	ret    

0000000000005122 <incomplete>:
incomplete():
/home/tenebris/Documents/RootCauseAnalysis/evaluation/test_bin/lua-5.0/src/lua/lua.c:245
    5122:	f3 0f 1e fa          	endbr64 
    5126:	55                   	push   %rbp
    5127:	48 89 e5             	mov    %rsp,%rbp
    512a:	48 83 ec 10          	sub    $0x10,%rsp
    512e:	89 7d fc             	mov    %edi,-0x4(%rbp)
/home/tenebris/Documents/RootCauseAnalysis/evaluation/test_bin/lua-5.0/src/lua/lua.c:246
    5131:	83 7d fc 03          	cmpl   $0x3,-0x4(%rbp)
    5135:	75 49                	jne    5180 <incomplete+0x5e>
/home/tenebris/Documents/RootCauseAnalysis/evaluation/test_bin/lua-5.0/src/lua/lua.c:247 (discriminator 1)
    5137:	48 8b 05 22 df 02 00 	mov    0x2df22(%rip),%rax        # 33060 <L>
    513e:	be ff ff ff ff       	mov    $0xffffffff,%esi
    5143:	48 89 c7             	mov    %rax,%rdi
    5146:	e8 ee 13 00 00       	call   6539 <lua_tostring>
    514b:	48 89 c2             	mov    %rax,%rdx
    514e:	48 8d 05 9f 30 02 00 	lea    0x2309f(%rip),%rax        # 281f4 <_IO_stdin_used+0x1f4>
    5155:	48 89 c6             	mov    %rax,%rsi
    5158:	48 89 d7             	mov    %rdx,%rdi
    515b:	e8 80 f8 ff ff       	call   49e0 <strstr@plt>
/home/tenebris/Documents/RootCauseAnalysis/evaluation/test_bin/lua-5.0/src/lua/lua.c:246 (discriminator 1)
    5160:	48 85 c0             	test   %rax,%rax
    5163:	74 1b                	je     5180 <incomplete+0x5e>
/home/tenebris/Documents/RootCauseAnalysis/evaluation/test_bin/lua-5.0/src/lua/lua.c:248
    5165:	48 8b 05 f4 de 02 00 	mov    0x2def4(%rip),%rax        # 33060 <L>
    516c:	be fe ff ff ff       	mov    $0xfffffffe,%esi
    5171:	48 89 c7             	mov    %rax,%rdi
    5174:	e8 e6 0c 00 00       	call   5e5f <lua_settop>
/home/tenebris/Documents/RootCauseAnalysis/evaluation/test_bin/lua-5.0/src/lua/lua.c:249
    5179:	b8 01 00 00 00       	mov    $0x1,%eax
    517e:	eb 05                	jmp    5185 <incomplete+0x63>
/home/tenebris/Documents/RootCauseAnalysis/evaluation/test_bin/lua-5.0/src/lua/lua.c:252
    5180:	b8 00 00 00 00       	mov    $0x0,%eax
/home/tenebris/Documents/RootCauseAnalysis/evaluation/test_bin/lua-5.0/src/lua/lua.c:253
    5185:	c9                   	leave  
    5186:	c3                   	ret    

0000000000005187 <load_string>:
load_string():
/home/tenebris/Documents/RootCauseAnalysis/evaluation/test_bin/lua-5.0/src/lua/lua.c:256
    5187:	f3 0f 1e fa          	endbr64 
    518b:	55                   	push   %rbp
    518c:	48 89 e5             	mov    %rsp,%rbp
    518f:	53                   	push   %rbx
    5190:	48 83 ec 18          	sub    $0x18,%rsp
/home/tenebris/Documents/RootCauseAnalysis/evaluation/test_bin/lua-5.0/src/lua/lua.c:258
    5194:	48 8b 05 c5 de 02 00 	mov    0x2dec5(%rip),%rax        # 33060 <L>
    519b:	be 00 00 00 00       	mov    $0x0,%esi
    51a0:	48 89 c7             	mov    %rax,%rdi
    51a3:	e8 b7 0c 00 00       	call   5e5f <lua_settop>
/home/tenebris/Documents/RootCauseAnalysis/evaluation/test_bin/lua-5.0/src/lua/lua.c:259
    51a8:	bf 01 00 00 00       	mov    $0x1,%edi
    51ad:	e8 ca fe ff ff       	call   507c <get_prompt>
    51b2:	48 89 c2             	mov    %rax,%rdx
    51b5:	48 8b 05 a4 de 02 00 	mov    0x2dea4(%rip),%rax        # 33060 <L>
    51bc:	48 89 d6             	mov    %rdx,%rsi
    51bf:	48 89 c7             	mov    %rax,%rdi
    51c2:	e8 2e fe ff ff       	call   4ff5 <readline>
    51c7:	85 c0                	test   %eax,%eax
    51c9:	75 0a                	jne    51d5 <load_string+0x4e>
/home/tenebris/Documents/RootCauseAnalysis/evaluation/test_bin/lua-5.0/src/lua/lua.c:260
    51cb:	b8 ff ff ff ff       	mov    $0xffffffff,%eax
    51d0:	e9 29 01 00 00       	jmp    52fe <load_string+0x177>
/home/tenebris/Documents/RootCauseAnalysis/evaluation/test_bin/lua-5.0/src/lua/lua.c:261
    51d5:	48 8b 05 84 de 02 00 	mov    0x2de84(%rip),%rax        # 33060 <L>
    51dc:	be ff ff ff ff       	mov    $0xffffffff,%esi
    51e1:	48 89 c7             	mov    %rax,%rdi
    51e4:	e8 50 13 00 00       	call   6539 <lua_tostring>
    51e9:	0f b6 00             	movzbl (%rax),%eax
    51ec:	3c 3d                	cmp    $0x3d,%al
    51ee:	75 4a                	jne    523a <load_string+0xb3>
/home/tenebris/Documents/RootCauseAnalysis/evaluation/test_bin/lua-5.0/src/lua/lua.c:262
    51f0:	48 8b 05 69 de 02 00 	mov    0x2de69(%rip),%rax        # 33060 <L>
    51f7:	be ff ff ff ff       	mov    $0xffffffff,%esi
    51fc:	48 89 c7             	mov    %rax,%rdi
    51ff:	e8 35 13 00 00       	call   6539 <lua_tostring>
    5204:	48 8d 50 01          	lea    0x1(%rax),%rdx
    5208:	48 8b 05 51 de 02 00 	mov    0x2de51(%rip),%rax        # 33060 <L>
    520f:	48 8d 0d eb 2f 02 00 	lea    0x22feb(%rip),%rcx        # 28201 <_IO_stdin_used+0x201>
    5216:	48 89 ce             	mov    %rcx,%rsi
    5219:	48 89 c7             	mov    %rax,%rdi
    521c:	b8 00 00 00 00       	mov    $0x0,%eax
    5221:	e8 a7 17 00 00       	call   69cd <lua_pushfstring>
/home/tenebris/Documents/RootCauseAnalysis/evaluation/test_bin/lua-5.0/src/lua/lua.c:263
    5226:	48 8b 05 33 de 02 00 	mov    0x2de33(%rip),%rax        # 33060 <L>
    522d:	be fe ff ff ff       	mov    $0xfffffffe,%esi
    5232:	48 89 c7             	mov    %rax,%rdi
    5235:	e8 b8 0c 00 00       	call   5ef2 <lua_remove>
/home/tenebris/Documents/RootCauseAnalysis/evaluation/test_bin/lua-5.0/src/lua/lua.c:266
    523a:	48 8b 05 1f de 02 00 	mov    0x2de1f(%rip),%rax        # 33060 <L>
    5241:	be 01 00 00 00       	mov    $0x1,%esi
    5246:	48 89 c7             	mov    %rax,%rdi
    5249:	e8 97 13 00 00       	call   65e5 <lua_strlen>
    524e:	48 89 c3             	mov    %rax,%rbx
    5251:	48 8b 05 08 de 02 00 	mov    0x2de08(%rip),%rax        # 33060 <L>
    5258:	be 01 00 00 00       	mov    $0x1,%esi
    525d:	48 89 c7             	mov    %rax,%rdi
    5260:	e8 d4 12 00 00       	call   6539 <lua_tostring>
    5265:	48 89 c6             	mov    %rax,%rsi
    5268:	48 8b 05 f1 dd 02 00 	mov    0x2ddf1(%rip),%rax        # 33060 <L>
    526f:	48 8d 15 95 2f 02 00 	lea    0x22f95(%rip),%rdx        # 2820b <_IO_stdin_used+0x20b>
    5276:	48 89 d1             	mov    %rdx,%rcx
    5279:	48 89 da             	mov    %rbx,%rdx
    527c:	48 89 c7             	mov    %rax,%rdi
    527f:	e8 bb 91 01 00       	call   1e43f <luaL_loadbuffer>
    5284:	89 45 ec             	mov    %eax,-0x14(%rbp)
/home/tenebris/Documents/RootCauseAnalysis/evaluation/test_bin/lua-5.0/src/lua/lua.c:267
    5287:	8b 45 ec             	mov    -0x14(%rbp),%eax
    528a:	89 c7                	mov    %eax,%edi
    528c:	e8 91 fe ff ff       	call   5122 <incomplete>
    5291:	85 c0                	test   %eax,%eax
    5293:	74 51                	je     52e6 <load_string+0x15f>
/home/tenebris/Documents/RootCauseAnalysis/evaluation/test_bin/lua-5.0/src/lua/lua.c:268
    5295:	bf 00 00 00 00       	mov    $0x0,%edi
    529a:	e8 dd fd ff ff       	call   507c <get_prompt>
    529f:	48 89 c2             	mov    %rax,%rdx
    52a2:	48 8b 05 b7 dd 02 00 	mov    0x2ddb7(%rip),%rax        # 33060 <L>
    52a9:	48 89 d6             	mov    %rdx,%rsi
    52ac:	48 89 c7             	mov    %rax,%rdi
    52af:	e8 41 fd ff ff       	call   4ff5 <readline>
    52b4:	85 c0                	test   %eax,%eax
    52b6:	75 07                	jne    52bf <load_string+0x138>
/home/tenebris/Documents/RootCauseAnalysis/evaluation/test_bin/lua-5.0/src/lua/lua.c:269
    52b8:	b8 ff ff ff ff       	mov    $0xffffffff,%eax
    52bd:	eb 3f                	jmp    52fe <load_string+0x177>
/home/tenebris/Documents/RootCauseAnalysis/evaluation/test_bin/lua-5.0/src/lua/lua.c:270
    52bf:	48 8b 05 9a dd 02 00 	mov    0x2dd9a(%rip),%rax        # 33060 <L>
    52c6:	48 89 c7             	mov    %rax,%rdi
    52c9:	e8 69 0b 00 00       	call   5e37 <lua_gettop>
    52ce:	89 c2                	mov    %eax,%edx
    52d0:	48 8b 05 89 dd 02 00 	mov    0x2dd89(%rip),%rax        # 33060 <L>
    52d7:	89 d6                	mov    %edx,%esi
    52d9:	48 89 c7             	mov    %rax,%rdi
    52dc:	e8 96 25 00 00       	call   7877 <lua_concat>
/home/tenebris/Documents/RootCauseAnalysis/evaluation/test_bin/lua-5.0/src/lua/lua.c:266
    52e1:	e9 54 ff ff ff       	jmp    523a <load_string+0xb3>
/home/tenebris/Documents/RootCauseAnalysis/evaluation/test_bin/lua-5.0/src/lua/lua.c:267
    52e6:	90                   	nop
/home/tenebris/Documents/RootCauseAnalysis/evaluation/test_bin/lua-5.0/src/lua/lua.c:273
    52e7:	48 8b 05 72 dd 02 00 	mov    0x2dd72(%rip),%rax        # 33060 <L>
    52ee:	be 01 00 00 00       	mov    $0x1,%esi
    52f3:	48 89 c7             	mov    %rax,%rdi
    52f6:	e8 f7 0b 00 00       	call   5ef2 <lua_remove>
/home/tenebris/Documents/RootCauseAnalysis/evaluation/test_bin/lua-5.0/src/lua/lua.c:274
    52fb:	8b 45 ec             	mov    -0x14(%rbp),%eax
/home/tenebris/Documents/RootCauseAnalysis/evaluation/test_bin/lua-5.0/src/lua/lua.c:275
    52fe:	48 8b 5d f8          	mov    -0x8(%rbp),%rbx
    5302:	c9                   	leave  
    5303:	c3                   	ret    

0000000000005304 <manual_input>:
manual_input():
/home/tenebris/Documents/RootCauseAnalysis/evaluation/test_bin/lua-5.0/src/lua/lua.c:278
    5304:	f3 0f 1e fa          	endbr64 
    5308:	55                   	push   %rbp
    5309:	48 89 e5             	mov    %rsp,%rbp
    530c:	48 83 ec 10          	sub    $0x10,%rsp
/home/tenebris/Documents/RootCauseAnalysis/evaluation/test_bin/lua-5.0/src/lua/lua.c:280
    5310:	48 8b 05 f9 dc 02 00 	mov    0x2dcf9(%rip),%rax        # 33010 <progname>
    5317:	48 89 45 f8          	mov    %rax,-0x8(%rbp)
/home/tenebris/Documents/RootCauseAnalysis/evaluation/test_bin/lua-5.0/src/lua/lua.c:281
    531b:	48 c7 05 ea dc 02 00 	movq   $0x0,0x2dcea(%rip)        # 33010 <progname>
    5322:	00 00 00 00 
/home/tenebris/Documents/RootCauseAnalysis/evaluation/test_bin/lua-5.0/src/lua/lua.c:282
    5326:	e9 fd 00 00 00       	jmp    5428 <manual_input+0x124>
/home/tenebris/Documents/RootCauseAnalysis/evaluation/test_bin/lua-5.0/src/lua/lua.c:283
    532b:	83 7d f4 00          	cmpl   $0x0,-0xc(%rbp)
    532f:	75 12                	jne    5343 <manual_input+0x3f>
/home/tenebris/Documents/RootCauseAnalysis/evaluation/test_bin/lua-5.0/src/lua/lua.c:283 (discriminator 1)
    5331:	be 00 00 00 00       	mov    $0x0,%esi
    5336:	bf 00 00 00 00       	mov    $0x0,%edi
    533b:	e8 57 f9 ff ff       	call   4c97 <lcall>
    5340:	89 45 f4             	mov    %eax,-0xc(%rbp)
/home/tenebris/Documents/RootCauseAnalysis/evaluation/test_bin/lua-5.0/src/lua/lua.c:284
    5343:	8b 45 f4             	mov    -0xc(%rbp),%eax
    5346:	89 c7                	mov    %eax,%edi
    5348:	e8 dc f8 ff ff       	call   4c29 <report>
/home/tenebris/Documents/RootCauseAnalysis/evaluation/test_bin/lua-5.0/src/lua/lua.c:285
    534d:	83 7d f4 00          	cmpl   $0x0,-0xc(%rbp)
    5351:	0f 85 d1 00 00 00    	jne    5428 <manual_input+0x124>
/home/tenebris/Documents/RootCauseAnalysis/evaluation/test_bin/lua-5.0/src/lua/lua.c:285 (discriminator 1)
    5357:	48 8b 05 02 dd 02 00 	mov    0x2dd02(%rip),%rax        # 33060 <L>
    535e:	48 89 c7             	mov    %rax,%rdi
    5361:	e8 d1 0a 00 00       	call   5e37 <lua_gettop>
    5366:	85 c0                	test   %eax,%eax
    5368:	0f 8e ba 00 00 00    	jle    5428 <manual_input+0x124>
/home/tenebris/Documents/RootCauseAnalysis/evaluation/test_bin/lua-5.0/src/lua/lua.c:286
    536e:	48 8b 05 eb dc 02 00 	mov    0x2dceb(%rip),%rax        # 33060 <L>
    5375:	48 8d 15 96 2e 02 00 	lea    0x22e96(%rip),%rdx        # 28212 <_IO_stdin_used+0x212>
    537c:	48 89 d6             	mov    %rdx,%rsi
    537f:	48 89 c7             	mov    %rax,%rdi
    5382:	e8 96 15 00 00       	call   691d <lua_pushstring>
    5387:	48 8b 05 d2 dc 02 00 	mov    0x2dcd2(%rip),%rax        # 33060 <L>
    538e:	be ef d8 ff ff       	mov    $0xffffd8ef,%esi
    5393:	48 89 c7             	mov    %rax,%rdi
    5396:	e8 f4 18 00 00       	call   6c8f <lua_gettable>
/home/tenebris/Documents/RootCauseAnalysis/evaluation/test_bin/lua-5.0/src/lua/lua.c:287
    539b:	48 8b 05 be dc 02 00 	mov    0x2dcbe(%rip),%rax        # 33060 <L>
    53a2:	be 01 00 00 00       	mov    $0x1,%esi
    53a7:	48 89 c7             	mov    %rax,%rdi
    53aa:	e8 c7 0b 00 00       	call   5f76 <lua_insert>
/home/tenebris/Documents/RootCauseAnalysis/evaluation/test_bin/lua-5.0/src/lua/lua.c:288
    53af:	48 8b 05 aa dc 02 00 	mov    0x2dcaa(%rip),%rax        # 33060 <L>
    53b6:	48 89 c7             	mov    %rax,%rdi
    53b9:	e8 79 0a 00 00       	call   5e37 <lua_gettop>
    53be:	8d 70 ff             	lea    -0x1(%rax),%esi
    53c1:	48 8b 05 98 dc 02 00 	mov    0x2dc98(%rip),%rax        # 33060 <L>
    53c8:	b9 00 00 00 00       	mov    $0x0,%ecx
    53cd:	ba 00 00 00 00       	mov    $0x0,%edx
    53d2:	48 89 c7             	mov    %rax,%rdi
    53d5:	e8 83 1f 00 00       	call   735d <lua_pcall>
    53da:	85 c0                	test   %eax,%eax
    53dc:	74 4a                	je     5428 <manual_input+0x124>
/home/tenebris/Documents/RootCauseAnalysis/evaluation/test_bin/lua-5.0/src/lua/lua.c:289
    53de:	48 8b 05 7b dc 02 00 	mov    0x2dc7b(%rip),%rax        # 33060 <L>
    53e5:	be ff ff ff ff       	mov    $0xffffffff,%esi
    53ea:	48 89 c7             	mov    %rax,%rdi
    53ed:	e8 47 11 00 00       	call   6539 <lua_tostring>
    53f2:	48 89 c2             	mov    %rax,%rdx
    53f5:	48 8b 05 64 dc 02 00 	mov    0x2dc64(%rip),%rax        # 33060 <L>
    53fc:	48 8d 0d 15 2e 02 00 	lea    0x22e15(%rip),%rcx        # 28218 <_IO_stdin_used+0x218>
    5403:	48 89 ce             	mov    %rcx,%rsi
    5406:	48 89 c7             	mov    %rax,%rdi
    5409:	b8 00 00 00 00       	mov    $0x0,%eax
    540e:	e8 ba 15 00 00       	call   69cd <lua_pushfstring>
    5413:	48 89 c2             	mov    %rax,%rdx
    5416:	48 8b 05 f3 db 02 00 	mov    0x2dbf3(%rip),%rax        # 33010 <progname>
    541d:	48 89 d6             	mov    %rdx,%rsi
    5420:	48 89 c7             	mov    %rax,%rdi
    5423:	e8 9f f7 ff ff       	call   4bc7 <l_message>
/home/tenebris/Documents/RootCauseAnalysis/evaluation/test_bin/lua-5.0/src/lua/lua.c:282
    5428:	e8 5a fd ff ff       	call   5187 <load_string>
    542d:	89 45 f4             	mov    %eax,-0xc(%rbp)
    5430:	83 7d f4 ff          	cmpl   $0xffffffff,-0xc(%rbp)
    5434:	0f 85 f1 fe ff ff    	jne    532b <manual_input+0x27>
/home/tenebris/Documents/RootCauseAnalysis/evaluation/test_bin/lua-5.0/src/lua/lua.c:293
    543a:	48 8b 05 1f dc 02 00 	mov    0x2dc1f(%rip),%rax        # 33060 <L>
    5441:	be 00 00 00 00       	mov    $0x0,%esi
    5446:	48 89 c7             	mov    %rax,%rdi
    5449:	e8 11 0a 00 00       	call   5e5f <lua_settop>
/home/tenebris/Documents/RootCauseAnalysis/evaluation/test_bin/lua-5.0/src/lua/lua.c:294
    544e:	48 8b 05 cb db 02 00 	mov    0x2dbcb(%rip),%rax        # 33020 <stdout@GLIBC_2.2.5>
    5455:	48 89 c6             	mov    %rax,%rsi
    5458:	bf 0a 00 00 00       	mov    $0xa,%edi
    545d:	e8 8e f2 ff ff       	call   46f0 <fputc@plt>
/home/tenebris/Documents/RootCauseAnalysis/evaluation/test_bin/lua-5.0/src/lua/lua.c:295
    5462:	48 8b 45 f8          	mov    -0x8(%rbp),%rax
    5466:	48 89 05 a3 db 02 00 	mov    %rax,0x2dba3(%rip)        # 33010 <progname>
/home/tenebris/Documents/RootCauseAnalysis/evaluation/test_bin/lua-5.0/src/lua/lua.c:296
    546d:	90                   	nop
    546e:	c9                   	leave  
    546f:	c3                   	ret    

0000000000005470 <handle_argv>:
handle_argv():
/home/tenebris/Documents/RootCauseAnalysis/evaluation/test_bin/lua-5.0/src/lua/lua.c:299
    5470:	f3 0f 1e fa          	endbr64 
    5474:	55                   	push   %rbp
    5475:	48 89 e5             	mov    %rsp,%rbp
    5478:	48 83 ec 30          	sub    $0x30,%rsp
    547c:	48 89 7d d8          	mov    %rdi,-0x28(%rbp)
    5480:	48 89 75 d0          	mov    %rsi,-0x30(%rbp)
/home/tenebris/Documents/RootCauseAnalysis/evaluation/test_bin/lua-5.0/src/lua/lua.c:300
    5484:	48 8b 45 d8          	mov    -0x28(%rbp),%rax
    5488:	48 83 c0 08          	add    $0x8,%rax
    548c:	48 8b 00             	mov    (%rax),%rax
    548f:	48 85 c0             	test   %rax,%rax
    5492:	75 2c                	jne    54c0 <handle_argv+0x50>
/home/tenebris/Documents/RootCauseAnalysis/evaluation/test_bin/lua-5.0/src/lua/lua.c:301
    5494:	bf 00 00 00 00       	mov    $0x0,%edi
    5499:	e8 32 f1 ff ff       	call   45d0 <isatty@plt>
    549e:	85 c0                	test   %eax,%eax
    54a0:	74 0f                	je     54b1 <handle_argv+0x41>
/home/tenebris/Documents/RootCauseAnalysis/evaluation/test_bin/lua-5.0/src/lua/lua.c:302
    54a2:	e8 c7 f8 ff ff       	call   4d6e <print_version>
/home/tenebris/Documents/RootCauseAnalysis/evaluation/test_bin/lua-5.0/src/lua/lua.c:303
    54a7:	e8 58 fe ff ff       	call   5304 <manual_input>
    54ac:	e9 12 03 00 00       	jmp    57c3 <handle_argv+0x353>
/home/tenebris/Documents/RootCauseAnalysis/evaluation/test_bin/lua-5.0/src/lua/lua.c:306
    54b1:	bf 00 00 00 00       	mov    $0x0,%edi
    54b6:	e8 17 fa ff ff       	call   4ed2 <file_input>
    54bb:	e9 03 03 00 00       	jmp    57c3 <handle_argv+0x353>
/home/tenebris/Documents/RootCauseAnalysis/evaluation/test_bin/lua-5.0/src/lua/lua.c:310
    54c0:	c7 45 e4 01 00 00 00 	movl   $0x1,-0x1c(%rbp)
    54c7:	e9 3d 02 00 00       	jmp    5709 <handle_argv+0x299>
/home/tenebris/Documents/RootCauseAnalysis/evaluation/test_bin/lua-5.0/src/lua/lua.c:311
    54cc:	8b 45 e4             	mov    -0x1c(%rbp),%eax
    54cf:	48 98                	cltq   
    54d1:	48 8d 14 c5 00 00 00 	lea    0x0(,%rax,8),%rdx
    54d8:	00 
    54d9:	48 8b 45 d8          	mov    -0x28(%rbp),%rax
    54dd:	48 01 d0             	add    %rdx,%rax
    54e0:	48 8b 00             	mov    (%rax),%rax
    54e3:	0f b6 00             	movzbl (%rax),%eax
    54e6:	3c 2d                	cmp    $0x2d,%al
    54e8:	0f 85 3d 02 00 00    	jne    572b <handle_argv+0x2bb>
/home/tenebris/Documents/RootCauseAnalysis/evaluation/test_bin/lua-5.0/src/lua/lua.c:312
    54ee:	8b 45 e4             	mov    -0x1c(%rbp),%eax
    54f1:	48 98                	cltq   
    54f3:	48 8d 14 c5 00 00 00 	lea    0x0(,%rax,8),%rdx
    54fa:	00 
    54fb:	48 8b 45 d8          	mov    -0x28(%rbp),%rax
    54ff:	48 01 d0             	add    %rdx,%rax
    5502:	48 8b 00             	mov    (%rax),%rax
    5505:	48 83 c0 01          	add    $0x1,%rax
    5509:	0f b6 00             	movzbl (%rax),%eax
    550c:	0f be c0             	movsbl %al,%eax
    550f:	83 f8 76             	cmp    $0x76,%eax
    5512:	0f 8f da 01 00 00    	jg     56f2 <handle_argv+0x282>
    5518:	83 f8 63             	cmp    $0x63,%eax
    551b:	7d 0e                	jge    552b <handle_argv+0xbb>
    551d:	85 c0                	test   %eax,%eax
    551f:	74 73                	je     5594 <handle_argv+0x124>
    5521:	83 f8 2d             	cmp    $0x2d,%eax
    5524:	74 34                	je     555a <handle_argv+0xea>
    5526:	e9 c7 01 00 00       	jmp    56f2 <handle_argv+0x282>
    552b:	83 e8 63             	sub    $0x63,%eax
    552e:	83 f8 13             	cmp    $0x13,%eax
    5531:	0f 87 bb 01 00 00    	ja     56f2 <handle_argv+0x282>
    5537:	89 c0                	mov    %eax,%eax
    5539:	48 8d 14 85 00 00 00 	lea    0x0(,%rax,4),%rdx
    5540:	00 
    5541:	48 8d 05 34 2d 02 00 	lea    0x22d34(%rip),%rax        # 2827c <_IO_stdin_used+0x27c>
    5548:	8b 04 02             	mov    (%rdx,%rax,1),%eax
    554b:	48 98                	cltq   
    554d:	48 8d 15 28 2d 02 00 	lea    0x22d28(%rip),%rdx        # 2827c <_IO_stdin_used+0x27c>
    5554:	48 01 d0             	add    %rdx,%rax
    5557:	3e ff e0             	notrack jmp *%rax
/home/tenebris/Documents/RootCauseAnalysis/evaluation/test_bin/lua-5.0/src/lua/lua.c:314
    555a:	8b 45 e4             	mov    -0x1c(%rbp),%eax
    555d:	48 98                	cltq   
    555f:	48 8d 14 c5 00 00 00 	lea    0x0(,%rax,8),%rdx
    5566:	00 
    5567:	48 8b 45 d8          	mov    -0x28(%rbp),%rax
    556b:	48 01 d0             	add    %rdx,%rax
    556e:	48 8b 00             	mov    (%rax),%rax
    5571:	48 83 c0 02          	add    $0x2,%rax
    5575:	0f b6 00             	movzbl (%rax),%eax
    5578:	84 c0                	test   %al,%al
    557a:	74 0f                	je     558b <handle_argv+0x11b>
/home/tenebris/Documents/RootCauseAnalysis/evaluation/test_bin/lua-5.0/src/lua/lua.c:315
    557c:	e8 16 f6 ff ff       	call   4b97 <print_usage>
/home/tenebris/Documents/RootCauseAnalysis/evaluation/test_bin/lua-5.0/src/lua/lua.c:316
    5581:	b8 01 00 00 00       	mov    $0x1,%eax
    5586:	e9 3d 02 00 00       	jmp    57c8 <handle_argv+0x358>
/home/tenebris/Documents/RootCauseAnalysis/evaluation/test_bin/lua-5.0/src/lua/lua.c:318
    558b:	83 45 e4 01          	addl   $0x1,-0x1c(%rbp)
/home/tenebris/Documents/RootCauseAnalysis/evaluation/test_bin/lua-5.0/src/lua/lua.c:319
    558f:	e9 98 01 00 00       	jmp    572c <handle_argv+0x2bc>
/home/tenebris/Documents/RootCauseAnalysis/evaluation/test_bin/lua-5.0/src/lua/lua.c:322
    5594:	bf 00 00 00 00       	mov    $0x0,%edi
    5599:	e8 34 f9 ff ff       	call   4ed2 <file_input>
/home/tenebris/Documents/RootCauseAnalysis/evaluation/test_bin/lua-5.0/src/lua/lua.c:323
    559e:	e9 62 01 00 00       	jmp    5705 <handle_argv+0x295>
/home/tenebris/Documents/RootCauseAnalysis/evaluation/test_bin/lua-5.0/src/lua/lua.c:326
    55a3:	48 8b 45 d0          	mov    -0x30(%rbp),%rax
    55a7:	c7 00 01 00 00 00    	movl   $0x1,(%rax)
/home/tenebris/Documents/RootCauseAnalysis/evaluation/test_bin/lua-5.0/src/lua/lua.c:327
    55ad:	e9 53 01 00 00       	jmp    5705 <handle_argv+0x295>
/home/tenebris/Documents/RootCauseAnalysis/evaluation/test_bin/lua-5.0/src/lua/lua.c:330
    55b2:	e8 b7 f7 ff ff       	call   4d6e <print_version>
/home/tenebris/Documents/RootCauseAnalysis/evaluation/test_bin/lua-5.0/src/lua/lua.c:331
    55b7:	e9 49 01 00 00       	jmp    5705 <handle_argv+0x295>
/home/tenebris/Documents/RootCauseAnalysis/evaluation/test_bin/lua-5.0/src/lua/lua.c:334
    55bc:	8b 45 e4             	mov    -0x1c(%rbp),%eax
    55bf:	48 98                	cltq   
    55c1:	48 8d 14 c5 00 00 00 	lea    0x0(,%rax,8),%rdx
    55c8:	00 
    55c9:	48 8b 45 d8          	mov    -0x28(%rbp),%rax
    55cd:	48 01 d0             	add    %rdx,%rax
    55d0:	48 8b 00             	mov    (%rax),%rax
    55d3:	48 83 c0 02          	add    $0x2,%rax
    55d7:	48 89 45 e8          	mov    %rax,-0x18(%rbp)
/home/tenebris/Documents/RootCauseAnalysis/evaluation/test_bin/lua-5.0/src/lua/lua.c:335
    55db:	48 8b 45 e8          	mov    -0x18(%rbp),%rax
    55df:	0f b6 00             	movzbl (%rax),%eax
    55e2:	84 c0                	test   %al,%al
    55e4:	75 1f                	jne    5605 <handle_argv+0x195>
/home/tenebris/Documents/RootCauseAnalysis/evaluation/test_bin/lua-5.0/src/lua/lua.c:335 (discriminator 1)
    55e6:	83 45 e4 01          	addl   $0x1,-0x1c(%rbp)
    55ea:	8b 45 e4             	mov    -0x1c(%rbp),%eax
    55ed:	48 98                	cltq   
    55ef:	48 8d 14 c5 00 00 00 	lea    0x0(,%rax,8),%rdx
    55f6:	00 
    55f7:	48 8b 45 d8          	mov    -0x28(%rbp),%rax
    55fb:	48 01 d0             	add    %rdx,%rax
    55fe:	48 8b 00             	mov    (%rax),%rax
    5601:	48 89 45 e8          	mov    %rax,-0x18(%rbp)
/home/tenebris/Documents/RootCauseAnalysis/evaluation/test_bin/lua-5.0/src/lua/lua.c:336
    5605:	48 83 7d e8 00       	cmpq   $0x0,-0x18(%rbp)
    560a:	75 0f                	jne    561b <handle_argv+0x1ab>
/home/tenebris/Documents/RootCauseAnalysis/evaluation/test_bin/lua-5.0/src/lua/lua.c:337
    560c:	e8 86 f5 ff ff       	call   4b97 <print_usage>
/home/tenebris/Documents/RootCauseAnalysis/evaluation/test_bin/lua-5.0/src/lua/lua.c:338
    5611:	b8 01 00 00 00       	mov    $0x1,%eax
    5616:	e9 ad 01 00 00       	jmp    57c8 <handle_argv+0x358>
/home/tenebris/Documents/RootCauseAnalysis/evaluation/test_bin/lua-5.0/src/lua/lua.c:340
    561b:	48 8b 45 e8          	mov    -0x18(%rbp),%rax
    561f:	48 8d 15 0d 2c 02 00 	lea    0x22c0d(%rip),%rdx        # 28233 <_IO_stdin_used+0x233>
    5626:	48 89 d6             	mov    %rdx,%rsi
    5629:	48 89 c7             	mov    %rax,%rdi
    562c:	e8 d0 f8 ff ff       	call   4f01 <dostring>
    5631:	85 c0                	test   %eax,%eax
    5633:	0f 84 c8 00 00 00    	je     5701 <handle_argv+0x291>
/home/tenebris/Documents/RootCauseAnalysis/evaluation/test_bin/lua-5.0/src/lua/lua.c:341
    5639:	b8 01 00 00 00       	mov    $0x1,%eax
    563e:	e9 85 01 00 00       	jmp    57c8 <handle_argv+0x358>
/home/tenebris/Documents/RootCauseAnalysis/evaluation/test_bin/lua-5.0/src/lua/lua.c:345
    5643:	8b 45 e4             	mov    -0x1c(%rbp),%eax
    5646:	48 98                	cltq   
    5648:	48 8d 14 c5 00 00 00 	lea    0x0(,%rax,8),%rdx
    564f:	00 
    5650:	48 8b 45 d8          	mov    -0x28(%rbp),%rax
    5654:	48 01 d0             	add    %rdx,%rax
    5657:	48 8b 00             	mov    (%rax),%rax
    565a:	48 83 c0 02          	add    $0x2,%rax
    565e:	48 89 45 f0          	mov    %rax,-0x10(%rbp)
/home/tenebris/Documents/RootCauseAnalysis/evaluation/test_bin/lua-5.0/src/lua/lua.c:346
    5662:	48 8b 45 f0          	mov    -0x10(%rbp),%rax
    5666:	0f b6 00             	movzbl (%rax),%eax
    5669:	84 c0                	test   %al,%al
    566b:	75 1f                	jne    568c <handle_argv+0x21c>
/home/tenebris/Documents/RootCauseAnalysis/evaluation/test_bin/lua-5.0/src/lua/lua.c:346 (discriminator 1)
    566d:	83 45 e4 01          	addl   $0x1,-0x1c(%rbp)
    5671:	8b 45 e4             	mov    -0x1c(%rbp),%eax
    5674:	48 98                	cltq   
    5676:	48 8d 14 c5 00 00 00 	lea    0x0(,%rax,8),%rdx
    567d:	00 
    567e:	48 8b 45 d8          	mov    -0x28(%rbp),%rax
    5682:	48 01 d0             	add    %rdx,%rax
    5685:	48 8b 00             	mov    (%rax),%rax
    5688:	48 89 45 f0          	mov    %rax,-0x10(%rbp)
/home/tenebris/Documents/RootCauseAnalysis/evaluation/test_bin/lua-5.0/src/lua/lua.c:347
    568c:	48 83 7d f0 00       	cmpq   $0x0,-0x10(%rbp)
    5691:	75 0f                	jne    56a2 <handle_argv+0x232>
/home/tenebris/Documents/RootCauseAnalysis/evaluation/test_bin/lua-5.0/src/lua/lua.c:348
    5693:	e8 ff f4 ff ff       	call   4b97 <print_usage>
/home/tenebris/Documents/RootCauseAnalysis/evaluation/test_bin/lua-5.0/src/lua/lua.c:349
    5698:	b8 01 00 00 00       	mov    $0x1,%eax
    569d:	e9 26 01 00 00       	jmp    57c8 <handle_argv+0x358>
/home/tenebris/Documents/RootCauseAnalysis/evaluation/test_bin/lua-5.0/src/lua/lua.c:351
    56a2:	48 8b 45 f0          	mov    -0x10(%rbp),%rax
    56a6:	48 89 c7             	mov    %rax,%rdi
    56a9:	e8 9c f8 ff ff       	call   4f4a <load_file>
    56ae:	85 c0                	test   %eax,%eax
    56b0:	74 52                	je     5704 <handle_argv+0x294>
/home/tenebris/Documents/RootCauseAnalysis/evaluation/test_bin/lua-5.0/src/lua/lua.c:352
    56b2:	b8 01 00 00 00       	mov    $0x1,%eax
    56b7:	e9 0c 01 00 00       	jmp    57c8 <handle_argv+0x358>
/home/tenebris/Documents/RootCauseAnalysis/evaluation/test_bin/lua-5.0/src/lua/lua.c:356
    56bc:	48 8b 05 4d d9 02 00 	mov    0x2d94d(%rip),%rax        # 33010 <progname>
    56c3:	48 8d 15 79 2b 02 00 	lea    0x22b79(%rip),%rdx        # 28243 <_IO_stdin_used+0x243>
    56ca:	48 89 d6             	mov    %rdx,%rsi
    56cd:	48 89 c7             	mov    %rax,%rdi
    56d0:	e8 f2 f4 ff ff       	call   4bc7 <l_message>
/home/tenebris/Documents/RootCauseAnalysis/evaluation/test_bin/lua-5.0/src/lua/lua.c:357
    56d5:	eb 2e                	jmp    5705 <handle_argv+0x295>
/home/tenebris/Documents/RootCauseAnalysis/evaluation/test_bin/lua-5.0/src/lua/lua.c:360
    56d7:	48 8b 05 32 d9 02 00 	mov    0x2d932(%rip),%rax        # 33010 <progname>
    56de:	48 8d 15 78 2b 02 00 	lea    0x22b78(%rip),%rdx        # 2825d <_IO_stdin_used+0x25d>
    56e5:	48 89 d6             	mov    %rdx,%rsi
    56e8:	48 89 c7             	mov    %rax,%rdi
    56eb:	e8 d7 f4 ff ff       	call   4bc7 <l_message>
/home/tenebris/Documents/RootCauseAnalysis/evaluation/test_bin/lua-5.0/src/lua/lua.c:361
    56f0:	eb 13                	jmp    5705 <handle_argv+0x295>
/home/tenebris/Documents/RootCauseAnalysis/evaluation/test_bin/lua-5.0/src/lua/lua.c:364
    56f2:	e8 a0 f4 ff ff       	call   4b97 <print_usage>
/home/tenebris/Documents/RootCauseAnalysis/evaluation/test_bin/lua-5.0/src/lua/lua.c:365
    56f7:	b8 01 00 00 00       	mov    $0x1,%eax
    56fc:	e9 c7 00 00 00       	jmp    57c8 <handle_argv+0x358>
/home/tenebris/Documents/RootCauseAnalysis/evaluation/test_bin/lua-5.0/src/lua/lua.c:342
    5701:	90                   	nop
    5702:	eb 01                	jmp    5705 <handle_argv+0x295>
/home/tenebris/Documents/RootCauseAnalysis/evaluation/test_bin/lua-5.0/src/lua/lua.c:353
    5704:	90                   	nop
/home/tenebris/Documents/RootCauseAnalysis/evaluation/test_bin/lua-5.0/src/lua/lua.c:310 (discriminator 2)
    5705:	83 45 e4 01          	addl   $0x1,-0x1c(%rbp)
/home/tenebris/Documents/RootCauseAnalysis/evaluation/test_bin/lua-5.0/src/lua/lua.c:310 (discriminator 1)
    5709:	8b 45 e4             	mov    -0x1c(%rbp),%eax
    570c:	48 98                	cltq   
    570e:	48 8d 14 c5 00 00 00 	lea    0x0(,%rax,8),%rdx
    5715:	00 
    5716:	48 8b 45 d8          	mov    -0x28(%rbp),%rax
    571a:	48 01 d0             	add    %rdx,%rax
    571d:	48 8b 00             	mov    (%rax),%rax
    5720:	48 85 c0             	test   %rax,%rax
    5723:	0f 85 a3 fd ff ff    	jne    54cc <handle_argv+0x5c>
/home/tenebris/Documents/RootCauseAnalysis/evaluation/test_bin/lua-5.0/src/lua/lua.c:368
    5729:	eb 01                	jmp    572c <handle_argv+0x2bc>
/home/tenebris/Documents/RootCauseAnalysis/evaluation/test_bin/lua-5.0/src/lua/lua.c:311
    572b:	90                   	nop
/home/tenebris/Documents/RootCauseAnalysis/evaluation/test_bin/lua-5.0/src/lua/lua.c:369
    572c:	8b 45 e4             	mov    -0x1c(%rbp),%eax
    572f:	48 98                	cltq   
    5731:	48 8d 14 c5 00 00 00 	lea    0x0(,%rax,8),%rdx
    5738:	00 
    5739:	48 8b 45 d8          	mov    -0x28(%rbp),%rax
    573d:	48 01 d0             	add    %rdx,%rax
    5740:	48 8b 00             	mov    (%rax),%rax
    5743:	48 85 c0             	test   %rax,%rax
    5746:	74 7b                	je     57c3 <handle_argv+0x353>
/home/tenebris/Documents/RootCauseAnalysis/evaluation/test_bin/lua-5.0/src/lua/lua.c:370
    5748:	8b 45 e4             	mov    -0x1c(%rbp),%eax
    574b:	48 98                	cltq   
    574d:	48 8d 14 c5 00 00 00 	lea    0x0(,%rax,8),%rdx
    5754:	00 
    5755:	48 8b 45 d8          	mov    -0x28(%rbp),%rax
    5759:	48 01 d0             	add    %rdx,%rax
    575c:	48 8b 00             	mov    (%rax),%rax
    575f:	48 89 45 f8          	mov    %rax,-0x8(%rbp)
/home/tenebris/Documents/RootCauseAnalysis/evaluation/test_bin/lua-5.0/src/lua/lua.c:371
    5763:	8b 55 e4             	mov    -0x1c(%rbp),%edx
    5766:	48 8b 45 d8          	mov    -0x28(%rbp),%rax
    576a:	89 d6                	mov    %edx,%esi
    576c:	48 89 c7             	mov    %rax,%rdi
    576f:	e8 19 f6 ff ff       	call   4d8d <getargs>
/home/tenebris/Documents/RootCauseAnalysis/evaluation/test_bin/lua-5.0/src/lua/lua.c:372
    5774:	48 8b 05 e5 d8 02 00 	mov    0x2d8e5(%rip),%rax        # 33060 <L>
    577b:	48 8d 15 f5 2a 02 00 	lea    0x22af5(%rip),%rdx        # 28277 <_IO_stdin_used+0x277>
    5782:	48 89 d6             	mov    %rdx,%rsi
    5785:	48 89 c7             	mov    %rax,%rdi
    5788:	e8 90 11 00 00       	call   691d <lua_pushstring>
    578d:	48 8b 05 cc d8 02 00 	mov    0x2d8cc(%rip),%rax        # 33060 <L>
    5794:	be fe ff ff ff       	mov    $0xfffffffe,%esi
    5799:	48 89 c7             	mov    %rax,%rdi
    579c:	e8 d5 07 00 00       	call   5f76 <lua_insert>
    57a1:	48 8b 05 b8 d8 02 00 	mov    0x2d8b8(%rip),%rax        # 33060 <L>
    57a8:	be ef d8 ff ff       	mov    $0xffffd8ef,%esi
    57ad:	48 89 c7             	mov    %rax,%rdi
    57b0:	e8 46 18 00 00       	call   6ffb <lua_settable>
/home/tenebris/Documents/RootCauseAnalysis/evaluation/test_bin/lua-5.0/src/lua/lua.c:373
    57b5:	48 8b 45 f8          	mov    -0x8(%rbp),%rax
    57b9:	48 89 c7             	mov    %rax,%rdi
    57bc:	e8 11 f7 ff ff       	call   4ed2 <file_input>
    57c1:	eb 05                	jmp    57c8 <handle_argv+0x358>
/home/tenebris/Documents/RootCauseAnalysis/evaluation/test_bin/lua-5.0/src/lua/lua.c:376
    57c3:	b8 00 00 00 00       	mov    $0x0,%eax
/home/tenebris/Documents/RootCauseAnalysis/evaluation/test_bin/lua-5.0/src/lua/lua.c:377
    57c8:	c9                   	leave  
    57c9:	c3                   	ret    

00000000000057ca <openstdlibs>:
openstdlibs():
/home/tenebris/Documents/RootCauseAnalysis/evaluation/test_bin/lua-5.0/src/lua/lua.c:380
    57ca:	f3 0f 1e fa          	endbr64 
    57ce:	55                   	push   %rbp
    57cf:	48 89 e5             	mov    %rsp,%rbp
    57d2:	48 83 ec 20          	sub    $0x20,%rsp
    57d6:	48 89 7d e8          	mov    %rdi,-0x18(%rbp)
/home/tenebris/Documents/RootCauseAnalysis/evaluation/test_bin/lua-5.0/src/lua/lua.c:381
    57da:	48 8d 05 df d2 02 00 	lea    0x2d2df(%rip),%rax        # 32ac0 <lualibs>
    57e1:	48 89 45 f8          	mov    %rax,-0x8(%rbp)
/home/tenebris/Documents/RootCauseAnalysis/evaluation/test_bin/lua-5.0/src/lua/lua.c:382
    57e5:	eb 27                	jmp    580e <openstdlibs+0x44>
/home/tenebris/Documents/RootCauseAnalysis/evaluation/test_bin/lua-5.0/src/lua/lua.c:383 (discriminator 2)
    57e7:	48 8b 45 f8          	mov    -0x8(%rbp),%rax
    57eb:	48 8b 50 08          	mov    0x8(%rax),%rdx
    57ef:	48 8b 45 e8          	mov    -0x18(%rbp),%rax
    57f3:	48 89 c7             	mov    %rax,%rdi
    57f6:	ff d2                	call   *%rdx
/home/tenebris/Documents/RootCauseAnalysis/evaluation/test_bin/lua-5.0/src/lua/lua.c:384 (discriminator 2)
    57f8:	48 8b 45 e8          	mov    -0x18(%rbp),%rax
    57fc:	be 00 00 00 00       	mov    $0x0,%esi
    5801:	48 89 c7             	mov    %rax,%rdi
    5804:	e8 56 06 00 00       	call   5e5f <lua_settop>
/home/tenebris/Documents/RootCauseAnalysis/evaluation/test_bin/lua-5.0/src/lua/lua.c:382 (discriminator 2)
    5809:	48 83 45 f8 10       	addq   $0x10,-0x8(%rbp)
/home/tenebris/Documents/RootCauseAnalysis/evaluation/test_bin/lua-5.0/src/lua/lua.c:382 (discriminator 1)
    580e:	48 8b 45 f8          	mov    -0x8(%rbp),%rax
    5812:	48 8b 40 08          	mov    0x8(%rax),%rax
    5816:	48 85 c0             	test   %rax,%rax
    5819:	75 cc                	jne    57e7 <openstdlibs+0x1d>
/home/tenebris/Documents/RootCauseAnalysis/evaluation/test_bin/lua-5.0/src/lua/lua.c:386
    581b:	90                   	nop
    581c:	90                   	nop
    581d:	c9                   	leave  
    581e:	c3                   	ret    

000000000000581f <handle_luainit>:
handle_luainit():
/home/tenebris/Documents/RootCauseAnalysis/evaluation/test_bin/lua-5.0/src/lua/lua.c:389
    581f:	f3 0f 1e fa          	endbr64 
    5823:	55                   	push   %rbp
    5824:	48 89 e5             	mov    %rsp,%rbp
    5827:	48 83 ec 10          	sub    $0x10,%rsp
/home/tenebris/Documents/RootCauseAnalysis/evaluation/test_bin/lua-5.0/src/lua/lua.c:390
    582b:	48 8d 05 9a 2a 02 00 	lea    0x22a9a(%rip),%rax        # 282cc <_IO_stdin_used+0x2cc>
    5832:	48 89 c7             	mov    %rax,%rdi
    5835:	e8 f6 ec ff ff       	call   4530 <getenv@plt>
    583a:	48 89 45 f8          	mov    %rax,-0x8(%rbp)
/home/tenebris/Documents/RootCauseAnalysis/evaluation/test_bin/lua-5.0/src/lua/lua.c:391
    583e:	48 83 7d f8 00       	cmpq   $0x0,-0x8(%rbp)
    5843:	75 07                	jne    584c <handle_luainit+0x2d>
/home/tenebris/Documents/RootCauseAnalysis/evaluation/test_bin/lua-5.0/src/lua/lua.c:391 (discriminator 1)
    5845:	b8 00 00 00 00       	mov    $0x0,%eax
    584a:	eb 33                	jmp    587f <handle_luainit+0x60>
/home/tenebris/Documents/RootCauseAnalysis/evaluation/test_bin/lua-5.0/src/lua/lua.c:392
    584c:	48 8b 45 f8          	mov    -0x8(%rbp),%rax
    5850:	0f b6 00             	movzbl (%rax),%eax
    5853:	3c 40                	cmp    $0x40,%al
    5855:	75 12                	jne    5869 <handle_luainit+0x4a>
/home/tenebris/Documents/RootCauseAnalysis/evaluation/test_bin/lua-5.0/src/lua/lua.c:393
    5857:	48 8b 45 f8          	mov    -0x8(%rbp),%rax
    585b:	48 83 c0 01          	add    $0x1,%rax
    585f:	48 89 c7             	mov    %rax,%rdi
    5862:	e8 6b f6 ff ff       	call   4ed2 <file_input>
    5867:	eb 16                	jmp    587f <handle_luainit+0x60>
/home/tenebris/Documents/RootCauseAnalysis/evaluation/test_bin/lua-5.0/src/lua/lua.c:395
    5869:	48 8b 45 f8          	mov    -0x8(%rbp),%rax
    586d:	48 8d 15 61 2a 02 00 	lea    0x22a61(%rip),%rdx        # 282d5 <_IO_stdin_used+0x2d5>
    5874:	48 89 d6             	mov    %rdx,%rsi
    5877:	48 89 c7             	mov    %rax,%rdi
    587a:	e8 82 f6 ff ff       	call   4f01 <dostring>
/home/tenebris/Documents/RootCauseAnalysis/evaluation/test_bin/lua-5.0/src/lua/lua.c:396
    587f:	c9                   	leave  
    5880:	c3                   	ret    

0000000000005881 <pmain>:
pmain():
/home/tenebris/Documents/RootCauseAnalysis/evaluation/test_bin/lua-5.0/src/lua/lua.c:406
    5881:	f3 0f 1e fa          	endbr64 
    5885:	55                   	push   %rbp
    5886:	48 89 e5             	mov    %rsp,%rbp
    5889:	48 83 ec 30          	sub    $0x30,%rsp
    588d:	48 89 7d d8          	mov    %rdi,-0x28(%rbp)
    5891:	64 48 8b 04 25 28 00 	mov    %fs:0x28,%rax
    5898:	00 00 
    589a:	48 89 45 f8          	mov    %rax,-0x8(%rbp)
    589e:	31 c0                	xor    %eax,%eax
/home/tenebris/Documents/RootCauseAnalysis/evaluation/test_bin/lua-5.0/src/lua/lua.c:407
    58a0:	48 8b 45 d8          	mov    -0x28(%rbp),%rax
    58a4:	be 01 00 00 00       	mov    $0x1,%esi
    58a9:	48 89 c7             	mov    %rax,%rdi
    58ac:	e8 16 0e 00 00       	call   66c7 <lua_touserdata>
    58b1:	48 89 45 f0          	mov    %rax,-0x10(%rbp)
/home/tenebris/Documents/RootCauseAnalysis/evaluation/test_bin/lua-5.0/src/lua/lua.c:409
    58b5:	c7 45 e8 00 00 00 00 	movl   $0x0,-0x18(%rbp)
/home/tenebris/Documents/RootCauseAnalysis/evaluation/test_bin/lua-5.0/src/lua/lua.c:410
    58bc:	48 8b 45 f0          	mov    -0x10(%rbp),%rax
    58c0:	48 8b 40 08          	mov    0x8(%rax),%rax
    58c4:	48 8b 00             	mov    (%rax),%rax
    58c7:	48 85 c0             	test   %rax,%rax
    58ca:	74 24                	je     58f0 <pmain+0x6f>
/home/tenebris/Documents/RootCauseAnalysis/evaluation/test_bin/lua-5.0/src/lua/lua.c:410 (discriminator 1)
    58cc:	48 8b 45 f0          	mov    -0x10(%rbp),%rax
    58d0:	48 8b 40 08          	mov    0x8(%rax),%rax
    58d4:	48 8b 00             	mov    (%rax),%rax
    58d7:	0f b6 00             	movzbl (%rax),%eax
    58da:	84 c0                	test   %al,%al
    58dc:	74 12                	je     58f0 <pmain+0x6f>
/home/tenebris/Documents/RootCauseAnalysis/evaluation/test_bin/lua-5.0/src/lua/lua.c:410 (discriminator 2)
    58de:	48 8b 45 f0          	mov    -0x10(%rbp),%rax
    58e2:	48 8b 40 08          	mov    0x8(%rax),%rax
    58e6:	48 8b 00             	mov    (%rax),%rax
    58e9:	48 89 05 20 d7 02 00 	mov    %rax,0x2d720(%rip)        # 33010 <progname>
/home/tenebris/Documents/RootCauseAnalysis/evaluation/test_bin/lua-5.0/src/lua/lua.c:411
    58f0:	48 8b 45 d8          	mov    -0x28(%rbp),%rax
    58f4:	48 89 05 65 d7 02 00 	mov    %rax,0x2d765(%rip)        # 33060 <L>
/home/tenebris/Documents/RootCauseAnalysis/evaluation/test_bin/lua-5.0/src/lua/lua.c:412
    58fb:	48 8b 45 d8          	mov    -0x28(%rbp),%rax
    58ff:	48 89 c7             	mov    %rax,%rdi
    5902:	e8 c3 fe ff ff       	call   57ca <openstdlibs>
/home/tenebris/Documents/RootCauseAnalysis/evaluation/test_bin/lua-5.0/src/lua/lua.c:413
    5907:	e8 13 ff ff ff       	call   581f <handle_luainit>
    590c:	89 45 ec             	mov    %eax,-0x14(%rbp)
/home/tenebris/Documents/RootCauseAnalysis/evaluation/test_bin/lua-5.0/src/lua/lua.c:414
    590f:	83 7d ec 00          	cmpl   $0x0,-0x14(%rbp)
    5913:	75 2c                	jne    5941 <pmain+0xc0>
/home/tenebris/Documents/RootCauseAnalysis/evaluation/test_bin/lua-5.0/src/lua/lua.c:415
    5915:	48 8b 45 f0          	mov    -0x10(%rbp),%rax
    5919:	48 8b 40 08          	mov    0x8(%rax),%rax
    591d:	48 8d 55 e8          	lea    -0x18(%rbp),%rdx
    5921:	48 89 d6             	mov    %rdx,%rsi
    5924:	48 89 c7             	mov    %rax,%rdi
    5927:	e8 44 fb ff ff       	call   5470 <handle_argv>
    592c:	89 45 ec             	mov    %eax,-0x14(%rbp)
/home/tenebris/Documents/RootCauseAnalysis/evaluation/test_bin/lua-5.0/src/lua/lua.c:416
    592f:	83 7d ec 00          	cmpl   $0x0,-0x14(%rbp)
    5933:	75 0c                	jne    5941 <pmain+0xc0>
/home/tenebris/Documents/RootCauseAnalysis/evaluation/test_bin/lua-5.0/src/lua/lua.c:416 (discriminator 1)
    5935:	8b 45 e8             	mov    -0x18(%rbp),%eax
    5938:	85 c0                	test   %eax,%eax
    593a:	74 05                	je     5941 <pmain+0xc0>
/home/tenebris/Documents/RootCauseAnalysis/evaluation/test_bin/lua-5.0/src/lua/lua.c:416 (discriminator 2)
    593c:	e8 c3 f9 ff ff       	call   5304 <manual_input>
/home/tenebris/Documents/RootCauseAnalysis/evaluation/test_bin/lua-5.0/src/lua/lua.c:418
    5941:	48 8b 45 f0          	mov    -0x10(%rbp),%rax
    5945:	8b 55 ec             	mov    -0x14(%rbp),%edx
    5948:	89 50 10             	mov    %edx,0x10(%rax)
/home/tenebris/Documents/RootCauseAnalysis/evaluation/test_bin/lua-5.0/src/lua/lua.c:419
    594b:	b8 00 00 00 00       	mov    $0x0,%eax
/home/tenebris/Documents/RootCauseAnalysis/evaluation/test_bin/lua-5.0/src/lua/lua.c:420
    5950:	48 8b 55 f8          	mov    -0x8(%rbp),%rdx
    5954:	64 48 2b 14 25 28 00 	sub    %fs:0x28,%rdx
    595b:	00 00 
    595d:	74 05                	je     5964 <pmain+0xe3>
    595f:	e8 ec ec ff ff       	call   4650 <__stack_chk_fail@plt>
    5964:	c9                   	leave  
    5965:	c3                   	ret    

0000000000005966 <main>:
main():
/home/tenebris/Documents/RootCauseAnalysis/evaluation/test_bin/lua-5.0/src/lua/lua.c:423
    5966:	f3 0f 1e fa          	endbr64 
    596a:	55                   	push   %rbp
    596b:	48 89 e5             	mov    %rsp,%rbp
    596e:	48 83 ec 40          	sub    $0x40,%rsp
    5972:	89 7d cc             	mov    %edi,-0x34(%rbp)
    5975:	48 89 75 c0          	mov    %rsi,-0x40(%rbp)
    5979:	64 48 8b 04 25 28 00 	mov    %fs:0x28,%rax
    5980:	00 00 
    5982:	48 89 45 f8          	mov    %rax,-0x8(%rbp)
    5986:	31 c0                	xor    %eax,%eax
/home/tenebris/Documents/RootCauseAnalysis/evaluation/test_bin/lua-5.0/src/lua/lua.c:426
    5988:	e8 50 c5 00 00       	call   11edd <lua_open>
    598d:	48 89 45 d8          	mov    %rax,-0x28(%rbp)
/home/tenebris/Documents/RootCauseAnalysis/evaluation/test_bin/lua-5.0/src/lua/lua.c:427
    5991:	48 83 7d d8 00       	cmpq   $0x0,-0x28(%rbp)
    5996:	75 20                	jne    59b8 <main+0x52>
/home/tenebris/Documents/RootCauseAnalysis/evaluation/test_bin/lua-5.0/src/lua/lua.c:428
    5998:	48 8b 45 c0          	mov    -0x40(%rbp),%rax
    599c:	48 8b 00             	mov    (%rax),%rax
    599f:	48 8d 15 3a 29 02 00 	lea    0x2293a(%rip),%rdx        # 282e0 <_IO_stdin_used+0x2e0>
    59a6:	48 89 d6             	mov    %rdx,%rsi
    59a9:	48 89 c7             	mov    %rax,%rdi
    59ac:	e8 16 f2 ff ff       	call   4bc7 <l_message>
/home/tenebris/Documents/RootCauseAnalysis/evaluation/test_bin/lua-5.0/src/lua/lua.c:429
    59b1:	b8 01 00 00 00       	mov    $0x1,%eax
    59b6:	eb 5a                	jmp    5a12 <main+0xac>
/home/tenebris/Documents/RootCauseAnalysis/evaluation/test_bin/lua-5.0/src/lua/lua.c:431
    59b8:	8b 45 cc             	mov    -0x34(%rbp),%eax
    59bb:	89 45 e0             	mov    %eax,-0x20(%rbp)
/home/tenebris/Documents/RootCauseAnalysis/evaluation/test_bin/lua-5.0/src/lua/lua.c:432
    59be:	48 8b 45 c0          	mov    -0x40(%rbp),%rax
    59c2:	48 89 45 e8          	mov    %rax,-0x18(%rbp)
/home/tenebris/Documents/RootCauseAnalysis/evaluation/test_bin/lua-5.0/src/lua/lua.c:433
    59c6:	48 8d 55 e0          	lea    -0x20(%rbp),%rdx
    59ca:	48 8b 45 d8          	mov    -0x28(%rbp),%rax
    59ce:	48 8d 0d ac fe ff ff 	lea    -0x154(%rip),%rcx        # 5881 <pmain>
    59d5:	48 89 ce             	mov    %rcx,%rsi
    59d8:	48 89 c7             	mov    %rax,%rdi
    59db:	e8 76 1b 00 00       	call   7556 <lua_cpcall>
    59e0:	89 45 d4             	mov    %eax,-0x2c(%rbp)
/home/tenebris/Documents/RootCauseAnalysis/evaluation/test_bin/lua-5.0/src/lua/lua.c:434
    59e3:	8b 45 d4             	mov    -0x2c(%rbp),%eax
    59e6:	89 c7                	mov    %eax,%edi
    59e8:	e8 3c f2 ff ff       	call   4c29 <report>
/home/tenebris/Documents/RootCauseAnalysis/evaluation/test_bin/lua-5.0/src/lua/lua.c:435
    59ed:	48 8b 45 d8          	mov    -0x28(%rbp),%rax
    59f1:	48 89 c7             	mov    %rax,%rdi
    59f4:	e8 aa c5 00 00       	call   11fa3 <lua_close>
/home/tenebris/Documents/RootCauseAnalysis/evaluation/test_bin/lua-5.0/src/lua/lua.c:436
    59f9:	83 7d d4 00          	cmpl   $0x0,-0x2c(%rbp)
    59fd:	75 07                	jne    5a06 <main+0xa0>
/home/tenebris/Documents/RootCauseAnalysis/evaluation/test_bin/lua-5.0/src/lua/lua.c:436 (discriminator 2)
    59ff:	8b 45 f0             	mov    -0x10(%rbp),%eax
    5a02:	85 c0                	test   %eax,%eax
    5a04:	74 07                	je     5a0d <main+0xa7>
/home/tenebris/Documents/RootCauseAnalysis/evaluation/test_bin/lua-5.0/src/lua/lua.c:436 (discriminator 3)
    5a06:	b8 01 00 00 00       	mov    $0x1,%eax
    5a0b:	eb 05                	jmp    5a12 <main+0xac>
/home/tenebris/Documents/RootCauseAnalysis/evaluation/test_bin/lua-5.0/src/lua/lua.c:436 (discriminator 4)
    5a0d:	b8 00 00 00 00       	mov    $0x0,%eax
/home/tenebris/Documents/RootCauseAnalysis/evaluation/test_bin/lua-5.0/src/lua/lua.c:437 (discriminator 1)
    5a12:	48 8b 55 f8          	mov    -0x8(%rbp),%rdx
    5a16:	64 48 2b 14 25 28 00 	sub    %fs:0x28,%rdx
    5a1d:	00 00 
    5a1f:	74 05                	je     5a26 <main+0xc0>
/home/tenebris/Documents/RootCauseAnalysis/evaluation/test_bin/lua-5.0/src/lua/lua.c:437
    5a21:	e8 2a ec ff ff       	call   4650 <__stack_chk_fail@plt>
    5a26:	c9                   	leave  
    5a27:	c3                   	ret    

0000000000005a28 <negindex>:
negindex():
/home/tenebris/Documents/RootCauseAnalysis/evaluation/test_bin/lua-5.0/src/lapi.c:48
    5a28:	f3 0f 1e fa          	endbr64 
    5a2c:	55                   	push   %rbp
    5a2d:	48 89 e5             	mov    %rsp,%rbp
    5a30:	48 89 7d e8          	mov    %rdi,-0x18(%rbp)
    5a34:	89 75 e4             	mov    %esi,-0x1c(%rbp)
/home/tenebris/Documents/RootCauseAnalysis/evaluation/test_bin/lua-5.0/src/lapi.c:49
    5a37:	81 7d e4 f1 d8 ff ff 	cmpl   $0xffffd8f1,-0x1c(%rbp)
    5a3e:	7c 16                	jl     5a56 <negindex+0x2e>
/home/tenebris/Documents/RootCauseAnalysis/evaluation/test_bin/lua-5.0/src/lapi.c:51
    5a40:	48 8b 45 e8          	mov    -0x18(%rbp),%rax
    5a44:	48 8b 50 10          	mov    0x10(%rax),%rdx
    5a48:	8b 45 e4             	mov    -0x1c(%rbp),%eax
    5a4b:	48 98                	cltq   
    5a4d:	48 c1 e0 04          	shl    $0x4,%rax
    5a51:	48 01 d0             	add    %rdx,%rax
    5a54:	eb 7b                	jmp    5ad1 <negindex+0xa9>
/home/tenebris/Documents/RootCauseAnalysis/evaluation/test_bin/lua-5.0/src/lapi.c:53
    5a56:	81 7d e4 ef d8 ff ff 	cmpl   $0xffffd8ef,-0x1c(%rbp)
    5a5d:	74 17                	je     5a76 <negindex+0x4e>
    5a5f:	81 7d e4 f0 d8 ff ff 	cmpl   $0xffffd8f0,-0x1c(%rbp)
    5a66:	75 18                	jne    5a80 <negindex+0x58>
/home/tenebris/Documents/RootCauseAnalysis/evaluation/test_bin/lua-5.0/src/lapi.c:54
    5a68:	48 8b 45 e8          	mov    -0x18(%rbp),%rax
    5a6c:	48 8b 40 20          	mov    0x20(%rax),%rax
    5a70:	48 83 c0 58          	add    $0x58,%rax
    5a74:	eb 5b                	jmp    5ad1 <negindex+0xa9>
/home/tenebris/Documents/RootCauseAnalysis/evaluation/test_bin/lua-5.0/src/lapi.c:55
    5a76:	48 8b 45 e8          	mov    -0x18(%rbp),%rax
    5a7a:	48 83 c0 70          	add    $0x70,%rax
    5a7e:	eb 51                	jmp    5ad1 <negindex+0xa9>
/home/tenebris/Documents/RootCauseAnalysis/evaluation/test_bin/lua-5.0/src/lapi.c:57
    5a80:	48 8b 45 e8          	mov    -0x18(%rbp),%rax
    5a84:	48 8b 40 18          	mov    0x18(%rax),%rax
    5a88:	48 83 e8 10          	sub    $0x10,%rax
    5a8c:	48 89 45 f8          	mov    %rax,-0x8(%rbp)
/home/tenebris/Documents/RootCauseAnalysis/evaluation/test_bin/lua-5.0/src/lapi.c:58
    5a90:	b8 ef d8 ff ff       	mov    $0xffffd8ef,%eax
    5a95:	2b 45 e4             	sub    -0x1c(%rbp),%eax
    5a98:	89 45 e4             	mov    %eax,-0x1c(%rbp)
/home/tenebris/Documents/RootCauseAnalysis/evaluation/test_bin/lua-5.0/src/lapi.c:60
    5a9b:	48 8b 45 f8          	mov    -0x8(%rbp),%rax
    5a9f:	48 8b 40 08          	mov    0x8(%rax),%rax
    5aa3:	0f b6 40 0b          	movzbl 0xb(%rax),%eax
    5aa7:	0f b6 c0             	movzbl %al,%eax
/home/tenebris/Documents/RootCauseAnalysis/evaluation/test_bin/lua-5.0/src/lapi.c:62
    5aaa:	39 45 e4             	cmp    %eax,-0x1c(%rbp)
    5aad:	7f 1d                	jg     5acc <negindex+0xa4>
/home/tenebris/Documents/RootCauseAnalysis/evaluation/test_bin/lua-5.0/src/lapi.c:61 (discriminator 1)
    5aaf:	48 8b 45 f8          	mov    -0x8(%rbp),%rax
    5ab3:	48 8b 50 08          	mov    0x8(%rax),%rdx
    5ab7:	8b 45 e4             	mov    -0x1c(%rbp),%eax
    5aba:	83 e8 01             	sub    $0x1,%eax
/home/tenebris/Documents/RootCauseAnalysis/evaluation/test_bin/lua-5.0/src/lapi.c:62 (discriminator 1)
    5abd:	48 98                	cltq   
    5abf:	48 83 c0 02          	add    $0x2,%rax
    5ac3:	48 c1 e0 04          	shl    $0x4,%rax
    5ac7:	48 01 d0             	add    %rdx,%rax
    5aca:	eb 05                	jmp    5ad1 <negindex+0xa9>
/home/tenebris/Documents/RootCauseAnalysis/evaluation/test_bin/lua-5.0/src/lapi.c:62 (discriminator 2)
    5acc:	b8 00 00 00 00       	mov    $0x0,%eax
/home/tenebris/Documents/RootCauseAnalysis/evaluation/test_bin/lua-5.0/src/lapi.c:65
    5ad1:	5d                   	pop    %rbp
    5ad2:	c3                   	ret    

0000000000005ad3 <luaA_index>:
luaA_index():
/home/tenebris/Documents/RootCauseAnalysis/evaluation/test_bin/lua-5.0/src/lapi.c:68
    5ad3:	f3 0f 1e fa          	endbr64 
    5ad7:	55                   	push   %rbp
    5ad8:	48 89 e5             	mov    %rsp,%rbp
    5adb:	48 83 ec 20          	sub    $0x20,%rsp
    5adf:	48 89 7d e8          	mov    %rdi,-0x18(%rbp)
    5ae3:	89 75 e4             	mov    %esi,-0x1c(%rbp)
/home/tenebris/Documents/RootCauseAnalysis/evaluation/test_bin/lua-5.0/src/lapi.c:69
    5ae6:	83 7d e4 00          	cmpl   $0x0,-0x1c(%rbp)
    5aea:	7e 1a                	jle    5b06 <luaA_index+0x33>
/home/tenebris/Documents/RootCauseAnalysis/evaluation/test_bin/lua-5.0/src/lapi.c:71
    5aec:	48 8b 45 e8          	mov    -0x18(%rbp),%rax
    5af0:	48 8b 50 18          	mov    0x18(%rax),%rdx
    5af4:	8b 45 e4             	mov    -0x1c(%rbp),%eax
    5af7:	48 98                	cltq   
    5af9:	48 c1 e0 04          	shl    $0x4,%rax
    5afd:	48 83 e8 10          	sub    $0x10,%rax
    5b01:	48 01 d0             	add    %rdx,%rax
    5b04:	eb 19                	jmp    5b1f <luaA_index+0x4c>
/home/tenebris/Documents/RootCauseAnalysis/evaluation/test_bin/lua-5.0/src/lapi.c:74
    5b06:	8b 55 e4             	mov    -0x1c(%rbp),%edx
    5b09:	48 8b 45 e8          	mov    -0x18(%rbp),%rax
    5b0d:	89 d6                	mov    %edx,%esi
    5b0f:	48 89 c7             	mov    %rax,%rdi
    5b12:	e8 11 ff ff ff       	call   5a28 <negindex>
    5b17:	48 89 45 f8          	mov    %rax,-0x8(%rbp)
/home/tenebris/Documents/RootCauseAnalysis/evaluation/test_bin/lua-5.0/src/lapi.c:76
    5b1b:	48 8b 45 f8          	mov    -0x8(%rbp),%rax
/home/tenebris/Documents/RootCauseAnalysis/evaluation/test_bin/lua-5.0/src/lapi.c:78
    5b1f:	c9                   	leave  
    5b20:	c3                   	ret    

0000000000005b21 <luaA_indexAcceptable>:
luaA_indexAcceptable():
/home/tenebris/Documents/RootCauseAnalysis/evaluation/test_bin/lua-5.0/src/lapi.c:81
    5b21:	f3 0f 1e fa          	endbr64 
    5b25:	55                   	push   %rbp
    5b26:	48 89 e5             	mov    %rsp,%rbp
    5b29:	48 83 ec 20          	sub    $0x20,%rsp
    5b2d:	48 89 7d e8          	mov    %rdi,-0x18(%rbp)
    5b31:	89 75 e4             	mov    %esi,-0x1c(%rbp)
/home/tenebris/Documents/RootCauseAnalysis/evaluation/test_bin/lua-5.0/src/lapi.c:82
    5b34:	83 7d e4 00          	cmpl   $0x0,-0x1c(%rbp)
    5b38:	7e 37                	jle    5b71 <luaA_indexAcceptable+0x50>
/home/tenebris/Documents/RootCauseAnalysis/evaluation/test_bin/lua-5.0/src/lapi.c:83
    5b3a:	48 8b 45 e8          	mov    -0x18(%rbp),%rax
    5b3e:	48 8b 50 18          	mov    0x18(%rax),%rdx
    5b42:	8b 45 e4             	mov    -0x1c(%rbp),%eax
    5b45:	48 98                	cltq   
    5b47:	48 c1 e0 04          	shl    $0x4,%rax
    5b4b:	48 83 e8 10          	sub    $0x10,%rax
    5b4f:	48 01 d0             	add    %rdx,%rax
    5b52:	48 89 45 f8          	mov    %rax,-0x8(%rbp)
/home/tenebris/Documents/RootCauseAnalysis/evaluation/test_bin/lua-5.0/src/lapi.c:85
    5b56:	48 8b 45 e8          	mov    -0x18(%rbp),%rax
    5b5a:	48 8b 40 10          	mov    0x10(%rax),%rax
    5b5e:	48 39 45 f8          	cmp    %rax,-0x8(%rbp)
    5b62:	72 07                	jb     5b6b <luaA_indexAcceptable+0x4a>
/home/tenebris/Documents/RootCauseAnalysis/evaluation/test_bin/lua-5.0/src/lapi.c:85 (discriminator 1)
    5b64:	b8 00 00 00 00       	mov    $0x0,%eax
    5b69:	eb 17                	jmp    5b82 <luaA_indexAcceptable+0x61>
/home/tenebris/Documents/RootCauseAnalysis/evaluation/test_bin/lua-5.0/src/lapi.c:86
    5b6b:	48 8b 45 f8          	mov    -0x8(%rbp),%rax
    5b6f:	eb 11                	jmp    5b82 <luaA_indexAcceptable+0x61>
/home/tenebris/Documents/RootCauseAnalysis/evaluation/test_bin/lua-5.0/src/lapi.c:89
    5b71:	8b 55 e4             	mov    -0x1c(%rbp),%edx
    5b74:	48 8b 45 e8          	mov    -0x18(%rbp),%rax
    5b78:	89 d6                	mov    %edx,%esi
    5b7a:	48 89 c7             	mov    %rax,%rdi
    5b7d:	e8 a6 fe ff ff       	call   5a28 <negindex>
/home/tenebris/Documents/RootCauseAnalysis/evaluation/test_bin/lua-5.0/src/lapi.c:90
    5b82:	c9                   	leave  
    5b83:	c3                   	ret    

0000000000005b84 <luaA_pushobject>:
luaA_pushobject():
/home/tenebris/Documents/RootCauseAnalysis/evaluation/test_bin/lua-5.0/src/lapi.c:93
    5b84:	f3 0f 1e fa          	endbr64 
    5b88:	55                   	push   %rbp
    5b89:	48 89 e5             	mov    %rsp,%rbp
    5b8c:	48 83 ec 20          	sub    $0x20,%rsp
    5b90:	48 89 7d e8          	mov    %rdi,-0x18(%rbp)
    5b94:	48 89 75 e0          	mov    %rsi,-0x20(%rbp)
/home/tenebris/Documents/RootCauseAnalysis/evaluation/test_bin/lua-5.0/src/lapi.c:94
    5b98:	48 8b 45 e0          	mov    -0x20(%rbp),%rax
    5b9c:	48 89 45 f0          	mov    %rax,-0x10(%rbp)
    5ba0:	48 8b 45 e8          	mov    -0x18(%rbp),%rax
    5ba4:	48 8b 40 10          	mov    0x10(%rax),%rax
    5ba8:	48 89 45 f8          	mov    %rax,-0x8(%rbp)
    5bac:	48 8b 45 f0          	mov    -0x10(%rbp),%rax
    5bb0:	8b 10                	mov    (%rax),%edx
    5bb2:	48 8b 45 f8          	mov    -0x8(%rbp),%rax
    5bb6:	89 10                	mov    %edx,(%rax)
    5bb8:	48 8b 45 f8          	mov    -0x8(%rbp),%rax
    5bbc:	48 8b 55 f0          	mov    -0x10(%rbp),%rdx
    5bc0:	48 8b 52 08          	mov    0x8(%rdx),%rdx
    5bc4:	48 89 50 08          	mov    %rdx,0x8(%rax)
/home/tenebris/Documents/RootCauseAnalysis/evaluation/test_bin/lua-5.0/src/lapi.c:95
    5bc8:	48 8b 45 e8          	mov    -0x18(%rbp),%rax
    5bcc:	48 8b 50 30          	mov    0x30(%rax),%rdx
    5bd0:	48 8b 45 e8          	mov    -0x18(%rbp),%rax
    5bd4:	48 8b 48 10          	mov    0x10(%rax),%rcx
    5bd8:	48 89 d0             	mov    %rdx,%rax
    5bdb:	48 29 c8             	sub    %rcx,%rax
    5bde:	48 83 f8 10          	cmp    $0x10,%rax
    5be2:	7f 11                	jg     5bf5 <luaA_pushobject+0x71>
/home/tenebris/Documents/RootCauseAnalysis/evaluation/test_bin/lua-5.0/src/lapi.c:95 (discriminator 1)
    5be4:	48 8b 45 e8          	mov    -0x18(%rbp),%rax
    5be8:	be 01 00 00 00       	mov    $0x1,%esi
    5bed:	48 89 c7             	mov    %rax,%rdi
    5bf0:	e8 bc 3f 00 00       	call   9bb1 <luaD_growstack>
/home/tenebris/Documents/RootCauseAnalysis/evaluation/test_bin/lua-5.0/src/lapi.c:95 (discriminator 3)
    5bf5:	48 8b 45 e8          	mov    -0x18(%rbp),%rax
    5bf9:	48 8b 40 10          	mov    0x10(%rax),%rax
    5bfd:	48 8d 50 10          	lea    0x10(%rax),%rdx
    5c01:	48 8b 45 e8          	mov    -0x18(%rbp),%rax
    5c05:	48 89 50 10          	mov    %rdx,0x10(%rax)
/home/tenebris/Documents/RootCauseAnalysis/evaluation/test_bin/lua-5.0/src/lapi.c:96 (discriminator 3)
    5c09:	90                   	nop
    5c0a:	c9                   	leave  
    5c0b:	c3                   	ret    

0000000000005c0c <lua_checkstack>:
lua_checkstack():
/home/tenebris/Documents/RootCauseAnalysis/evaluation/test_bin/lua-5.0/src/lapi.c:99
    5c0c:	f3 0f 1e fa          	endbr64 
    5c10:	55                   	push   %rbp
    5c11:	48 89 e5             	mov    %rsp,%rbp
    5c14:	48 83 ec 20          	sub    $0x20,%rsp
    5c18:	48 89 7d e8          	mov    %rdi,-0x18(%rbp)
    5c1c:	89 75 e4             	mov    %esi,-0x1c(%rbp)
/home/tenebris/Documents/RootCauseAnalysis/evaluation/test_bin/lua-5.0/src/lapi.c:102
    5c1f:	48 8b 45 e8          	mov    -0x18(%rbp),%rax
    5c23:	48 8b 50 10          	mov    0x10(%rax),%rdx
    5c27:	48 8b 45 e8          	mov    -0x18(%rbp),%rax
    5c2b:	48 8b 48 18          	mov    0x18(%rax),%rcx
    5c2f:	48 89 d0             	mov    %rdx,%rax
    5c32:	48 29 c8             	sub    %rcx,%rax
    5c35:	48 c1 f8 04          	sar    $0x4,%rax
    5c39:	48 89 c2             	mov    %rax,%rdx
    5c3c:	8b 45 e4             	mov    -0x1c(%rbp),%eax
    5c3f:	48 98                	cltq   
    5c41:	48 01 d0             	add    %rdx,%rax
    5c44:	48 3d 00 08 00 00    	cmp    $0x800,%rax
    5c4a:	7e 0c                	jle    5c58 <lua_checkstack+0x4c>
/home/tenebris/Documents/RootCauseAnalysis/evaluation/test_bin/lua-5.0/src/lapi.c:103
    5c4c:	c7 45 fc 00 00 00 00 	movl   $0x0,-0x4(%rbp)
    5c53:	e9 80 00 00 00       	jmp    5cd8 <lua_checkstack+0xcc>
/home/tenebris/Documents/RootCauseAnalysis/evaluation/test_bin/lua-5.0/src/lapi.c:105
    5c58:	48 8b 45 e8          	mov    -0x18(%rbp),%rax
    5c5c:	48 8b 50 30          	mov    0x30(%rax),%rdx
    5c60:	48 8b 45 e8          	mov    -0x18(%rbp),%rax
    5c64:	48 8b 40 10          	mov    0x10(%rax),%rax
    5c68:	48 29 c2             	sub    %rax,%rdx
    5c6b:	8b 45 e4             	mov    -0x1c(%rbp),%eax
    5c6e:	c1 e0 04             	shl    $0x4,%eax
    5c71:	48 98                	cltq   
    5c73:	48 39 c2             	cmp    %rax,%rdx
    5c76:	7f 11                	jg     5c89 <lua_checkstack+0x7d>
/home/tenebris/Documents/RootCauseAnalysis/evaluation/test_bin/lua-5.0/src/lapi.c:105 (discriminator 1)
    5c78:	8b 55 e4             	mov    -0x1c(%rbp),%edx
    5c7b:	48 8b 45 e8          	mov    -0x18(%rbp),%rax
    5c7f:	89 d6                	mov    %edx,%esi
    5c81:	48 89 c7             	mov    %rax,%rdi
    5c84:	e8 28 3f 00 00       	call   9bb1 <luaD_growstack>
/home/tenebris/Documents/RootCauseAnalysis/evaluation/test_bin/lua-5.0/src/lapi.c:106
    5c89:	48 8b 45 e8          	mov    -0x18(%rbp),%rax
    5c8d:	48 8b 40 28          	mov    0x28(%rax),%rax
    5c91:	48 8b 50 08          	mov    0x8(%rax),%rdx
    5c95:	48 8b 45 e8          	mov    -0x18(%rbp),%rax
    5c99:	48 8b 48 10          	mov    0x10(%rax),%rcx
    5c9d:	8b 45 e4             	mov    -0x1c(%rbp),%eax
    5ca0:	48 98                	cltq   
    5ca2:	48 c1 e0 04          	shl    $0x4,%rax
    5ca6:	48 01 c8             	add    %rcx,%rax
    5ca9:	48 39 c2             	cmp    %rax,%rdx
    5cac:	73 23                	jae    5cd1 <lua_checkstack+0xc5>
/home/tenebris/Documents/RootCauseAnalysis/evaluation/test_bin/lua-5.0/src/lapi.c:107
    5cae:	48 8b 45 e8          	mov    -0x18(%rbp),%rax
    5cb2:	48 8b 50 10          	mov    0x10(%rax),%rdx
    5cb6:	8b 45 e4             	mov    -0x1c(%rbp),%eax
    5cb9:	48 98                	cltq   
    5cbb:	48 c1 e0 04          	shl    $0x4,%rax
    5cbf:	48 89 c1             	mov    %rax,%rcx
    5cc2:	48 8b 45 e8          	mov    -0x18(%rbp),%rax
    5cc6:	48 8b 40 28          	mov    0x28(%rax),%rax
    5cca:	48 01 ca             	add    %rcx,%rdx
    5ccd:	48 89 50 08          	mov    %rdx,0x8(%rax)
/home/tenebris/Documents/RootCauseAnalysis/evaluation/test_bin/lua-5.0/src/lapi.c:108
    5cd1:	c7 45 fc 01 00 00 00 	movl   $0x1,-0x4(%rbp)
/home/tenebris/Documents/RootCauseAnalysis/evaluation/test_bin/lua-5.0/src/lapi.c:111
    5cd8:	8b 45 fc             	mov    -0x4(%rbp),%eax
/home/tenebris/Documents/RootCauseAnalysis/evaluation/test_bin/lua-5.0/src/lapi.c:112
    5cdb:	c9                   	leave  
    5cdc:	c3                   	ret    

0000000000005cdd <lua_xmove>:
lua_xmove():
/home/tenebris/Documents/RootCauseAnalysis/evaluation/test_bin/lua-5.0/src/lapi.c:115
    5cdd:	f3 0f 1e fa          	endbr64 
    5ce1:	55                   	push   %rbp
    5ce2:	48 89 e5             	mov    %rsp,%rbp
    5ce5:	48 89 7d d8          	mov    %rdi,-0x28(%rbp)
    5ce9:	48 89 75 d0          	mov    %rsi,-0x30(%rbp)
    5ced:	89 55 cc             	mov    %edx,-0x34(%rbp)
/home/tenebris/Documents/RootCauseAnalysis/evaluation/test_bin/lua-5.0/src/lapi.c:119
    5cf0:	48 8b 45 d8          	mov    -0x28(%rbp),%rax
    5cf4:	48 8b 50 10          	mov    0x10(%rax),%rdx
    5cf8:	8b 45 cc             	mov    -0x34(%rbp),%eax
    5cfb:	48 98                	cltq   
    5cfd:	48 c1 e0 04          	shl    $0x4,%rax
    5d01:	48 f7 d8             	neg    %rax
    5d04:	48 01 c2             	add    %rax,%rdx
    5d07:	48 8b 45 d8          	mov    -0x28(%rbp),%rax
    5d0b:	48 89 50 10          	mov    %rdx,0x10(%rax)
/home/tenebris/Documents/RootCauseAnalysis/evaluation/test_bin/lua-5.0/src/lapi.c:120
    5d0f:	c7 45 ec 00 00 00 00 	movl   $0x0,-0x14(%rbp)
    5d16:	eb 58                	jmp    5d70 <lua_xmove+0x93>
/home/tenebris/Documents/RootCauseAnalysis/evaluation/test_bin/lua-5.0/src/lapi.c:121 (discriminator 3)
    5d18:	48 8b 45 d8          	mov    -0x28(%rbp),%rax
    5d1c:	48 8b 50 10          	mov    0x10(%rax),%rdx
    5d20:	8b 45 ec             	mov    -0x14(%rbp),%eax
    5d23:	48 98                	cltq   
    5d25:	48 c1 e0 04          	shl    $0x4,%rax
    5d29:	48 01 d0             	add    %rdx,%rax
    5d2c:	48 89 45 f0          	mov    %rax,-0x10(%rbp)
    5d30:	48 8b 45 d0          	mov    -0x30(%rbp),%rax
    5d34:	48 8b 40 10          	mov    0x10(%rax),%rax
    5d38:	48 89 45 f8          	mov    %rax,-0x8(%rbp)
    5d3c:	48 8b 45 f0          	mov    -0x10(%rbp),%rax
    5d40:	8b 10                	mov    (%rax),%edx
    5d42:	48 8b 45 f8          	mov    -0x8(%rbp),%rax
    5d46:	89 10                	mov    %edx,(%rax)
    5d48:	48 8b 45 f8          	mov    -0x8(%rbp),%rax
    5d4c:	48 8b 55 f0          	mov    -0x10(%rbp),%rdx
    5d50:	48 8b 52 08          	mov    0x8(%rdx),%rdx
    5d54:	48 89 50 08          	mov    %rdx,0x8(%rax)
/home/tenebris/Documents/RootCauseAnalysis/evaluation/test_bin/lua-5.0/src/lapi.c:122 (discriminator 3)
    5d58:	48 8b 45 d0          	mov    -0x30(%rbp),%rax
    5d5c:	48 8b 40 10          	mov    0x10(%rax),%rax
    5d60:	48 8d 50 10          	lea    0x10(%rax),%rdx
    5d64:	48 8b 45 d0          	mov    -0x30(%rbp),%rax
    5d68:	48 89 50 10          	mov    %rdx,0x10(%rax)
/home/tenebris/Documents/RootCauseAnalysis/evaluation/test_bin/lua-5.0/src/lapi.c:120 (discriminator 3)
    5d6c:	83 45 ec 01          	addl   $0x1,-0x14(%rbp)
/home/tenebris/Documents/RootCauseAnalysis/evaluation/test_bin/lua-5.0/src/lapi.c:120 (discriminator 1)
    5d70:	8b 45 ec             	mov    -0x14(%rbp),%eax
    5d73:	3b 45 cc             	cmp    -0x34(%rbp),%eax
    5d76:	7c a0                	jl     5d18 <lua_xmove+0x3b>
/home/tenebris/Documents/RootCauseAnalysis/evaluation/test_bin/lua-5.0/src/lapi.c:125
    5d78:	90                   	nop
    5d79:	90                   	nop
    5d7a:	5d                   	pop    %rbp
    5d7b:	c3                   	ret    

0000000000005d7c <lua_atpanic>:
lua_atpanic():
/home/tenebris/Documents/RootCauseAnalysis/evaluation/test_bin/lua-5.0/src/lapi.c:128
    5d7c:	f3 0f 1e fa          	endbr64 
    5d80:	55                   	push   %rbp
    5d81:	48 89 e5             	mov    %rsp,%rbp
    5d84:	48 89 7d e8          	mov    %rdi,-0x18(%rbp)
    5d88:	48 89 75 e0          	mov    %rsi,-0x20(%rbp)
/home/tenebris/Documents/RootCauseAnalysis/evaluation/test_bin/lua-5.0/src/lapi.c:131
    5d8c:	48 8b 45 e8          	mov    -0x18(%rbp),%rax
    5d90:	48 8b 40 20          	mov    0x20(%rax),%rax
    5d94:	48 8b 40 50          	mov    0x50(%rax),%rax
    5d98:	48 89 45 f8          	mov    %rax,-0x8(%rbp)
/home/tenebris/Documents/RootCauseAnalysis/evaluation/test_bin/lua-5.0/src/lapi.c:132
    5d9c:	48 8b 45 e8          	mov    -0x18(%rbp),%rax
    5da0:	48 8b 40 20          	mov    0x20(%rax),%rax
    5da4:	48 8b 55 e0          	mov    -0x20(%rbp),%rdx
    5da8:	48 89 50 50          	mov    %rdx,0x50(%rax)
/home/tenebris/Documents/RootCauseAnalysis/evaluation/test_bin/lua-5.0/src/lapi.c:134
    5dac:	48 8b 45 f8          	mov    -0x8(%rbp),%rax
/home/tenebris/Documents/RootCauseAnalysis/evaluation/test_bin/lua-5.0/src/lapi.c:135
    5db0:	5d                   	pop    %rbp
    5db1:	c3                   	ret    

0000000000005db2 <lua_newthread>:
lua_newthread():
/home/tenebris/Documents/RootCauseAnalysis/evaluation/test_bin/lua-5.0/src/lapi.c:138
    5db2:	f3 0f 1e fa          	endbr64 
    5db6:	55                   	push   %rbp
    5db7:	48 89 e5             	mov    %rsp,%rbp
    5dba:	48 83 ec 20          	sub    $0x20,%rsp
    5dbe:	48 89 7d e8          	mov    %rdi,-0x18(%rbp)
/home/tenebris/Documents/RootCauseAnalysis/evaluation/test_bin/lua-5.0/src/lapi.c:141
    5dc2:	48 8b 45 e8          	mov    -0x18(%rbp),%rax
    5dc6:	48 8b 40 20          	mov    0x20(%rax),%rax
    5dca:	48 8b 50 48          	mov    0x48(%rax),%rdx
    5dce:	48 8b 45 e8          	mov    -0x18(%rbp),%rax
    5dd2:	48 8b 40 20          	mov    0x20(%rax),%rax
    5dd6:	48 8b 40 40          	mov    0x40(%rax),%rax
    5dda:	48 39 c2             	cmp    %rax,%rdx
    5ddd:	72 0c                	jb     5deb <lua_newthread+0x39>
/home/tenebris/Documents/RootCauseAnalysis/evaluation/test_bin/lua-5.0/src/lapi.c:141 (discriminator 1)
    5ddf:	48 8b 45 e8          	mov    -0x18(%rbp),%rax
    5de3:	48 89 c7             	mov    %rax,%rdi
    5de6:	e8 b4 72 00 00       	call   d09f <luaC_collectgarbage>
/home/tenebris/Documents/RootCauseAnalysis/evaluation/test_bin/lua-5.0/src/lapi.c:142
    5deb:	48 8b 45 e8          	mov    -0x18(%rbp),%rax
    5def:	48 89 c7             	mov    %rax,%rdi
    5df2:	e8 f1 bf 00 00       	call   11de8 <luaE_newthread>
    5df7:	48 89 45 f0          	mov    %rax,-0x10(%rbp)
/home/tenebris/Documents/RootCauseAnalysis/evaluation/test_bin/lua-5.0/src/lapi.c:143
    5dfb:	48 8b 45 e8          	mov    -0x18(%rbp),%rax
    5dff:	48 8b 40 10          	mov    0x10(%rax),%rax
    5e03:	48 89 45 f8          	mov    %rax,-0x8(%rbp)
    5e07:	48 8b 45 f8          	mov    -0x8(%rbp),%rax
    5e0b:	c7 00 08 00 00 00    	movl   $0x8,(%rax)
    5e11:	48 8b 45 f8          	mov    -0x8(%rbp),%rax
    5e15:	48 8b 55 f0          	mov    -0x10(%rbp),%rdx
    5e19:	48 89 50 08          	mov    %rdx,0x8(%rax)
/home/tenebris/Documents/RootCauseAnalysis/evaluation/test_bin/lua-5.0/src/lapi.c:144
    5e1d:	48 8b 45 e8          	mov    -0x18(%rbp),%rax
    5e21:	48 8b 40 10          	mov    0x10(%rax),%rax
    5e25:	48 8d 50 10          	lea    0x10(%rax),%rdx
    5e29:	48 8b 45 e8          	mov    -0x18(%rbp),%rax
    5e2d:	48 89 50 10          	mov    %rdx,0x10(%rax)
/home/tenebris/Documents/RootCauseAnalysis/evaluation/test_bin/lua-5.0/src/lapi.c:147
    5e31:	48 8b 45 f0          	mov    -0x10(%rbp),%rax
/home/tenebris/Documents/RootCauseAnalysis/evaluation/test_bin/lua-5.0/src/lapi.c:148
    5e35:	c9                   	leave  
    5e36:	c3                   	ret    

0000000000005e37 <lua_gettop>:
lua_gettop():
/home/tenebris/Documents/RootCauseAnalysis/evaluation/test_bin/lua-5.0/src/lapi.c:157
    5e37:	f3 0f 1e fa          	endbr64 
    5e3b:	55                   	push   %rbp
    5e3c:	48 89 e5             	mov    %rsp,%rbp
    5e3f:	48 89 7d f8          	mov    %rdi,-0x8(%rbp)
/home/tenebris/Documents/RootCauseAnalysis/evaluation/test_bin/lua-5.0/src/lapi.c:158
    5e43:	48 8b 45 f8          	mov    -0x8(%rbp),%rax
    5e47:	48 8b 50 10          	mov    0x10(%rax),%rdx
    5e4b:	48 8b 45 f8          	mov    -0x8(%rbp),%rax
    5e4f:	48 8b 48 18          	mov    0x18(%rax),%rcx
    5e53:	48 89 d0             	mov    %rdx,%rax
    5e56:	48 29 c8             	sub    %rcx,%rax
    5e59:	48 c1 f8 04          	sar    $0x4,%rax
/home/tenebris/Documents/RootCauseAnalysis/evaluation/test_bin/lua-5.0/src/lapi.c:159
    5e5d:	5d                   	pop    %rbp
    5e5e:	c3                   	ret    

0000000000005e5f <lua_settop>:
lua_settop():
/home/tenebris/Documents/RootCauseAnalysis/evaluation/test_bin/lua-5.0/src/lapi.c:162
    5e5f:	f3 0f 1e fa          	endbr64 
    5e63:	55                   	push   %rbp
    5e64:	48 89 e5             	mov    %rsp,%rbp
    5e67:	48 89 7d f8          	mov    %rdi,-0x8(%rbp)
    5e6b:	89 75 f4             	mov    %esi,-0xc(%rbp)
/home/tenebris/Documents/RootCauseAnalysis/evaluation/test_bin/lua-5.0/src/lapi.c:164
    5e6e:	83 7d f4 00          	cmpl   $0x0,-0xc(%rbp)
    5e72:	78 5b                	js     5ecf <lua_settop+0x70>
/home/tenebris/Documents/RootCauseAnalysis/evaluation/test_bin/lua-5.0/src/lapi.c:166
    5e74:	eb 1a                	jmp    5e90 <lua_settop+0x31>
/home/tenebris/Documents/RootCauseAnalysis/evaluation/test_bin/lua-5.0/src/lapi.c:167
    5e76:	48 8b 45 f8          	mov    -0x8(%rbp),%rax
    5e7a:	48 8b 40 10          	mov    0x10(%rax),%rax
    5e7e:	48 8d 48 10          	lea    0x10(%rax),%rcx
    5e82:	48 8b 55 f8          	mov    -0x8(%rbp),%rdx
    5e86:	48 89 4a 10          	mov    %rcx,0x10(%rdx)
    5e8a:	c7 00 00 00 00 00    	movl   $0x0,(%rax)
/home/tenebris/Documents/RootCauseAnalysis/evaluation/test_bin/lua-5.0/src/lapi.c:166
    5e90:	48 8b 45 f8          	mov    -0x8(%rbp),%rax
    5e94:	48 8b 50 10          	mov    0x10(%rax),%rdx
    5e98:	48 8b 45 f8          	mov    -0x8(%rbp),%rax
    5e9c:	48 8b 48 18          	mov    0x18(%rax),%rcx
    5ea0:	8b 45 f4             	mov    -0xc(%rbp),%eax
    5ea3:	48 98                	cltq   
    5ea5:	48 c1 e0 04          	shl    $0x4,%rax
    5ea9:	48 01 c8             	add    %rcx,%rax
    5eac:	48 39 c2             	cmp    %rax,%rdx
    5eaf:	72 c5                	jb     5e76 <lua_settop+0x17>
/home/tenebris/Documents/RootCauseAnalysis/evaluation/test_bin/lua-5.0/src/lapi.c:168
    5eb1:	48 8b 45 f8          	mov    -0x8(%rbp),%rax
    5eb5:	48 8b 50 18          	mov    0x18(%rax),%rdx
    5eb9:	8b 45 f4             	mov    -0xc(%rbp),%eax
    5ebc:	48 98                	cltq   
    5ebe:	48 c1 e0 04          	shl    $0x4,%rax
    5ec2:	48 01 c2             	add    %rax,%rdx
    5ec5:	48 8b 45 f8          	mov    -0x8(%rbp),%rax
    5ec9:	48 89 50 10          	mov    %rdx,0x10(%rax)
/home/tenebris/Documents/RootCauseAnalysis/evaluation/test_bin/lua-5.0/src/lapi.c:175
    5ecd:	eb 20                	jmp    5eef <lua_settop+0x90>
/home/tenebris/Documents/RootCauseAnalysis/evaluation/test_bin/lua-5.0/src/lapi.c:172
    5ecf:	48 8b 45 f8          	mov    -0x8(%rbp),%rax
    5ed3:	48 8b 50 10          	mov    0x10(%rax),%rdx
    5ed7:	8b 45 f4             	mov    -0xc(%rbp),%eax
    5eda:	48 98                	cltq   
    5edc:	48 83 c0 01          	add    $0x1,%rax
    5ee0:	48 c1 e0 04          	shl    $0x4,%rax
    5ee4:	48 01 c2             	add    %rax,%rdx
    5ee7:	48 8b 45 f8          	mov    -0x8(%rbp),%rax
    5eeb:	48 89 50 10          	mov    %rdx,0x10(%rax)
/home/tenebris/Documents/RootCauseAnalysis/evaluation/test_bin/lua-5.0/src/lapi.c:175
    5eef:	90                   	nop
    5ef0:	5d                   	pop    %rbp
    5ef1:	c3                   	ret    

0000000000005ef2 <lua_remove>:
lua_remove():
/home/tenebris/Documents/RootCauseAnalysis/evaluation/test_bin/lua-5.0/src/lapi.c:178
    5ef2:	f3 0f 1e fa          	endbr64 
    5ef6:	55                   	push   %rbp
    5ef7:	48 89 e5             	mov    %rsp,%rbp
    5efa:	48 83 ec 30          	sub    $0x30,%rsp
    5efe:	48 89 7d d8          	mov    %rdi,-0x28(%rbp)
    5f02:	89 75 d4             	mov    %esi,-0x2c(%rbp)
/home/tenebris/Documents/RootCauseAnalysis/evaluation/test_bin/lua-5.0/src/lapi.c:181
    5f05:	8b 55 d4             	mov    -0x2c(%rbp),%edx
    5f08:	48 8b 45 d8          	mov    -0x28(%rbp),%rax
    5f0c:	89 d6                	mov    %edx,%esi
    5f0e:	48 89 c7             	mov    %rax,%rdi
    5f11:	e8 bd fb ff ff       	call   5ad3 <luaA_index>
    5f16:	48 89 45 e8          	mov    %rax,-0x18(%rbp)
/home/tenebris/Documents/RootCauseAnalysis/evaluation/test_bin/lua-5.0/src/lapi.c:182
    5f1a:	eb 30                	jmp    5f4c <lua_remove+0x5a>
/home/tenebris/Documents/RootCauseAnalysis/evaluation/test_bin/lua-5.0/src/lapi.c:182 (discriminator 2)
    5f1c:	48 8b 45 e8          	mov    -0x18(%rbp),%rax
    5f20:	48 89 45 f0          	mov    %rax,-0x10(%rbp)
    5f24:	48 8b 45 e8          	mov    -0x18(%rbp),%rax
    5f28:	48 83 e8 10          	sub    $0x10,%rax
    5f2c:	48 89 45 f8          	mov    %rax,-0x8(%rbp)
    5f30:	48 8b 45 f0          	mov    -0x10(%rbp),%rax
    5f34:	8b 10                	mov    (%rax),%edx
    5f36:	48 8b 45 f8          	mov    -0x8(%rbp),%rax
    5f3a:	89 10                	mov    %edx,(%rax)
    5f3c:	48 8b 45 f8          	mov    -0x8(%rbp),%rax
    5f40:	48 8b 55 f0          	mov    -0x10(%rbp),%rdx
    5f44:	48 8b 52 08          	mov    0x8(%rdx),%rdx
    5f48:	48 89 50 08          	mov    %rdx,0x8(%rax)
/home/tenebris/Documents/RootCauseAnalysis/evaluation/test_bin/lua-5.0/src/lapi.c:182 (discriminator 1)
    5f4c:	48 83 45 e8 10       	addq   $0x10,-0x18(%rbp)
    5f51:	48 8b 45 d8          	mov    -0x28(%rbp),%rax
    5f55:	48 8b 40 10          	mov    0x10(%rax),%rax
    5f59:	48 39 45 e8          	cmp    %rax,-0x18(%rbp)
    5f5d:	72 bd                	jb     5f1c <lua_remove+0x2a>
/home/tenebris/Documents/RootCauseAnalysis/evaluation/test_bin/lua-5.0/src/lapi.c:183
    5f5f:	48 8b 45 d8          	mov    -0x28(%rbp),%rax
    5f63:	48 8b 40 10          	mov    0x10(%rax),%rax
    5f67:	48 8d 50 f0          	lea    -0x10(%rax),%rdx
    5f6b:	48 8b 45 d8          	mov    -0x28(%rbp),%rax
    5f6f:	48 89 50 10          	mov    %rdx,0x10(%rax)
/home/tenebris/Documents/RootCauseAnalysis/evaluation/test_bin/lua-5.0/src/lapi.c:185
    5f73:	90                   	nop
    5f74:	c9                   	leave  
    5f75:	c3                   	ret    

0000000000005f76 <lua_insert>:
lua_insert():
/home/tenebris/Documents/RootCauseAnalysis/evaluation/test_bin/lua-5.0/src/lapi.c:188
    5f76:	f3 0f 1e fa          	endbr64 
    5f7a:	55                   	push   %rbp
    5f7b:	48 89 e5             	mov    %rsp,%rbp
    5f7e:	48 83 ec 40          	sub    $0x40,%rsp
    5f82:	48 89 7d c8          	mov    %rdi,-0x38(%rbp)
    5f86:	89 75 c4             	mov    %esi,-0x3c(%rbp)
/home/tenebris/Documents/RootCauseAnalysis/evaluation/test_bin/lua-5.0/src/lapi.c:192
    5f89:	8b 55 c4             	mov    -0x3c(%rbp),%edx
    5f8c:	48 8b 45 c8          	mov    -0x38(%rbp),%rax
    5f90:	89 d6                	mov    %edx,%esi
    5f92:	48 89 c7             	mov    %rax,%rdi
    5f95:	e8 39 fb ff ff       	call   5ad3 <luaA_index>
    5f9a:	48 89 45 d8          	mov    %rax,-0x28(%rbp)
/home/tenebris/Documents/RootCauseAnalysis/evaluation/test_bin/lua-5.0/src/lapi.c:193
    5f9e:	48 8b 45 c8          	mov    -0x38(%rbp),%rax
    5fa2:	48 8b 40 10          	mov    0x10(%rax),%rax
    5fa6:	48 89 45 d0          	mov    %rax,-0x30(%rbp)
    5faa:	eb 35                	jmp    5fe1 <lua_insert+0x6b>
/home/tenebris/Documents/RootCauseAnalysis/evaluation/test_bin/lua-5.0/src/lapi.c:193 (discriminator 3)
    5fac:	48 8b 45 d0          	mov    -0x30(%rbp),%rax
    5fb0:	48 83 e8 10          	sub    $0x10,%rax
    5fb4:	48 89 45 f0          	mov    %rax,-0x10(%rbp)
    5fb8:	48 8b 45 d0          	mov    -0x30(%rbp),%rax
    5fbc:	48 89 45 f8          	mov    %rax,-0x8(%rbp)
    5fc0:	48 8b 45 f0          	mov    -0x10(%rbp),%rax
    5fc4:	8b 10                	mov    (%rax),%edx
    5fc6:	48 8b 45 f8          	mov    -0x8(%rbp),%rax
    5fca:	89 10                	mov    %edx,(%rax)
    5fcc:	48 8b 45 f8          	mov    -0x8(%rbp),%rax
    5fd0:	48 8b 55 f0          	mov    -0x10(%rbp),%rdx
    5fd4:	48 8b 52 08          	mov    0x8(%rdx),%rdx
    5fd8:	48 89 50 08          	mov    %rdx,0x8(%rax)
    5fdc:	48 83 6d d0 10       	subq   $0x10,-0x30(%rbp)
/home/tenebris/Documents/RootCauseAnalysis/evaluation/test_bin/lua-5.0/src/lapi.c:193 (discriminator 1)
    5fe1:	48 8b 45 d0          	mov    -0x30(%rbp),%rax
    5fe5:	48 3b 45 d8          	cmp    -0x28(%rbp),%rax
    5fe9:	77 c1                	ja     5fac <lua_insert+0x36>
/home/tenebris/Documents/RootCauseAnalysis/evaluation/test_bin/lua-5.0/src/lapi.c:194
    5feb:	48 8b 45 c8          	mov    -0x38(%rbp),%rax
    5fef:	48 8b 40 10          	mov    0x10(%rax),%rax
    5ff3:	48 89 45 e0          	mov    %rax,-0x20(%rbp)
    5ff7:	48 8b 45 d8          	mov    -0x28(%rbp),%rax
    5ffb:	48 89 45 e8          	mov    %rax,-0x18(%rbp)
    5fff:	48 8b 45 e0          	mov    -0x20(%rbp),%rax
    6003:	8b 10                	mov    (%rax),%edx
    6005:	48 8b 45 e8          	mov    -0x18(%rbp),%rax
    6009:	89 10                	mov    %edx,(%rax)
    600b:	48 8b 45 e8          	mov    -0x18(%rbp),%rax
    600f:	48 8b 55 e0          	mov    -0x20(%rbp),%rdx
    6013:	48 8b 52 08          	mov    0x8(%rdx),%rdx
    6017:	48 89 50 08          	mov    %rdx,0x8(%rax)
/home/tenebris/Documents/RootCauseAnalysis/evaluation/test_bin/lua-5.0/src/lapi.c:196
    601b:	90                   	nop
    601c:	c9                   	leave  
    601d:	c3                   	ret    

000000000000601e <lua_replace>:
lua_replace():
/home/tenebris/Documents/RootCauseAnalysis/evaluation/test_bin/lua-5.0/src/lapi.c:199
    601e:	f3 0f 1e fa          	endbr64 
    6022:	55                   	push   %rbp
    6023:	48 89 e5             	mov    %rsp,%rbp
    6026:	48 83 ec 20          	sub    $0x20,%rsp
    602a:	48 89 7d e8          	mov    %rdi,-0x18(%rbp)
    602e:	89 75 e4             	mov    %esi,-0x1c(%rbp)
/home/tenebris/Documents/RootCauseAnalysis/evaluation/test_bin/lua-5.0/src/lapi.c:202
    6031:	48 8b 45 e8          	mov    -0x18(%rbp),%rax
    6035:	48 8b 40 10          	mov    0x10(%rax),%rax
    6039:	48 83 e8 10          	sub    $0x10,%rax
    603d:	48 89 45 f0          	mov    %rax,-0x10(%rbp)
    6041:	8b 55 e4             	mov    -0x1c(%rbp),%edx
    6044:	48 8b 45 e8          	mov    -0x18(%rbp),%rax
    6048:	89 d6                	mov    %edx,%esi
    604a:	48 89 c7             	mov    %rax,%rdi
    604d:	e8 81 fa ff ff       	call   5ad3 <luaA_index>
    6052:	48 89 45 f8          	mov    %rax,-0x8(%rbp)
    6056:	48 8b 45 f0          	mov    -0x10(%rbp),%rax
    605a:	8b 10                	mov    (%rax),%edx
    605c:	48 8b 45 f8          	mov    -0x8(%rbp),%rax
    6060:	89 10                	mov    %edx,(%rax)
    6062:	48 8b 45 f8          	mov    -0x8(%rbp),%rax
    6066:	48 8b 55 f0          	mov    -0x10(%rbp),%rdx
    606a:	48 8b 52 08          	mov    0x8(%rdx),%rdx
    606e:	48 89 50 08          	mov    %rdx,0x8(%rax)
/home/tenebris/Documents/RootCauseAnalysis/evaluation/test_bin/lua-5.0/src/lapi.c:203
    6072:	48 8b 45 e8          	mov    -0x18(%rbp),%rax
    6076:	48 8b 40 10          	mov    0x10(%rax),%rax
    607a:	48 8d 50 f0          	lea    -0x10(%rax),%rdx
    607e:	48 8b 45 e8          	mov    -0x18(%rbp),%rax
    6082:	48 89 50 10          	mov    %rdx,0x10(%rax)
/home/tenebris/Documents/RootCauseAnalysis/evaluation/test_bin/lua-5.0/src/lapi.c:205
    6086:	90                   	nop
    6087:	c9                   	leave  
    6088:	c3                   	ret    

0000000000006089 <lua_pushvalue>:
lua_pushvalue():
/home/tenebris/Documents/RootCauseAnalysis/evaluation/test_bin/lua-5.0/src/lapi.c:208
    6089:	f3 0f 1e fa          	endbr64 
    608d:	55                   	push   %rbp
    608e:	48 89 e5             	mov    %rsp,%rbp
    6091:	48 83 ec 20          	sub    $0x20,%rsp
    6095:	48 89 7d e8          	mov    %rdi,-0x18(%rbp)
    6099:	89 75 e4             	mov    %esi,-0x1c(%rbp)
/home/tenebris/Documents/RootCauseAnalysis/evaluation/test_bin/lua-5.0/src/lapi.c:210
    609c:	8b 55 e4             	mov    -0x1c(%rbp),%edx
    609f:	48 8b 45 e8          	mov    -0x18(%rbp),%rax
    60a3:	89 d6                	mov    %edx,%esi
    60a5:	48 89 c7             	mov    %rax,%rdi
    60a8:	e8 26 fa ff ff       	call   5ad3 <luaA_index>
    60ad:	48 89 45 f0          	mov    %rax,-0x10(%rbp)
    60b1:	48 8b 45 e8          	mov    -0x18(%rbp),%rax
    60b5:	48 8b 40 10          	mov    0x10(%rax),%rax
    60b9:	48 89 45 f8          	mov    %rax,-0x8(%rbp)
    60bd:	48 8b 45 f0          	mov    -0x10(%rbp),%rax
    60c1:	8b 10                	mov    (%rax),%edx
    60c3:	48 8b 45 f8          	mov    -0x8(%rbp),%rax
    60c7:	89 10                	mov    %edx,(%rax)
    60c9:	48 8b 45 f8          	mov    -0x8(%rbp),%rax
    60cd:	48 8b 55 f0          	mov    -0x10(%rbp),%rdx
    60d1:	48 8b 52 08          	mov    0x8(%rdx),%rdx
    60d5:	48 89 50 08          	mov    %rdx,0x8(%rax)
/home/tenebris/Documents/RootCauseAnalysis/evaluation/test_bin/lua-5.0/src/lapi.c:211
    60d9:	48 8b 45 e8          	mov    -0x18(%rbp),%rax
    60dd:	48 8b 40 10          	mov    0x10(%rax),%rax
    60e1:	48 8d 50 10          	lea    0x10(%rax),%rdx
    60e5:	48 8b 45 e8          	mov    -0x18(%rbp),%rax
    60e9:	48 89 50 10          	mov    %rdx,0x10(%rax)
/home/tenebris/Documents/RootCauseAnalysis/evaluation/test_bin/lua-5.0/src/lapi.c:213
    60ed:	90                   	nop
    60ee:	c9                   	leave  
    60ef:	c3                   	ret    

00000000000060f0 <lua_type>:
lua_type():
/home/tenebris/Documents/RootCauseAnalysis/evaluation/test_bin/lua-5.0/src/lapi.c:222
    60f0:	f3 0f 1e fa          	endbr64 
    60f4:	55                   	push   %rbp
    60f5:	48 89 e5             	mov    %rsp,%rbp
    60f8:	48 83 ec 20          	sub    $0x20,%rsp
    60fc:	48 89 7d e8          	mov    %rdi,-0x18(%rbp)
    6100:	89 75 e4             	mov    %esi,-0x1c(%rbp)
/home/tenebris/Documents/RootCauseAnalysis/evaluation/test_bin/lua-5.0/src/lapi.c:223
    6103:	8b 55 e4             	mov    -0x1c(%rbp),%edx
    6106:	48 8b 45 e8          	mov    -0x18(%rbp),%rax
    610a:	89 d6                	mov    %edx,%esi
    610c:	48 89 c7             	mov    %rax,%rdi
    610f:	e8 0d fa ff ff       	call   5b21 <luaA_indexAcceptable>
    6114:	48 89 45 f8          	mov    %rax,-0x8(%rbp)
/home/tenebris/Documents/RootCauseAnalysis/evaluation/test_bin/lua-5.0/src/lapi.c:224
    6118:	48 83 7d f8 00       	cmpq   $0x0,-0x8(%rbp)
    611d:	74 08                	je     6127 <lua_type+0x37>
/home/tenebris/Documents/RootCauseAnalysis/evaluation/test_bin/lua-5.0/src/lapi.c:224 (discriminator 1)
    611f:	48 8b 45 f8          	mov    -0x8(%rbp),%rax
    6123:	8b 00                	mov    (%rax),%eax
    6125:	eb 05                	jmp    612c <lua_type+0x3c>
/home/tenebris/Documents/RootCauseAnalysis/evaluation/test_bin/lua-5.0/src/lapi.c:224 (discriminator 2)
    6127:	b8 ff ff ff ff       	mov    $0xffffffff,%eax
/home/tenebris/Documents/RootCauseAnalysis/evaluation/test_bin/lua-5.0/src/lapi.c:225 (discriminator 5)
    612c:	c9                   	leave  
    612d:	c3                   	ret    

000000000000612e <lua_typename>:
lua_typename():
/home/tenebris/Documents/RootCauseAnalysis/evaluation/test_bin/lua-5.0/src/lapi.c:228
    612e:	f3 0f 1e fa          	endbr64 
    6132:	55                   	push   %rbp
    6133:	48 89 e5             	mov    %rsp,%rbp
    6136:	48 89 7d f8          	mov    %rdi,-0x8(%rbp)
    613a:	89 75 f4             	mov    %esi,-0xc(%rbp)
/home/tenebris/Documents/RootCauseAnalysis/evaluation/test_bin/lua-5.0/src/lapi.c:230
    613d:	83 7d f4 ff          	cmpl   $0xffffffff,-0xc(%rbp)
    6141:	74 1a                	je     615d <lua_typename+0x2f>
/home/tenebris/Documents/RootCauseAnalysis/evaluation/test_bin/lua-5.0/src/lapi.c:230 (discriminator 1)
    6143:	8b 45 f4             	mov    -0xc(%rbp),%eax
    6146:	48 98                	cltq   
    6148:	48 8d 14 c5 00 00 00 	lea    0x0(,%rax,8),%rdx
    614f:	00 
    6150:	48 8d 05 09 bf 02 00 	lea    0x2bf09(%rip),%rax        # 32060 <luaT_typenames>
    6157:	48 8b 04 02          	mov    (%rdx,%rax,1),%rax
    615b:	eb 07                	jmp    6164 <lua_typename+0x36>
/home/tenebris/Documents/RootCauseAnalysis/evaluation/test_bin/lua-5.0/src/lapi.c:230 (discriminator 2)
    615d:	48 8d 05 47 22 02 00 	lea    0x22247(%rip),%rax        # 283ab <lua_ident+0x8b>
/home/tenebris/Documents/RootCauseAnalysis/evaluation/test_bin/lua-5.0/src/lapi.c:231 (discriminator 5)
    6164:	5d                   	pop    %rbp
    6165:	c3                   	ret    

0000000000006166 <lua_iscfunction>:
lua_iscfunction():
/home/tenebris/Documents/RootCauseAnalysis/evaluation/test_bin/lua-5.0/src/lapi.c:234
    6166:	f3 0f 1e fa          	endbr64 
    616a:	55                   	push   %rbp
    616b:	48 89 e5             	mov    %rsp,%rbp
    616e:	48 83 ec 20          	sub    $0x20,%rsp
    6172:	48 89 7d e8          	mov    %rdi,-0x18(%rbp)
    6176:	89 75 e4             	mov    %esi,-0x1c(%rbp)
/home/tenebris/Documents/RootCauseAnalysis/evaluation/test_bin/lua-5.0/src/lapi.c:235
    6179:	8b 55 e4             	mov    -0x1c(%rbp),%edx
    617c:	48 8b 45 e8          	mov    -0x18(%rbp),%rax
    6180:	89 d6                	mov    %edx,%esi
    6182:	48 89 c7             	mov    %rax,%rdi
    6185:	e8 97 f9 ff ff       	call   5b21 <luaA_indexAcceptable>
    618a:	48 89 45 f8          	mov    %rax,-0x8(%rbp)
/home/tenebris/Documents/RootCauseAnalysis/evaluation/test_bin/lua-5.0/src/lapi.c:236
    618e:	48 83 7d f8 00       	cmpq   $0x0,-0x8(%rbp)
    6193:	74 22                	je     61b7 <lua_iscfunction+0x51>
/home/tenebris/Documents/RootCauseAnalysis/evaluation/test_bin/lua-5.0/src/lapi.c:236 (discriminator 1)
    6195:	48 8b 45 f8          	mov    -0x8(%rbp),%rax
    6199:	8b 00                	mov    (%rax),%eax
    619b:	83 f8 06             	cmp    $0x6,%eax
    619e:	75 17                	jne    61b7 <lua_iscfunction+0x51>
/home/tenebris/Documents/RootCauseAnalysis/evaluation/test_bin/lua-5.0/src/lapi.c:236 (discriminator 3)
    61a0:	48 8b 45 f8          	mov    -0x8(%rbp),%rax
    61a4:	48 8b 40 08          	mov    0x8(%rax),%rax
    61a8:	0f b6 40 0a          	movzbl 0xa(%rax),%eax
    61ac:	84 c0                	test   %al,%al
    61ae:	74 07                	je     61b7 <lua_iscfunction+0x51>
/home/tenebris/Documents/RootCauseAnalysis/evaluation/test_bin/lua-5.0/src/lapi.c:236 (discriminator 5)
    61b0:	b8 01 00 00 00       	mov    $0x1,%eax
    61b5:	eb 05                	jmp    61bc <lua_iscfunction+0x56>
/home/tenebris/Documents/RootCauseAnalysis/evaluation/test_bin/lua-5.0/src/lapi.c:236 (discriminator 6)
    61b7:	b8 00 00 00 00       	mov    $0x0,%eax
/home/tenebris/Documents/RootCauseAnalysis/evaluation/test_bin/lua-5.0/src/lapi.c:237 (discriminator 9)
    61bc:	c9                   	leave  
    61bd:	c3                   	ret    

00000000000061be <lua_isnumber>:
lua_isnumber():
/home/tenebris/Documents/RootCauseAnalysis/evaluation/test_bin/lua-5.0/src/lapi.c:240
    61be:	f3 0f 1e fa          	endbr64 
    61c2:	55                   	push   %rbp
    61c3:	48 89 e5             	mov    %rsp,%rbp
    61c6:	48 83 ec 40          	sub    $0x40,%rsp
    61ca:	48 89 7d c8          	mov    %rdi,-0x38(%rbp)
    61ce:	89 75 c4             	mov    %esi,-0x3c(%rbp)
    61d1:	64 48 8b 04 25 28 00 	mov    %fs:0x28,%rax
    61d8:	00 00 
    61da:	48 89 45 f8          	mov    %rax,-0x8(%rbp)
    61de:	31 c0                	xor    %eax,%eax
/home/tenebris/Documents/RootCauseAnalysis/evaluation/test_bin/lua-5.0/src/lapi.c:242
    61e0:	8b 55 c4             	mov    -0x3c(%rbp),%edx
    61e3:	48 8b 45 c8          	mov    -0x38(%rbp),%rax
    61e7:	89 d6                	mov    %edx,%esi
    61e9:	48 89 c7             	mov    %rax,%rdi
    61ec:	e8 30 f9 ff ff       	call   5b21 <luaA_indexAcceptable>
    61f1:	48 89 45 d8          	mov    %rax,-0x28(%rbp)
/home/tenebris/Documents/RootCauseAnalysis/evaluation/test_bin/lua-5.0/src/lapi.c:243
    61f5:	48 83 7d d8 00       	cmpq   $0x0,-0x28(%rbp)
    61fa:	74 30                	je     622c <lua_isnumber+0x6e>
/home/tenebris/Documents/RootCauseAnalysis/evaluation/test_bin/lua-5.0/src/lapi.c:243 (discriminator 1)
    61fc:	48 8b 45 d8          	mov    -0x28(%rbp),%rax
    6200:	8b 00                	mov    (%rax),%eax
    6202:	83 f8 03             	cmp    $0x3,%eax
    6205:	74 1e                	je     6225 <lua_isnumber+0x67>
/home/tenebris/Documents/RootCauseAnalysis/evaluation/test_bin/lua-5.0/src/lapi.c:243 (discriminator 4)
    6207:	48 8d 55 e0          	lea    -0x20(%rbp),%rdx
    620b:	48 8b 45 d8          	mov    -0x28(%rbp),%rax
    620f:	48 89 d6             	mov    %rdx,%rsi
    6212:	48 89 c7             	mov    %rax,%rdi
    6215:	e8 7c e7 00 00       	call   14996 <luaV_tonumber>
    621a:	48 89 45 d8          	mov    %rax,-0x28(%rbp)
    621e:	48 83 7d d8 00       	cmpq   $0x0,-0x28(%rbp)
    6223:	74 07                	je     622c <lua_isnumber+0x6e>
/home/tenebris/Documents/RootCauseAnalysis/evaluation/test_bin/lua-5.0/src/lapi.c:243 (discriminator 5)
    6225:	b8 01 00 00 00       	mov    $0x1,%eax
    622a:	eb 05                	jmp    6231 <lua_isnumber+0x73>
/home/tenebris/Documents/RootCauseAnalysis/evaluation/test_bin/lua-5.0/src/lapi.c:243 (discriminator 6)
    622c:	b8 00 00 00 00       	mov    $0x0,%eax
/home/tenebris/Documents/RootCauseAnalysis/evaluation/test_bin/lua-5.0/src/lapi.c:244
    6231:	48 8b 55 f8          	mov    -0x8(%rbp),%rdx
    6235:	64 48 2b 14 25 28 00 	sub    %fs:0x28,%rdx
    623c:	00 00 
    623e:	74 05                	je     6245 <lua_isnumber+0x87>
    6240:	e8 0b e4 ff ff       	call   4650 <__stack_chk_fail@plt>
    6245:	c9                   	leave  
    6246:	c3                   	ret    

0000000000006247 <lua_isstring>:
lua_isstring():
/home/tenebris/Documents/RootCauseAnalysis/evaluation/test_bin/lua-5.0/src/lapi.c:247
    6247:	f3 0f 1e fa          	endbr64 
    624b:	55                   	push   %rbp
    624c:	48 89 e5             	mov    %rsp,%rbp
    624f:	48 83 ec 20          	sub    $0x20,%rsp
    6253:	48 89 7d e8          	mov    %rdi,-0x18(%rbp)
    6257:	89 75 e4             	mov    %esi,-0x1c(%rbp)
/home/tenebris/Documents/RootCauseAnalysis/evaluation/test_bin/lua-5.0/src/lapi.c:248
    625a:	8b 55 e4             	mov    -0x1c(%rbp),%edx
    625d:	48 8b 45 e8          	mov    -0x18(%rbp),%rax
    6261:	89 d6                	mov    %edx,%esi
    6263:	48 89 c7             	mov    %rax,%rdi
    6266:	e8 85 fe ff ff       	call   60f0 <lua_type>
    626b:	89 45 fc             	mov    %eax,-0x4(%rbp)
/home/tenebris/Documents/RootCauseAnalysis/evaluation/test_bin/lua-5.0/src/lapi.c:249
    626e:	83 7d fc 04          	cmpl   $0x4,-0x4(%rbp)
    6272:	74 06                	je     627a <lua_isstring+0x33>
/home/tenebris/Documents/RootCauseAnalysis/evaluation/test_bin/lua-5.0/src/lapi.c:249 (discriminator 2)
    6274:	83 7d fc 03          	cmpl   $0x3,-0x4(%rbp)
    6278:	75 07                	jne    6281 <lua_isstring+0x3a>
/home/tenebris/Documents/RootCauseAnalysis/evaluation/test_bin/lua-5.0/src/lapi.c:249 (discriminator 3)
    627a:	b8 01 00 00 00       	mov    $0x1,%eax
    627f:	eb 05                	jmp    6286 <lua_isstring+0x3f>
/home/tenebris/Documents/RootCauseAnalysis/evaluation/test_bin/lua-5.0/src/lapi.c:249 (discriminator 4)
    6281:	b8 00 00 00 00       	mov    $0x0,%eax
/home/tenebris/Documents/RootCauseAnalysis/evaluation/test_bin/lua-5.0/src/lapi.c:250 (discriminator 7)
    6286:	c9                   	leave  
    6287:	c3                   	ret    

0000000000006288 <lua_isuserdata>:
lua_isuserdata():
/home/tenebris/Documents/RootCauseAnalysis/evaluation/test_bin/lua-5.0/src/lapi.c:253
    6288:	f3 0f 1e fa          	endbr64 
    628c:	55                   	push   %rbp
    628d:	48 89 e5             	mov    %rsp,%rbp
    6290:	48 83 ec 20          	sub    $0x20,%rsp
    6294:	48 89 7d e8          	mov    %rdi,-0x18(%rbp)
    6298:	89 75 e4             	mov    %esi,-0x1c(%rbp)
/home/tenebris/Documents/RootCauseAnalysis/evaluation/test_bin/lua-5.0/src/lapi.c:254
    629b:	8b 55 e4             	mov    -0x1c(%rbp),%edx
    629e:	48 8b 45 e8          	mov    -0x18(%rbp),%rax
    62a2:	89 d6                	mov    %edx,%esi
    62a4:	48 89 c7             	mov    %rax,%rdi
    62a7:	e8 75 f8 ff ff       	call   5b21 <luaA_indexAcceptable>
    62ac:	48 89 45 f8          	mov    %rax,-0x8(%rbp)
/home/tenebris/Documents/RootCauseAnalysis/evaluation/test_bin/lua-5.0/src/lapi.c:255
    62b0:	48 83 7d f8 00       	cmpq   $0x0,-0x8(%rbp)
    62b5:	74 1d                	je     62d4 <lua_isuserdata+0x4c>
/home/tenebris/Documents/RootCauseAnalysis/evaluation/test_bin/lua-5.0/src/lapi.c:255 (discriminator 1)
    62b7:	48 8b 45 f8          	mov    -0x8(%rbp),%rax
    62bb:	8b 00                	mov    (%rax),%eax
    62bd:	83 f8 07             	cmp    $0x7,%eax
    62c0:	74 0b                	je     62cd <lua_isuserdata+0x45>
/home/tenebris/Documents/RootCauseAnalysis/evaluation/test_bin/lua-5.0/src/lapi.c:255 (discriminator 4)
    62c2:	48 8b 45 f8          	mov    -0x8(%rbp),%rax
    62c6:	8b 00                	mov    (%rax),%eax
    62c8:	83 f8 02             	cmp    $0x2,%eax
    62cb:	75 07                	jne    62d4 <lua_isuserdata+0x4c>
/home/tenebris/Documents/RootCauseAnalysis/evaluation/test_bin/lua-5.0/src/lapi.c:255 (discriminator 5)
    62cd:	b8 01 00 00 00       	mov    $0x1,%eax
    62d2:	eb 05                	jmp    62d9 <lua_isuserdata+0x51>
/home/tenebris/Documents/RootCauseAnalysis/evaluation/test_bin/lua-5.0/src/lapi.c:255 (discriminator 6)
    62d4:	b8 00 00 00 00       	mov    $0x0,%eax
/home/tenebris/Documents/RootCauseAnalysis/evaluation/test_bin/lua-5.0/src/lapi.c:256 (discriminator 9)
    62d9:	c9                   	leave  
    62da:	c3                   	ret    

00000000000062db <lua_rawequal>:
lua_rawequal():
/home/tenebris/Documents/RootCauseAnalysis/evaluation/test_bin/lua-5.0/src/lapi.c:259
    62db:	f3 0f 1e fa          	endbr64 
    62df:	55                   	push   %rbp
    62e0:	48 89 e5             	mov    %rsp,%rbp
    62e3:	48 83 ec 20          	sub    $0x20,%rsp
    62e7:	48 89 7d e8          	mov    %rdi,-0x18(%rbp)
    62eb:	89 75 e4             	mov    %esi,-0x1c(%rbp)
    62ee:	89 55 e0             	mov    %edx,-0x20(%rbp)
/home/tenebris/Documents/RootCauseAnalysis/evaluation/test_bin/lua-5.0/src/lapi.c:260
    62f1:	8b 55 e4             	mov    -0x1c(%rbp),%edx
    62f4:	48 8b 45 e8          	mov    -0x18(%rbp),%rax
    62f8:	89 d6                	mov    %edx,%esi
    62fa:	48 89 c7             	mov    %rax,%rdi
    62fd:	e8 1f f8 ff ff       	call   5b21 <luaA_indexAcceptable>
    6302:	48 89 45 f0          	mov    %rax,-0x10(%rbp)
/home/tenebris/Documents/RootCauseAnalysis/evaluation/test_bin/lua-5.0/src/lapi.c:261
    6306:	8b 55 e0             	mov    -0x20(%rbp),%edx
    6309:	48 8b 45 e8          	mov    -0x18(%rbp),%rax
    630d:	89 d6                	mov    %edx,%esi
    630f:	48 89 c7             	mov    %rax,%rdi
    6312:	e8 0a f8 ff ff       	call   5b21 <luaA_indexAcceptable>
    6317:	48 89 45 f8          	mov    %rax,-0x8(%rbp)
/home/tenebris/Documents/RootCauseAnalysis/evaluation/test_bin/lua-5.0/src/lapi.c:263
    631b:	48 83 7d f0 00       	cmpq   $0x0,-0x10(%rbp)
    6320:	74 1c                	je     633e <lua_rawequal+0x63>
/home/tenebris/Documents/RootCauseAnalysis/evaluation/test_bin/lua-5.0/src/lapi.c:262
    6322:	48 83 7d f8 00       	cmpq   $0x0,-0x8(%rbp)
    6327:	74 15                	je     633e <lua_rawequal+0x63>
/home/tenebris/Documents/RootCauseAnalysis/evaluation/test_bin/lua-5.0/src/lapi.c:263
    6329:	48 8b 55 f8          	mov    -0x8(%rbp),%rdx
    632d:	48 8b 45 f0          	mov    -0x10(%rbp),%rax
    6331:	48 89 d6             	mov    %rdx,%rsi
    6334:	48 89 c7             	mov    %rax,%rdi
    6337:	e8 a0 70 00 00       	call   d3dc <luaO_rawequalObj>
    633c:	eb 05                	jmp    6343 <lua_rawequal+0x68>
/home/tenebris/Documents/RootCauseAnalysis/evaluation/test_bin/lua-5.0/src/lapi.c:263 (discriminator 1)
    633e:	b8 00 00 00 00       	mov    $0x0,%eax
/home/tenebris/Documents/RootCauseAnalysis/evaluation/test_bin/lua-5.0/src/lapi.c:264 (discriminator 4)
    6343:	c9                   	leave  
    6344:	c3                   	ret    

0000000000006345 <lua_equal>:
lua_equal():
/home/tenebris/Documents/RootCauseAnalysis/evaluation/test_bin/lua-5.0/src/lapi.c:267
    6345:	f3 0f 1e fa          	endbr64 
    6349:	55                   	push   %rbp
    634a:	48 89 e5             	mov    %rsp,%rbp
    634d:	48 83 ec 30          	sub    $0x30,%rsp
    6351:	48 89 7d d8          	mov    %rdi,-0x28(%rbp)
    6355:	89 75 d4             	mov    %esi,-0x2c(%rbp)
    6358:	89 55 d0             	mov    %edx,-0x30(%rbp)
/home/tenebris/Documents/RootCauseAnalysis/evaluation/test_bin/lua-5.0/src/lapi.c:271
    635b:	8b 55 d4             	mov    -0x2c(%rbp),%edx
    635e:	48 8b 45 d8          	mov    -0x28(%rbp),%rax
    6362:	89 d6                	mov    %edx,%esi
    6364:	48 89 c7             	mov    %rax,%rdi
    6367:	e8 b5 f7 ff ff       	call   5b21 <luaA_indexAcceptable>
    636c:	48 89 45 f0          	mov    %rax,-0x10(%rbp)
/home/tenebris/Documents/RootCauseAnalysis/evaluation/test_bin/lua-5.0/src/lapi.c:272
    6370:	8b 55 d0             	mov    -0x30(%rbp),%edx
    6373:	48 8b 45 d8          	mov    -0x28(%rbp),%rax
    6377:	89 d6                	mov    %edx,%esi
    6379:	48 89 c7             	mov    %rax,%rdi
    637c:	e8 a0 f7 ff ff       	call   5b21 <luaA_indexAcceptable>
    6381:	48 89 45 f8          	mov    %rax,-0x8(%rbp)
/home/tenebris/Documents/RootCauseAnalysis/evaluation/test_bin/lua-5.0/src/lapi.c:274
    6385:	48 83 7d f0 00       	cmpq   $0x0,-0x10(%rbp)
    638a:	74 39                	je     63c5 <lua_equal+0x80>
/home/tenebris/Documents/RootCauseAnalysis/evaluation/test_bin/lua-5.0/src/lapi.c:273
    638c:	48 83 7d f8 00       	cmpq   $0x0,-0x8(%rbp)
    6391:	74 32                	je     63c5 <lua_equal+0x80>
/home/tenebris/Documents/RootCauseAnalysis/evaluation/test_bin/lua-5.0/src/lapi.c:274 (discriminator 3)
    6393:	48 8b 45 f0          	mov    -0x10(%rbp),%rax
    6397:	8b 10                	mov    (%rax),%edx
    6399:	48 8b 45 f8          	mov    -0x8(%rbp),%rax
    639d:	8b 00                	mov    (%rax),%eax
    639f:	39 c2                	cmp    %eax,%edx
    63a1:	75 22                	jne    63c5 <lua_equal+0x80>
/home/tenebris/Documents/RootCauseAnalysis/evaluation/test_bin/lua-5.0/src/lapi.c:274 (discriminator 2)
    63a3:	48 8b 55 f8          	mov    -0x8(%rbp),%rdx
    63a7:	48 8b 4d f0          	mov    -0x10(%rbp),%rcx
    63ab:	48 8b 45 d8          	mov    -0x28(%rbp),%rax
    63af:	48 89 ce             	mov    %rcx,%rsi
    63b2:	48 89 c7             	mov    %rax,%rdi
    63b5:	e8 6d f4 00 00       	call   15827 <luaV_equalval>
    63ba:	85 c0                	test   %eax,%eax
    63bc:	74 07                	je     63c5 <lua_equal+0x80>
/home/tenebris/Documents/RootCauseAnalysis/evaluation/test_bin/lua-5.0/src/lapi.c:274 (discriminator 4)
    63be:	b8 01 00 00 00       	mov    $0x1,%eax
    63c3:	eb 05                	jmp    63ca <lua_equal+0x85>
/home/tenebris/Documents/RootCauseAnalysis/evaluation/test_bin/lua-5.0/src/lapi.c:274 (discriminator 5)
    63c5:	b8 00 00 00 00       	mov    $0x0,%eax
/home/tenebris/Documents/RootCauseAnalysis/evaluation/test_bin/lua-5.0/src/lapi.c:273
    63ca:	89 45 ec             	mov    %eax,-0x14(%rbp)
/home/tenebris/Documents/RootCauseAnalysis/evaluation/test_bin/lua-5.0/src/lapi.c:276
    63cd:	8b 45 ec             	mov    -0x14(%rbp),%eax
/home/tenebris/Documents/RootCauseAnalysis/evaluation/test_bin/lua-5.0/src/lapi.c:277
    63d0:	c9                   	leave  
    63d1:	c3                   	ret    

00000000000063d2 <lua_lessthan>:
lua_lessthan():
/home/tenebris/Documents/RootCauseAnalysis/evaluation/test_bin/lua-5.0/src/lapi.c:280
    63d2:	f3 0f 1e fa          	endbr64 
    63d6:	55                   	push   %rbp
    63d7:	48 89 e5             	mov    %rsp,%rbp
    63da:	48 83 ec 30          	sub    $0x30,%rsp
    63de:	48 89 7d d8          	mov    %rdi,-0x28(%rbp)
    63e2:	89 75 d4             	mov    %esi,-0x2c(%rbp)
    63e5:	89 55 d0             	mov    %edx,-0x30(%rbp)
/home/tenebris/Documents/RootCauseAnalysis/evaluation/test_bin/lua-5.0/src/lapi.c:284
    63e8:	8b 55 d4             	mov    -0x2c(%rbp),%edx
    63eb:	48 8b 45 d8          	mov    -0x28(%rbp),%rax
    63ef:	89 d6                	mov    %edx,%esi
    63f1:	48 89 c7             	mov    %rax,%rdi
    63f4:	e8 28 f7 ff ff       	call   5b21 <luaA_indexAcceptable>
    63f9:	48 89 45 f0          	mov    %rax,-0x10(%rbp)
/home/tenebris/Documents/RootCauseAnalysis/evaluation/test_bin/lua-5.0/src/lapi.c:285
    63fd:	8b 55 d0             	mov    -0x30(%rbp),%edx
    6400:	48 8b 45 d8          	mov    -0x28(%rbp),%rax
    6404:	89 d6                	mov    %edx,%esi
    6406:	48 89 c7             	mov    %rax,%rdi
    6409:	e8 13 f7 ff ff       	call   5b21 <luaA_indexAcceptable>
    640e:	48 89 45 f8          	mov    %rax,-0x8(%rbp)
/home/tenebris/Documents/RootCauseAnalysis/evaluation/test_bin/lua-5.0/src/lapi.c:287
    6412:	48 83 7d f0 00       	cmpq   $0x0,-0x10(%rbp)
    6417:	74 20                	je     6439 <lua_lessthan+0x67>
/home/tenebris/Documents/RootCauseAnalysis/evaluation/test_bin/lua-5.0/src/lapi.c:286
    6419:	48 83 7d f8 00       	cmpq   $0x0,-0x8(%rbp)
    641e:	74 19                	je     6439 <lua_lessthan+0x67>
/home/tenebris/Documents/RootCauseAnalysis/evaluation/test_bin/lua-5.0/src/lapi.c:287
    6420:	48 8b 55 f8          	mov    -0x8(%rbp),%rdx
    6424:	48 8b 4d f0          	mov    -0x10(%rbp),%rcx
    6428:	48 8b 45 d8          	mov    -0x28(%rbp),%rax
    642c:	48 89 ce             	mov    %rcx,%rsi
    642f:	48 89 c7             	mov    %rax,%rdi
    6432:	e8 01 f2 00 00       	call   15638 <luaV_lessthan>
    6437:	eb 05                	jmp    643e <lua_lessthan+0x6c>
/home/tenebris/Documents/RootCauseAnalysis/evaluation/test_bin/lua-5.0/src/lapi.c:287 (discriminator 1)
    6439:	b8 00 00 00 00       	mov    $0x0,%eax
/home/tenebris/Documents/RootCauseAnalysis/evaluation/test_bin/lua-5.0/src/lapi.c:286
    643e:	89 45 ec             	mov    %eax,-0x14(%rbp)
/home/tenebris/Documents/RootCauseAnalysis/evaluation/test_bin/lua-5.0/src/lapi.c:289
    6441:	8b 45 ec             	mov    -0x14(%rbp),%eax
/home/tenebris/Documents/RootCauseAnalysis/evaluation/test_bin/lua-5.0/src/lapi.c:290
    6444:	c9                   	leave  
    6445:	c3                   	ret    

0000000000006446 <lua_tonumber>:
lua_tonumber():
/home/tenebris/Documents/RootCauseAnalysis/evaluation/test_bin/lua-5.0/src/lapi.c:294
    6446:	f3 0f 1e fa          	endbr64 
    644a:	55                   	push   %rbp
    644b:	48 89 e5             	mov    %rsp,%rbp
    644e:	48 83 ec 40          	sub    $0x40,%rsp
    6452:	48 89 7d c8          	mov    %rdi,-0x38(%rbp)
    6456:	89 75 c4             	mov    %esi,-0x3c(%rbp)
    6459:	64 48 8b 04 25 28 00 	mov    %fs:0x28,%rax
    6460:	00 00 
    6462:	48 89 45 f8          	mov    %rax,-0x8(%rbp)
    6466:	31 c0                	xor    %eax,%eax
/home/tenebris/Documents/RootCauseAnalysis/evaluation/test_bin/lua-5.0/src/lapi.c:296
    6468:	8b 55 c4             	mov    -0x3c(%rbp),%edx
    646b:	48 8b 45 c8          	mov    -0x38(%rbp),%rax
    646f:	89 d6                	mov    %edx,%esi
    6471:	48 89 c7             	mov    %rax,%rdi
    6474:	e8 a8 f6 ff ff       	call   5b21 <luaA_indexAcceptable>
    6479:	48 89 45 d8          	mov    %rax,-0x28(%rbp)
/home/tenebris/Documents/RootCauseAnalysis/evaluation/test_bin/lua-5.0/src/lapi.c:297
    647d:	48 83 7d d8 00       	cmpq   $0x0,-0x28(%rbp)
    6482:	74 34                	je     64b8 <lua_tonumber+0x72>
/home/tenebris/Documents/RootCauseAnalysis/evaluation/test_bin/lua-5.0/src/lapi.c:297 (discriminator 1)
    6484:	48 8b 45 d8          	mov    -0x28(%rbp),%rax
    6488:	8b 00                	mov    (%rax),%eax
    648a:	83 f8 03             	cmp    $0x3,%eax
    648d:	74 1e                	je     64ad <lua_tonumber+0x67>
/home/tenebris/Documents/RootCauseAnalysis/evaluation/test_bin/lua-5.0/src/lapi.c:297 (discriminator 2)
    648f:	48 8d 55 e0          	lea    -0x20(%rbp),%rdx
    6493:	48 8b 45 d8          	mov    -0x28(%rbp),%rax
    6497:	48 89 d6             	mov    %rdx,%rsi
    649a:	48 89 c7             	mov    %rax,%rdi
    649d:	e8 f4 e4 00 00       	call   14996 <luaV_tonumber>
    64a2:	48 89 45 d8          	mov    %rax,-0x28(%rbp)
    64a6:	48 83 7d d8 00       	cmpq   $0x0,-0x28(%rbp)
    64ab:	74 0b                	je     64b8 <lua_tonumber+0x72>
/home/tenebris/Documents/RootCauseAnalysis/evaluation/test_bin/lua-5.0/src/lapi.c:298
    64ad:	48 8b 45 d8          	mov    -0x28(%rbp),%rax
    64b1:	f2 0f 10 40 08       	movsd  0x8(%rax),%xmm0
    64b6:	eb 04                	jmp    64bc <lua_tonumber+0x76>
/home/tenebris/Documents/RootCauseAnalysis/evaluation/test_bin/lua-5.0/src/lapi.c:300
    64b8:	66 0f ef c0          	pxor   %xmm0,%xmm0
/home/tenebris/Documents/RootCauseAnalysis/evaluation/test_bin/lua-5.0/src/lapi.c:301 (discriminator 1)
    64bc:	66 48 0f 7e c0       	movq   %xmm0,%rax
    64c1:	48 8b 55 f8          	mov    -0x8(%rbp),%rdx
    64c5:	64 48 2b 14 25 28 00 	sub    %fs:0x28,%rdx
    64cc:	00 00 
    64ce:	74 05                	je     64d5 <lua_tonumber+0x8f>
/home/tenebris/Documents/RootCauseAnalysis/evaluation/test_bin/lua-5.0/src/lapi.c:301
    64d0:	e8 7b e1 ff ff       	call   4650 <__stack_chk_fail@plt>
    64d5:	66 48 0f 6e c0       	movq   %rax,%xmm0
    64da:	c9                   	leave  
    64db:	c3                   	ret    

00000000000064dc <lua_toboolean>:
lua_toboolean():
/home/tenebris/Documents/RootCauseAnalysis/evaluation/test_bin/lua-5.0/src/lapi.c:304
    64dc:	f3 0f 1e fa          	endbr64 
    64e0:	55                   	push   %rbp
    64e1:	48 89 e5             	mov    %rsp,%rbp
    64e4:	48 83 ec 20          	sub    $0x20,%rsp
    64e8:	48 89 7d e8          	mov    %rdi,-0x18(%rbp)
    64ec:	89 75 e4             	mov    %esi,-0x1c(%rbp)
/home/tenebris/Documents/RootCauseAnalysis/evaluation/test_bin/lua-5.0/src/lapi.c:305
    64ef:	8b 55 e4             	mov    -0x1c(%rbp),%edx
    64f2:	48 8b 45 e8          	mov    -0x18(%rbp),%rax
    64f6:	89 d6                	mov    %edx,%esi
    64f8:	48 89 c7             	mov    %rax,%rdi
    64fb:	e8 21 f6 ff ff       	call   5b21 <luaA_indexAcceptable>
    6500:	48 89 45 f8          	mov    %rax,-0x8(%rbp)
/home/tenebris/Documents/RootCauseAnalysis/evaluation/test_bin/lua-5.0/src/lapi.c:306
    6504:	48 83 7d f8 00       	cmpq   $0x0,-0x8(%rbp)
    6509:	74 27                	je     6532 <lua_toboolean+0x56>
/home/tenebris/Documents/RootCauseAnalysis/evaluation/test_bin/lua-5.0/src/lapi.c:306 (discriminator 1)
    650b:	48 8b 45 f8          	mov    -0x8(%rbp),%rax
    650f:	8b 00                	mov    (%rax),%eax
    6511:	85 c0                	test   %eax,%eax
    6513:	74 1d                	je     6532 <lua_toboolean+0x56>
/home/tenebris/Documents/RootCauseAnalysis/evaluation/test_bin/lua-5.0/src/lapi.c:306 (discriminator 3)
    6515:	48 8b 45 f8          	mov    -0x8(%rbp),%rax
    6519:	8b 00                	mov    (%rax),%eax
    651b:	83 f8 01             	cmp    $0x1,%eax
    651e:	75 0b                	jne    652b <lua_toboolean+0x4f>
/home/tenebris/Documents/RootCauseAnalysis/evaluation/test_bin/lua-5.0/src/lapi.c:306 (discriminator 6)
    6520:	48 8b 45 f8          	mov    -0x8(%rbp),%rax
    6524:	8b 40 08             	mov    0x8(%rax),%eax
    6527:	85 c0                	test   %eax,%eax
    6529:	74 07                	je     6532 <lua_toboolean+0x56>
/home/tenebris/Documents/RootCauseAnalysis/evaluation/test_bin/lua-5.0/src/lapi.c:306 (discriminator 7)
    652b:	b8 01 00 00 00       	mov    $0x1,%eax
    6530:	eb 05                	jmp    6537 <lua_toboolean+0x5b>
/home/tenebris/Documents/RootCauseAnalysis/evaluation/test_bin/lua-5.0/src/lapi.c:306 (discriminator 8)
    6532:	b8 00 00 00 00       	mov    $0x0,%eax
/home/tenebris/Documents/RootCauseAnalysis/evaluation/test_bin/lua-5.0/src/lapi.c:307 (discriminator 11)
    6537:	c9                   	leave  
    6538:	c3                   	ret    

0000000000006539 <lua_tostring>:
lua_tostring():
/home/tenebris/Documents/RootCauseAnalysis/evaluation/test_bin/lua-5.0/src/lapi.c:310
    6539:	f3 0f 1e fa          	endbr64 
    653d:	55                   	push   %rbp
    653e:	48 89 e5             	mov    %rsp,%rbp
    6541:	48 83 ec 20          	sub    $0x20,%rsp
    6545:	48 89 7d e8          	mov    %rdi,-0x18(%rbp)
    6549:	89 75 e4             	mov    %esi,-0x1c(%rbp)
/home/tenebris/Documents/RootCauseAnalysis/evaluation/test_bin/lua-5.0/src/lapi.c:311
    654c:	8b 55 e4             	mov    -0x1c(%rbp),%edx
    654f:	48 8b 45 e8          	mov    -0x18(%rbp),%rax
    6553:	89 d6                	mov    %edx,%esi
    6555:	48 89 c7             	mov    %rax,%rdi
    6558:	e8 c4 f5 ff ff       	call   5b21 <luaA_indexAcceptable>
    655d:	48 89 45 f0          	mov    %rax,-0x10(%rbp)
/home/tenebris/Documents/RootCauseAnalysis/evaluation/test_bin/lua-5.0/src/lapi.c:312
    6561:	48 83 7d f0 00       	cmpq   $0x0,-0x10(%rbp)
    6566:	75 07                	jne    656f <lua_tostring+0x36>
/home/tenebris/Documents/RootCauseAnalysis/evaluation/test_bin/lua-5.0/src/lapi.c:313
    6568:	b8 00 00 00 00       	mov    $0x0,%eax
    656d:	eb 74                	jmp    65e3 <lua_tostring+0xaa>
/home/tenebris/Documents/RootCauseAnalysis/evaluation/test_bin/lua-5.0/src/lapi.c:314
    656f:	48 8b 45 f0          	mov    -0x10(%rbp),%rax
    6573:	8b 00                	mov    (%rax),%eax
    6575:	83 f8 04             	cmp    $0x4,%eax
    6578:	75 0e                	jne    6588 <lua_tostring+0x4f>
/home/tenebris/Documents/RootCauseAnalysis/evaluation/test_bin/lua-5.0/src/lapi.c:315
    657a:	48 8b 45 f0          	mov    -0x10(%rbp),%rax
    657e:	48 8b 40 08          	mov    0x8(%rax),%rax
    6582:	48 83 c0 18          	add    $0x18,%rax
    6586:	eb 5b                	jmp    65e3 <lua_tostring+0xaa>
/home/tenebris/Documents/RootCauseAnalysis/evaluation/test_bin/lua-5.0/src/lapi.c:319
    6588:	48 8b 55 f0          	mov    -0x10(%rbp),%rdx
    658c:	48 8b 45 e8          	mov    -0x18(%rbp),%rax
    6590:	48 89 d6             	mov    %rdx,%rsi
    6593:	48 89 c7             	mov    %rax,%rdi
    6596:	e8 9a e4 00 00       	call   14a35 <luaV_tostring>
    659b:	85 c0                	test   %eax,%eax
    659d:	74 0e                	je     65ad <lua_tostring+0x74>
/home/tenebris/Documents/RootCauseAnalysis/evaluation/test_bin/lua-5.0/src/lapi.c:319 (discriminator 1)
    659f:	48 8b 45 f0          	mov    -0x10(%rbp),%rax
    65a3:	48 8b 40 08          	mov    0x8(%rax),%rax
    65a7:	48 83 c0 18          	add    $0x18,%rax
    65ab:	eb 05                	jmp    65b2 <lua_tostring+0x79>
/home/tenebris/Documents/RootCauseAnalysis/evaluation/test_bin/lua-5.0/src/lapi.c:319 (discriminator 2)
    65ad:	b8 00 00 00 00       	mov    $0x0,%eax
/home/tenebris/Documents/RootCauseAnalysis/evaluation/test_bin/lua-5.0/src/lapi.c:319 (discriminator 4)
    65b2:	48 89 45 f8          	mov    %rax,-0x8(%rbp)
/home/tenebris/Documents/RootCauseAnalysis/evaluation/test_bin/lua-5.0/src/lapi.c:320 (discriminator 4)
    65b6:	48 8b 45 e8          	mov    -0x18(%rbp),%rax
    65ba:	48 8b 40 20          	mov    0x20(%rax),%rax
    65be:	48 8b 50 48          	mov    0x48(%rax),%rdx
    65c2:	48 8b 45 e8          	mov    -0x18(%rbp),%rax
    65c6:	48 8b 40 20          	mov    0x20(%rax),%rax
    65ca:	48 8b 40 40          	mov    0x40(%rax),%rax
    65ce:	48 39 c2             	cmp    %rax,%rdx
    65d1:	72 0c                	jb     65df <lua_tostring+0xa6>
/home/tenebris/Documents/RootCauseAnalysis/evaluation/test_bin/lua-5.0/src/lapi.c:320 (discriminator 1)
    65d3:	48 8b 45 e8          	mov    -0x18(%rbp),%rax
    65d7:	48 89 c7             	mov    %rax,%rdi
    65da:	e8 c0 6a 00 00       	call   d09f <luaC_collectgarbage>
/home/tenebris/Documents/RootCauseAnalysis/evaluation/test_bin/lua-5.0/src/lapi.c:322
    65df:	48 8b 45 f8          	mov    -0x8(%rbp),%rax
/home/tenebris/Documents/RootCauseAnalysis/evaluation/test_bin/lua-5.0/src/lapi.c:324
    65e3:	c9                   	leave  
    65e4:	c3                   	ret    

00000000000065e5 <lua_strlen>:
lua_strlen():
/home/tenebris/Documents/RootCauseAnalysis/evaluation/test_bin/lua-5.0/src/lapi.c:327
    65e5:	f3 0f 1e fa          	endbr64 
    65e9:	55                   	push   %rbp
    65ea:	48 89 e5             	mov    %rsp,%rbp
    65ed:	48 83 ec 20          	sub    $0x20,%rsp
    65f1:	48 89 7d e8          	mov    %rdi,-0x18(%rbp)
    65f5:	89 75 e4             	mov    %esi,-0x1c(%rbp)
/home/tenebris/Documents/RootCauseAnalysis/evaluation/test_bin/lua-5.0/src/lapi.c:328
    65f8:	8b 55 e4             	mov    -0x1c(%rbp),%edx
    65fb:	48 8b 45 e8          	mov    -0x18(%rbp),%rax
    65ff:	89 d6                	mov    %edx,%esi
    6601:	48 89 c7             	mov    %rax,%rdi
    6604:	e8 18 f5 ff ff       	call   5b21 <luaA_indexAcceptable>
    6609:	48 89 45 f0          	mov    %rax,-0x10(%rbp)
/home/tenebris/Documents/RootCauseAnalysis/evaluation/test_bin/lua-5.0/src/lapi.c:329
    660d:	48 83 7d f0 00       	cmpq   $0x0,-0x10(%rbp)
    6612:	75 07                	jne    661b <lua_strlen+0x36>
/home/tenebris/Documents/RootCauseAnalysis/evaluation/test_bin/lua-5.0/src/lapi.c:330
    6614:	b8 00 00 00 00       	mov    $0x0,%eax
    6619:	eb 4b                	jmp    6666 <lua_strlen+0x81>
/home/tenebris/Documents/RootCauseAnalysis/evaluation/test_bin/lua-5.0/src/lapi.c:331
    661b:	48 8b 45 f0          	mov    -0x10(%rbp),%rax
    661f:	8b 00                	mov    (%rax),%eax
    6621:	83 f8 04             	cmp    $0x4,%eax
    6624:	75 0e                	jne    6634 <lua_strlen+0x4f>
/home/tenebris/Documents/RootCauseAnalysis/evaluation/test_bin/lua-5.0/src/lapi.c:332
    6626:	48 8b 45 f0          	mov    -0x10(%rbp),%rax
    662a:	48 8b 40 08          	mov    0x8(%rax),%rax
    662e:	48 8b 40 10          	mov    0x10(%rax),%rax
    6632:	eb 32                	jmp    6666 <lua_strlen+0x81>
/home/tenebris/Documents/RootCauseAnalysis/evaluation/test_bin/lua-5.0/src/lapi.c:336
    6634:	48 8b 55 f0          	mov    -0x10(%rbp),%rdx
    6638:	48 8b 45 e8          	mov    -0x18(%rbp),%rax
    663c:	48 89 d6             	mov    %rdx,%rsi
    663f:	48 89 c7             	mov    %rax,%rdi
    6642:	e8 ee e3 00 00       	call   14a35 <luaV_tostring>
    6647:	85 c0                	test   %eax,%eax
    6649:	74 0e                	je     6659 <lua_strlen+0x74>
/home/tenebris/Documents/RootCauseAnalysis/evaluation/test_bin/lua-5.0/src/lapi.c:336 (discriminator 1)
    664b:	48 8b 45 f0          	mov    -0x10(%rbp),%rax
    664f:	48 8b 40 08          	mov    0x8(%rax),%rax
    6653:	48 8b 40 10          	mov    0x10(%rax),%rax
    6657:	eb 05                	jmp    665e <lua_strlen+0x79>
/home/tenebris/Documents/RootCauseAnalysis/evaluation/test_bin/lua-5.0/src/lapi.c:336 (discriminator 2)
    6659:	b8 00 00 00 00       	mov    $0x0,%eax
/home/tenebris/Documents/RootCauseAnalysis/evaluation/test_bin/lua-5.0/src/lapi.c:336 (discriminator 4)
    665e:	48 89 45 f8          	mov    %rax,-0x8(%rbp)
/home/tenebris/Documents/RootCauseAnalysis/evaluation/test_bin/lua-5.0/src/lapi.c:338 (discriminator 4)
    6662:	48 8b 45 f8          	mov    -0x8(%rbp),%rax
/home/tenebris/Documents/RootCauseAnalysis/evaluation/test_bin/lua-5.0/src/lapi.c:340
    6666:	c9                   	leave  
    6667:	c3                   	ret    

0000000000006668 <lua_tocfunction>:
lua_tocfunction():
/home/tenebris/Documents/RootCauseAnalysis/evaluation/test_bin/lua-5.0/src/lapi.c:343
    6668:	f3 0f 1e fa          	endbr64 
    666c:	55                   	push   %rbp
    666d:	48 89 e5             	mov    %rsp,%rbp
    6670:	48 83 ec 20          	sub    $0x20,%rsp
    6674:	48 89 7d e8          	mov    %rdi,-0x18(%rbp)
    6678:	89 75 e4             	mov    %esi,-0x1c(%rbp)
/home/tenebris/Documents/RootCauseAnalysis/evaluation/test_bin/lua-5.0/src/lapi.c:344
    667b:	8b 55 e4             	mov    -0x1c(%rbp),%edx
    667e:	48 8b 45 e8          	mov    -0x18(%rbp),%rax
    6682:	89 d6                	mov    %edx,%esi
    6684:	48 89 c7             	mov    %rax,%rdi
    6687:	e8 95 f4 ff ff       	call   5b21 <luaA_indexAcceptable>
    668c:	48 89 45 f8          	mov    %rax,-0x8(%rbp)
/home/tenebris/Documents/RootCauseAnalysis/evaluation/test_bin/lua-5.0/src/lapi.c:345
    6690:	48 83 7d f8 00       	cmpq   $0x0,-0x8(%rbp)
    6695:	74 29                	je     66c0 <lua_tocfunction+0x58>
/home/tenebris/Documents/RootCauseAnalysis/evaluation/test_bin/lua-5.0/src/lapi.c:345 (discriminator 1)
    6697:	48 8b 45 f8          	mov    -0x8(%rbp),%rax
    669b:	8b 00                	mov    (%rax),%eax
    669d:	83 f8 06             	cmp    $0x6,%eax
    66a0:	75 1e                	jne    66c0 <lua_tocfunction+0x58>
/home/tenebris/Documents/RootCauseAnalysis/evaluation/test_bin/lua-5.0/src/lapi.c:345 (discriminator 3)
    66a2:	48 8b 45 f8          	mov    -0x8(%rbp),%rax
    66a6:	48 8b 40 08          	mov    0x8(%rax),%rax
    66aa:	0f b6 40 0a          	movzbl 0xa(%rax),%eax
    66ae:	84 c0                	test   %al,%al
    66b0:	74 0e                	je     66c0 <lua_tocfunction+0x58>
/home/tenebris/Documents/RootCauseAnalysis/evaluation/test_bin/lua-5.0/src/lapi.c:345 (discriminator 5)
    66b2:	48 8b 45 f8          	mov    -0x8(%rbp),%rax
    66b6:	48 8b 40 08          	mov    0x8(%rax),%rax
    66ba:	48 8b 40 18          	mov    0x18(%rax),%rax
    66be:	eb 05                	jmp    66c5 <lua_tocfunction+0x5d>
/home/tenebris/Documents/RootCauseAnalysis/evaluation/test_bin/lua-5.0/src/lapi.c:345 (discriminator 6)
    66c0:	b8 00 00 00 00       	mov    $0x0,%eax
/home/tenebris/Documents/RootCauseAnalysis/evaluation/test_bin/lua-5.0/src/lapi.c:346 (discriminator 9)
    66c5:	c9                   	leave  
    66c6:	c3                   	ret    

00000000000066c7 <lua_touserdata>:
lua_touserdata():
/home/tenebris/Documents/RootCauseAnalysis/evaluation/test_bin/lua-5.0/src/lapi.c:349
    66c7:	f3 0f 1e fa          	endbr64 
    66cb:	55                   	push   %rbp
    66cc:	48 89 e5             	mov    %rsp,%rbp
    66cf:	48 83 ec 20          	sub    $0x20,%rsp
    66d3:	48 89 7d e8          	mov    %rdi,-0x18(%rbp)
    66d7:	89 75 e4             	mov    %esi,-0x1c(%rbp)
/home/tenebris/Documents/RootCauseAnalysis/evaluation/test_bin/lua-5.0/src/lapi.c:350
    66da:	8b 55 e4             	mov    -0x1c(%rbp),%edx
    66dd:	48 8b 45 e8          	mov    -0x18(%rbp),%rax
    66e1:	89 d6                	mov    %edx,%esi
    66e3:	48 89 c7             	mov    %rax,%rdi
    66e6:	e8 36 f4 ff ff       	call   5b21 <luaA_indexAcceptable>
    66eb:	48 89 45 f8          	mov    %rax,-0x8(%rbp)
/home/tenebris/Documents/RootCauseAnalysis/evaluation/test_bin/lua-5.0/src/lapi.c:351
    66ef:	48 83 7d f8 00       	cmpq   $0x0,-0x8(%rbp)
    66f4:	75 07                	jne    66fd <lua_touserdata+0x36>
/home/tenebris/Documents/RootCauseAnalysis/evaluation/test_bin/lua-5.0/src/lapi.c:351 (discriminator 1)
    66f6:	b8 00 00 00 00       	mov    $0x0,%eax
    66fb:	eb 2d                	jmp    672a <lua_touserdata+0x63>
/home/tenebris/Documents/RootCauseAnalysis/evaluation/test_bin/lua-5.0/src/lapi.c:352
    66fd:	48 8b 45 f8          	mov    -0x8(%rbp),%rax
    6701:	8b 00                	mov    (%rax),%eax
    6703:	83 f8 02             	cmp    $0x2,%eax
    6706:	74 13                	je     671b <lua_touserdata+0x54>
    6708:	83 f8 07             	cmp    $0x7,%eax
    670b:	75 18                	jne    6725 <lua_touserdata+0x5e>
/home/tenebris/Documents/RootCauseAnalysis/evaluation/test_bin/lua-5.0/src/lapi.c:353
    670d:	48 8b 45 f8          	mov    -0x8(%rbp),%rax
    6711:	48 8b 40 08          	mov    0x8(%rax),%rax
    6715:	48 83 c0 20          	add    $0x20,%rax
    6719:	eb 0f                	jmp    672a <lua_touserdata+0x63>
/home/tenebris/Documents/RootCauseAnalysis/evaluation/test_bin/lua-5.0/src/lapi.c:354
    671b:	48 8b 45 f8          	mov    -0x8(%rbp),%rax
    671f:	48 8b 40 08          	mov    0x8(%rax),%rax
    6723:	eb 05                	jmp    672a <lua_touserdata+0x63>
/home/tenebris/Documents/RootCauseAnalysis/evaluation/test_bin/lua-5.0/src/lapi.c:355
    6725:	b8 00 00 00 00       	mov    $0x0,%eax
/home/tenebris/Documents/RootCauseAnalysis/evaluation/test_bin/lua-5.0/src/lapi.c:357
    672a:	c9                   	leave  
    672b:	c3                   	ret    

000000000000672c <lua_tothread>:
lua_tothread():
/home/tenebris/Documents/RootCauseAnalysis/evaluation/test_bin/lua-5.0/src/lapi.c:360
    672c:	f3 0f 1e fa          	endbr64 
    6730:	55                   	push   %rbp
    6731:	48 89 e5             	mov    %rsp,%rbp
    6734:	48 83 ec 20          	sub    $0x20,%rsp
    6738:	48 89 7d e8          	mov    %rdi,-0x18(%rbp)
    673c:	89 75 e4             	mov    %esi,-0x1c(%rbp)
/home/tenebris/Documents/RootCauseAnalysis/evaluation/test_bin/lua-5.0/src/lapi.c:361
    673f:	8b 55 e4             	mov    -0x1c(%rbp),%edx
    6742:	48 8b 45 e8          	mov    -0x18(%rbp),%rax
    6746:	89 d6                	mov    %edx,%esi
    6748:	48 89 c7             	mov    %rax,%rdi
    674b:	e8 d1 f3 ff ff       	call   5b21 <luaA_indexAcceptable>
    6750:	48 89 45 f8          	mov    %rax,-0x8(%rbp)
/home/tenebris/Documents/RootCauseAnalysis/evaluation/test_bin/lua-5.0/src/lapi.c:362
    6754:	48 83 7d f8 00       	cmpq   $0x0,-0x8(%rbp)
    6759:	74 15                	je     6770 <lua_tothread+0x44>
/home/tenebris/Documents/RootCauseAnalysis/evaluation/test_bin/lua-5.0/src/lapi.c:362 (discriminator 1)
    675b:	48 8b 45 f8          	mov    -0x8(%rbp),%rax
    675f:	8b 00                	mov    (%rax),%eax
    6761:	83 f8 08             	cmp    $0x8,%eax
    6764:	75 0a                	jne    6770 <lua_tothread+0x44>
/home/tenebris/Documents/RootCauseAnalysis/evaluation/test_bin/lua-5.0/src/lapi.c:362 (discriminator 3)
    6766:	48 8b 45 f8          	mov    -0x8(%rbp),%rax
    676a:	48 8b 40 08          	mov    0x8(%rax),%rax
    676e:	eb 05                	jmp    6775 <lua_tothread+0x49>
/home/tenebris/Documents/RootCauseAnalysis/evaluation/test_bin/lua-5.0/src/lapi.c:362 (discriminator 4)
    6770:	b8 00 00 00 00       	mov    $0x0,%eax
/home/tenebris/Documents/RootCauseAnalysis/evaluation/test_bin/lua-5.0/src/lapi.c:363 (discriminator 7)
    6775:	c9                   	leave  
    6776:	c3                   	ret    

0000000000006777 <lua_topointer>:
lua_topointer():
/home/tenebris/Documents/RootCauseAnalysis/evaluation/test_bin/lua-5.0/src/lapi.c:366
    6777:	f3 0f 1e fa          	endbr64 
    677b:	55                   	push   %rbp
    677c:	48 89 e5             	mov    %rsp,%rbp
    677f:	48 83 ec 20          	sub    $0x20,%rsp
    6783:	48 89 7d e8          	mov    %rdi,-0x18(%rbp)
    6787:	89 75 e4             	mov    %esi,-0x1c(%rbp)
/home/tenebris/Documents/RootCauseAnalysis/evaluation/test_bin/lua-5.0/src/lapi.c:367
    678a:	8b 55 e4             	mov    -0x1c(%rbp),%edx
    678d:	48 8b 45 e8          	mov    -0x18(%rbp),%rax
    6791:	89 d6                	mov    %edx,%esi
    6793:	48 89 c7             	mov    %rax,%rdi
    6796:	e8 86 f3 ff ff       	call   5b21 <luaA_indexAcceptable>
    679b:	48 89 45 f8          	mov    %rax,-0x8(%rbp)
/home/tenebris/Documents/RootCauseAnalysis/evaluation/test_bin/lua-5.0/src/lapi.c:368
    679f:	48 83 7d f8 00       	cmpq   $0x0,-0x8(%rbp)
    67a4:	75 07                	jne    67ad <lua_topointer+0x36>
/home/tenebris/Documents/RootCauseAnalysis/evaluation/test_bin/lua-5.0/src/lapi.c:368 (discriminator 1)
    67a6:	b8 00 00 00 00       	mov    $0x0,%eax
    67ab:	eb 64                	jmp    6811 <lua_topointer+0x9a>
/home/tenebris/Documents/RootCauseAnalysis/evaluation/test_bin/lua-5.0/src/lapi.c:370
    67ad:	48 8b 45 f8          	mov    -0x8(%rbp),%rax
    67b1:	8b 00                	mov    (%rax),%eax
    67b3:	83 f8 08             	cmp    $0x8,%eax
    67b6:	77 54                	ja     680c <lua_topointer+0x95>
    67b8:	89 c0                	mov    %eax,%eax
    67ba:	48 8d 14 85 00 00 00 	lea    0x0(,%rax,4),%rdx
    67c1:	00 
    67c2:	48 8d 05 eb 1b 02 00 	lea    0x21beb(%rip),%rax        # 283b4 <lua_ident+0x94>
    67c9:	8b 04 02             	mov    (%rdx,%rax,1),%eax
    67cc:	48 98                	cltq   
    67ce:	48 8d 15 df 1b 02 00 	lea    0x21bdf(%rip),%rdx        # 283b4 <lua_ident+0x94>
    67d5:	48 01 d0             	add    %rdx,%rax
    67d8:	3e ff e0             	notrack jmp *%rax
/home/tenebris/Documents/RootCauseAnalysis/evaluation/test_bin/lua-5.0/src/lapi.c:371
    67db:	48 8b 45 f8          	mov    -0x8(%rbp),%rax
    67df:	48 8b 40 08          	mov    0x8(%rax),%rax
    67e3:	eb 2c                	jmp    6811 <lua_topointer+0x9a>
/home/tenebris/Documents/RootCauseAnalysis/evaluation/test_bin/lua-5.0/src/lapi.c:372
    67e5:	48 8b 45 f8          	mov    -0x8(%rbp),%rax
    67e9:	48 8b 40 08          	mov    0x8(%rax),%rax
    67ed:	eb 22                	jmp    6811 <lua_topointer+0x9a>
/home/tenebris/Documents/RootCauseAnalysis/evaluation/test_bin/lua-5.0/src/lapi.c:373
    67ef:	48 8b 45 f8          	mov    -0x8(%rbp),%rax
    67f3:	48 8b 40 08          	mov    0x8(%rax),%rax
    67f7:	eb 18                	jmp    6811 <lua_topointer+0x9a>
/home/tenebris/Documents/RootCauseAnalysis/evaluation/test_bin/lua-5.0/src/lapi.c:376
    67f9:	8b 55 e4             	mov    -0x1c(%rbp),%edx
    67fc:	48 8b 45 e8          	mov    -0x18(%rbp),%rax
    6800:	89 d6                	mov    %edx,%esi
    6802:	48 89 c7             	mov    %rax,%rdi
    6805:	e8 bd fe ff ff       	call   66c7 <lua_touserdata>
    680a:	eb 05                	jmp    6811 <lua_topointer+0x9a>
/home/tenebris/Documents/RootCauseAnalysis/evaluation/test_bin/lua-5.0/src/lapi.c:377
    680c:	b8 00 00 00 00       	mov    $0x0,%eax
/home/tenebris/Documents/RootCauseAnalysis/evaluation/test_bin/lua-5.0/src/lapi.c:380
    6811:	c9                   	leave  
    6812:	c3                   	ret    

0000000000006813 <lua_pushnil>:
lua_pushnil():
/home/tenebris/Documents/RootCauseAnalysis/evaluation/test_bin/lua-5.0/src/lapi.c:389
    6813:	f3 0f 1e fa          	endbr64 
    6817:	55                   	push   %rbp
    6818:	48 89 e5             	mov    %rsp,%rbp
    681b:	48 89 7d f8          	mov    %rdi,-0x8(%rbp)
/home/tenebris/Documents/RootCauseAnalysis/evaluation/test_bin/lua-5.0/src/lapi.c:391
    681f:	48 8b 45 f8          	mov    -0x8(%rbp),%rax
    6823:	48 8b 40 10          	mov    0x10(%rax),%rax
    6827:	c7 00 00 00 00 00    	movl   $0x0,(%rax)
/home/tenebris/Documents/RootCauseAnalysis/evaluation/test_bin/lua-5.0/src/lapi.c:392
    682d:	48 8b 45 f8          	mov    -0x8(%rbp),%rax
    6831:	48 8b 40 10          	mov    0x10(%rax),%rax
    6835:	48 8d 50 10          	lea    0x10(%rax),%rdx
    6839:	48 8b 45 f8          	mov    -0x8(%rbp),%rax
    683d:	48 89 50 10          	mov    %rdx,0x10(%rax)
/home/tenebris/Documents/RootCauseAnalysis/evaluation/test_bin/lua-5.0/src/lapi.c:394
    6841:	90                   	nop
    6842:	5d                   	pop    %rbp
    6843:	c3                   	ret    

0000000000006844 <lua_pushnumber>:
lua_pushnumber():
/home/tenebris/Documents/RootCauseAnalysis/evaluation/test_bin/lua-5.0/src/lapi.c:397
    6844:	f3 0f 1e fa          	endbr64 
    6848:	55                   	push   %rbp
    6849:	48 89 e5             	mov    %rsp,%rbp
    684c:	48 89 7d e8          	mov    %rdi,-0x18(%rbp)
    6850:	f2 0f 11 45 e0       	movsd  %xmm0,-0x20(%rbp)
/home/tenebris/Documents/RootCauseAnalysis/evaluation/test_bin/lua-5.0/src/lapi.c:399
    6855:	48 8b 45 e8          	mov    -0x18(%rbp),%rax
    6859:	48 8b 40 10          	mov    0x10(%rax),%rax
    685d:	48 89 45 f8          	mov    %rax,-0x8(%rbp)
    6861:	48 8b 45 f8          	mov    -0x8(%rbp),%rax
    6865:	c7 00 03 00 00 00    	movl   $0x3,(%rax)
    686b:	48 8b 45 f8          	mov    -0x8(%rbp),%rax
    686f:	f2 0f 10 45 e0       	movsd  -0x20(%rbp),%xmm0
    6874:	f2 0f 11 40 08       	movsd  %xmm0,0x8(%rax)
/home/tenebris/Documents/RootCauseAnalysis/evaluation/test_bin/lua-5.0/src/lapi.c:400
    6879:	48 8b 45 e8          	mov    -0x18(%rbp),%rax
    687d:	48 8b 40 10          	mov    0x10(%rax),%rax
    6881:	48 8d 50 10          	lea    0x10(%rax),%rdx
    6885:	48 8b 45 e8          	mov    -0x18(%rbp),%rax
    6889:	48 89 50 10          	mov    %rdx,0x10(%rax)
/home/tenebris/Documents/RootCauseAnalysis/evaluation/test_bin/lua-5.0/src/lapi.c:402
    688d:	90                   	nop
    688e:	5d                   	pop    %rbp
    688f:	c3                   	ret    

0000000000006890 <lua_pushlstring>:
lua_pushlstring():
/home/tenebris/Documents/RootCauseAnalysis/evaluation/test_bin/lua-5.0/src/lapi.c:405
    6890:	f3 0f 1e fa          	endbr64 
    6894:	55                   	push   %rbp
    6895:	48 89 e5             	mov    %rsp,%rbp
    6898:	48 83 ec 30          	sub    $0x30,%rsp
    689c:	48 89 7d e8          	mov    %rdi,-0x18(%rbp)
    68a0:	48 89 75 e0          	mov    %rsi,-0x20(%rbp)
    68a4:	48 89 55 d8          	mov    %rdx,-0x28(%rbp)
/home/tenebris/Documents/RootCauseAnalysis/evaluation/test_bin/lua-5.0/src/lapi.c:407
    68a8:	48 8b 45 e8          	mov    -0x18(%rbp),%rax
    68ac:	48 8b 40 20          	mov    0x20(%rax),%rax
    68b0:	48 8b 50 48          	mov    0x48(%rax),%rdx
    68b4:	48 8b 45 e8          	mov    -0x18(%rbp),%rax
    68b8:	48 8b 40 20          	mov    0x20(%rax),%rax
    68bc:	48 8b 40 40          	mov    0x40(%rax),%rax
    68c0:	48 39 c2             	cmp    %rax,%rdx
    68c3:	72 0c                	jb     68d1 <lua_pushlstring+0x41>
/home/tenebris/Documents/RootCauseAnalysis/evaluation/test_bin/lua-5.0/src/lapi.c:407 (discriminator 1)
    68c5:	48 8b 45 e8          	mov    -0x18(%rbp),%rax
    68c9:	48 89 c7             	mov    %rax,%rdi
    68cc:	e8 ce 67 00 00       	call   d09f <luaC_collectgarbage>
/home/tenebris/Documents/RootCauseAnalysis/evaluation/test_bin/lua-5.0/src/lapi.c:408
    68d1:	48 8b 45 e8          	mov    -0x18(%rbp),%rax
    68d5:	48 8b 40 10          	mov    0x10(%rax),%rax
    68d9:	48 89 45 f8          	mov    %rax,-0x8(%rbp)
    68dd:	48 8b 45 f8          	mov    -0x8(%rbp),%rax
    68e1:	c7 00 04 00 00 00    	movl   $0x4,(%rax)
    68e7:	48 8b 55 d8          	mov    -0x28(%rbp),%rdx
    68eb:	48 8b 4d e0          	mov    -0x20(%rbp),%rcx
    68ef:	48 8b 45 e8          	mov    -0x18(%rbp),%rax
    68f3:	48 89 ce             	mov    %rcx,%rsi
    68f6:	48 89 c7             	mov    %rax,%rdi
    68f9:	e8 42 ba 00 00       	call   12340 <luaS_newlstr>
    68fe:	48 8b 55 f8          	mov    -0x8(%rbp),%rdx
    6902:	48 89 42 08          	mov    %rax,0x8(%rdx)
/home/tenebris/Documents/RootCauseAnalysis/evaluation/test_bin/lua-5.0/src/lapi.c:409
    6906:	48 8b 45 e8          	mov    -0x18(%rbp),%rax
    690a:	48 8b 40 10          	mov    0x10(%rax),%rax
    690e:	48 8d 50 10          	lea    0x10(%rax),%rdx
    6912:	48 8b 45 e8          	mov    -0x18(%rbp),%rax
    6916:	48 89 50 10          	mov    %rdx,0x10(%rax)
/home/tenebris/Documents/RootCauseAnalysis/evaluation/test_bin/lua-5.0/src/lapi.c:411
    691a:	90                   	nop
    691b:	c9                   	leave  
    691c:	c3                   	ret    

000000000000691d <lua_pushstring>:
lua_pushstring():
/home/tenebris/Documents/RootCauseAnalysis/evaluation/test_bin/lua-5.0/src/lapi.c:414
    691d:	f3 0f 1e fa          	endbr64 
    6921:	55                   	push   %rbp
    6922:	48 89 e5             	mov    %rsp,%rbp
    6925:	48 83 ec 10          	sub    $0x10,%rsp
    6929:	48 89 7d f8          	mov    %rdi,-0x8(%rbp)
    692d:	48 89 75 f0          	mov    %rsi,-0x10(%rbp)
/home/tenebris/Documents/RootCauseAnalysis/evaluation/test_bin/lua-5.0/src/lapi.c:415
    6931:	48 83 7d f0 00       	cmpq   $0x0,-0x10(%rbp)
    6936:	75 0e                	jne    6946 <lua_pushstring+0x29>
/home/tenebris/Documents/RootCauseAnalysis/evaluation/test_bin/lua-5.0/src/lapi.c:416
    6938:	48 8b 45 f8          	mov    -0x8(%rbp),%rax
    693c:	48 89 c7             	mov    %rax,%rdi
    693f:	e8 cf fe ff ff       	call   6813 <lua_pushnil>
/home/tenebris/Documents/RootCauseAnalysis/evaluation/test_bin/lua-5.0/src/lapi.c:419
    6944:	eb 22                	jmp    6968 <lua_pushstring+0x4b>
/home/tenebris/Documents/RootCauseAnalysis/evaluation/test_bin/lua-5.0/src/lapi.c:418
    6946:	48 8b 45 f0          	mov    -0x10(%rbp),%rax
    694a:	48 89 c7             	mov    %rax,%rdi
    694d:	e8 ee dc ff ff       	call   4640 <strlen@plt>
    6952:	48 89 c2             	mov    %rax,%rdx
    6955:	48 8b 4d f0          	mov    -0x10(%rbp),%rcx
    6959:	48 8b 45 f8          	mov    -0x8(%rbp),%rax
    695d:	48 89 ce             	mov    %rcx,%rsi
    6960:	48 89 c7             	mov    %rax,%rdi
    6963:	e8 28 ff ff ff       	call   6890 <lua_pushlstring>
/home/tenebris/Documents/RootCauseAnalysis/evaluation/test_bin/lua-5.0/src/lapi.c:419
    6968:	90                   	nop
    6969:	c9                   	leave  
    696a:	c3                   	ret    

000000000000696b <lua_pushvfstring>:
lua_pushvfstring():
/home/tenebris/Documents/RootCauseAnalysis/evaluation/test_bin/lua-5.0/src/lapi.c:423
    696b:	f3 0f 1e fa          	endbr64 
    696f:	55                   	push   %rbp
    6970:	48 89 e5             	mov    %rsp,%rbp
    6973:	48 83 ec 30          	sub    $0x30,%rsp
    6977:	48 89 7d e8          	mov    %rdi,-0x18(%rbp)
    697b:	48 89 75 e0          	mov    %rsi,-0x20(%rbp)
    697f:	48 89 55 d8          	mov    %rdx,-0x28(%rbp)
/home/tenebris/Documents/RootCauseAnalysis/evaluation/test_bin/lua-5.0/src/lapi.c:426
    6983:	48 8b 45 e8          	mov    -0x18(%rbp),%rax
    6987:	48 8b 40 20          	mov    0x20(%rax),%rax
    698b:	48 8b 50 48          	mov    0x48(%rax),%rdx
    698f:	48 8b 45 e8          	mov    -0x18(%rbp),%rax
    6993:	48 8b 40 20          	mov    0x20(%rax),%rax
    6997:	48 8b 40 40          	mov    0x40(%rax),%rax
    699b:	48 39 c2             	cmp    %rax,%rdx
    699e:	72 0c                	jb     69ac <lua_pushvfstring+0x41>
/home/tenebris/Documents/RootCauseAnalysis/evaluation/test_bin/lua-5.0/src/lapi.c:426 (discriminator 1)
    69a0:	48 8b 45 e8          	mov    -0x18(%rbp),%rax
    69a4:	48 89 c7             	mov    %rax,%rdi
    69a7:	e8 f3 66 00 00       	call   d09f <luaC_collectgarbage>
/home/tenebris/Documents/RootCauseAnalysis/evaluation/test_bin/lua-5.0/src/lapi.c:427
    69ac:	48 8b 55 d8          	mov    -0x28(%rbp),%rdx
    69b0:	48 8b 4d e0          	mov    -0x20(%rbp),%rcx
    69b4:	48 8b 45 e8          	mov    -0x18(%rbp),%rax
    69b8:	48 89 ce             	mov    %rcx,%rsi
    69bb:	48 89 c7             	mov    %rax,%rdi
    69be:	e8 3c 6c 00 00       	call   d5ff <luaO_pushvfstring>
    69c3:	48 89 45 f8          	mov    %rax,-0x8(%rbp)
/home/tenebris/Documents/RootCauseAnalysis/evaluation/test_bin/lua-5.0/src/lapi.c:429
    69c7:	48 8b 45 f8          	mov    -0x8(%rbp),%rax
/home/tenebris/Documents/RootCauseAnalysis/evaluation/test_bin/lua-5.0/src/lapi.c:430
    69cb:	c9                   	leave  
    69cc:	c3                   	ret    

00000000000069cd <lua_pushfstring>:
lua_pushfstring():
/home/tenebris/Documents/RootCauseAnalysis/evaluation/test_bin/lua-5.0/src/lapi.c:433
    69cd:	f3 0f 1e fa          	endbr64 
    69d1:	55                   	push   %rbp
    69d2:	48 89 e5             	mov    %rsp,%rbp
    69d5:	48 81 ec f0 00 00 00 	sub    $0xf0,%rsp
    69dc:	48 89 bd 18 ff ff ff 	mov    %rdi,-0xe8(%rbp)
    69e3:	48 89 b5 10 ff ff ff 	mov    %rsi,-0xf0(%rbp)
    69ea:	48 89 95 60 ff ff ff 	mov    %rdx,-0xa0(%rbp)
    69f1:	48 89 8d 68 ff ff ff 	mov    %rcx,-0x98(%rbp)
    69f8:	4c 89 85 70 ff ff ff 	mov    %r8,-0x90(%rbp)
    69ff:	4c 89 8d 78 ff ff ff 	mov    %r9,-0x88(%rbp)
    6a06:	84 c0                	test   %al,%al
    6a08:	74 20                	je     6a2a <lua_pushfstring+0x5d>
    6a0a:	0f 29 45 80          	movaps %xmm0,-0x80(%rbp)
    6a0e:	0f 29 4d 90          	movaps %xmm1,-0x70(%rbp)
    6a12:	0f 29 55 a0          	movaps %xmm2,-0x60(%rbp)
    6a16:	0f 29 5d b0          	movaps %xmm3,-0x50(%rbp)
    6a1a:	0f 29 65 c0          	movaps %xmm4,-0x40(%rbp)
    6a1e:	0f 29 6d d0          	movaps %xmm5,-0x30(%rbp)
    6a22:	0f 29 75 e0          	movaps %xmm6,-0x20(%rbp)
    6a26:	0f 29 7d f0          	movaps %xmm7,-0x10(%rbp)
    6a2a:	64 48 8b 04 25 28 00 	mov    %fs:0x28,%rax
    6a31:	00 00 
    6a33:	48 89 85 48 ff ff ff 	mov    %rax,-0xb8(%rbp)
    6a3a:	31 c0                	xor    %eax,%eax
/home/tenebris/Documents/RootCauseAnalysis/evaluation/test_bin/lua-5.0/src/lapi.c:437
    6a3c:	48 8b 85 18 ff ff ff 	mov    -0xe8(%rbp),%rax
    6a43:	48 8b 40 20          	mov    0x20(%rax),%rax
    6a47:	48 8b 50 48          	mov    0x48(%rax),%rdx
    6a4b:	48 8b 85 18 ff ff ff 	mov    -0xe8(%rbp),%rax
    6a52:	48 8b 40 20          	mov    0x20(%rax),%rax
    6a56:	48 8b 40 40          	mov    0x40(%rax),%rax
    6a5a:	48 39 c2             	cmp    %rax,%rdx
    6a5d:	72 0f                	jb     6a6e <lua_pushfstring+0xa1>
/home/tenebris/Documents/RootCauseAnalysis/evaluation/test_bin/lua-5.0/src/lapi.c:437 (discriminator 1)
    6a5f:	48 8b 85 18 ff ff ff 	mov    -0xe8(%rbp),%rax
    6a66:	48 89 c7             	mov    %rax,%rdi
    6a69:	e8 31 66 00 00       	call   d09f <luaC_collectgarbage>
/home/tenebris/Documents/RootCauseAnalysis/evaluation/test_bin/lua-5.0/src/lapi.c:438
    6a6e:	c7 85 30 ff ff ff 10 	movl   $0x10,-0xd0(%rbp)
    6a75:	00 00 00 
    6a78:	c7 85 34 ff ff ff 30 	movl   $0x30,-0xcc(%rbp)
    6a7f:	00 00 00 
    6a82:	48 8d 45 10          	lea    0x10(%rbp),%rax
    6a86:	48 89 85 38 ff ff ff 	mov    %rax,-0xc8(%rbp)
    6a8d:	48 8d 85 50 ff ff ff 	lea    -0xb0(%rbp),%rax
    6a94:	48 89 85 40 ff ff ff 	mov    %rax,-0xc0(%rbp)
/home/tenebris/Documents/RootCauseAnalysis/evaluation/test_bin/lua-5.0/src/lapi.c:439
    6a9b:	48 8d 95 30 ff ff ff 	lea    -0xd0(%rbp),%rdx
    6aa2:	48 8b 8d 10 ff ff ff 	mov    -0xf0(%rbp),%rcx
    6aa9:	48 8b 85 18 ff ff ff 	mov    -0xe8(%rbp),%rax
    6ab0:	48 89 ce             	mov    %rcx,%rsi
    6ab3:	48 89 c7             	mov    %rax,%rdi
    6ab6:	e8 44 6b 00 00       	call   d5ff <luaO_pushvfstring>
    6abb:	48 89 85 28 ff ff ff 	mov    %rax,-0xd8(%rbp)
/home/tenebris/Documents/RootCauseAnalysis/evaluation/test_bin/lua-5.0/src/lapi.c:442
    6ac2:	48 8b 85 28 ff ff ff 	mov    -0xd8(%rbp),%rax
/home/tenebris/Documents/RootCauseAnalysis/evaluation/test_bin/lua-5.0/src/lapi.c:443
    6ac9:	48 8b 95 48 ff ff ff 	mov    -0xb8(%rbp),%rdx
    6ad0:	64 48 2b 14 25 28 00 	sub    %fs:0x28,%rdx
    6ad7:	00 00 
    6ad9:	74 05                	je     6ae0 <lua_pushfstring+0x113>
    6adb:	e8 70 db ff ff       	call   4650 <__stack_chk_fail@plt>
    6ae0:	c9                   	leave  
    6ae1:	c3                   	ret    

0000000000006ae2 <lua_pushcclosure>:
lua_pushcclosure():
/home/tenebris/Documents/RootCauseAnalysis/evaluation/test_bin/lua-5.0/src/lapi.c:446
    6ae2:	f3 0f 1e fa          	endbr64 
    6ae6:	55                   	push   %rbp
    6ae7:	48 89 e5             	mov    %rsp,%rbp
    6aea:	48 83 ec 40          	sub    $0x40,%rsp
    6aee:	48 89 7d d8          	mov    %rdi,-0x28(%rbp)
    6af2:	48 89 75 d0          	mov    %rsi,-0x30(%rbp)
    6af6:	89 55 cc             	mov    %edx,-0x34(%rbp)
/home/tenebris/Documents/RootCauseAnalysis/evaluation/test_bin/lua-5.0/src/lapi.c:449
    6af9:	48 8b 45 d8          	mov    -0x28(%rbp),%rax
    6afd:	48 8b 40 20          	mov    0x20(%rax),%rax
    6b01:	48 8b 50 48          	mov    0x48(%rax),%rdx
    6b05:	48 8b 45 d8          	mov    -0x28(%rbp),%rax
    6b09:	48 8b 40 20          	mov    0x20(%rax),%rax
    6b0d:	48 8b 40 40          	mov    0x40(%rax),%rax
    6b11:	48 39 c2             	cmp    %rax,%rdx
    6b14:	72 0c                	jb     6b22 <lua_pushcclosure+0x40>
/home/tenebris/Documents/RootCauseAnalysis/evaluation/test_bin/lua-5.0/src/lapi.c:449 (discriminator 1)
    6b16:	48 8b 45 d8          	mov    -0x28(%rbp),%rax
    6b1a:	48 89 c7             	mov    %rax,%rdi
    6b1d:	e8 7d 65 00 00       	call   d09f <luaC_collectgarbage>
/home/tenebris/Documents/RootCauseAnalysis/evaluation/test_bin/lua-5.0/src/lapi.c:451
    6b22:	8b 55 cc             	mov    -0x34(%rbp),%edx
    6b25:	48 8b 45 d8          	mov    -0x28(%rbp),%rax
    6b29:	89 d6                	mov    %edx,%esi
    6b2b:	48 89 c7             	mov    %rax,%rdi
    6b2e:	e8 02 4a 00 00       	call   b535 <luaF_newCclosure>
    6b33:	48 89 45 e0          	mov    %rax,-0x20(%rbp)
/home/tenebris/Documents/RootCauseAnalysis/evaluation/test_bin/lua-5.0/src/lapi.c:452
    6b37:	48 8b 45 e0          	mov    -0x20(%rbp),%rax
    6b3b:	48 8b 55 d0          	mov    -0x30(%rbp),%rdx
    6b3f:	48 89 50 18          	mov    %rdx,0x18(%rax)
/home/tenebris/Documents/RootCauseAnalysis/evaluation/test_bin/lua-5.0/src/lapi.c:453
    6b43:	48 8b 45 d8          	mov    -0x28(%rbp),%rax
    6b47:	48 8b 50 10          	mov    0x10(%rax),%rdx
    6b4b:	8b 45 cc             	mov    -0x34(%rbp),%eax
    6b4e:	48 98                	cltq   
    6b50:	48 c1 e0 04          	shl    $0x4,%rax
    6b54:	48 f7 d8             	neg    %rax
    6b57:	48 01 c2             	add    %rax,%rdx
    6b5a:	48 8b 45 d8          	mov    -0x28(%rbp),%rax
    6b5e:	48 89 50 10          	mov    %rdx,0x10(%rax)
/home/tenebris/Documents/RootCauseAnalysis/evaluation/test_bin/lua-5.0/src/lapi.c:454
    6b62:	eb 4f                	jmp    6bb3 <lua_pushcclosure+0xd1>
/home/tenebris/Documents/RootCauseAnalysis/evaluation/test_bin/lua-5.0/src/lapi.c:455
    6b64:	48 8b 45 d8          	mov    -0x28(%rbp),%rax
    6b68:	48 8b 50 10          	mov    0x10(%rax),%rdx
    6b6c:	8b 45 cc             	mov    -0x34(%rbp),%eax
    6b6f:	48 98                	cltq   
    6b71:	48 c1 e0 04          	shl    $0x4,%rax
    6b75:	48 01 d0             	add    %rdx,%rax
    6b78:	48 89 45 f0          	mov    %rax,-0x10(%rbp)
    6b7c:	8b 45 cc             	mov    -0x34(%rbp),%eax
    6b7f:	48 98                	cltq   
    6b81:	48 83 c0 02          	add    $0x2,%rax
    6b85:	48 c1 e0 04          	shl    $0x4,%rax
    6b89:	48 89 c2             	mov    %rax,%rdx
    6b8c:	48 8b 45 e0          	mov    -0x20(%rbp),%rax
    6b90:	48 01 d0             	add    %rdx,%rax
    6b93:	48 89 45 f8          	mov    %rax,-0x8(%rbp)
    6b97:	48 8b 45 f0          	mov    -0x10(%rbp),%rax
    6b9b:	8b 10                	mov    (%rax),%edx
    6b9d:	48 8b 45 f8          	mov    -0x8(%rbp),%rax
    6ba1:	89 10                	mov    %edx,(%rax)
    6ba3:	48 8b 45 f8          	mov    -0x8(%rbp),%rax
    6ba7:	48 8b 55 f0          	mov    -0x10(%rbp),%rdx
    6bab:	48 8b 52 08          	mov    0x8(%rdx),%rdx
    6baf:	48 89 50 08          	mov    %rdx,0x8(%rax)
/home/tenebris/Documents/RootCauseAnalysis/evaluation/test_bin/lua-5.0/src/lapi.c:454
    6bb3:	8b 45 cc             	mov    -0x34(%rbp),%eax
    6bb6:	8d 50 ff             	lea    -0x1(%rax),%edx
    6bb9:	89 55 cc             	mov    %edx,-0x34(%rbp)
    6bbc:	85 c0                	test   %eax,%eax
    6bbe:	75 a4                	jne    6b64 <lua_pushcclosure+0x82>
/home/tenebris/Documents/RootCauseAnalysis/evaluation/test_bin/lua-5.0/src/lapi.c:456
    6bc0:	48 8b 45 d8          	mov    -0x28(%rbp),%rax
    6bc4:	48 8b 40 10          	mov    0x10(%rax),%rax
    6bc8:	48 89 45 e8          	mov    %rax,-0x18(%rbp)
    6bcc:	48 8b 45 e8          	mov    -0x18(%rbp),%rax
    6bd0:	c7 00 06 00 00 00    	movl   $0x6,(%rax)
    6bd6:	48 8b 45 e8          	mov    -0x18(%rbp),%rax
    6bda:	48 8b 55 e0          	mov    -0x20(%rbp),%rdx
    6bde:	48 89 50 08          	mov    %rdx,0x8(%rax)
/home/tenebris/Documents/RootCauseAnalysis/evaluation/test_bin/lua-5.0/src/lapi.c:457
    6be2:	48 8b 45 d8          	mov    -0x28(%rbp),%rax
    6be6:	48 8b 40 10          	mov    0x10(%rax),%rax
    6bea:	48 8d 50 10          	lea    0x10(%rax),%rdx
    6bee:	48 8b 45 d8          	mov    -0x28(%rbp),%rax
    6bf2:	48 89 50 10          	mov    %rdx,0x10(%rax)
/home/tenebris/Documents/RootCauseAnalysis/evaluation/test_bin/lua-5.0/src/lapi.c:459
    6bf6:	90                   	nop
    6bf7:	c9                   	leave  
    6bf8:	c3                   	ret    

0000000000006bf9 <lua_pushboolean>:
lua_pushboolean():
/home/tenebris/Documents/RootCauseAnalysis/evaluation/test_bin/lua-5.0/src/lapi.c:462
    6bf9:	f3 0f 1e fa          	endbr64 
    6bfd:	55                   	push   %rbp
    6bfe:	48 89 e5             	mov    %rsp,%rbp
    6c01:	48 89 7d e8          	mov    %rdi,-0x18(%rbp)
    6c05:	89 75 e4             	mov    %esi,-0x1c(%rbp)
/home/tenebris/Documents/RootCauseAnalysis/evaluation/test_bin/lua-5.0/src/lapi.c:464
    6c08:	48 8b 45 e8          	mov    -0x18(%rbp),%rax
    6c0c:	48 8b 40 10          	mov    0x10(%rax),%rax
    6c10:	48 89 45 f8          	mov    %rax,-0x8(%rbp)
    6c14:	48 8b 45 f8          	mov    -0x8(%rbp),%rax
    6c18:	c7 00 01 00 00 00    	movl   $0x1,(%rax)
    6c1e:	83 7d e4 00          	cmpl   $0x0,-0x1c(%rbp)
    6c22:	0f 95 c0             	setne  %al
    6c25:	0f b6 d0             	movzbl %al,%edx
    6c28:	48 8b 45 f8          	mov    -0x8(%rbp),%rax
    6c2c:	89 50 08             	mov    %edx,0x8(%rax)
/home/tenebris/Documents/RootCauseAnalysis/evaluation/test_bin/lua-5.0/src/lapi.c:465
    6c2f:	48 8b 45 e8          	mov    -0x18(%rbp),%rax
    6c33:	48 8b 40 10          	mov    0x10(%rax),%rax
    6c37:	48 8d 50 10          	lea    0x10(%rax),%rdx
    6c3b:	48 8b 45 e8          	mov    -0x18(%rbp),%rax
    6c3f:	48 89 50 10          	mov    %rdx,0x10(%rax)
/home/tenebris/Documents/RootCauseAnalysis/evaluation/test_bin/lua-5.0/src/lapi.c:467
    6c43:	90                   	nop
    6c44:	5d                   	pop    %rbp
    6c45:	c3                   	ret    

0000000000006c46 <lua_pushlightuserdata>:
lua_pushlightuserdata():
/home/tenebris/Documents/RootCauseAnalysis/evaluation/test_bin/lua-5.0/src/lapi.c:470
    6c46:	f3 0f 1e fa          	endbr64 
    6c4a:	55                   	push   %rbp
    6c4b:	48 89 e5             	mov    %rsp,%rbp
    6c4e:	48 89 7d e8          	mov    %rdi,-0x18(%rbp)
    6c52:	48 89 75 e0          	mov    %rsi,-0x20(%rbp)
/home/tenebris/Documents/RootCauseAnalysis/evaluation/test_bin/lua-5.0/src/lapi.c:472
    6c56:	48 8b 45 e8          	mov    -0x18(%rbp),%rax
    6c5a:	48 8b 40 10          	mov    0x10(%rax),%rax
    6c5e:	48 89 45 f8          	mov    %rax,-0x8(%rbp)
    6c62:	48 8b 45 f8          	mov    -0x8(%rbp),%rax
    6c66:	c7 00 02 00 00 00    	movl   $0x2,(%rax)
    6c6c:	48 8b 45 f8          	mov    -0x8(%rbp),%rax
    6c70:	48 8b 55 e0          	mov    -0x20(%rbp),%rdx
    6c74:	48 89 50 08          	mov    %rdx,0x8(%rax)
/home/tenebris/Documents/RootCauseAnalysis/evaluation/test_bin/lua-5.0/src/lapi.c:473
    6c78:	48 8b 45 e8          	mov    -0x18(%rbp),%rax
    6c7c:	48 8b 40 10          	mov    0x10(%rax),%rax
    6c80:	48 8d 50 10          	lea    0x10(%rax),%rdx
    6c84:	48 8b 45 e8          	mov    -0x18(%rbp),%rax
    6c88:	48 89 50 10          	mov    %rdx,0x10(%rax)
/home/tenebris/Documents/RootCauseAnalysis/evaluation/test_bin/lua-5.0/src/lapi.c:475
    6c8c:	90                   	nop
    6c8d:	5d                   	pop    %rbp
    6c8e:	c3                   	ret    

0000000000006c8f <lua_gettable>:
lua_gettable():
/home/tenebris/Documents/RootCauseAnalysis/evaluation/test_bin/lua-5.0/src/lapi.c:484
    6c8f:	f3 0f 1e fa          	endbr64 
    6c93:	55                   	push   %rbp
    6c94:	48 89 e5             	mov    %rsp,%rbp
    6c97:	48 83 ec 30          	sub    $0x30,%rsp
    6c9b:	48 89 7d d8          	mov    %rdi,-0x28(%rbp)
    6c9f:	89 75 d4             	mov    %esi,-0x2c(%rbp)
/home/tenebris/Documents/RootCauseAnalysis/evaluation/test_bin/lua-5.0/src/lapi.c:487
    6ca2:	8b 55 d4             	mov    -0x2c(%rbp),%edx
    6ca5:	48 8b 45 d8          	mov    -0x28(%rbp),%rax
    6ca9:	89 d6                	mov    %edx,%esi
    6cab:	48 89 c7             	mov    %rax,%rdi
    6cae:	e8 20 ee ff ff       	call   5ad3 <luaA_index>
    6cb3:	48 89 45 e8          	mov    %rax,-0x18(%rbp)
/home/tenebris/Documents/RootCauseAnalysis/evaluation/test_bin/lua-5.0/src/lapi.c:488
    6cb7:	48 8b 45 d8          	mov    -0x28(%rbp),%rax
    6cbb:	48 8b 40 10          	mov    0x10(%rax),%rax
    6cbf:	48 8d 50 f0          	lea    -0x10(%rax),%rdx
    6cc3:	48 8b 75 e8          	mov    -0x18(%rbp),%rsi
    6cc7:	48 8b 45 d8          	mov    -0x28(%rbp),%rax
    6ccb:	b9 00 00 00 00       	mov    $0x0,%ecx
    6cd0:	48 89 c7             	mov    %rax,%rdi
    6cd3:	e8 a7 e3 00 00       	call   1507f <luaV_gettable>
    6cd8:	48 89 45 f0          	mov    %rax,-0x10(%rbp)
    6cdc:	48 8b 45 d8          	mov    -0x28(%rbp),%rax
    6ce0:	48 8b 40 10          	mov    0x10(%rax),%rax
    6ce4:	48 83 e8 10          	sub    $0x10,%rax
    6ce8:	48 89 45 f8          	mov    %rax,-0x8(%rbp)
    6cec:	48 8b 45 f0          	mov    -0x10(%rbp),%rax
    6cf0:	8b 10                	mov    (%rax),%edx
    6cf2:	48 8b 45 f8          	mov    -0x8(%rbp),%rax
    6cf6:	89 10                	mov    %edx,(%rax)
    6cf8:	48 8b 45 f8          	mov    -0x8(%rbp),%rax
    6cfc:	48 8b 55 f0          	mov    -0x10(%rbp),%rdx
    6d00:	48 8b 52 08          	mov    0x8(%rdx),%rdx
    6d04:	48 89 50 08          	mov    %rdx,0x8(%rax)
/home/tenebris/Documents/RootCauseAnalysis/evaluation/test_bin/lua-5.0/src/lapi.c:490
    6d08:	90                   	nop
    6d09:	c9                   	leave  
    6d0a:	c3                   	ret    

0000000000006d0b <lua_rawget>:
lua_rawget():
/home/tenebris/Documents/RootCauseAnalysis/evaluation/test_bin/lua-5.0/src/lapi.c:493
    6d0b:	f3 0f 1e fa          	endbr64 
    6d0f:	55                   	push   %rbp
    6d10:	48 89 e5             	mov    %rsp,%rbp
    6d13:	48 83 ec 30          	sub    $0x30,%rsp
    6d17:	48 89 7d d8          	mov    %rdi,-0x28(%rbp)
    6d1b:	89 75 d4             	mov    %esi,-0x2c(%rbp)
/home/tenebris/Documents/RootCauseAnalysis/evaluation/test_bin/lua-5.0/src/lapi.c:496
    6d1e:	8b 55 d4             	mov    -0x2c(%rbp),%edx
    6d21:	48 8b 45 d8          	mov    -0x28(%rbp),%rax
    6d25:	89 d6                	mov    %edx,%esi
    6d27:	48 89 c7             	mov    %rax,%rdi
    6d2a:	e8 a4 ed ff ff       	call   5ad3 <luaA_index>
    6d2f:	48 89 45 e8          	mov    %rax,-0x18(%rbp)
/home/tenebris/Documents/RootCauseAnalysis/evaluation/test_bin/lua-5.0/src/lapi.c:498
    6d33:	48 8b 45 d8          	mov    -0x28(%rbp),%rax
    6d37:	48 8b 40 10          	mov    0x10(%rax),%rax
    6d3b:	48 83 e8 10          	sub    $0x10,%rax
    6d3f:	48 8b 55 e8          	mov    -0x18(%rbp),%rdx
    6d43:	48 8b 52 08          	mov    0x8(%rdx),%rdx
    6d47:	48 89 c6             	mov    %rax,%rsi
    6d4a:	48 89 d7             	mov    %rdx,%rdi
    6d4d:	e8 71 ca 00 00       	call   137c3 <luaH_get>
    6d52:	48 89 45 f0          	mov    %rax,-0x10(%rbp)
    6d56:	48 8b 45 d8          	mov    -0x28(%rbp),%rax
    6d5a:	48 8b 40 10          	mov    0x10(%rax),%rax
    6d5e:	48 83 e8 10          	sub    $0x10,%rax
    6d62:	48 89 45 f8          	mov    %rax,-0x8(%rbp)
    6d66:	48 8b 45 f0          	mov    -0x10(%rbp),%rax
    6d6a:	8b 10                	mov    (%rax),%edx
    6d6c:	48 8b 45 f8          	mov    -0x8(%rbp),%rax
    6d70:	89 10                	mov    %edx,(%rax)
    6d72:	48 8b 45 f8          	mov    -0x8(%rbp),%rax
    6d76:	48 8b 55 f0          	mov    -0x10(%rbp),%rdx
    6d7a:	48 8b 52 08          	mov    0x8(%rdx),%rdx
    6d7e:	48 89 50 08          	mov    %rdx,0x8(%rax)
/home/tenebris/Documents/RootCauseAnalysis/evaluation/test_bin/lua-5.0/src/lapi.c:500
    6d82:	90                   	nop
    6d83:	c9                   	leave  
    6d84:	c3                   	ret    

0000000000006d85 <lua_rawgeti>:
lua_rawgeti():
/home/tenebris/Documents/RootCauseAnalysis/evaluation/test_bin/lua-5.0/src/lapi.c:503
    6d85:	f3 0f 1e fa          	endbr64 
    6d89:	55                   	push   %rbp
    6d8a:	48 89 e5             	mov    %rsp,%rbp
    6d8d:	48 83 ec 30          	sub    $0x30,%rsp
    6d91:	48 89 7d d8          	mov    %rdi,-0x28(%rbp)
    6d95:	89 75 d4             	mov    %esi,-0x2c(%rbp)
    6d98:	89 55 d0             	mov    %edx,-0x30(%rbp)
/home/tenebris/Documents/RootCauseAnalysis/evaluation/test_bin/lua-5.0/src/lapi.c:506
    6d9b:	8b 55 d4             	mov    -0x2c(%rbp),%edx
    6d9e:	48 8b 45 d8          	mov    -0x28(%rbp),%rax
    6da2:	89 d6                	mov    %edx,%esi
    6da4:	48 89 c7             	mov    %rax,%rdi
    6da7:	e8 27 ed ff ff       	call   5ad3 <luaA_index>
    6dac:	48 89 45 e8          	mov    %rax,-0x18(%rbp)
/home/tenebris/Documents/RootCauseAnalysis/evaluation/test_bin/lua-5.0/src/lapi.c:508
    6db0:	48 8b 45 e8          	mov    -0x18(%rbp),%rax
    6db4:	48 8b 40 08          	mov    0x8(%rax),%rax
    6db8:	48 89 c2             	mov    %rax,%rdx
    6dbb:	8b 45 d0             	mov    -0x30(%rbp),%eax
    6dbe:	89 c6                	mov    %eax,%esi
    6dc0:	48 89 d7             	mov    %rdx,%rdi
    6dc3:	e8 bc c8 00 00       	call   13684 <luaH_getnum>
    6dc8:	48 89 45 f0          	mov    %rax,-0x10(%rbp)
    6dcc:	48 8b 45 d8          	mov    -0x28(%rbp),%rax
    6dd0:	48 8b 40 10          	mov    0x10(%rax),%rax
    6dd4:	48 89 45 f8          	mov    %rax,-0x8(%rbp)
    6dd8:	48 8b 45 f0          	mov    -0x10(%rbp),%rax
    6ddc:	8b 10                	mov    (%rax),%edx
    6dde:	48 8b 45 f8          	mov    -0x8(%rbp),%rax
    6de2:	89 10                	mov    %edx,(%rax)
    6de4:	48 8b 45 f8          	mov    -0x8(%rbp),%rax
    6de8:	48 8b 55 f0          	mov    -0x10(%rbp),%rdx
    6dec:	48 8b 52 08          	mov    0x8(%rdx),%rdx
    6df0:	48 89 50 08          	mov    %rdx,0x8(%rax)
/home/tenebris/Documents/RootCauseAnalysis/evaluation/test_bin/lua-5.0/src/lapi.c:509
    6df4:	48 8b 45 d8          	mov    -0x28(%rbp),%rax
    6df8:	48 8b 40 10          	mov    0x10(%rax),%rax
    6dfc:	48 8d 50 10          	lea    0x10(%rax),%rdx
    6e00:	48 8b 45 d8          	mov    -0x28(%rbp),%rax
    6e04:	48 89 50 10          	mov    %rdx,0x10(%rax)
/home/tenebris/Documents/RootCauseAnalysis/evaluation/test_bin/lua-5.0/src/lapi.c:511
    6e08:	90                   	nop
    6e09:	c9                   	leave  
    6e0a:	c3                   	ret    

0000000000006e0b <lua_newtable>:
lua_newtable():
/home/tenebris/Documents/RootCauseAnalysis/evaluation/test_bin/lua-5.0/src/lapi.c:514
    6e0b:	f3 0f 1e fa          	endbr64 
    6e0f:	55                   	push   %rbp
    6e10:	48 89 e5             	mov    %rsp,%rbp
    6e13:	48 83 ec 20          	sub    $0x20,%rsp
    6e17:	48 89 7d e8          	mov    %rdi,-0x18(%rbp)
/home/tenebris/Documents/RootCauseAnalysis/evaluation/test_bin/lua-5.0/src/lapi.c:516
    6e1b:	48 8b 45 e8          	mov    -0x18(%rbp),%rax
    6e1f:	48 8b 40 20          	mov    0x20(%rax),%rax
    6e23:	48 8b 50 48          	mov    0x48(%rax),%rdx
    6e27:	48 8b 45 e8          	mov    -0x18(%rbp),%rax
    6e2b:	48 8b 40 20          	mov    0x20(%rax),%rax
    6e2f:	48 8b 40 40          	mov    0x40(%rax),%rax
    6e33:	48 39 c2             	cmp    %rax,%rdx
    6e36:	72 0c                	jb     6e44 <lua_newtable+0x39>
/home/tenebris/Documents/RootCauseAnalysis/evaluation/test_bin/lua-5.0/src/lapi.c:516 (discriminator 1)
    6e38:	48 8b 45 e8          	mov    -0x18(%rbp),%rax
    6e3c:	48 89 c7             	mov    %rax,%rdi
    6e3f:	e8 5b 62 00 00       	call   d09f <luaC_collectgarbage>
/home/tenebris/Documents/RootCauseAnalysis/evaluation/test_bin/lua-5.0/src/lapi.c:517
    6e44:	48 8b 45 e8          	mov    -0x18(%rbp),%rax
    6e48:	48 8b 40 10          	mov    0x10(%rax),%rax
    6e4c:	48 89 45 f8          	mov    %rax,-0x8(%rbp)
    6e50:	48 8b 45 f8          	mov    -0x8(%rbp),%rax
    6e54:	c7 00 05 00 00 00    	movl   $0x5,(%rax)
    6e5a:	48 8b 45 e8          	mov    -0x18(%rbp),%rax
    6e5e:	ba 00 00 00 00       	mov    $0x0,%edx
    6e63:	be 00 00 00 00       	mov    $0x0,%esi
    6e68:	48 89 c7             	mov    %rax,%rdi
    6e6b:	e8 56 c4 00 00       	call   132c6 <luaH_new>
    6e70:	48 8b 55 f8          	mov    -0x8(%rbp),%rdx
    6e74:	48 89 42 08          	mov    %rax,0x8(%rdx)
/home/tenebris/Documents/RootCauseAnalysis/evaluation/test_bin/lua-5.0/src/lapi.c:518
    6e78:	48 8b 45 e8          	mov    -0x18(%rbp),%rax
    6e7c:	48 8b 40 10          	mov    0x10(%rax),%rax
    6e80:	48 8d 50 10          	lea    0x10(%rax),%rdx
    6e84:	48 8b 45 e8          	mov    -0x18(%rbp),%rax
    6e88:	48 89 50 10          	mov    %rdx,0x10(%rax)
/home/tenebris/Documents/RootCauseAnalysis/evaluation/test_bin/lua-5.0/src/lapi.c:520
    6e8c:	90                   	nop
    6e8d:	c9                   	leave  
    6e8e:	c3                   	ret    

0000000000006e8f <lua_getmetatable>:
lua_getmetatable():
/home/tenebris/Documents/RootCauseAnalysis/evaluation/test_bin/lua-5.0/src/lapi.c:523
    6e8f:	f3 0f 1e fa          	endbr64 
    6e93:	55                   	push   %rbp
    6e94:	48 89 e5             	mov    %rsp,%rbp
    6e97:	48 83 ec 30          	sub    $0x30,%rsp
    6e9b:	48 89 7d d8          	mov    %rdi,-0x28(%rbp)
    6e9f:	89 75 d4             	mov    %esi,-0x2c(%rbp)
/home/tenebris/Documents/RootCauseAnalysis/evaluation/test_bin/lua-5.0/src/lapi.c:525
    6ea2:	48 c7 45 e8 00 00 00 	movq   $0x0,-0x18(%rbp)
    6ea9:	00 
/home/tenebris/Documents/RootCauseAnalysis/evaluation/test_bin/lua-5.0/src/lapi.c:528
    6eaa:	8b 55 d4             	mov    -0x2c(%rbp),%edx
    6ead:	48 8b 45 d8          	mov    -0x28(%rbp),%rax
    6eb1:	89 d6                	mov    %edx,%esi
    6eb3:	48 89 c7             	mov    %rax,%rdi
    6eb6:	e8 66 ec ff ff       	call   5b21 <luaA_indexAcceptable>
    6ebb:	48 89 45 f0          	mov    %rax,-0x10(%rbp)
/home/tenebris/Documents/RootCauseAnalysis/evaluation/test_bin/lua-5.0/src/lapi.c:529
    6ebf:	48 83 7d f0 00       	cmpq   $0x0,-0x10(%rbp)
    6ec4:	74 35                	je     6efb <lua_getmetatable+0x6c>
/home/tenebris/Documents/RootCauseAnalysis/evaluation/test_bin/lua-5.0/src/lapi.c:530
    6ec6:	48 8b 45 f0          	mov    -0x10(%rbp),%rax
    6eca:	8b 00                	mov    (%rax),%eax
    6ecc:	83 f8 05             	cmp    $0x5,%eax
    6ecf:	74 07                	je     6ed8 <lua_getmetatable+0x49>
    6ed1:	83 f8 07             	cmp    $0x7,%eax
    6ed4:	74 14                	je     6eea <lua_getmetatable+0x5b>
    6ed6:	eb 23                	jmp    6efb <lua_getmetatable+0x6c>
/home/tenebris/Documents/RootCauseAnalysis/evaluation/test_bin/lua-5.0/src/lapi.c:532
    6ed8:	48 8b 45 f0          	mov    -0x10(%rbp),%rax
    6edc:	48 8b 40 08          	mov    0x8(%rax),%rax
    6ee0:	48 8b 40 10          	mov    0x10(%rax),%rax
    6ee4:	48 89 45 e8          	mov    %rax,-0x18(%rbp)
/home/tenebris/Documents/RootCauseAnalysis/evaluation/test_bin/lua-5.0/src/lapi.c:533
    6ee8:	eb 11                	jmp    6efb <lua_getmetatable+0x6c>
/home/tenebris/Documents/RootCauseAnalysis/evaluation/test_bin/lua-5.0/src/lapi.c:535
    6eea:	48 8b 45 f0          	mov    -0x10(%rbp),%rax
    6eee:	48 8b 40 08          	mov    0x8(%rax),%rax
    6ef2:	48 8b 40 10          	mov    0x10(%rax),%rax
    6ef6:	48 89 45 e8          	mov    %rax,-0x18(%rbp)
/home/tenebris/Documents/RootCauseAnalysis/evaluation/test_bin/lua-5.0/src/lapi.c:536
    6efa:	90                   	nop
/home/tenebris/Documents/RootCauseAnalysis/evaluation/test_bin/lua-5.0/src/lapi.c:539
    6efb:	48 83 7d e8 00       	cmpq   $0x0,-0x18(%rbp)
    6f00:	74 12                	je     6f14 <lua_getmetatable+0x85>
/home/tenebris/Documents/RootCauseAnalysis/evaluation/test_bin/lua-5.0/src/lapi.c:539 (discriminator 1)
    6f02:	48 8b 45 d8          	mov    -0x28(%rbp),%rax
    6f06:	48 8b 40 20          	mov    0x20(%rax),%rax
    6f0a:	48 8b 40 70          	mov    0x70(%rax),%rax
    6f0e:	48 39 45 e8          	cmp    %rax,-0x18(%rbp)
    6f12:	75 09                	jne    6f1d <lua_getmetatable+0x8e>
/home/tenebris/Documents/RootCauseAnalysis/evaluation/test_bin/lua-5.0/src/lapi.c:540
    6f14:	c7 45 e4 00 00 00 00 	movl   $0x0,-0x1c(%rbp)
    6f1b:	eb 3d                	jmp    6f5a <lua_getmetatable+0xcb>
/home/tenebris/Documents/RootCauseAnalysis/evaluation/test_bin/lua-5.0/src/lapi.c:542
    6f1d:	48 8b 45 d8          	mov    -0x28(%rbp),%rax
    6f21:	48 8b 40 10          	mov    0x10(%rax),%rax
    6f25:	48 89 45 f8          	mov    %rax,-0x8(%rbp)
    6f29:	48 8b 45 f8          	mov    -0x8(%rbp),%rax
    6f2d:	c7 00 05 00 00 00    	movl   $0x5,(%rax)
    6f33:	48 8b 45 f8          	mov    -0x8(%rbp),%rax
    6f37:	48 8b 55 e8          	mov    -0x18(%rbp),%rdx
    6f3b:	48 89 50 08          	mov    %rdx,0x8(%rax)
/home/tenebris/Documents/RootCauseAnalysis/evaluation/test_bin/lua-5.0/src/lapi.c:543
    6f3f:	48 8b 45 d8          	mov    -0x28(%rbp),%rax
    6f43:	48 8b 40 10          	mov    0x10(%rax),%rax
    6f47:	48 8d 50 10          	lea    0x10(%rax),%rdx
    6f4b:	48 8b 45 d8          	mov    -0x28(%rbp),%rax
    6f4f:	48 89 50 10          	mov    %rdx,0x10(%rax)
/home/tenebris/Documents/RootCauseAnalysis/evaluation/test_bin/lua-5.0/src/lapi.c:544
    6f53:	c7 45 e4 01 00 00 00 	movl   $0x1,-0x1c(%rbp)
/home/tenebris/Documents/RootCauseAnalysis/evaluation/test_bin/lua-5.0/src/lapi.c:547
    6f5a:	8b 45 e4             	mov    -0x1c(%rbp),%eax
/home/tenebris/Documents/RootCauseAnalysis/evaluation/test_bin/lua-5.0/src/lapi.c:548
    6f5d:	c9                   	leave  
    6f5e:	c3                   	ret    

0000000000006f5f <lua_getfenv>:
lua_getfenv():
/home/tenebris/Documents/RootCauseAnalysis/evaluation/test_bin/lua-5.0/src/lapi.c:551
    6f5f:	f3 0f 1e fa          	endbr64 
    6f63:	55                   	push   %rbp
    6f64:	48 89 e5             	mov    %rsp,%rbp
    6f67:	48 83 ec 30          	sub    $0x30,%rsp
    6f6b:	48 89 7d d8          	mov    %rdi,-0x28(%rbp)
    6f6f:	89 75 d4             	mov    %esi,-0x2c(%rbp)
/home/tenebris/Documents/RootCauseAnalysis/evaluation/test_bin/lua-5.0/src/lapi.c:554
    6f72:	8b 55 d4             	mov    -0x2c(%rbp),%edx
    6f75:	48 8b 45 d8          	mov    -0x28(%rbp),%rax
    6f79:	89 d6                	mov    %edx,%esi
    6f7b:	48 89 c7             	mov    %rax,%rdi
    6f7e:	e8 50 eb ff ff       	call   5ad3 <luaA_index>
    6f83:	48 89 45 e8          	mov    %rax,-0x18(%rbp)
/home/tenebris/Documents/RootCauseAnalysis/evaluation/test_bin/lua-5.0/src/lapi.c:555
    6f87:	48 8b 45 e8          	mov    -0x18(%rbp),%rax
    6f8b:	8b 00                	mov    (%rax),%eax
    6f8d:	83 f8 06             	cmp    $0x6,%eax
    6f90:	75 1e                	jne    6fb0 <lua_getfenv+0x51>
/home/tenebris/Documents/RootCauseAnalysis/evaluation/test_bin/lua-5.0/src/lapi.c:555 (discriminator 1)
    6f92:	48 8b 45 e8          	mov    -0x18(%rbp),%rax
    6f96:	48 8b 40 08          	mov    0x8(%rax),%rax
    6f9a:	0f b6 40 0a          	movzbl 0xa(%rax),%eax
    6f9e:	84 c0                	test   %al,%al
    6fa0:	75 0e                	jne    6fb0 <lua_getfenv+0x51>
/home/tenebris/Documents/RootCauseAnalysis/evaluation/test_bin/lua-5.0/src/lapi.c:555 (discriminator 3)
    6fa2:	48 8b 45 e8          	mov    -0x18(%rbp),%rax
    6fa6:	48 8b 40 08          	mov    0x8(%rax),%rax
    6faa:	48 83 c0 20          	add    $0x20,%rax
    6fae:	eb 08                	jmp    6fb8 <lua_getfenv+0x59>
/home/tenebris/Documents/RootCauseAnalysis/evaluation/test_bin/lua-5.0/src/lapi.c:555 (discriminator 4)
    6fb0:	48 8b 45 d8          	mov    -0x28(%rbp),%rax
    6fb4:	48 83 c0 70          	add    $0x70,%rax
/home/tenebris/Documents/RootCauseAnalysis/evaluation/test_bin/lua-5.0/src/lapi.c:555 (discriminator 6)
    6fb8:	48 89 45 f0          	mov    %rax,-0x10(%rbp)
    6fbc:	48 8b 45 d8          	mov    -0x28(%rbp),%rax
    6fc0:	48 8b 40 10          	mov    0x10(%rax),%rax
    6fc4:	48 89 45 f8          	mov    %rax,-0x8(%rbp)
    6fc8:	48 8b 45 f0          	mov    -0x10(%rbp),%rax
    6fcc:	8b 10                	mov    (%rax),%edx
    6fce:	48 8b 45 f8          	mov    -0x8(%rbp),%rax
    6fd2:	89 10                	mov    %edx,(%rax)
    6fd4:	48 8b 45 f8          	mov    -0x8(%rbp),%rax
    6fd8:	48 8b 55 f0          	mov    -0x10(%rbp),%rdx
    6fdc:	48 8b 52 08          	mov    0x8(%rdx),%rdx
    6fe0:	48 89 50 08          	mov    %rdx,0x8(%rax)
/home/tenebris/Documents/RootCauseAnalysis/evaluation/test_bin/lua-5.0/src/lapi.c:556 (discriminator 6)
    6fe4:	48 8b 45 d8          	mov    -0x28(%rbp),%rax
    6fe8:	48 8b 40 10          	mov    0x10(%rax),%rax
    6fec:	48 8d 50 10          	lea    0x10(%rax),%rdx
    6ff0:	48 8b 45 d8          	mov    -0x28(%rbp),%rax
    6ff4:	48 89 50 10          	mov    %rdx,0x10(%rax)
/home/tenebris/Documents/RootCauseAnalysis/evaluation/test_bin/lua-5.0/src/lapi.c:558 (discriminator 6)
    6ff8:	90                   	nop
    6ff9:	c9                   	leave  
    6ffa:	c3                   	ret    

0000000000006ffb <lua_settable>:
lua_settable():
/home/tenebris/Documents/RootCauseAnalysis/evaluation/test_bin/lua-5.0/src/lapi.c:566
    6ffb:	f3 0f 1e fa          	endbr64 
    6fff:	55                   	push   %rbp
    7000:	48 89 e5             	mov    %rsp,%rbp
    7003:	48 83 ec 20          	sub    $0x20,%rsp
    7007:	48 89 7d e8          	mov    %rdi,-0x18(%rbp)
    700b:	89 75 e4             	mov    %esi,-0x1c(%rbp)
/home/tenebris/Documents/RootCauseAnalysis/evaluation/test_bin/lua-5.0/src/lapi.c:570
    700e:	8b 55 e4             	mov    -0x1c(%rbp),%edx
    7011:	48 8b 45 e8          	mov    -0x18(%rbp),%rax
    7015:	89 d6                	mov    %edx,%esi
    7017:	48 89 c7             	mov    %rax,%rdi
    701a:	e8 b4 ea ff ff       	call   5ad3 <luaA_index>
    701f:	48 89 45 f8          	mov    %rax,-0x8(%rbp)
/home/tenebris/Documents/RootCauseAnalysis/evaluation/test_bin/lua-5.0/src/lapi.c:571
    7023:	48 8b 45 e8          	mov    -0x18(%rbp),%rax
    7027:	48 8b 40 10          	mov    0x10(%rax),%rax
    702b:	48 8d 48 f0          	lea    -0x10(%rax),%rcx
    702f:	48 8b 45 e8          	mov    -0x18(%rbp),%rax
    7033:	48 8b 40 10          	mov    0x10(%rax),%rax
    7037:	48 8d 50 e0          	lea    -0x20(%rax),%rdx
    703b:	48 8b 75 f8          	mov    -0x8(%rbp),%rsi
    703f:	48 8b 45 e8          	mov    -0x18(%rbp),%rax
    7043:	48 89 c7             	mov    %rax,%rdi
    7046:	e8 e6 e0 00 00       	call   15131 <luaV_settable>
/home/tenebris/Documents/RootCauseAnalysis/evaluation/test_bin/lua-5.0/src/lapi.c:572
    704b:	48 8b 45 e8          	mov    -0x18(%rbp),%rax
    704f:	48 8b 40 10          	mov    0x10(%rax),%rax
    7053:	48 8d 50 e0          	lea    -0x20(%rax),%rdx
    7057:	48 8b 45 e8          	mov    -0x18(%rbp),%rax
    705b:	48 89 50 10          	mov    %rdx,0x10(%rax)
/home/tenebris/Documents/RootCauseAnalysis/evaluation/test_bin/lua-5.0/src/lapi.c:574
    705f:	90                   	nop
    7060:	c9                   	leave  
    7061:	c3                   	ret    

0000000000007062 <lua_rawset>:
lua_rawset():
/home/tenebris/Documents/RootCauseAnalysis/evaluation/test_bin/lua-5.0/src/lapi.c:577
    7062:	f3 0f 1e fa          	endbr64 
    7066:	55                   	push   %rbp
    7067:	48 89 e5             	mov    %rsp,%rbp
    706a:	48 83 ec 30          	sub    $0x30,%rsp
    706e:	48 89 7d d8          	mov    %rdi,-0x28(%rbp)
    7072:	89 75 d4             	mov    %esi,-0x2c(%rbp)
/home/tenebris/Documents/RootCauseAnalysis/evaluation/test_bin/lua-5.0/src/lapi.c:581
    7075:	8b 55 d4             	mov    -0x2c(%rbp),%edx
    7078:	48 8b 45 d8          	mov    -0x28(%rbp),%rax
    707c:	89 d6                	mov    %edx,%esi
    707e:	48 89 c7             	mov    %rax,%rdi
    7081:	e8 4d ea ff ff       	call   5ad3 <luaA_index>
    7086:	48 89 45 e8          	mov    %rax,-0x18(%rbp)
/home/tenebris/Documents/RootCauseAnalysis/evaluation/test_bin/lua-5.0/src/lapi.c:583
    708a:	48 8b 45 d8          	mov    -0x28(%rbp),%rax
    708e:	48 8b 40 10          	mov    0x10(%rax),%rax
    7092:	48 83 e8 10          	sub    $0x10,%rax
    7096:	48 89 45 f0          	mov    %rax,-0x10(%rbp)
    709a:	48 8b 45 d8          	mov    -0x28(%rbp),%rax
    709e:	48 8b 40 10          	mov    0x10(%rax),%rax
    70a2:	48 8d 50 e0          	lea    -0x20(%rax),%rdx
    70a6:	48 8b 45 e8          	mov    -0x18(%rbp),%rax
    70aa:	48 8b 40 08          	mov    0x8(%rax),%rax
    70ae:	48 89 c1             	mov    %rax,%rcx
    70b1:	48 8b 45 d8          	mov    -0x28(%rbp),%rax
    70b5:	48 89 ce             	mov    %rcx,%rsi
    70b8:	48 89 c7             	mov    %rax,%rdi
    70bb:	e8 99 c7 00 00       	call   13859 <luaH_set>
    70c0:	48 89 45 f8          	mov    %rax,-0x8(%rbp)
    70c4:	48 8b 45 f0          	mov    -0x10(%rbp),%rax
    70c8:	8b 10                	mov    (%rax),%edx
    70ca:	48 8b 45 f8          	mov    -0x8(%rbp),%rax
    70ce:	89 10                	mov    %edx,(%rax)
    70d0:	48 8b 45 f8          	mov    -0x8(%rbp),%rax
    70d4:	48 8b 55 f0          	mov    -0x10(%rbp),%rdx
    70d8:	48 8b 52 08          	mov    0x8(%rdx),%rdx
    70dc:	48 89 50 08          	mov    %rdx,0x8(%rax)
/home/tenebris/Documents/RootCauseAnalysis/evaluation/test_bin/lua-5.0/src/lapi.c:584
    70e0:	48 8b 45 d8          	mov    -0x28(%rbp),%rax
    70e4:	48 8b 40 10          	mov    0x10(%rax),%rax
    70e8:	48 8d 50 e0          	lea    -0x20(%rax),%rdx
    70ec:	48 8b 45 d8          	mov    -0x28(%rbp),%rax
    70f0:	48 89 50 10          	mov    %rdx,0x10(%rax)
/home/tenebris/Documents/RootCauseAnalysis/evaluation/test_bin/lua-5.0/src/lapi.c:586
    70f4:	90                   	nop
    70f5:	c9                   	leave  
    70f6:	c3                   	ret    

00000000000070f7 <lua_rawseti>:
lua_rawseti():
/home/tenebris/Documents/RootCauseAnalysis/evaluation/test_bin/lua-5.0/src/lapi.c:589
    70f7:	f3 0f 1e fa          	endbr64 
    70fb:	55                   	push   %rbp
    70fc:	48 89 e5             	mov    %rsp,%rbp
    70ff:	48 83 ec 30          	sub    $0x30,%rsp
    7103:	48 89 7d d8          	mov    %rdi,-0x28(%rbp)
    7107:	89 75 d4             	mov    %esi,-0x2c(%rbp)
    710a:	89 55 d0             	mov    %edx,-0x30(%rbp)
/home/tenebris/Documents/RootCauseAnalysis/evaluation/test_bin/lua-5.0/src/lapi.c:593
    710d:	8b 55 d4             	mov    -0x2c(%rbp),%edx
    7110:	48 8b 45 d8          	mov    -0x28(%rbp),%rax
    7114:	89 d6                	mov    %edx,%esi
    7116:	48 89 c7             	mov    %rax,%rdi
    7119:	e8 b5 e9 ff ff       	call   5ad3 <luaA_index>
    711e:	48 89 45 e8          	mov    %rax,-0x18(%rbp)
/home/tenebris/Documents/RootCauseAnalysis/evaluation/test_bin/lua-5.0/src/lapi.c:595
    7122:	48 8b 45 d8          	mov    -0x28(%rbp),%rax
    7126:	48 8b 40 10          	mov    0x10(%rax),%rax
    712a:	48 83 e8 10          	sub    $0x10,%rax
    712e:	48 89 45 f0          	mov    %rax,-0x10(%rbp)
    7132:	48 8b 45 e8          	mov    -0x18(%rbp),%rax
    7136:	48 8b 40 08          	mov    0x8(%rax),%rax
    713a:	48 89 c1             	mov    %rax,%rcx
    713d:	8b 55 d0             	mov    -0x30(%rbp),%edx
    7140:	48 8b 45 d8          	mov    -0x28(%rbp),%rax
    7144:	48 89 ce             	mov    %rcx,%rsi
    7147:	48 89 c7             	mov    %rax,%rdi
    714a:	e8 db c7 00 00       	call   1392a <luaH_setnum>
    714f:	48 89 45 f8          	mov    %rax,-0x8(%rbp)
    7153:	48 8b 45 f0          	mov    -0x10(%rbp),%rax
    7157:	8b 10                	mov    (%rax),%edx
    7159:	48 8b 45 f8          	mov    -0x8(%rbp),%rax
    715d:	89 10                	mov    %edx,(%rax)
    715f:	48 8b 45 f8          	mov    -0x8(%rbp),%rax
    7163:	48 8b 55 f0          	mov    -0x10(%rbp),%rdx
    7167:	48 8b 52 08          	mov    0x8(%rdx),%rdx
    716b:	48 89 50 08          	mov    %rdx,0x8(%rax)
/home/tenebris/Documents/RootCauseAnalysis/evaluation/test_bin/lua-5.0/src/lapi.c:596
    716f:	48 8b 45 d8          	mov    -0x28(%rbp),%rax
    7173:	48 8b 40 10          	mov    0x10(%rax),%rax
    7177:	48 8d 50 f0          	lea    -0x10(%rax),%rdx
    717b:	48 8b 45 d8          	mov    -0x28(%rbp),%rax
    717f:	48 89 50 10          	mov    %rdx,0x10(%rax)
/home/tenebris/Documents/RootCauseAnalysis/evaluation/test_bin/lua-5.0/src/lapi.c:598
    7183:	90                   	nop
    7184:	c9                   	leave  
    7185:	c3                   	ret    

0000000000007186 <lua_setmetatable>:
lua_setmetatable():
/home/tenebris/Documents/RootCauseAnalysis/evaluation/test_bin/lua-5.0/src/lapi.c:601
    7186:	f3 0f 1e fa          	endbr64 
    718a:	55                   	push   %rbp
    718b:	48 89 e5             	mov    %rsp,%rbp
    718e:	48 83 ec 30          	sub    $0x30,%rsp
    7192:	48 89 7d d8          	mov    %rdi,-0x28(%rbp)
    7196:	89 75 d4             	mov    %esi,-0x2c(%rbp)
/home/tenebris/Documents/RootCauseAnalysis/evaluation/test_bin/lua-5.0/src/lapi.c:603
    7199:	c7 45 ec 01 00 00 00 	movl   $0x1,-0x14(%rbp)
/home/tenebris/Documents/RootCauseAnalysis/evaluation/test_bin/lua-5.0/src/lapi.c:606
    71a0:	8b 55 d4             	mov    -0x2c(%rbp),%edx
    71a3:	48 8b 45 d8          	mov    -0x28(%rbp),%rax
    71a7:	89 d6                	mov    %edx,%esi
    71a9:	48 89 c7             	mov    %rax,%rdi
    71ac:	e8 22 e9 ff ff       	call   5ad3 <luaA_index>
    71b1:	48 89 45 f0          	mov    %rax,-0x10(%rbp)
/home/tenebris/Documents/RootCauseAnalysis/evaluation/test_bin/lua-5.0/src/lapi.c:607
    71b5:	48 8b 45 d8          	mov    -0x28(%rbp),%rax
    71b9:	48 8b 40 10          	mov    0x10(%rax),%rax
    71bd:	48 83 e8 10          	sub    $0x10,%rax
    71c1:	8b 00                	mov    (%rax),%eax
    71c3:	85 c0                	test   %eax,%eax
    71c5:	74 0e                	je     71d5 <lua_setmetatable+0x4f>
/home/tenebris/Documents/RootCauseAnalysis/evaluation/test_bin/lua-5.0/src/lapi.c:607 (discriminator 1)
    71c7:	48 8b 45 d8          	mov    -0x28(%rbp),%rax
    71cb:	48 8b 40 10          	mov    0x10(%rax),%rax
    71cf:	48 83 e8 10          	sub    $0x10,%rax
    71d3:	eb 0c                	jmp    71e1 <lua_setmetatable+0x5b>
/home/tenebris/Documents/RootCauseAnalysis/evaluation/test_bin/lua-5.0/src/lapi.c:607 (discriminator 2)
    71d5:	48 8b 45 d8          	mov    -0x28(%rbp),%rax
    71d9:	48 8b 40 20          	mov    0x20(%rax),%rax
    71dd:	48 83 c0 68          	add    $0x68,%rax
/home/tenebris/Documents/RootCauseAnalysis/evaluation/test_bin/lua-5.0/src/lapi.c:607 (discriminator 4)
    71e1:	48 89 45 f8          	mov    %rax,-0x8(%rbp)
/home/tenebris/Documents/RootCauseAnalysis/evaluation/test_bin/lua-5.0/src/lapi.c:609 (discriminator 4)
    71e5:	48 8b 45 f0          	mov    -0x10(%rbp),%rax
    71e9:	8b 00                	mov    (%rax),%eax
    71eb:	83 f8 05             	cmp    $0x5,%eax
    71ee:	74 07                	je     71f7 <lua_setmetatable+0x71>
/home/tenebris/Documents/RootCauseAnalysis/evaluation/test_bin/lua-5.0/src/lapi.c:609
    71f0:	83 f8 07             	cmp    $0x7,%eax
    71f3:	74 18                	je     720d <lua_setmetatable+0x87>
    71f5:	eb 2c                	jmp    7223 <lua_setmetatable+0x9d>
/home/tenebris/Documents/RootCauseAnalysis/evaluation/test_bin/lua-5.0/src/lapi.c:611
    71f7:	48 8b 45 f8          	mov    -0x8(%rbp),%rax
    71fb:	48 8b 50 08          	mov    0x8(%rax),%rdx
    71ff:	48 8b 45 f0          	mov    -0x10(%rbp),%rax
    7203:	48 8b 40 08          	mov    0x8(%rax),%rax
    7207:	48 89 50 10          	mov    %rdx,0x10(%rax)
/home/tenebris/Documents/RootCauseAnalysis/evaluation/test_bin/lua-5.0/src/lapi.c:612
    720b:	eb 1e                	jmp    722b <lua_setmetatable+0xa5>
/home/tenebris/Documents/RootCauseAnalysis/evaluation/test_bin/lua-5.0/src/lapi.c:615
    720d:	48 8b 45 f8          	mov    -0x8(%rbp),%rax
    7211:	48 8b 50 08          	mov    0x8(%rax),%rdx
    7215:	48 8b 45 f0          	mov    -0x10(%rbp),%rax
    7219:	48 8b 40 08          	mov    0x8(%rax),%rax
    721d:	48 89 50 10          	mov    %rdx,0x10(%rax)
/home/tenebris/Documents/RootCauseAnalysis/evaluation/test_bin/lua-5.0/src/lapi.c:616
    7221:	eb 08                	jmp    722b <lua_setmetatable+0xa5>
/home/tenebris/Documents/RootCauseAnalysis/evaluation/test_bin/lua-5.0/src/lapi.c:619
    7223:	c7 45 ec 00 00 00 00 	movl   $0x0,-0x14(%rbp)
/home/tenebris/Documents/RootCauseAnalysis/evaluation/test_bin/lua-5.0/src/lapi.c:620
    722a:	90                   	nop
/home/tenebris/Documents/RootCauseAnalysis/evaluation/test_bin/lua-5.0/src/lapi.c:623
    722b:	48 8b 45 d8          	mov    -0x28(%rbp),%rax
    722f:	48 8b 40 10          	mov    0x10(%rax),%rax
    7233:	48 8d 50 f0          	lea    -0x10(%rax),%rdx
    7237:	48 8b 45 d8          	mov    -0x28(%rbp),%rax
    723b:	48 89 50 10          	mov    %rdx,0x10(%rax)
/home/tenebris/Documents/RootCauseAnalysis/evaluation/test_bin/lua-5.0/src/lapi.c:625
    723f:	8b 45 ec             	mov    -0x14(%rbp),%eax
/home/tenebris/Documents/RootCauseAnalysis/evaluation/test_bin/lua-5.0/src/lapi.c:626
    7242:	c9                   	leave  
    7243:	c3                   	ret    

0000000000007244 <lua_setfenv>:
lua_setfenv():
/home/tenebris/Documents/RootCauseAnalysis/evaluation/test_bin/lua-5.0/src/lapi.c:629
    7244:	f3 0f 1e fa          	endbr64 
    7248:	55                   	push   %rbp
    7249:	48 89 e5             	mov    %rsp,%rbp
    724c:	48 83 ec 20          	sub    $0x20,%rsp
    7250:	48 89 7d e8          	mov    %rdi,-0x18(%rbp)
    7254:	89 75 e4             	mov    %esi,-0x1c(%rbp)
/home/tenebris/Documents/RootCauseAnalysis/evaluation/test_bin/lua-5.0/src/lapi.c:631
    7257:	c7 45 f4 00 00 00 00 	movl   $0x0,-0xc(%rbp)
/home/tenebris/Documents/RootCauseAnalysis/evaluation/test_bin/lua-5.0/src/lapi.c:634
    725e:	8b 55 e4             	mov    -0x1c(%rbp),%edx
    7261:	48 8b 45 e8          	mov    -0x18(%rbp),%rax
    7265:	89 d6                	mov    %edx,%esi
    7267:	48 89 c7             	mov    %rax,%rdi
    726a:	e8 64 e8 ff ff       	call   5ad3 <luaA_index>
    726f:	48 89 45 f8          	mov    %rax,-0x8(%rbp)
/home/tenebris/Documents/RootCauseAnalysis/evaluation/test_bin/lua-5.0/src/lapi.c:635
    7273:	48 8b 45 e8          	mov    -0x18(%rbp),%rax
    7277:	48 8b 40 10          	mov    0x10(%rax),%rax
    727b:	48 8d 50 f0          	lea    -0x10(%rax),%rdx
    727f:	48 8b 45 e8          	mov    -0x18(%rbp),%rax
    7283:	48 89 50 10          	mov    %rdx,0x10(%rax)
/home/tenebris/Documents/RootCauseAnalysis/evaluation/test_bin/lua-5.0/src/lapi.c:637
    7287:	48 8b 45 f8          	mov    -0x8(%rbp),%rax
    728b:	8b 00                	mov    (%rax),%eax
    728d:	83 f8 06             	cmp    $0x6,%eax
    7290:	75 36                	jne    72c8 <lua_setfenv+0x84>
/home/tenebris/Documents/RootCauseAnalysis/evaluation/test_bin/lua-5.0/src/lapi.c:637 (discriminator 1)
    7292:	48 8b 45 f8          	mov    -0x8(%rbp),%rax
    7296:	48 8b 40 08          	mov    0x8(%rax),%rax
