
ziptool_trace:     file format elf64-x86-64


Disassembly of section .init:

0000000000003000 <_init>:
_init():
    3000:	f3 0f 1e fa          	endbr64 
    3004:	48 83 ec 08          	sub    $0x8,%rsp
    3008:	48 8b 05 d1 7f 02 00 	mov    0x27fd1(%rip),%rax        # 2afe0 <__gmon_start__@Base>
    300f:	48 85 c0             	test   %rax,%rax
    3012:	74 02                	je     3016 <_init+0x16>
    3014:	ff d0                	call   *%rax
    3016:	48 83 c4 08          	add    $0x8,%rsp
    301a:	c3                   	ret    

Disassembly of section .plt:

0000000000003020 <.plt>:
    3020:	ff 35 ba 7d 02 00    	push   0x27dba(%rip)        # 2ade0 <_GLOBAL_OFFSET_TABLE_+0x8>
    3026:	f2 ff 25 bb 7d 02 00 	bnd jmp *0x27dbb(%rip)        # 2ade8 <_GLOBAL_OFFSET_TABLE_+0x10>
    302d:	0f 1f 00             	nopl   (%rax)
    3030:	f3 0f 1e fa          	endbr64 
    3034:	68 00 00 00 00       	push   $0x0
    3039:	f2 e9 e1 ff ff ff    	bnd jmp 3020 <_init+0x20>
    303f:	90                   	nop
    3040:	f3 0f 1e fa          	endbr64 
    3044:	68 01 00 00 00       	push   $0x1
    3049:	f2 e9 d1 ff ff ff    	bnd jmp 3020 <_init+0x20>
    304f:	90                   	nop
    3050:	f3 0f 1e fa          	endbr64 
    3054:	68 02 00 00 00       	push   $0x2
    3059:	f2 e9 c1 ff ff ff    	bnd jmp 3020 <_init+0x20>
    305f:	90                   	nop
    3060:	f3 0f 1e fa          	endbr64 
    3064:	68 03 00 00 00       	push   $0x3
    3069:	f2 e9 b1 ff ff ff    	bnd jmp 3020 <_init+0x20>
    306f:	90                   	nop
    3070:	f3 0f 1e fa          	endbr64 
    3074:	68 04 00 00 00       	push   $0x4
    3079:	f2 e9 a1 ff ff ff    	bnd jmp 3020 <_init+0x20>
    307f:	90                   	nop
    3080:	f3 0f 1e fa          	endbr64 
    3084:	68 05 00 00 00       	push   $0x5
    3089:	f2 e9 91 ff ff ff    	bnd jmp 3020 <_init+0x20>
    308f:	90                   	nop
    3090:	f3 0f 1e fa          	endbr64 
    3094:	68 06 00 00 00       	push   $0x6
    3099:	f2 e9 81 ff ff ff    	bnd jmp 3020 <_init+0x20>
    309f:	90                   	nop
    30a0:	f3 0f 1e fa          	endbr64 
    30a4:	68 07 00 00 00       	push   $0x7
    30a9:	f2 e9 71 ff ff ff    	bnd jmp 3020 <_init+0x20>
    30af:	90                   	nop
    30b0:	f3 0f 1e fa          	endbr64 
    30b4:	68 08 00 00 00       	push   $0x8
    30b9:	f2 e9 61 ff ff ff    	bnd jmp 3020 <_init+0x20>
    30bf:	90                   	nop
    30c0:	f3 0f 1e fa          	endbr64 
    30c4:	68 09 00 00 00       	push   $0x9
    30c9:	f2 e9 51 ff ff ff    	bnd jmp 3020 <_init+0x20>
    30cf:	90                   	nop
    30d0:	f3 0f 1e fa          	endbr64 
    30d4:	68 0a 00 00 00       	push   $0xa
    30d9:	f2 e9 41 ff ff ff    	bnd jmp 3020 <_init+0x20>
    30df:	90                   	nop
    30e0:	f3 0f 1e fa          	endbr64 
    30e4:	68 0b 00 00 00       	push   $0xb
    30e9:	f2 e9 31 ff ff ff    	bnd jmp 3020 <_init+0x20>
    30ef:	90                   	nop
    30f0:	f3 0f 1e fa          	endbr64 
    30f4:	68 0c 00 00 00       	push   $0xc
    30f9:	f2 e9 21 ff ff ff    	bnd jmp 3020 <_init+0x20>
    30ff:	90                   	nop
    3100:	f3 0f 1e fa          	endbr64 
    3104:	68 0d 00 00 00       	push   $0xd
    3109:	f2 e9 11 ff ff ff    	bnd jmp 3020 <_init+0x20>
    310f:	90                   	nop
    3110:	f3 0f 1e fa          	endbr64 
    3114:	68 0e 00 00 00       	push   $0xe
    3119:	f2 e9 01 ff ff ff    	bnd jmp 3020 <_init+0x20>
    311f:	90                   	nop
    3120:	f3 0f 1e fa          	endbr64 
    3124:	68 0f 00 00 00       	push   $0xf
    3129:	f2 e9 f1 fe ff ff    	bnd jmp 3020 <_init+0x20>
    312f:	90                   	nop
    3130:	f3 0f 1e fa          	endbr64 
    3134:	68 10 00 00 00       	push   $0x10
    3139:	f2 e9 e1 fe ff ff    	bnd jmp 3020 <_init+0x20>
    313f:	90                   	nop
    3140:	f3 0f 1e fa          	endbr64 
    3144:	68 11 00 00 00       	push   $0x11
    3149:	f2 e9 d1 fe ff ff    	bnd jmp 3020 <_init+0x20>
    314f:	90                   	nop
    3150:	f3 0f 1e fa          	endbr64 
    3154:	68 12 00 00 00       	push   $0x12
    3159:	f2 e9 c1 fe ff ff    	bnd jmp 3020 <_init+0x20>
    315f:	90                   	nop
    3160:	f3 0f 1e fa          	endbr64 
    3164:	68 13 00 00 00       	push   $0x13
    3169:	f2 e9 b1 fe ff ff    	bnd jmp 3020 <_init+0x20>
    316f:	90                   	nop
    3170:	f3 0f 1e fa          	endbr64 
    3174:	68 14 00 00 00       	push   $0x14
    3179:	f2 e9 a1 fe ff ff    	bnd jmp 3020 <_init+0x20>
    317f:	90                   	nop
    3180:	f3 0f 1e fa          	endbr64 
    3184:	68 15 00 00 00       	push   $0x15
    3189:	f2 e9 91 fe ff ff    	bnd jmp 3020 <_init+0x20>
    318f:	90                   	nop
    3190:	f3 0f 1e fa          	endbr64 
    3194:	68 16 00 00 00       	push   $0x16
    3199:	f2 e9 81 fe ff ff    	bnd jmp 3020 <_init+0x20>
    319f:	90                   	nop
    31a0:	f3 0f 1e fa          	endbr64 
    31a4:	68 17 00 00 00       	push   $0x17
    31a9:	f2 e9 71 fe ff ff    	bnd jmp 3020 <_init+0x20>
    31af:	90                   	nop
    31b0:	f3 0f 1e fa          	endbr64 
    31b4:	68 18 00 00 00       	push   $0x18
    31b9:	f2 e9 61 fe ff ff    	bnd jmp 3020 <_init+0x20>
    31bf:	90                   	nop
    31c0:	f3 0f 1e fa          	endbr64 
    31c4:	68 19 00 00 00       	push   $0x19
    31c9:	f2 e9 51 fe ff ff    	bnd jmp 3020 <_init+0x20>
    31cf:	90                   	nop
    31d0:	f3 0f 1e fa          	endbr64 
    31d4:	68 1a 00 00 00       	push   $0x1a
    31d9:	f2 e9 41 fe ff ff    	bnd jmp 3020 <_init+0x20>
    31df:	90                   	nop
    31e0:	f3 0f 1e fa          	endbr64 
    31e4:	68 1b 00 00 00       	push   $0x1b
    31e9:	f2 e9 31 fe ff ff    	bnd jmp 3020 <_init+0x20>
    31ef:	90                   	nop
    31f0:	f3 0f 1e fa          	endbr64 
    31f4:	68 1c 00 00 00       	push   $0x1c
    31f9:	f2 e9 21 fe ff ff    	bnd jmp 3020 <_init+0x20>
    31ff:	90                   	nop
    3200:	f3 0f 1e fa          	endbr64 
    3204:	68 1d 00 00 00       	push   $0x1d
    3209:	f2 e9 11 fe ff ff    	bnd jmp 3020 <_init+0x20>
    320f:	90                   	nop
    3210:	f3 0f 1e fa          	endbr64 
    3214:	68 1e 00 00 00       	push   $0x1e
    3219:	f2 e9 01 fe ff ff    	bnd jmp 3020 <_init+0x20>
    321f:	90                   	nop
    3220:	f3 0f 1e fa          	endbr64 
    3224:	68 1f 00 00 00       	push   $0x1f
    3229:	f2 e9 f1 fd ff ff    	bnd jmp 3020 <_init+0x20>
    322f:	90                   	nop
    3230:	f3 0f 1e fa          	endbr64 
    3234:	68 20 00 00 00       	push   $0x20
    3239:	f2 e9 e1 fd ff ff    	bnd jmp 3020 <_init+0x20>
    323f:	90                   	nop
    3240:	f3 0f 1e fa          	endbr64 
    3244:	68 21 00 00 00       	push   $0x21
    3249:	f2 e9 d1 fd ff ff    	bnd jmp 3020 <_init+0x20>
    324f:	90                   	nop
    3250:	f3 0f 1e fa          	endbr64 
    3254:	68 22 00 00 00       	push   $0x22
    3259:	f2 e9 c1 fd ff ff    	bnd jmp 3020 <_init+0x20>
    325f:	90                   	nop
    3260:	f3 0f 1e fa          	endbr64 
    3264:	68 23 00 00 00       	push   $0x23
    3269:	f2 e9 b1 fd ff ff    	bnd jmp 3020 <_init+0x20>
    326f:	90                   	nop
    3270:	f3 0f 1e fa          	endbr64 
    3274:	68 24 00 00 00       	push   $0x24
    3279:	f2 e9 a1 fd ff ff    	bnd jmp 3020 <_init+0x20>
    327f:	90                   	nop
    3280:	f3 0f 1e fa          	endbr64 
    3284:	68 25 00 00 00       	push   $0x25
    3289:	f2 e9 91 fd ff ff    	bnd jmp 3020 <_init+0x20>
    328f:	90                   	nop
    3290:	f3 0f 1e fa          	endbr64 
    3294:	68 26 00 00 00       	push   $0x26
    3299:	f2 e9 81 fd ff ff    	bnd jmp 3020 <_init+0x20>
    329f:	90                   	nop
    32a0:	f3 0f 1e fa          	endbr64 
    32a4:	68 27 00 00 00       	push   $0x27
    32a9:	f2 e9 71 fd ff ff    	bnd jmp 3020 <_init+0x20>
    32af:	90                   	nop
    32b0:	f3 0f 1e fa          	endbr64 
    32b4:	68 28 00 00 00       	push   $0x28
    32b9:	f2 e9 61 fd ff ff    	bnd jmp 3020 <_init+0x20>
    32bf:	90                   	nop
    32c0:	f3 0f 1e fa          	endbr64 
    32c4:	68 29 00 00 00       	push   $0x29
    32c9:	f2 e9 51 fd ff ff    	bnd jmp 3020 <_init+0x20>
    32cf:	90                   	nop
    32d0:	f3 0f 1e fa          	endbr64 
    32d4:	68 2a 00 00 00       	push   $0x2a
    32d9:	f2 e9 41 fd ff ff    	bnd jmp 3020 <_init+0x20>
    32df:	90                   	nop
    32e0:	f3 0f 1e fa          	endbr64 
    32e4:	68 2b 00 00 00       	push   $0x2b
    32e9:	f2 e9 31 fd ff ff    	bnd jmp 3020 <_init+0x20>
    32ef:	90                   	nop
    32f0:	f3 0f 1e fa          	endbr64 
    32f4:	68 2c 00 00 00       	push   $0x2c
    32f9:	f2 e9 21 fd ff ff    	bnd jmp 3020 <_init+0x20>
    32ff:	90                   	nop
    3300:	f3 0f 1e fa          	endbr64 
    3304:	68 2d 00 00 00       	push   $0x2d
    3309:	f2 e9 11 fd ff ff    	bnd jmp 3020 <_init+0x20>
    330f:	90                   	nop
    3310:	f3 0f 1e fa          	endbr64 
    3314:	68 2e 00 00 00       	push   $0x2e
    3319:	f2 e9 01 fd ff ff    	bnd jmp 3020 <_init+0x20>
    331f:	90                   	nop
    3320:	f3 0f 1e fa          	endbr64 
    3324:	68 2f 00 00 00       	push   $0x2f
    3329:	f2 e9 f1 fc ff ff    	bnd jmp 3020 <_init+0x20>
    332f:	90                   	nop
    3330:	f3 0f 1e fa          	endbr64 
    3334:	68 30 00 00 00       	push   $0x30
    3339:	f2 e9 e1 fc ff ff    	bnd jmp 3020 <_init+0x20>
    333f:	90                   	nop
    3340:	f3 0f 1e fa          	endbr64 
    3344:	68 31 00 00 00       	push   $0x31
    3349:	f2 e9 d1 fc ff ff    	bnd jmp 3020 <_init+0x20>
    334f:	90                   	nop
    3350:	f3 0f 1e fa          	endbr64 
    3354:	68 32 00 00 00       	push   $0x32
    3359:	f2 e9 c1 fc ff ff    	bnd jmp 3020 <_init+0x20>
    335f:	90                   	nop
    3360:	f3 0f 1e fa          	endbr64 
    3364:	68 33 00 00 00       	push   $0x33
    3369:	f2 e9 b1 fc ff ff    	bnd jmp 3020 <_init+0x20>
    336f:	90                   	nop
    3370:	f3 0f 1e fa          	endbr64 
    3374:	68 34 00 00 00       	push   $0x34
    3379:	f2 e9 a1 fc ff ff    	bnd jmp 3020 <_init+0x20>
    337f:	90                   	nop
    3380:	f3 0f 1e fa          	endbr64 
    3384:	68 35 00 00 00       	push   $0x35
    3389:	f2 e9 91 fc ff ff    	bnd jmp 3020 <_init+0x20>
    338f:	90                   	nop
    3390:	f3 0f 1e fa          	endbr64 
    3394:	68 36 00 00 00       	push   $0x36
    3399:	f2 e9 81 fc ff ff    	bnd jmp 3020 <_init+0x20>
    339f:	90                   	nop
    33a0:	f3 0f 1e fa          	endbr64 
    33a4:	68 37 00 00 00       	push   $0x37
    33a9:	f2 e9 71 fc ff ff    	bnd jmp 3020 <_init+0x20>
    33af:	90                   	nop
    33b0:	f3 0f 1e fa          	endbr64 
    33b4:	68 38 00 00 00       	push   $0x38
    33b9:	f2 e9 61 fc ff ff    	bnd jmp 3020 <_init+0x20>
    33bf:	90                   	nop
    33c0:	f3 0f 1e fa          	endbr64 
    33c4:	68 39 00 00 00       	push   $0x39
    33c9:	f2 e9 51 fc ff ff    	bnd jmp 3020 <_init+0x20>
    33cf:	90                   	nop

Disassembly of section .plt.got:

00000000000033d0 <strcmp@plt>:
    33d0:	f3 0f 1e fa          	endbr64 
    33d4:	f2 ff 25 fd 7b 02 00 	bnd jmp *0x27bfd(%rip)        # 2afd8 <strcmp@GLIBC_2.2.5>
    33db:	0f 1f 44 00 00       	nopl   0x0(%rax,%rax,1)

00000000000033e0 <__cxa_finalize@plt>:
    33e0:	f3 0f 1e fa          	endbr64 
    33e4:	f2 ff 25 05 7c 02 00 	bnd jmp *0x27c05(%rip)        # 2aff0 <__cxa_finalize@GLIBC_2.2.5>
    33eb:	0f 1f 44 00 00       	nopl   0x0(%rax,%rax,1)

Disassembly of section .plt.sec:

00000000000033f0 <free@plt>:
    33f0:	f3 0f 1e fa          	endbr64 
    33f4:	f2 ff 25 f5 79 02 00 	bnd jmp *0x279f5(%rip)        # 2adf0 <free@GLIBC_2.2.5>
    33fb:	0f 1f 44 00 00       	nopl   0x0(%rax,%rax,1)

0000000000003400 <putchar@plt>:
    3400:	f3 0f 1e fa          	endbr64 
    3404:	f2 ff 25 ed 79 02 00 	bnd jmp *0x279ed(%rip)        # 2adf8 <putchar@GLIBC_2.2.5>
    340b:	0f 1f 44 00 00       	nopl   0x0(%rax,%rax,1)

0000000000003410 <localtime@plt>:
    3410:	f3 0f 1e fa          	endbr64 
    3414:	f2 ff 25 e5 79 02 00 	bnd jmp *0x279e5(%rip)        # 2ae00 <localtime@GLIBC_2.2.5>
    341b:	0f 1f 44 00 00       	nopl   0x0(%rax,%rax,1)

0000000000003420 <__errno_location@plt>:
    3420:	f3 0f 1e fa          	endbr64 
    3424:	f2 ff 25 dd 79 02 00 	bnd jmp *0x279dd(%rip)        # 2ae08 <__errno_location@GLIBC_2.2.5>
    342b:	0f 1f 44 00 00       	nopl   0x0(%rax,%rax,1)

0000000000003430 <unlink@plt>:
    3430:	f3 0f 1e fa          	endbr64 
    3434:	f2 ff 25 d5 79 02 00 	bnd jmp *0x279d5(%rip)        # 2ae10 <unlink@GLIBC_2.2.5>
    343b:	0f 1f 44 00 00       	nopl   0x0(%rax,%rax,1)

0000000000003440 <remove@plt>:
    3440:	f3 0f 1e fa          	endbr64 
    3444:	f2 ff 25 cd 79 02 00 	bnd jmp *0x279cd(%rip)        # 2ae18 <remove@GLIBC_2.2.5>
    344b:	0f 1f 44 00 00       	nopl   0x0(%rax,%rax,1)

0000000000003450 <strcpy@plt>:
    3450:	f3 0f 1e fa          	endbr64 
    3454:	f2 ff 25 c5 79 02 00 	bnd jmp *0x279c5(%rip)        # 2ae20 <strcpy@GLIBC_2.2.5>
    345b:	0f 1f 44 00 00       	nopl   0x0(%rax,%rax,1)

0000000000003460 <ftello@plt>:
    3460:	f3 0f 1e fa          	endbr64 
    3464:	f2 ff 25 bd 79 02 00 	bnd jmp *0x279bd(%rip)        # 2ae28 <ftello@GLIBC_2.2.5>
    346b:	0f 1f 44 00 00       	nopl   0x0(%rax,%rax,1)

0000000000003470 <inflate@plt>:
    3470:	f3 0f 1e fa          	endbr64 
    3474:	f2 ff 25 b5 79 02 00 	bnd jmp *0x279b5(%rip)        # 2ae30 <inflate@Base>
    347b:	0f 1f 44 00 00       	nopl   0x0(%rax,%rax,1)

0000000000003480 <puts@plt>:
    3480:	f3 0f 1e fa          	endbr64 
    3484:	f2 ff 25 ad 79 02 00 	bnd jmp *0x279ad(%rip)        # 2ae38 <puts@GLIBC_2.2.5>
    348b:	0f 1f 44 00 00       	nopl   0x0(%rax,%rax,1)

0000000000003490 <ferror@plt>:
    3490:	f3 0f 1e fa          	endbr64 
    3494:	f2 ff 25 a5 79 02 00 	bnd jmp *0x279a5(%rip)        # 2ae40 <ferror@GLIBC_2.2.5>
    349b:	0f 1f 44 00 00       	nopl   0x0(%rax,%rax,1)

00000000000034a0 <fread@plt>:
    34a0:	f3 0f 1e fa          	endbr64 
    34a4:	f2 ff 25 9d 79 02 00 	bnd jmp *0x2799d(%rip)        # 2ae48 <fread@GLIBC_2.2.5>
    34ab:	0f 1f 44 00 00       	nopl   0x0(%rax,%rax,1)

00000000000034b0 <crc32@plt>:
    34b0:	f3 0f 1e fa          	endbr64 
    34b4:	f2 ff 25 95 79 02 00 	bnd jmp *0x27995(%rip)        # 2ae50 <crc32@Base>
    34bb:	0f 1f 44 00 00       	nopl   0x0(%rax,%rax,1)

00000000000034c0 <fclose@plt>:
    34c0:	f3 0f 1e fa          	endbr64 
    34c4:	f2 ff 25 8d 79 02 00 	bnd jmp *0x2798d(%rip)        # 2ae58 <fclose@GLIBC_2.2.5>
    34cb:	0f 1f 44 00 00       	nopl   0x0(%rax,%rax,1)

00000000000034d0 <strlen@plt>:
    34d0:	f3 0f 1e fa          	endbr64 
    34d4:	f2 ff 25 85 79 02 00 	bnd jmp *0x27985(%rip)        # 2ae60 <strlen@GLIBC_2.2.5>
    34db:	0f 1f 44 00 00       	nopl   0x0(%rax,%rax,1)

00000000000034e0 <__stack_chk_fail@plt>:
    34e0:	f3 0f 1e fa          	endbr64 
    34e4:	f2 ff 25 7d 79 02 00 	bnd jmp *0x2797d(%rip)        # 2ae68 <__stack_chk_fail@GLIBC_2.4>
    34eb:	0f 1f 44 00 00       	nopl   0x0(%rax,%rax,1)

00000000000034f0 <strchr@plt>:
    34f0:	f3 0f 1e fa          	endbr64 
    34f4:	f2 ff 25 75 79 02 00 	bnd jmp *0x27975(%rip)        # 2ae70 <strchr@GLIBC_2.2.5>
    34fb:	0f 1f 44 00 00       	nopl   0x0(%rax,%rax,1)

0000000000003500 <printf@plt>:
    3500:	f3 0f 1e fa          	endbr64 
    3504:	f2 ff 25 6d 79 02 00 	bnd jmp *0x2796d(%rip)        # 2ae78 <printf@GLIBC_2.2.5>
    350b:	0f 1f 44 00 00       	nopl   0x0(%rax,%rax,1)

0000000000003510 <zError@plt>:
    3510:	f3 0f 1e fa          	endbr64 
    3514:	f2 ff 25 65 79 02 00 	bnd jmp *0x27965(%rip)        # 2ae80 <zError@Base>
    351b:	0f 1f 44 00 00       	nopl   0x0(%rax,%rax,1)

0000000000003520 <snprintf@plt>:
    3520:	f3 0f 1e fa          	endbr64 
    3524:	f2 ff 25 5d 79 02 00 	bnd jmp *0x2795d(%rip)        # 2ae88 <snprintf@GLIBC_2.2.5>
    352b:	0f 1f 44 00 00       	nopl   0x0(%rax,%rax,1)

0000000000003530 <strrchr@plt>:
    3530:	f3 0f 1e fa          	endbr64 
    3534:	f2 ff 25 55 79 02 00 	bnd jmp *0x27955(%rip)        # 2ae90 <strrchr@GLIBC_2.2.5>
    353b:	0f 1f 44 00 00       	nopl   0x0(%rax,%rax,1)

0000000000003540 <deflate@plt>:
    3540:	f3 0f 1e fa          	endbr64 
    3544:	f2 ff 25 4d 79 02 00 	bnd jmp *0x2794d(%rip)        # 2ae98 <deflate@Base>
    354b:	0f 1f 44 00 00       	nopl   0x0(%rax,%rax,1)

0000000000003550 <memset@plt>:
    3550:	f3 0f 1e fa          	endbr64 
    3554:	f2 ff 25 45 79 02 00 	bnd jmp *0x27945(%rip)        # 2aea0 <memset@GLIBC_2.2.5>
    355b:	0f 1f 44 00 00       	nopl   0x0(%rax,%rax,1)

0000000000003560 <close@plt>:
    3560:	f3 0f 1e fa          	endbr64 
    3564:	f2 ff 25 3d 79 02 00 	bnd jmp *0x2793d(%rip)        # 2aea8 <close@GLIBC_2.2.5>
    356b:	0f 1f 44 00 00       	nopl   0x0(%rax,%rax,1)

0000000000003570 <deflateInit2_@plt>:
    3570:	f3 0f 1e fa          	endbr64 
    3574:	f2 ff 25 35 79 02 00 	bnd jmp *0x27935(%rip)        # 2aeb0 <deflateInit2_@Base>
    357b:	0f 1f 44 00 00       	nopl   0x0(%rax,%rax,1)

0000000000003580 <memchr@plt>:
    3580:	f3 0f 1e fa          	endbr64 
    3584:	f2 ff 25 2d 79 02 00 	bnd jmp *0x2792d(%rip)        # 2aeb8 <memchr@GLIBC_2.2.5>
    358b:	0f 1f 44 00 00       	nopl   0x0(%rax,%rax,1)

0000000000003590 <read@plt>:
    3590:	f3 0f 1e fa          	endbr64 
    3594:	f2 ff 25 25 79 02 00 	bnd jmp *0x27925(%rip)        # 2aec0 <read@GLIBC_2.2.5>
    359b:	0f 1f 44 00 00       	nopl   0x0(%rax,%rax,1)

00000000000035a0 <memcmp@plt>:
    35a0:	f3 0f 1e fa          	endbr64 
    35a4:	f2 ff 25 1d 79 02 00 	bnd jmp *0x2791d(%rip)        # 2aec8 <memcmp@GLIBC_2.2.5>
    35ab:	0f 1f 44 00 00       	nopl   0x0(%rax,%rax,1)

00000000000035b0 <strtoull@plt>:
    35b0:	f3 0f 1e fa          	endbr64 
    35b4:	f2 ff 25 15 79 02 00 	bnd jmp *0x27915(%rip)        # 2aed0 <strtoull@GLIBC_2.2.5>
    35bb:	0f 1f 44 00 00       	nopl   0x0(%rax,%rax,1)

00000000000035c0 <calloc@plt>:
    35c0:	f3 0f 1e fa          	endbr64 
    35c4:	f2 ff 25 0d 79 02 00 	bnd jmp *0x2790d(%rip)        # 2aed8 <calloc@GLIBC_2.2.5>
    35cb:	0f 1f 44 00 00       	nopl   0x0(%rax,%rax,1)

00000000000035d0 <strtoll@plt>:
    35d0:	f3 0f 1e fa          	endbr64 
    35d4:	f2 ff 25 05 79 02 00 	bnd jmp *0x27905(%rip)        # 2aee0 <strtoll@GLIBC_2.2.5>
    35db:	0f 1f 44 00 00       	nopl   0x0(%rax,%rax,1)

00000000000035e0 <fprintf@plt>:
    35e0:	f3 0f 1e fa          	endbr64 
    35e4:	f2 ff 25 fd 78 02 00 	bnd jmp *0x278fd(%rip)        # 2aee8 <fprintf@GLIBC_2.2.5>
    35eb:	0f 1f 44 00 00       	nopl   0x0(%rax,%rax,1)

00000000000035f0 <umask@plt>:
    35f0:	f3 0f 1e fa          	endbr64 
    35f4:	f2 ff 25 f5 78 02 00 	bnd jmp *0x278f5(%rip)        # 2aef0 <umask@GLIBC_2.2.5>
    35fb:	0f 1f 44 00 00       	nopl   0x0(%rax,%rax,1)

0000000000003600 <stat@plt>:
    3600:	f3 0f 1e fa          	endbr64 
    3604:	f2 ff 25 ed 78 02 00 	bnd jmp *0x278ed(%rip)        # 2aef8 <stat@GLIBC_2.33>
    360b:	0f 1f 44 00 00       	nopl   0x0(%rax,%rax,1)

0000000000003610 <clearerr@plt>:
    3610:	f3 0f 1e fa          	endbr64 
    3614:	f2 ff 25 e5 78 02 00 	bnd jmp *0x278e5(%rip)        # 2af00 <clearerr@GLIBC_2.2.5>
    361b:	0f 1f 44 00 00       	nopl   0x0(%rax,%rax,1)

0000000000003620 <memcpy@plt>:
    3620:	f3 0f 1e fa          	endbr64 
    3624:	f2 ff 25 dd 78 02 00 	bnd jmp *0x278dd(%rip)        # 2af08 <memcpy@GLIBC_2.14>
    362b:	0f 1f 44 00 00       	nopl   0x0(%rax,%rax,1)

0000000000003630 <inflateEnd@plt>:
    3630:	f3 0f 1e fa          	endbr64 
    3634:	f2 ff 25 d5 78 02 00 	bnd jmp *0x278d5(%rip)        # 2af10 <inflateEnd@Base>
    363b:	0f 1f 44 00 00       	nopl   0x0(%rax,%rax,1)

0000000000003640 <time@plt>:
    3640:	f3 0f 1e fa          	endbr64 
    3644:	f2 ff 25 cd 78 02 00 	bnd jmp *0x278cd(%rip)        # 2af18 <time@GLIBC_2.2.5>
    364b:	0f 1f 44 00 00       	nopl   0x0(%rax,%rax,1)

0000000000003650 <malloc@plt>:
    3650:	f3 0f 1e fa          	endbr64 
    3654:	f2 ff 25 c5 78 02 00 	bnd jmp *0x278c5(%rip)        # 2af20 <malloc@GLIBC_2.2.5>
    365b:	0f 1f 44 00 00       	nopl   0x0(%rax,%rax,1)

0000000000003660 <mktime@plt>:
    3660:	f3 0f 1e fa          	endbr64 
    3664:	f2 ff 25 bd 78 02 00 	bnd jmp *0x278bd(%rip)        # 2af28 <mktime@GLIBC_2.2.5>
    366b:	0f 1f 44 00 00       	nopl   0x0(%rax,%rax,1)

0000000000003670 <mkstemp@plt>:
    3670:	f3 0f 1e fa          	endbr64 
    3674:	f2 ff 25 b5 78 02 00 	bnd jmp *0x278b5(%rip)        # 2af30 <mkstemp@GLIBC_2.2.5>
    367b:	0f 1f 44 00 00       	nopl   0x0(%rax,%rax,1)

0000000000003680 <deflateEnd@plt>:
    3680:	f3 0f 1e fa          	endbr64 
    3684:	f2 ff 25 ad 78 02 00 	bnd jmp *0x278ad(%rip)        # 2af38 <deflateEnd@Base>
    368b:	0f 1f 44 00 00       	nopl   0x0(%rax,%rax,1)

0000000000003690 <realloc@plt>:
    3690:	f3 0f 1e fa          	endbr64 
    3694:	f2 ff 25 a5 78 02 00 	bnd jmp *0x278a5(%rip)        # 2af40 <realloc@GLIBC_2.2.5>
    369b:	0f 1f 44 00 00       	nopl   0x0(%rax,%rax,1)

00000000000036a0 <fdopen@plt>:
    36a0:	f3 0f 1e fa          	endbr64 
    36a4:	f2 ff 25 9d 78 02 00 	bnd jmp *0x2789d(%rip)        # 2af48 <fdopen@GLIBC_2.2.5>
    36ab:	0f 1f 44 00 00       	nopl   0x0(%rax,%rax,1)

00000000000036b0 <chmod@plt>:
    36b0:	f3 0f 1e fa          	endbr64 
    36b4:	f2 ff 25 95 78 02 00 	bnd jmp *0x27895(%rip)        # 2af50 <chmod@GLIBC_2.2.5>
    36bb:	0f 1f 44 00 00       	nopl   0x0(%rax,%rax,1)

00000000000036c0 <strftime@plt>:
    36c0:	f3 0f 1e fa          	endbr64 
    36c4:	f2 ff 25 8d 78 02 00 	bnd jmp *0x2788d(%rip)        # 2af58 <strftime@GLIBC_2.2.5>
    36cb:	0f 1f 44 00 00       	nopl   0x0(%rax,%rax,1)

00000000000036d0 <open@plt>:
    36d0:	f3 0f 1e fa          	endbr64 
    36d4:	f2 ff 25 85 78 02 00 	bnd jmp *0x27885(%rip)        # 2af60 <open@GLIBC_2.2.5>
    36db:	0f 1f 44 00 00       	nopl   0x0(%rax,%rax,1)

00000000000036e0 <fseeko@plt>:
    36e0:	f3 0f 1e fa          	endbr64 
    36e4:	f2 ff 25 7d 78 02 00 	bnd jmp *0x2787d(%rip)        # 2af68 <fseeko@GLIBC_2.2.5>
    36eb:	0f 1f 44 00 00       	nopl   0x0(%rax,%rax,1)

00000000000036f0 <fopen@plt>:
    36f0:	f3 0f 1e fa          	endbr64 
    36f4:	f2 ff 25 75 78 02 00 	bnd jmp *0x27875(%rip)        # 2af70 <fopen@GLIBC_2.2.5>
    36fb:	0f 1f 44 00 00       	nopl   0x0(%rax,%rax,1)

0000000000003700 <inflateInit2_@plt>:
    3700:	f3 0f 1e fa          	endbr64 
    3704:	f2 ff 25 6d 78 02 00 	bnd jmp *0x2786d(%rip)        # 2af78 <inflateInit2_@Base>
    370b:	0f 1f 44 00 00       	nopl   0x0(%rax,%rax,1)

0000000000003710 <rename@plt>:
    3710:	f3 0f 1e fa          	endbr64 
    3714:	f2 ff 25 65 78 02 00 	bnd jmp *0x27865(%rip)        # 2af80 <rename@GLIBC_2.2.5>
    371b:	0f 1f 44 00 00       	nopl   0x0(%rax,%rax,1)

0000000000003720 <getopt@plt>:
    3720:	f3 0f 1e fa          	endbr64 
    3724:	f2 ff 25 5d 78 02 00 	bnd jmp *0x2785d(%rip)        # 2af88 <getopt@GLIBC_2.2.5>
    372b:	0f 1f 44 00 00       	nopl   0x0(%rax,%rax,1)

0000000000003730 <explicit_bzero@plt>:
    3730:	f3 0f 1e fa          	endbr64 
    3734:	f2 ff 25 55 78 02 00 	bnd jmp *0x27855(%rip)        # 2af90 <explicit_bzero@GLIBC_2.25>
    373b:	0f 1f 44 00 00       	nopl   0x0(%rax,%rax,1)

0000000000003740 <sprintf@plt>:
    3740:	f3 0f 1e fa          	endbr64 
    3744:	f2 ff 25 4d 78 02 00 	bnd jmp *0x2784d(%rip)        # 2af98 <sprintf@GLIBC_2.2.5>
    374b:	0f 1f 44 00 00       	nopl   0x0(%rax,%rax,1)

0000000000003750 <exit@plt>:
    3750:	f3 0f 1e fa          	endbr64 
    3754:	f2 ff 25 45 78 02 00 	bnd jmp *0x27845(%rip)        # 2afa0 <exit@GLIBC_2.2.5>
    375b:	0f 1f 44 00 00       	nopl   0x0(%rax,%rax,1)

0000000000003760 <fwrite@plt>:
    3760:	f3 0f 1e fa          	endbr64 
    3764:	f2 ff 25 3d 78 02 00 	bnd jmp *0x2783d(%rip)        # 2afa8 <fwrite@GLIBC_2.2.5>
    376b:	0f 1f 44 00 00       	nopl   0x0(%rax,%rax,1)

0000000000003770 <strdup@plt>:
    3770:	f3 0f 1e fa          	endbr64 
    3774:	f2 ff 25 35 78 02 00 	bnd jmp *0x27835(%rip)        # 2afb0 <strdup@GLIBC_2.2.5>
    377b:	0f 1f 44 00 00       	nopl   0x0(%rax,%rax,1)

0000000000003780 <strerror@plt>:
    3780:	f3 0f 1e fa          	endbr64 
    3784:	f2 ff 25 2d 78 02 00 	bnd jmp *0x2782d(%rip)        # 2afb8 <strerror@GLIBC_2.2.5>
    378b:	0f 1f 44 00 00       	nopl   0x0(%rax,%rax,1)

Disassembly of section .text:

0000000000003790 <_start>:
_start():
    3790:	f3 0f 1e fa          	endbr64 
    3794:	31 ed                	xor    %ebp,%ebp
    3796:	49 89 d1             	mov    %rdx,%r9
    3799:	5e                   	pop    %rsi
    379a:	48 89 e2             	mov    %rsp,%rdx
    379d:	48 83 e4 f0          	and    $0xfffffffffffffff0,%rsp
    37a1:	50                   	push   %rax
    37a2:	54                   	push   %rsp
    37a3:	45 31 c0             	xor    %r8d,%r8d
    37a6:	31 c9                	xor    %ecx,%ecx
    37a8:	48 8d 3d 99 43 00 00 	lea    0x4399(%rip),%rdi        # 7b48 <main>
    37af:	ff 15 13 78 02 00    	call   *0x27813(%rip)        # 2afc8 <__libc_start_main@GLIBC_2.34>
    37b5:	f4                   	hlt    
    37b6:	66 2e 0f 1f 84 00 00 	cs nopw 0x0(%rax,%rax,1)
    37bd:	00 00 00 

00000000000037c0 <deregister_tm_clones>:
deregister_tm_clones():
    37c0:	48 8d 3d 89 7d 02 00 	lea    0x27d89(%rip),%rdi        # 2b550 <__TMC_END__>
    37c7:	48 8d 05 82 7d 02 00 	lea    0x27d82(%rip),%rax        # 2b550 <__TMC_END__>
    37ce:	48 39 f8             	cmp    %rdi,%rax
    37d1:	74 15                	je     37e8 <deregister_tm_clones+0x28>
    37d3:	48 8b 05 f6 77 02 00 	mov    0x277f6(%rip),%rax        # 2afd0 <_ITM_deregisterTMCloneTable@Base>
    37da:	48 85 c0             	test   %rax,%rax
    37dd:	74 09                	je     37e8 <deregister_tm_clones+0x28>
    37df:	ff e0                	jmp    *%rax
    37e1:	0f 1f 80 00 00 00 00 	nopl   0x0(%rax)
    37e8:	c3                   	ret    
    37e9:	0f 1f 80 00 00 00 00 	nopl   0x0(%rax)

00000000000037f0 <register_tm_clones>:
register_tm_clones():
    37f0:	48 8d 3d 59 7d 02 00 	lea    0x27d59(%rip),%rdi        # 2b550 <__TMC_END__>
    37f7:	48 8d 35 52 7d 02 00 	lea    0x27d52(%rip),%rsi        # 2b550 <__TMC_END__>
    37fe:	48 29 fe             	sub    %rdi,%rsi
    3801:	48 89 f0             	mov    %rsi,%rax
    3804:	48 c1 ee 3f          	shr    $0x3f,%rsi
    3808:	48 c1 f8 03          	sar    $0x3,%rax
    380c:	48 01 c6             	add    %rax,%rsi
    380f:	48 d1 fe             	sar    %rsi
    3812:	74 14                	je     3828 <register_tm_clones+0x38>
    3814:	48 8b 05 cd 77 02 00 	mov    0x277cd(%rip),%rax        # 2afe8 <_ITM_registerTMCloneTable@Base>
    381b:	48 85 c0             	test   %rax,%rax
    381e:	74 08                	je     3828 <register_tm_clones+0x38>
    3820:	ff e0                	jmp    *%rax
    3822:	66 0f 1f 44 00 00    	nopw   0x0(%rax,%rax,1)
    3828:	c3                   	ret    
    3829:	0f 1f 80 00 00 00 00 	nopl   0x0(%rax)

0000000000003830 <__do_global_dtors_aux>:
__do_global_dtors_aux():
    3830:	f3 0f 1e fa          	endbr64 
    3834:	80 3d 6d 7d 02 00 00 	cmpb   $0x0,0x27d6d(%rip)        # 2b5a8 <completed.0>
    383b:	75 2b                	jne    3868 <__do_global_dtors_aux+0x38>
    383d:	55                   	push   %rbp
    383e:	48 83 3d aa 77 02 00 	cmpq   $0x0,0x277aa(%rip)        # 2aff0 <__cxa_finalize@GLIBC_2.2.5>
    3845:	00 
    3846:	48 89 e5             	mov    %rsp,%rbp
    3849:	74 0c                	je     3857 <__do_global_dtors_aux+0x27>
    384b:	48 8b 3d b6 77 02 00 	mov    0x277b6(%rip),%rdi        # 2b008 <__dso_handle>
    3852:	e8 89 fb ff ff       	call   33e0 <__cxa_finalize@plt>
    3857:	e8 64 ff ff ff       	call   37c0 <deregister_tm_clones>
    385c:	c6 05 45 7d 02 00 01 	movb   $0x1,0x27d45(%rip)        # 2b5a8 <completed.0>
    3863:	5d                   	pop    %rbp
    3864:	c3                   	ret    
    3865:	0f 1f 00             	nopl   (%rax)
    3868:	c3                   	ret    
    3869:	0f 1f 80 00 00 00 00 	nopl   0x0(%rax)

0000000000003870 <frame_dummy>:
frame_dummy():
    3870:	f3 0f 1e fa          	endbr64 
    3874:	e9 77 ff ff ff       	jmp    37f0 <register_tm_clones>

0000000000003879 <source_hole_create>:
source_hole_create():
/home/tenebris/Documents/RootCauseAnalysis/evaluation/test_bin/libzip/libzip-1.2.0/src/source_hole.c:95
    3879:	f3 0f 1e fa          	endbr64 
    387d:	55                   	push   %rbp
    387e:	48 89 e5             	mov    %rsp,%rbp
    3881:	48 83 ec 30          	sub    $0x30,%rsp
    3885:	48 89 7d e8          	mov    %rdi,-0x18(%rbp)
    3889:	89 75 e4             	mov    %esi,-0x1c(%rbp)
    388c:	48 89 55 d8          	mov    %rdx,-0x28(%rbp)
/home/tenebris/Documents/RootCauseAnalysis/evaluation/test_bin/libzip/libzip-1.2.0/src/source_hole.c:96
    3890:	48 8b 55 d8          	mov    -0x28(%rbp),%rdx
    3894:	8b 4d e4             	mov    -0x1c(%rbp),%ecx
    3897:	48 8b 45 e8          	mov    -0x18(%rbp),%rax
    389b:	89 ce                	mov    %ecx,%esi
    389d:	48 89 c7             	mov    %rax,%rdi
    38a0:	e8 15 0f 00 00       	call   47ba <hole_new>
    38a5:	48 89 45 f8          	mov    %rax,-0x8(%rbp)
/home/tenebris/Documents/RootCauseAnalysis/evaluation/test_bin/libzip/libzip-1.2.0/src/source_hole.c:98
    38a9:	48 83 7d f8 00       	cmpq   $0x0,-0x8(%rbp)
    38ae:	75 07                	jne    38b7 <source_hole_create+0x3e>
/home/tenebris/Documents/RootCauseAnalysis/evaluation/test_bin/libzip/libzip-1.2.0/src/source_hole.c:99
    38b0:	b8 00 00 00 00       	mov    $0x0,%eax
    38b5:	eb 1a                	jmp    38d1 <source_hole_create+0x58>
/home/tenebris/Documents/RootCauseAnalysis/evaluation/test_bin/libzip/libzip-1.2.0/src/source_hole.c:101
    38b7:	48 8b 55 d8          	mov    -0x28(%rbp),%rdx
    38bb:	48 8b 45 f8          	mov    -0x8(%rbp),%rax
    38bf:	48 89 c6             	mov    %rax,%rsi
    38c2:	48 8d 05 e5 0f 00 00 	lea    0xfe5(%rip),%rax        # 48ae <source_hole_cb>
    38c9:	48 89 c7             	mov    %rax,%rdi
    38cc:	e8 5c 2c 01 00       	call   1652d <zip_source_function_create>
/home/tenebris/Documents/RootCauseAnalysis/evaluation/test_bin/libzip/libzip-1.2.0/src/source_hole.c:102
    38d1:	c9                   	leave  
    38d2:	c3                   	ret    

00000000000038d3 <buffer_free>:
buffer_free():
/home/tenebris/Documents/RootCauseAnalysis/evaluation/test_bin/libzip/libzip-1.2.0/src/source_hole.c:107
    38d3:	f3 0f 1e fa          	endbr64 
    38d7:	55                   	push   %rbp
    38d8:	48 89 e5             	mov    %rsp,%rbp
    38db:	48 83 ec 20          	sub    $0x20,%rsp
    38df:	48 89 7d e8          	mov    %rdi,-0x18(%rbp)
/home/tenebris/Documents/RootCauseAnalysis/evaluation/test_bin/libzip/libzip-1.2.0/src/source_hole.c:110
    38e3:	48 83 7d e8 00       	cmpq   $0x0,-0x18(%rbp)
    38e8:	74 66                	je     3950 <buffer_free+0x7d>
/home/tenebris/Documents/RootCauseAnalysis/evaluation/test_bin/libzip/libzip-1.2.0/src/source_hole.c:114
    38ea:	48 8b 45 e8          	mov    -0x18(%rbp),%rax
    38ee:	48 8b 40 08          	mov    0x8(%rax),%rax
    38f2:	48 85 c0             	test   %rax,%rax
    38f5:	74 4b                	je     3942 <buffer_free+0x6f>
/home/tenebris/Documents/RootCauseAnalysis/evaluation/test_bin/libzip/libzip-1.2.0/src/source_hole.c:115
    38f7:	48 c7 45 f8 00 00 00 	movq   $0x0,-0x8(%rbp)
    38fe:	00 
    38ff:	eb 23                	jmp    3924 <buffer_free+0x51>
/home/tenebris/Documents/RootCauseAnalysis/evaluation/test_bin/libzip/libzip-1.2.0/src/source_hole.c:116 (discriminator 3)
    3901:	48 8b 45 e8          	mov    -0x18(%rbp),%rax
    3905:	48 8b 50 08          	mov    0x8(%rax),%rdx
    3909:	48 8b 45 f8          	mov    -0x8(%rbp),%rax
    390d:	48 c1 e0 03          	shl    $0x3,%rax
    3911:	48 01 d0             	add    %rdx,%rax
    3914:	48 8b 00             	mov    (%rax),%rax
    3917:	48 89 c7             	mov    %rax,%rdi
    391a:	e8 d1 fa ff ff       	call   33f0 <free@plt>
/home/tenebris/Documents/RootCauseAnalysis/evaluation/test_bin/libzip/libzip-1.2.0/src/source_hole.c:115 (discriminator 3)
    391f:	48 83 45 f8 01       	addq   $0x1,-0x8(%rbp)
/home/tenebris/Documents/RootCauseAnalysis/evaluation/test_bin/libzip/libzip-1.2.0/src/source_hole.c:115 (discriminator 1)
    3924:	48 8b 45 e8          	mov    -0x18(%rbp),%rax
    3928:	48 8b 40 10          	mov    0x10(%rax),%rax
    392c:	48 39 45 f8          	cmp    %rax,-0x8(%rbp)
    3930:	72 cf                	jb     3901 <buffer_free+0x2e>
/home/tenebris/Documents/RootCauseAnalysis/evaluation/test_bin/libzip/libzip-1.2.0/src/source_hole.c:118
    3932:	48 8b 45 e8          	mov    -0x18(%rbp),%rax
    3936:	48 8b 40 08          	mov    0x8(%rax),%rax
    393a:	48 89 c7             	mov    %rax,%rdi
    393d:	e8 ae fa ff ff       	call   33f0 <free@plt>
/home/tenebris/Documents/RootCauseAnalysis/evaluation/test_bin/libzip/libzip-1.2.0/src/source_hole.c:120
    3942:	48 8b 45 e8          	mov    -0x18(%rbp),%rax
    3946:	48 89 c7             	mov    %rax,%rdi
    3949:	e8 a2 fa ff ff       	call   33f0 <free@plt>
    394e:	eb 01                	jmp    3951 <buffer_free+0x7e>
/home/tenebris/Documents/RootCauseAnalysis/evaluation/test_bin/libzip/libzip-1.2.0/src/source_hole.c:111
    3950:	90                   	nop
/home/tenebris/Documents/RootCauseAnalysis/evaluation/test_bin/libzip/libzip-1.2.0/src/source_hole.c:121
    3951:	c9                   	leave  
    3952:	c3                   	ret    

0000000000003953 <buffer_from_file>:
buffer_from_file():
/home/tenebris/Documents/RootCauseAnalysis/evaluation/test_bin/libzip/libzip-1.2.0/src/source_hole.c:126
    3953:	f3 0f 1e fa          	endbr64 
    3957:	55                   	push   %rbp
    3958:	48 89 e5             	mov    %rsp,%rbp
    395b:	48 83 ec 30          	sub    $0x30,%rsp
    395f:	48 89 7d e8          	mov    %rdi,-0x18(%rbp)
    3963:	89 75 e4             	mov    %esi,-0x1c(%rbp)
    3966:	48 89 55 d8          	mov    %rdx,-0x28(%rbp)
/home/tenebris/Documents/RootCauseAnalysis/evaluation/test_bin/libzip/libzip-1.2.0/src/source_hole.c:130
    396a:	e8 cf 00 00 00       	call   3a3e <buffer_new>
    396f:	48 89 45 f0          	mov    %rax,-0x10(%rbp)
    3973:	48 83 7d f0 00       	cmpq   $0x0,-0x10(%rbp)
    3978:	75 20                	jne    399a <buffer_from_file+0x47>
/home/tenebris/Documents/RootCauseAnalysis/evaluation/test_bin/libzip/libzip-1.2.0/src/source_hole.c:131
    397a:	48 8b 45 d8          	mov    -0x28(%rbp),%rax
    397e:	ba 00 00 00 00       	mov    $0x0,%edx
    3983:	be 0e 00 00 00       	mov    $0xe,%esi
    3988:	48 89 c7             	mov    %rax,%rdi
    398b:	e8 d4 90 00 00       	call   ca64 <zip_error_set>
/home/tenebris/Documents/RootCauseAnalysis/evaluation/test_bin/libzip/libzip-1.2.0/src/source_hole.c:132
    3990:	b8 00 00 00 00       	mov    $0x0,%eax
    3995:	e9 a2 00 00 00       	jmp    3a3c <buffer_from_file+0xe9>
/home/tenebris/Documents/RootCauseAnalysis/evaluation/test_bin/libzip/libzip-1.2.0/src/source_hole.c:136
    399a:	8b 45 e4             	mov    -0x1c(%rbp),%eax
    399d:	83 e0 08             	and    $0x8,%eax
    39a0:	85 c0                	test   %eax,%eax
    39a2:	0f 85 90 00 00 00    	jne    3a38 <buffer_from_file+0xe5>
/home/tenebris/Documents/RootCauseAnalysis/evaluation/test_bin/libzip/libzip-1.2.0/src/source_hole.c:137
    39a8:	48 8b 45 e8          	mov    -0x18(%rbp),%rax
    39ac:	48 8d 15 51 d6 01 00 	lea    0x1d651(%rip),%rdx        # 21004 <_IO_stdin_used+0x4>
    39b3:	48 89 d6             	mov    %rdx,%rsi
    39b6:	48 89 c7             	mov    %rax,%rdi
    39b9:	e8 32 fd ff ff       	call   36f0 <fopen@plt>
    39be:	48 89 45 f8          	mov    %rax,-0x8(%rbp)
    39c2:	48 83 7d f8 00       	cmpq   $0x0,-0x8(%rbp)
    39c7:	75 29                	jne    39f2 <buffer_from_file+0x9f>
/home/tenebris/Documents/RootCauseAnalysis/evaluation/test_bin/libzip/libzip-1.2.0/src/source_hole.c:138
    39c9:	e8 52 fa ff ff       	call   3420 <__errno_location@plt>
    39ce:	8b 00                	mov    (%rax),%eax
    39d0:	83 f8 02             	cmp    $0x2,%eax
    39d3:	75 0a                	jne    39df <buffer_from_file+0x8c>
/home/tenebris/Documents/RootCauseAnalysis/evaluation/test_bin/libzip/libzip-1.2.0/src/source_hole.c:138 (discriminator 1)
    39d5:	8b 45 e4             	mov    -0x1c(%rbp),%eax
    39d8:	83 e0 01             	and    $0x1,%eax
    39db:	85 c0                	test   %eax,%eax
    39dd:	75 59                	jne    3a38 <buffer_from_file+0xe5>
/home/tenebris/Documents/RootCauseAnalysis/evaluation/test_bin/libzip/libzip-1.2.0/src/source_hole.c:139
    39df:	48 8b 45 f0          	mov    -0x10(%rbp),%rax
    39e3:	48 89 c7             	mov    %rax,%rdi
    39e6:	e8 e8 fe ff ff       	call   38d3 <buffer_free>
/home/tenebris/Documents/RootCauseAnalysis/evaluation/test_bin/libzip/libzip-1.2.0/src/source_hole.c:140
    39eb:	b8 00 00 00 00       	mov    $0x0,%eax
    39f0:	eb 4a                	jmp    3a3c <buffer_from_file+0xe9>
/home/tenebris/Documents/RootCauseAnalysis/evaluation/test_bin/libzip/libzip-1.2.0/src/source_hole.c:144
    39f2:	48 8b 55 d8          	mov    -0x28(%rbp),%rdx
    39f6:	48 8b 4d f8          	mov    -0x8(%rbp),%rcx
    39fa:	48 8b 45 f0          	mov    -0x10(%rbp),%rax
    39fe:	48 89 ce             	mov    %rcx,%rsi
    3a01:	48 89 c7             	mov    %rax,%rdi
    3a04:	e8 1c 02 00 00       	call   3c25 <buffer_read_file>
    3a09:	85 c0                	test   %eax,%eax
    3a0b:	79 1f                	jns    3a2c <buffer_from_file+0xd9>
/home/tenebris/Documents/RootCauseAnalysis/evaluation/test_bin/libzip/libzip-1.2.0/src/source_hole.c:145
    3a0d:	48 8b 45 f0          	mov    -0x10(%rbp),%rax
    3a11:	48 89 c7             	mov    %rax,%rdi
    3a14:	e8 ba fe ff ff       	call   38d3 <buffer_free>
/home/tenebris/Documents/RootCauseAnalysis/evaluation/test_bin/libzip/libzip-1.2.0/src/source_hole.c:146
    3a19:	48 8b 45 f8          	mov    -0x8(%rbp),%rax
    3a1d:	48 89 c7             	mov    %rax,%rdi
    3a20:	e8 9b fa ff ff       	call   34c0 <fclose@plt>
/home/tenebris/Documents/RootCauseAnalysis/evaluation/test_bin/libzip/libzip-1.2.0/src/source_hole.c:147
    3a25:	b8 00 00 00 00       	mov    $0x0,%eax
    3a2a:	eb 10                	jmp    3a3c <buffer_from_file+0xe9>
/home/tenebris/Documents/RootCauseAnalysis/evaluation/test_bin/libzip/libzip-1.2.0/src/source_hole.c:149
    3a2c:	48 8b 45 f8          	mov    -0x8(%rbp),%rax
    3a30:	48 89 c7             	mov    %rax,%rdi
    3a33:	e8 88 fa ff ff       	call   34c0 <fclose@plt>
/home/tenebris/Documents/RootCauseAnalysis/evaluation/test_bin/libzip/libzip-1.2.0/src/source_hole.c:153
    3a38:	48 8b 45 f0          	mov    -0x10(%rbp),%rax
/home/tenebris/Documents/RootCauseAnalysis/evaluation/test_bin/libzip/libzip-1.2.0/src/source_hole.c:154
    3a3c:	c9                   	leave  
    3a3d:	c3                   	ret    

0000000000003a3e <buffer_new>:
buffer_new():
/home/tenebris/Documents/RootCauseAnalysis/evaluation/test_bin/libzip/libzip-1.2.0/src/source_hole.c:159
    3a3e:	f3 0f 1e fa          	endbr64 
    3a42:	55                   	push   %rbp
    3a43:	48 89 e5             	mov    %rsp,%rbp
    3a46:	48 83 ec 10          	sub    $0x10,%rsp
/home/tenebris/Documents/RootCauseAnalysis/evaluation/test_bin/libzip/libzip-1.2.0/src/source_hole.c:162
    3a4a:	bf 28 00 00 00       	mov    $0x28,%edi
    3a4f:	e8 fc fb ff ff       	call   3650 <malloc@plt>
    3a54:	48 89 45 f8          	mov    %rax,-0x8(%rbp)
    3a58:	48 83 7d f8 00       	cmpq   $0x0,-0x8(%rbp)
    3a5d:	75 07                	jne    3a66 <buffer_new+0x28>
/home/tenebris/Documents/RootCauseAnalysis/evaluation/test_bin/libzip/libzip-1.2.0/src/source_hole.c:163
    3a5f:	b8 00 00 00 00       	mov    $0x0,%eax
    3a64:	eb 3f                	jmp    3aa5 <buffer_new+0x67>
/home/tenebris/Documents/RootCauseAnalysis/evaluation/test_bin/libzip/libzip-1.2.0/src/source_hole.c:166
    3a66:	48 8b 45 f8          	mov    -0x8(%rbp),%rax
    3a6a:	48 c7 40 08 00 00 00 	movq   $0x0,0x8(%rax)
    3a71:	00 
/home/tenebris/Documents/RootCauseAnalysis/evaluation/test_bin/libzip/libzip-1.2.0/src/source_hole.c:167
    3a72:	48 8b 45 f8          	mov    -0x8(%rbp),%rax
    3a76:	48 c7 40 10 00 00 00 	movq   $0x0,0x10(%rax)
    3a7d:	00 
/home/tenebris/Documents/RootCauseAnalysis/evaluation/test_bin/libzip/libzip-1.2.0/src/source_hole.c:168
    3a7e:	48 8b 45 f8          	mov    -0x8(%rbp),%rax
    3a82:	48 c7 00 00 20 00 00 	movq   $0x2000,(%rax)
/home/tenebris/Documents/RootCauseAnalysis/evaluation/test_bin/libzip/libzip-1.2.0/src/source_hole.c:169
    3a89:	48 8b 45 f8          	mov    -0x8(%rbp),%rax
    3a8d:	48 c7 40 18 00 00 00 	movq   $0x0,0x18(%rax)
    3a94:	00 
/home/tenebris/Documents/RootCauseAnalysis/evaluation/test_bin/libzip/libzip-1.2.0/src/source_hole.c:170
    3a95:	48 8b 45 f8          	mov    -0x8(%rbp),%rax
    3a99:	48 c7 40 20 00 00 00 	movq   $0x0,0x20(%rax)
    3aa0:	00 
/home/tenebris/Documents/RootCauseAnalysis/evaluation/test_bin/libzip/libzip-1.2.0/src/source_hole.c:172
    3aa1:	48 8b 45 f8          	mov    -0x8(%rbp),%rax
/home/tenebris/Documents/RootCauseAnalysis/evaluation/test_bin/libzip/libzip-1.2.0/src/source_hole.c:173
    3aa5:	c9                   	leave  
    3aa6:	c3                   	ret    

0000000000003aa7 <buffer_read>:
buffer_read():
/home/tenebris/Documents/RootCauseAnalysis/evaluation/test_bin/libzip/libzip-1.2.0/src/source_hole.c:178
    3aa7:	f3 0f 1e fa          	endbr64 
    3aab:	55                   	push   %rbp
    3aac:	48 89 e5             	mov    %rsp,%rbp
    3aaf:	48 83 ec 40          	sub    $0x40,%rsp
    3ab3:	48 89 7d d8          	mov    %rdi,-0x28(%rbp)
    3ab7:	48 89 75 d0          	mov    %rsi,-0x30(%rbp)
    3abb:	48 89 55 c8          	mov    %rdx,-0x38(%rbp)
    3abf:	48 89 4d c0          	mov    %rcx,-0x40(%rbp)
/home/tenebris/Documents/RootCauseAnalysis/evaluation/test_bin/libzip/libzip-1.2.0/src/source_hole.c:181
    3ac3:	48 8b 45 d8          	mov    -0x28(%rbp),%rax
    3ac7:	48 8b 50 18          	mov    0x18(%rax),%rdx
    3acb:	48 8b 45 d8          	mov    -0x28(%rbp),%rax
    3acf:	48 8b 40 20          	mov    0x20(%rax),%rax
    3ad3:	48 29 c2             	sub    %rax,%rdx
    3ad6:	48 8b 45 c8          	mov    -0x38(%rbp),%rax
    3ada:	48 39 d0             	cmp    %rdx,%rax
    3add:	48 0f 47 c2          	cmova  %rdx,%rax
    3ae1:	48 89 45 c8          	mov    %rax,-0x38(%rbp)
/home/tenebris/Documents/RootCauseAnalysis/evaluation/test_bin/libzip/libzip-1.2.0/src/source_hole.c:183
    3ae5:	48 83 7d c8 00       	cmpq   $0x0,-0x38(%rbp)
    3aea:	75 0a                	jne    3af6 <buffer_read+0x4f>
/home/tenebris/Documents/RootCauseAnalysis/evaluation/test_bin/libzip/libzip-1.2.0/src/source_hole.c:184
    3aec:	b8 00 00 00 00       	mov    $0x0,%eax
    3af1:	e9 2d 01 00 00       	jmp    3c23 <buffer_read+0x17c>
/home/tenebris/Documents/RootCauseAnalysis/evaluation/test_bin/libzip/libzip-1.2.0/src/source_hole.c:186
    3af6:	48 8b 45 c8          	mov    -0x38(%rbp),%rax
    3afa:	48 85 c0             	test   %rax,%rax
    3afd:	79 0c                	jns    3b0b <buffer_read+0x64>
/home/tenebris/Documents/RootCauseAnalysis/evaluation/test_bin/libzip/libzip-1.2.0/src/source_hole.c:187
    3aff:	48 c7 c0 ff ff ff ff 	mov    $0xffffffffffffffff,%rax
    3b06:	e9 18 01 00 00       	jmp    3c23 <buffer_read+0x17c>
/home/tenebris/Documents/RootCauseAnalysis/evaluation/test_bin/libzip/libzip-1.2.0/src/source_hole.c:190
    3b0b:	48 8b 45 d8          	mov    -0x28(%rbp),%rax
    3b0f:	48 8b 40 20          	mov    0x20(%rax),%rax
    3b13:	48 8b 55 d8          	mov    -0x28(%rbp),%rdx
    3b17:	48 8b 3a             	mov    (%rdx),%rdi
    3b1a:	ba 00 00 00 00       	mov    $0x0,%edx
    3b1f:	48 f7 f7             	div    %rdi
    3b22:	48 89 45 e8          	mov    %rax,-0x18(%rbp)
/home/tenebris/Documents/RootCauseAnalysis/evaluation/test_bin/libzip/libzip-1.2.0/src/source_hole.c:191
    3b26:	48 8b 45 d8          	mov    -0x28(%rbp),%rax
    3b2a:	48 8b 40 20          	mov    0x20(%rax),%rax
    3b2e:	48 8b 55 d8          	mov    -0x28(%rbp),%rdx
    3b32:	48 8b 0a             	mov    (%rdx),%rcx
    3b35:	ba 00 00 00 00       	mov    $0x0,%edx
    3b3a:	48 f7 f1             	div    %rcx
    3b3d:	48 89 55 f0          	mov    %rdx,-0x10(%rbp)
/home/tenebris/Documents/RootCauseAnalysis/evaluation/test_bin/libzip/libzip-1.2.0/src/source_hole.c:192
    3b41:	48 c7 45 e0 00 00 00 	movq   $0x0,-0x20(%rbp)
    3b48:	00 
/home/tenebris/Documents/RootCauseAnalysis/evaluation/test_bin/libzip/libzip-1.2.0/src/source_hole.c:193
    3b49:	e9 ac 00 00 00       	jmp    3bfa <buffer_read+0x153>
/home/tenebris/Documents/RootCauseAnalysis/evaluation/test_bin/libzip/libzip-1.2.0/src/source_hole.c:194
    3b4e:	48 8b 45 d8          	mov    -0x28(%rbp),%rax
    3b52:	48 8b 00             	mov    (%rax),%rax
    3b55:	48 2b 45 f0          	sub    -0x10(%rbp),%rax
    3b59:	48 89 c2             	mov    %rax,%rdx
    3b5c:	48 8b 45 c8          	mov    -0x38(%rbp),%rax
    3b60:	48 2b 45 e0          	sub    -0x20(%rbp),%rax
    3b64:	48 39 c2             	cmp    %rax,%rdx
    3b67:	48 0f 46 c2          	cmovbe %rdx,%rax
    3b6b:	48 89 45 f8          	mov    %rax,-0x8(%rbp)
/home/tenebris/Documents/RootCauseAnalysis/evaluation/test_bin/libzip/libzip-1.2.0/src/source_hole.c:196
    3b6f:	48 8b 45 d8          	mov    -0x28(%rbp),%rax
    3b73:	48 8b 50 08          	mov    0x8(%rax),%rdx
    3b77:	48 8b 45 e8          	mov    -0x18(%rbp),%rax
    3b7b:	48 c1 e0 03          	shl    $0x3,%rax
    3b7f:	48 01 d0             	add    %rdx,%rax
    3b82:	48 8b 00             	mov    (%rax),%rax
    3b85:	48 85 c0             	test   %rax,%rax
    3b88:	74 3b                	je     3bc5 <buffer_read+0x11e>
/home/tenebris/Documents/RootCauseAnalysis/evaluation/test_bin/libzip/libzip-1.2.0/src/source_hole.c:197
    3b8a:	48 8b 45 d8          	mov    -0x28(%rbp),%rax
    3b8e:	48 8b 50 08          	mov    0x8(%rax),%rdx
    3b92:	48 8b 45 e8          	mov    -0x18(%rbp),%rax
    3b96:	48 c1 e0 03          	shl    $0x3,%rax
    3b9a:	48 01 d0             	add    %rdx,%rax
    3b9d:	48 8b 10             	mov    (%rax),%rdx
    3ba0:	48 8b 45 f0          	mov    -0x10(%rbp),%rax
    3ba4:	48 8d 34 02          	lea    (%rdx,%rax,1),%rsi
    3ba8:	48 8b 55 d0          	mov    -0x30(%rbp),%rdx
    3bac:	48 8b 45 e0          	mov    -0x20(%rbp),%rax
    3bb0:	48 8d 0c 02          	lea    (%rdx,%rax,1),%rcx
    3bb4:	48 8b 45 f8          	mov    -0x8(%rbp),%rax
    3bb8:	48 89 c2             	mov    %rax,%rdx
    3bbb:	48 89 cf             	mov    %rcx,%rdi
    3bbe:	e8 5d fa ff ff       	call   3620 <memcpy@plt>
    3bc3:	eb 20                	jmp    3be5 <buffer_read+0x13e>
/home/tenebris/Documents/RootCauseAnalysis/evaluation/test_bin/libzip/libzip-1.2.0/src/source_hole.c:200
    3bc5:	48 8b 55 d0          	mov    -0x30(%rbp),%rdx
    3bc9:	48 8b 45 e0          	mov    -0x20(%rbp),%rax
    3bcd:	48 8d 0c 02          	lea    (%rdx,%rax,1),%rcx
    3bd1:	48 8b 45 f8          	mov    -0x8(%rbp),%rax
    3bd5:	48 89 c2             	mov    %rax,%rdx
    3bd8:	be 00 00 00 00       	mov    $0x0,%esi
    3bdd:	48 89 cf             	mov    %rcx,%rdi
    3be0:	e8 6b f9 ff ff       	call   3550 <memset@plt>
/home/tenebris/Documents/RootCauseAnalysis/evaluation/test_bin/libzip/libzip-1.2.0/src/source_hole.c:203
    3be5:	48 8b 45 f8          	mov    -0x8(%rbp),%rax
    3be9:	48 01 45 e0          	add    %rax,-0x20(%rbp)
/home/tenebris/Documents/RootCauseAnalysis/evaluation/test_bin/libzip/libzip-1.2.0/src/source_hole.c:204
    3bed:	48 83 45 e8 01       	addq   $0x1,-0x18(%rbp)
/home/tenebris/Documents/RootCauseAnalysis/evaluation/test_bin/libzip/libzip-1.2.0/src/source_hole.c:205
    3bf2:	48 c7 45 f0 00 00 00 	movq   $0x0,-0x10(%rbp)
    3bf9:	00 
/home/tenebris/Documents/RootCauseAnalysis/evaluation/test_bin/libzip/libzip-1.2.0/src/source_hole.c:193
    3bfa:	48 8b 45 e0          	mov    -0x20(%rbp),%rax
    3bfe:	48 3b 45 c8          	cmp    -0x38(%rbp),%rax
    3c02:	0f 82 46 ff ff ff    	jb     3b4e <buffer_read+0xa7>
/home/tenebris/Documents/RootCauseAnalysis/evaluation/test_bin/libzip/libzip-1.2.0/src/source_hole.c:208
    3c08:	48 8b 45 d8          	mov    -0x28(%rbp),%rax
    3c0c:	48 8b 50 20          	mov    0x20(%rax),%rdx
    3c10:	48 8b 45 e0          	mov    -0x20(%rbp),%rax
    3c14:	48 01 c2             	add    %rax,%rdx
    3c17:	48 8b 45 d8          	mov    -0x28(%rbp),%rax
    3c1b:	48 89 50 20          	mov    %rdx,0x20(%rax)
/home/tenebris/Documents/RootCauseAnalysis/evaluation/test_bin/libzip/libzip-1.2.0/src/source_hole.c:209
    3c1f:	48 8b 45 e0          	mov    -0x20(%rbp),%rax
/home/tenebris/Documents/RootCauseAnalysis/evaluation/test_bin/libzip/libzip-1.2.0/src/source_hole.c:210
    3c23:	c9                   	leave  
    3c24:	c3                   	ret    

0000000000003c25 <buffer_read_file>:
buffer_read_file():
/home/tenebris/Documents/RootCauseAnalysis/evaluation/test_bin/libzip/libzip-1.2.0/src/source_hole.c:215
    3c25:	f3 0f 1e fa          	endbr64 
    3c29:	55                   	push   %rbp
    3c2a:	48 89 e5             	mov    %rsp,%rbp
    3c2d:	53                   	push   %rbx
    3c2e:	48 83 ec 58          	sub    $0x58,%rsp
    3c32:	48 89 7d b8          	mov    %rdi,-0x48(%rbp)
    3c36:	48 89 75 b0          	mov    %rsi,-0x50(%rbp)
    3c3a:	48 89 55 a8          	mov    %rdx,-0x58(%rbp)
    3c3e:	64 48 8b 04 25 28 00 	mov    %fs:0x28,%rax
    3c45:	00 00 
    3c47:	48 89 45 e8          	mov    %rax,-0x18(%rbp)
    3c4b:	31 c0                	xor    %eax,%eax
/home/tenebris/Documents/RootCauseAnalysis/evaluation/test_bin/libzip/libzip-1.2.0/src/source_hole.c:219
    3c4d:	48 8b 55 b0          	mov    -0x50(%rbp),%rdx
    3c51:	48 8d 45 d0          	lea    -0x30(%rbp),%rax
    3c55:	48 89 d1             	mov    %rdx,%rcx
    3c58:	ba 01 00 00 00       	mov    $0x1,%edx
    3c5d:	be 14 00 00 00       	mov    $0x14,%esi
    3c62:	48 89 c7             	mov    %rax,%rdi
    3c65:	e8 36 f8 ff ff       	call   34a0 <fread@plt>
    3c6a:	48 83 f8 01          	cmp    $0x1,%rax
    3c6e:	74 22                	je     3c92 <buffer_read_file+0x6d>
/home/tenebris/Documents/RootCauseAnalysis/evaluation/test_bin/libzip/libzip-1.2.0/src/source_hole.c:220
    3c70:	e8 ab f7 ff ff       	call   3420 <__errno_location@plt>
    3c75:	8b 10                	mov    (%rax),%edx
    3c77:	48 8b 45 a8          	mov    -0x58(%rbp),%rax
    3c7b:	be 05 00 00 00       	mov    $0x5,%esi
    3c80:	48 89 c7             	mov    %rax,%rdi
    3c83:	e8 dc 8d 00 00       	call   ca64 <zip_error_set>
/home/tenebris/Documents/RootCauseAnalysis/evaluation/test_bin/libzip/libzip-1.2.0/src/source_hole.c:221
    3c88:	b8 ff ff ff ff       	mov    $0xffffffff,%eax
    3c8d:	e9 47 03 00 00       	jmp    3fd9 <buffer_read_file+0x3b4>
/home/tenebris/Documents/RootCauseAnalysis/evaluation/test_bin/libzip/libzip-1.2.0/src/source_hole.c:224
    3c92:	48 8d 45 d0          	lea    -0x30(%rbp),%rax
    3c96:	ba 04 00 00 00       	mov    $0x4,%edx
    3c9b:	48 8d 0d 65 d3 01 00 	lea    0x1d365(%rip),%rcx        # 21007 <_IO_stdin_used+0x7>
    3ca2:	48 89 ce             	mov    %rcx,%rsi
    3ca5:	48 89 c7             	mov    %rax,%rdi
    3ca8:	e8 f3 f8 ff ff       	call   35a0 <memcmp@plt>
    3cad:	85 c0                	test   %eax,%eax
    3caf:	74 20                	je     3cd1 <buffer_read_file+0xac>
/home/tenebris/Documents/RootCauseAnalysis/evaluation/test_bin/libzip/libzip-1.2.0/src/source_hole.c:225
    3cb1:	48 8b 45 a8          	mov    -0x58(%rbp),%rax
    3cb5:	ba 16 00 00 00       	mov    $0x16,%edx
    3cba:	be 05 00 00 00       	mov    $0x5,%esi
    3cbf:	48 89 c7             	mov    %rax,%rdi
    3cc2:	e8 9d 8d 00 00       	call   ca64 <zip_error_set>
/home/tenebris/Documents/RootCauseAnalysis/evaluation/test_bin/libzip/libzip-1.2.0/src/source_hole.c:226
    3cc7:	b8 ff ff ff ff       	mov    $0xffffffff,%eax
    3ccc:	e9 08 03 00 00       	jmp    3fd9 <buffer_read_file+0x3b4>
/home/tenebris/Documents/RootCauseAnalysis/evaluation/test_bin/libzip/libzip-1.2.0/src/source_hole.c:229
    3cd1:	48 8d 45 d0          	lea    -0x30(%rbp),%rax
    3cd5:	48 83 c0 04          	add    $0x4,%rax
    3cd9:	48 89 c7             	mov    %rax,%rdi
    3cdc:	e8 64 08 00 00       	call   4545 <get_u64>
    3ce1:	48 8b 55 b8          	mov    -0x48(%rbp),%rdx
    3ce5:	48 89 02             	mov    %rax,(%rdx)
/home/tenebris/Documents/RootCauseAnalysis/evaluation/test_bin/libzip/libzip-1.2.0/src/source_hole.c:230
    3ce8:	48 8d 45 d0          	lea    -0x30(%rbp),%rax
    3cec:	48 83 c0 0c          	add    $0xc,%rax
    3cf0:	48 89 c7             	mov    %rax,%rdi
    3cf3:	e8 4d 08 00 00       	call   4545 <get_u64>
    3cf8:	48 8b 55 b8          	mov    -0x48(%rbp),%rdx
    3cfc:	48 89 42 18          	mov    %rax,0x18(%rdx)
/home/tenebris/Documents/RootCauseAnalysis/evaluation/test_bin/libzip/libzip-1.2.0/src/source_hole.c:232
    3d00:	48 8b 45 b8          	mov    -0x48(%rbp),%rax
    3d04:	48 8b 50 18          	mov    0x18(%rax),%rdx
    3d08:	48 8b 45 b8          	mov    -0x48(%rbp),%rax
    3d0c:	48 8b 00             	mov    (%rax),%rax
    3d0f:	48 01 c2             	add    %rax,%rdx
    3d12:	48 8b 45 b8          	mov    -0x48(%rbp),%rax
    3d16:	48 8b 40 18          	mov    0x18(%rax),%rax
    3d1a:	48 39 c2             	cmp    %rax,%rdx
    3d1d:	73 20                	jae    3d3f <buffer_read_file+0x11a>
/home/tenebris/Documents/RootCauseAnalysis/evaluation/test_bin/libzip/libzip-1.2.0/src/source_hole.c:233
    3d1f:	48 8b 45 a8          	mov    -0x58(%rbp),%rax
    3d23:	ba 00 00 00 00       	mov    $0x0,%edx
    3d28:	be 0e 00 00 00       	mov    $0xe,%esi
    3d2d:	48 89 c7             	mov    %rax,%rdi
    3d30:	e8 2f 8d 00 00       	call   ca64 <zip_error_set>
/home/tenebris/Documents/RootCauseAnalysis/evaluation/test_bin/libzip/libzip-1.2.0/src/source_hole.c:234
    3d35:	b8 ff ff ff ff       	mov    $0xffffffff,%eax
    3d3a:	e9 9a 02 00 00       	jmp    3fd9 <buffer_read_file+0x3b4>
/home/tenebris/Documents/RootCauseAnalysis/evaluation/test_bin/libzip/libzip-1.2.0/src/source_hole.c:236
    3d3f:	48 8b 45 b8          	mov    -0x48(%rbp),%rax
    3d43:	48 8b 50 18          	mov    0x18(%rax),%rdx
    3d47:	48 8b 45 b8          	mov    -0x48(%rbp),%rax
    3d4b:	48 8b 00             	mov    (%rax),%rax
    3d4e:	48 01 d0             	add    %rdx,%rax
    3d51:	48 8d 48 ff          	lea    -0x1(%rax),%rcx
    3d55:	48 8b 45 b8          	mov    -0x48(%rbp),%rax
    3d59:	48 8b 18             	mov    (%rax),%rbx
    3d5c:	48 89 c8             	mov    %rcx,%rax
    3d5f:	ba 00 00 00 00       	mov    $0x0,%edx
    3d64:	48 f7 f3             	div    %rbx
    3d67:	48 89 c2             	mov    %rax,%rdx
    3d6a:	48 8b 45 b8          	mov    -0x48(%rbp),%rax
    3d6e:	48 89 50 10          	mov    %rdx,0x10(%rax)
/home/tenebris/Documents/RootCauseAnalysis/evaluation/test_bin/libzip/libzip-1.2.0/src/source_hole.c:237
    3d72:	48 8b 45 b8          	mov    -0x48(%rbp),%rax
    3d76:	48 8b 40 10          	mov    0x10(%rax),%rax
    3d7a:	48 ba ff ff ff ff ff 	movabs $0x1fffffffffffffff,%rdx
    3d81:	ff ff 1f 
    3d84:	48 39 d0             	cmp    %rdx,%rax
    3d87:	77 2c                	ja     3db5 <buffer_read_file+0x190>
/home/tenebris/Documents/RootCauseAnalysis/evaluation/test_bin/libzip/libzip-1.2.0/src/source_hole.c:238
    3d89:	48 8b 45 b8          	mov    -0x48(%rbp),%rax
    3d8d:	48 8b 40 10          	mov    0x10(%rax),%rax
    3d91:	48 c1 e0 03          	shl    $0x3,%rax
    3d95:	48 89 c7             	mov    %rax,%rdi
    3d98:	e8 b3 f8 ff ff       	call   3650 <malloc@plt>
    3d9d:	48 89 c2             	mov    %rax,%rdx
    3da0:	48 8b 45 b8          	mov    -0x48(%rbp),%rax
    3da4:	48 89 50 08          	mov    %rdx,0x8(%rax)
    3da8:	48 8b 45 b8          	mov    -0x48(%rbp),%rax
    3dac:	48 8b 40 08          	mov    0x8(%rax),%rax
    3db0:	48 85 c0             	test   %rax,%rax
    3db3:	75 20                	jne    3dd5 <buffer_read_file+0x1b0>
/home/tenebris/Documents/RootCauseAnalysis/evaluation/test_bin/libzip/libzip-1.2.0/src/source_hole.c:239
    3db5:	48 8b 45 a8          	mov    -0x58(%rbp),%rax
    3db9:	ba 00 00 00 00       	mov    $0x0,%edx
    3dbe:	be 0e 00 00 00       	mov    $0xe,%esi
    3dc3:	48 89 c7             	mov    %rax,%rdi
    3dc6:	e8 99 8c 00 00       	call   ca64 <zip_error_set>
/home/tenebris/Documents/RootCauseAnalysis/evaluation/test_bin/libzip/libzip-1.2.0/src/source_hole.c:240
    3dcb:	b8 ff ff ff ff       	mov    $0xffffffff,%eax
    3dd0:	e9 04 02 00 00       	jmp    3fd9 <buffer_read_file+0x3b4>
/home/tenebris/Documents/RootCauseAnalysis/evaluation/test_bin/libzip/libzip-1.2.0/src/source_hole.c:243
    3dd5:	48 c7 45 c8 00 00 00 	movq   $0x0,-0x38(%rbp)
    3ddc:	00 
    3ddd:	eb 1f                	jmp    3dfe <buffer_read_file+0x1d9>
/home/tenebris/Documents/RootCauseAnalysis/evaluation/test_bin/libzip/libzip-1.2.0/src/source_hole.c:244 (discriminator 3)
    3ddf:	48 8b 45 b8          	mov    -0x48(%rbp),%rax
    3de3:	48 8b 50 08          	mov    0x8(%rax),%rdx
    3de7:	48 8b 45 c8          	mov    -0x38(%rbp),%rax
    3deb:	48 c1 e0 03          	shl    $0x3,%rax
    3def:	48 01 d0             	add    %rdx,%rax
    3df2:	48 c7 00 00 00 00 00 	movq   $0x0,(%rax)
/home/tenebris/Documents/RootCauseAnalysis/evaluation/test_bin/libzip/libzip-1.2.0/src/source_hole.c:243 (discriminator 3)
    3df9:	48 83 45 c8 01       	addq   $0x1,-0x38(%rbp)
/home/tenebris/Documents/RootCauseAnalysis/evaluation/test_bin/libzip/libzip-1.2.0/src/source_hole.c:243 (discriminator 1)
    3dfe:	48 8b 45 b8          	mov    -0x48(%rbp),%rax
    3e02:	48 8b 40 10          	mov    0x10(%rax),%rax
    3e06:	48 39 45 c8          	cmp    %rax,-0x38(%rbp)
    3e0a:	72 d3                	jb     3ddf <buffer_read_file+0x1ba>
/home/tenebris/Documents/RootCauseAnalysis/evaluation/test_bin/libzip/libzip-1.2.0/src/source_hole.c:247
    3e0c:	48 c7 45 c8 00 00 00 	movq   $0x0,-0x38(%rbp)
    3e13:	00 
/home/tenebris/Documents/RootCauseAnalysis/evaluation/test_bin/libzip/libzip-1.2.0/src/source_hole.c:248
    3e14:	e9 a9 01 00 00       	jmp    3fc2 <buffer_read_file+0x39d>
/home/tenebris/Documents/RootCauseAnalysis/evaluation/test_bin/libzip/libzip-1.2.0/src/source_hole.c:249
    3e19:	48 8b 55 b0          	mov    -0x50(%rbp),%rdx
    3e1d:	48 8d 45 d0          	lea    -0x30(%rbp),%rax
    3e21:	48 89 d1             	mov    %rdx,%rcx
    3e24:	ba 01 00 00 00       	mov    $0x1,%edx
    3e29:	be 04 00 00 00       	mov    $0x4,%esi
    3e2e:	48 89 c7             	mov    %rax,%rdi
    3e31:	e8 6a f6 ff ff       	call   34a0 <fread@plt>
    3e36:	48 83 f8 01          	cmp    $0x1,%rax
    3e3a:	74 22                	je     3e5e <buffer_read_file+0x239>
/home/tenebris/Documents/RootCauseAnalysis/evaluation/test_bin/libzip/libzip-1.2.0/src/source_hole.c:250
    3e3c:	e8 df f5 ff ff       	call   3420 <__errno_location@plt>
    3e41:	8b 10                	mov    (%rax),%edx
    3e43:	48 8b 45 a8          	mov    -0x58(%rbp),%rax
    3e47:	be 05 00 00 00       	mov    $0x5,%esi
    3e4c:	48 89 c7             	mov    %rax,%rdi
    3e4f:	e8 10 8c 00 00       	call   ca64 <zip_error_set>
/home/tenebris/Documents/RootCauseAnalysis/evaluation/test_bin/libzip/libzip-1.2.0/src/source_hole.c:251
    3e54:	b8 ff ff ff ff       	mov    $0xffffffff,%eax
    3e59:	e9 7b 01 00 00       	jmp    3fd9 <buffer_read_file+0x3b4>
/home/tenebris/Documents/RootCauseAnalysis/evaluation/test_bin/libzip/libzip-1.2.0/src/source_hole.c:254
    3e5e:	48 8d 45 d0          	lea    -0x30(%rbp),%rax
    3e62:	ba 04 00 00 00       	mov    $0x4,%edx
    3e67:	48 8d 0d 9e d1 01 00 	lea    0x1d19e(%rip),%rcx        # 2100c <_IO_stdin_used+0xc>
    3e6e:	48 89 ce             	mov    %rcx,%rsi
    3e71:	48 89 c7             	mov    %rax,%rdi
    3e74:	e8 27 f7 ff ff       	call   35a0 <memcmp@plt>
    3e79:	85 c0                	test   %eax,%eax
    3e7b:	0f 85 b1 00 00 00    	jne    3f32 <buffer_read_file+0x30d>
/home/tenebris/Documents/RootCauseAnalysis/evaluation/test_bin/libzip/libzip-1.2.0/src/source_hole.c:259
    3e81:	48 8b 45 b8          	mov    -0x48(%rbp),%rax
    3e85:	48 8b 00             	mov    (%rax),%rax
    3e88:	48 8b 55 b8          	mov    -0x48(%rbp),%rdx
    3e8c:	48 8b 4a 08          	mov    0x8(%rdx),%rcx
    3e90:	48 8b 55 c8          	mov    -0x38(%rbp),%rdx
    3e94:	48 c1 e2 03          	shl    $0x3,%rdx
    3e98:	48 8d 1c 11          	lea    (%rcx,%rdx,1),%rbx
    3e9c:	48 89 c7             	mov    %rax,%rdi
    3e9f:	e8 ac f7 ff ff       	call   3650 <malloc@plt>
    3ea4:	48 89 03             	mov    %rax,(%rbx)
    3ea7:	48 8b 03             	mov    (%rbx),%rax
    3eaa:	48 85 c0             	test   %rax,%rax
    3ead:	75 20                	jne    3ecf <buffer_read_file+0x2aa>
/home/tenebris/Documents/RootCauseAnalysis/evaluation/test_bin/libzip/libzip-1.2.0/src/source_hole.c:260
    3eaf:	48 8b 45 a8          	mov    -0x58(%rbp),%rax
    3eb3:	ba 00 00 00 00       	mov    $0x0,%edx
    3eb8:	be 0e 00 00 00       	mov    $0xe,%esi
    3ebd:	48 89 c7             	mov    %rax,%rdi
    3ec0:	e8 9f 8b 00 00       	call   ca64 <zip_error_set>
/home/tenebris/Documents/RootCauseAnalysis/evaluation/test_bin/libzip/libzip-1.2.0/src/source_hole.c:261
    3ec5:	b8 ff ff ff ff       	mov    $0xffffffff,%eax
    3eca:	e9 0a 01 00 00       	jmp    3fd9 <buffer_read_file+0x3b4>
/home/tenebris/Documents/RootCauseAnalysis/evaluation/test_bin/libzip/libzip-1.2.0/src/source_hole.c:263
    3ecf:	48 8b 45 b8          	mov    -0x48(%rbp),%rax
    3ed3:	48 8b 30             	mov    (%rax),%rsi
    3ed6:	48 8b 45 b8          	mov    -0x48(%rbp),%rax
    3eda:	48 8b 50 08          	mov    0x8(%rax),%rdx
    3ede:	48 8b 45 c8          	mov    -0x38(%rbp),%rax
    3ee2:	48 c1 e0 03          	shl    $0x3,%rax
    3ee6:	48 01 d0             	add    %rdx,%rax
    3ee9:	48 8b 00             	mov    (%rax),%rax
    3eec:	48 8b 55 b0          	mov    -0x50(%rbp),%rdx
    3ef0:	48 89 d1             	mov    %rdx,%rcx
    3ef3:	ba 01 00 00 00       	mov    $0x1,%edx
    3ef8:	48 89 c7             	mov    %rax,%rdi
    3efb:	e8 a0 f5 ff ff       	call   34a0 <fread@plt>
    3f00:	48 83 f8 01          	cmp    $0x1,%rax
    3f04:	74 22                	je     3f28 <buffer_read_file+0x303>
/home/tenebris/Documents/RootCauseAnalysis/evaluation/test_bin/libzip/libzip-1.2.0/src/source_hole.c:264
    3f06:	e8 15 f5 ff ff       	call   3420 <__errno_location@plt>
    3f0b:	8b 10                	mov    (%rax),%edx
    3f0d:	48 8b 45 a8          	mov    -0x58(%rbp),%rax
    3f11:	be 05 00 00 00       	mov    $0x5,%esi
    3f16:	48 89 c7             	mov    %rax,%rdi
    3f19:	e8 46 8b 00 00       	call   ca64 <zip_error_set>
/home/tenebris/Documents/RootCauseAnalysis/evaluation/test_bin/libzip/libzip-1.2.0/src/source_hole.c:265
    3f1e:	b8 ff ff ff ff       	mov    $0xffffffff,%eax
    3f23:	e9 b1 00 00 00       	jmp    3fd9 <buffer_read_file+0x3b4>
/home/tenebris/Documents/RootCauseAnalysis/evaluation/test_bin/libzip/libzip-1.2.0/src/source_hole.c:267
    3f28:	48 83 45 c8 01       	addq   $0x1,-0x38(%rbp)
    3f2d:	e9 90 00 00 00       	jmp    3fc2 <buffer_read_file+0x39d>
/home/tenebris/Documents/RootCauseAnalysis/evaluation/test_bin/libzip/libzip-1.2.0/src/source_hole.c:269
    3f32:	48 8d 45 d0          	lea    -0x30(%rbp),%rax
    3f36:	ba 04 00 00 00       	mov    $0x4,%edx
    3f3b:	48 8d 0d cf d0 01 00 	lea    0x1d0cf(%rip),%rcx        # 21011 <_IO_stdin_used+0x11>
    3f42:	48 89 ce             	mov    %rcx,%rsi
    3f45:	48 89 c7             	mov    %rax,%rdi
    3f48:	e8 53 f6 ff ff       	call   35a0 <memcmp@plt>
    3f4d:	85 c0                	test   %eax,%eax
    3f4f:	75 54                	jne    3fa5 <buffer_read_file+0x380>
/home/tenebris/Documents/RootCauseAnalysis/evaluation/test_bin/libzip/libzip-1.2.0/src/source_hole.c:270
    3f51:	48 8b 55 b0          	mov    -0x50(%rbp),%rdx
    3f55:	48 8d 45 d0          	lea    -0x30(%rbp),%rax
    3f59:	48 89 d1             	mov    %rdx,%rcx
    3f5c:	ba 01 00 00 00       	mov    $0x1,%edx
    3f61:	be 08 00 00 00       	mov    $0x8,%esi
    3f66:	48 89 c7             	mov    %rax,%rdi
    3f69:	e8 32 f5 ff ff       	call   34a0 <fread@plt>
    3f6e:	48 83 f8 01          	cmp    $0x1,%rax
    3f72:	74 1f                	je     3f93 <buffer_read_file+0x36e>
/home/tenebris/Documents/RootCauseAnalysis/evaluation/test_bin/libzip/libzip-1.2.0/src/source_hole.c:271
    3f74:	e8 a7 f4 ff ff       	call   3420 <__errno_location@plt>
    3f79:	8b 10                	mov    (%rax),%edx
    3f7b:	48 8b 45 a8          	mov    -0x58(%rbp),%rax
    3f7f:	be 05 00 00 00       	mov    $0x5,%esi
    3f84:	48 89 c7             	mov    %rax,%rdi
    3f87:	e8 d8 8a 00 00       	call   ca64 <zip_error_set>
/home/tenebris/Documents/RootCauseAnalysis/evaluation/test_bin/libzip/libzip-1.2.0/src/source_hole.c:272
    3f8c:	b8 ff ff ff ff       	mov    $0xffffffff,%eax
    3f91:	eb 46                	jmp    3fd9 <buffer_read_file+0x3b4>
/home/tenebris/Documents/RootCauseAnalysis/evaluation/test_bin/libzip/libzip-1.2.0/src/source_hole.c:274
    3f93:	48 8d 45 d0          	lea    -0x30(%rbp),%rax
    3f97:	48 89 c7             	mov    %rax,%rdi
    3f9a:	e8 a6 05 00 00       	call   4545 <get_u64>
    3f9f:	48 01 45 c8          	add    %rax,-0x38(%rbp)
    3fa3:	eb 1d                	jmp    3fc2 <buffer_read_file+0x39d>
/home/tenebris/Documents/RootCauseAnalysis/evaluation/test_bin/libzip/libzip-1.2.0/src/source_hole.c:277
    3fa5:	48 8b 45 a8          	mov    -0x58(%rbp),%rax
    3fa9:	ba 16 00 00 00       	mov    $0x16,%edx
    3fae:	be 05 00 00 00       	mov    $0x5,%esi
    3fb3:	48 89 c7             	mov    %rax,%rdi
    3fb6:	e8 a9 8a 00 00       	call   ca64 <zip_error_set>
/home/tenebris/Documents/RootCauseAnalysis/evaluation/test_bin/libzip/libzip-1.2.0/src/source_hole.c:278
    3fbb:	b8 ff ff ff ff       	mov    $0xffffffff,%eax
    3fc0:	eb 17                	jmp    3fd9 <buffer_read_file+0x3b4>
/home/tenebris/Documents/RootCauseAnalysis/evaluation/test_bin/libzip/libzip-1.2.0/src/source_hole.c:248
    3fc2:	48 8b 45 b8          	mov    -0x48(%rbp),%rax
    3fc6:	48 8b 40 10          	mov    0x10(%rax),%rax
    3fca:	48 39 45 c8          	cmp    %rax,-0x38(%rbp)
    3fce:	0f 82 45 fe ff ff    	jb     3e19 <buffer_read_file+0x1f4>
/home/tenebris/Documents/RootCauseAnalysis/evaluation/test_bin/libzip/libzip-1.2.0/src/source_hole.c:282
    3fd4:	b8 00 00 00 00       	mov    $0x0,%eax
/home/tenebris/Documents/RootCauseAnalysis/evaluation/test_bin/libzip/libzip-1.2.0/src/source_hole.c:283 (discriminator 1)
    3fd9:	48 8b 55 e8          	mov    -0x18(%rbp),%rdx
    3fdd:	64 48 2b 14 25 28 00 	sub    %fs:0x28,%rdx
    3fe4:	00 00 
    3fe6:	74 05                	je     3fed <buffer_read_file+0x3c8>
/home/tenebris/Documents/RootCauseAnalysis/evaluation/test_bin/libzip/libzip-1.2.0/src/source_hole.c:283
    3fe8:	e8 f3 f4 ff ff       	call   34e0 <__stack_chk_fail@plt>
    3fed:	48 8b 5d f8          	mov    -0x8(%rbp),%rbx
    3ff1:	c9                   	leave  
    3ff2:	c3                   	ret    

0000000000003ff3 <buffer_seek>:
buffer_seek():
/home/tenebris/Documents/RootCauseAnalysis/evaluation/test_bin/libzip/libzip-1.2.0/src/source_hole.c:287
    3ff3:	f3 0f 1e fa          	endbr64 
    3ff7:	55                   	push   %rbp
    3ff8:	48 89 e5             	mov    %rsp,%rbp
    3ffb:	48 83 ec 30          	sub    $0x30,%rsp
    3fff:	48 89 7d e8          	mov    %rdi,-0x18(%rbp)
    4003:	48 89 75 e0          	mov    %rsi,-0x20(%rbp)
    4007:	48 89 55 d8          	mov    %rdx,-0x28(%rbp)
    400b:	48 89 4d d0          	mov    %rcx,-0x30(%rbp)
/home/tenebris/Documents/RootCauseAnalysis/evaluation/test_bin/libzip/libzip-1.2.0/src/source_hole.c:288
    400f:	48 8b 45 e8          	mov    -0x18(%rbp),%rax
    4013:	48 8b 70 18          	mov    0x18(%rax),%rsi
    4017:	48 8b 45 e8          	mov    -0x18(%rbp),%rax
    401b:	48 8b 40 20          	mov    0x20(%rax),%rax
    401f:	48 8b 7d d0          	mov    -0x30(%rbp),%rdi
    4023:	48 8b 4d d8          	mov    -0x28(%rbp),%rcx
    4027:	48 8b 55 e0          	mov    -0x20(%rbp),%rdx
    402b:	49 89 f8             	mov    %rdi,%r8
    402e:	48 89 c7             	mov    %rax,%rdi
    4031:	e8 5c 31 01 00       	call   17192 <zip_source_seek_compute_offset>
    4036:	48 89 45 f8          	mov    %rax,-0x8(%rbp)
/home/tenebris/Documents/RootCauseAnalysis/evaluation/test_bin/libzip/libzip-1.2.0/src/source_hole.c:290
    403a:	48 83 7d f8 00       	cmpq   $0x0,-0x8(%rbp)
    403f:	79 09                	jns    404a <buffer_seek+0x57>
/home/tenebris/Documents/RootCauseAnalysis/evaluation/test_bin/libzip/libzip-1.2.0/src/source_hole.c:291
    4041:	48 c7 c0 ff ff ff ff 	mov    $0xffffffffffffffff,%rax
    4048:	eb 11                	jmp    405b <buffer_seek+0x68>
/home/tenebris/Documents/RootCauseAnalysis/evaluation/test_bin/libzip/libzip-1.2.0/src/source_hole.c:294
    404a:	48 8b 55 f8          	mov    -0x8(%rbp),%rdx
    404e:	48 8b 45 e8          	mov    -0x18(%rbp),%rax
    4052:	48 89 50 20          	mov    %rdx,0x20(%rax)
/home/tenebris/Documents/RootCauseAnalysis/evaluation/test_bin/libzip/libzip-1.2.0/src/source_hole.c:295
    4056:	b8 00 00 00 00       	mov    $0x0,%eax
/home/tenebris/Documents/RootCauseAnalysis/evaluation/test_bin/libzip/libzip-1.2.0/src/source_hole.c:296
    405b:	c9                   	leave  
    405c:	c3                   	ret    

000000000000405d <buffer_to_file>:
buffer_to_file():
/home/tenebris/Documents/RootCauseAnalysis/evaluation/test_bin/libzip/libzip-1.2.0/src/source_hole.c:301
    405d:	f3 0f 1e fa          	endbr64 
    4061:	55                   	push   %rbp
    4062:	48 89 e5             	mov    %rsp,%rbp
    4065:	48 83 ec 40          	sub    $0x40,%rsp
    4069:	48 89 7d d8          	mov    %rdi,-0x28(%rbp)
    406d:	48 89 75 d0          	mov    %rsi,-0x30(%rbp)
    4071:	48 89 55 c8          	mov    %rdx,-0x38(%rbp)
/home/tenebris/Documents/RootCauseAnalysis/evaluation/test_bin/libzip/libzip-1.2.0/src/source_hole.c:302
    4075:	48 8b 45 d0          	mov    -0x30(%rbp),%rax
    4079:	48 8d 15 96 cf 01 00 	lea    0x1cf96(%rip),%rdx        # 21016 <_IO_stdin_used+0x16>
    4080:	48 89 d6             	mov    %rdx,%rsi
    4083:	48 89 c7             	mov    %rax,%rdi
    4086:	e8 65 f6 ff ff       	call   36f0 <fopen@plt>
    408b:	48 89 45 f8          	mov    %rax,-0x8(%rbp)
/home/tenebris/Documents/RootCauseAnalysis/evaluation/test_bin/libzip/libzip-1.2.0/src/source_hole.c:306
    408f:	48 83 7d f8 00       	cmpq   $0x0,-0x8(%rbp)
    4094:	75 22                	jne    40b8 <buffer_to_file+0x5b>
/home/tenebris/Documents/RootCauseAnalysis/evaluation/test_bin/libzip/libzip-1.2.0/src/source_hole.c:307
    4096:	e8 85 f3 ff ff       	call   3420 <__errno_location@plt>
    409b:	8b 10                	mov    (%rax),%edx
    409d:	48 8b 45 c8          	mov    -0x38(%rbp),%rax
    40a1:	be 0b 00 00 00       	mov    $0xb,%esi
    40a6:	48 89 c7             	mov    %rax,%rdi
    40a9:	e8 b6 89 00 00       	call   ca64 <zip_error_set>
/home/tenebris/Documents/RootCauseAnalysis/evaluation/test_bin/libzip/libzip-1.2.0/src/source_hole.c:308
    40ae:	b8 ff ff ff ff       	mov    $0xffffffff,%eax
    40b3:	e9 93 01 00 00       	jmp    424b <buffer_to_file+0x1ee>
/home/tenebris/Documents/RootCauseAnalysis/evaluation/test_bin/libzip/libzip-1.2.0/src/source_hole.c:311
    40b8:	48 8b 45 f8          	mov    -0x8(%rbp),%rax
    40bc:	48 89 c1             	mov    %rax,%rcx
    40bf:	ba 01 00 00 00       	mov    $0x1,%edx
    40c4:	be 04 00 00 00       	mov    $0x4,%esi
    40c9:	48 8d 05 37 cf 01 00 	lea    0x1cf37(%rip),%rax        # 21007 <_IO_stdin_used+0x7>
    40d0:	48 89 c7             	mov    %rax,%rdi
    40d3:	e8 88 f6 ff ff       	call   3760 <fwrite@plt>
/home/tenebris/Documents/RootCauseAnalysis/evaluation/test_bin/libzip/libzip-1.2.0/src/source_hole.c:312
    40d8:	48 8b 45 d8          	mov    -0x28(%rbp),%rax
    40dc:	48 8b 00             	mov    (%rax),%rax
    40df:	48 8b 55 f8          	mov    -0x8(%rbp),%rdx
    40e3:	48 89 d6             	mov    %rdx,%rsi
    40e6:	48 89 c7             	mov    %rax,%rdi
    40e9:	e8 ac 05 00 00       	call   469a <write_u64>
/home/tenebris/Documents/RootCauseAnalysis/evaluation/test_bin/libzip/libzip-1.2.0/src/source_hole.c:313
    40ee:	48 8b 45 d8          	mov    -0x28(%rbp),%rax
    40f2:	48 8b 40 18          	mov    0x18(%rax),%rax
    40f6:	48 8b 55 f8          	mov    -0x8(%rbp),%rdx
    40fa:	48 89 d6             	mov    %rdx,%rsi
    40fd:	48 89 c7             	mov    %rax,%rdi
    4100:	e8 95 05 00 00       	call   469a <write_u64>
/home/tenebris/Documents/RootCauseAnalysis/evaluation/test_bin/libzip/libzip-1.2.0/src/source_hole.c:315
    4105:	48 c7 45 f0 00 00 00 	movq   $0x0,-0x10(%rbp)
    410c:	00 
/home/tenebris/Documents/RootCauseAnalysis/evaluation/test_bin/libzip/libzip-1.2.0/src/source_hole.c:316
    410d:	48 c7 45 e8 00 00 00 	movq   $0x0,-0x18(%rbp)
    4114:	00 
    4115:	e9 c3 00 00 00       	jmp    41dd <buffer_to_file+0x180>
/home/tenebris/Documents/RootCauseAnalysis/evaluation/test_bin/libzip/libzip-1.2.0/src/source_hole.c:317
    411a:	48 8b 45 d8          	mov    -0x28(%rbp),%rax
    411e:	48 8b 50 08          	mov    0x8(%rax),%rdx
    4122:	48 8b 45 e8          	mov    -0x18(%rbp),%rax
    4126:	48 c1 e0 03          	shl    $0x3,%rax
    412a:	48 01 d0             	add    %rdx,%rax
    412d:	48 8b 00             	mov    (%rax),%rax
    4130:	48 85 c0             	test   %rax,%rax
    4133:	74 2c                	je     4161 <buffer_to_file+0x104>
/home/tenebris/Documents/RootCauseAnalysis/evaluation/test_bin/libzip/libzip-1.2.0/src/source_hole.c:317 (discriminator 1)
    4135:	48 8b 45 d8          	mov    -0x28(%rbp),%rax
    4139:	48 8b 10             	mov    (%rax),%rdx
    413c:	48 8b 45 d8          	mov    -0x28(%rbp),%rax
    4140:	48 8b 48 08          	mov    0x8(%rax),%rcx
    4144:	48 8b 45 e8          	mov    -0x18(%rbp),%rax
    4148:	48 c1 e0 03          	shl    $0x3,%rax
    414c:	48 01 c8             	add    %rcx,%rax
    414f:	48 8b 00             	mov    (%rax),%rax
    4152:	48 89 d6             	mov    %rdx,%rsi
    4155:	48 89 c7             	mov    %rax,%rdi
    4158:	e8 9e 04 00 00       	call   45fb <only_nul>
    415d:	85 c0                	test   %eax,%eax
    415f:	74 07                	je     4168 <buffer_to_file+0x10b>
/home/tenebris/Documents/RootCauseAnalysis/evaluation/test_bin/libzip/libzip-1.2.0/src/source_hole.c:318
    4161:	48 83 45 f0 01       	addq   $0x1,-0x10(%rbp)
    4166:	eb 70                	jmp    41d8 <buffer_to_file+0x17b>
/home/tenebris/Documents/RootCauseAnalysis/evaluation/test_bin/libzip/libzip-1.2.0/src/source_hole.c:321
    4168:	48 83 7d f0 00       	cmpq   $0x0,-0x10(%rbp)
    416d:	74 1b                	je     418a <buffer_to_file+0x12d>
/home/tenebris/Documents/RootCauseAnalysis/evaluation/test_bin/libzip/libzip-1.2.0/src/source_hole.c:322
    416f:	48 8b 55 f8          	mov    -0x8(%rbp),%rdx
    4173:	48 8b 45 f0          	mov    -0x10(%rbp),%rax
    4177:	48 89 d6             	mov    %rdx,%rsi
    417a:	48 89 c7             	mov    %rax,%rdi
    417d:	e8 c2 04 00 00       	call   4644 <write_nuls>
/home/tenebris/Documents/RootCauseAnalysis/evaluation/test_bin/libzip/libzip-1.2.0/src/source_hole.c:323
    4182:	48 c7 45 f0 00 00 00 	movq   $0x0,-0x10(%rbp)
    4189:	00 
/home/tenebris/Documents/RootCauseAnalysis/evaluation/test_bin/libzip/libzip-1.2.0/src/source_hole.c:325
    418a:	48 8b 45 f8          	mov    -0x8(%rbp),%rax
    418e:	48 89 c1             	mov    %rax,%rcx
    4191:	ba 01 00 00 00       	mov    $0x1,%edx
    4196:	be 04 00 00 00       	mov    $0x4,%esi
    419b:	48 8d 05 6a ce 01 00 	lea    0x1ce6a(%rip),%rax        # 2100c <_IO_stdin_used+0xc>
    41a2:	48 89 c7             	mov    %rax,%rdi
    41a5:	e8 b6 f5 ff ff       	call   3760 <fwrite@plt>
/home/tenebris/Documents/RootCauseAnalysis/evaluation/test_bin/libzip/libzip-1.2.0/src/source_hole.c:327
    41aa:	48 8b 45 d8          	mov    -0x28(%rbp),%rax
    41ae:	48 8b 10             	mov    (%rax),%rdx
    41b1:	48 8b 45 d8          	mov    -0x28(%rbp),%rax
    41b5:	48 8b 48 08          	mov    0x8(%rax),%rcx
    41b9:	48 8b 45 e8          	mov    -0x18(%rbp),%rax
    41bd:	48 c1 e0 03          	shl    $0x3,%rax
    41c1:	48 01 c8             	add    %rcx,%rax
    41c4:	48 8b 00             	mov    (%rax),%rax
    41c7:	48 8b 4d f8          	mov    -0x8(%rbp),%rcx
    41cb:	be 01 00 00 00       	mov    $0x1,%esi
    41d0:	48 89 c7             	mov    %rax,%rdi
    41d3:	e8 88 f5 ff ff       	call   3760 <fwrite@plt>
/home/tenebris/Documents/RootCauseAnalysis/evaluation/test_bin/libzip/libzip-1.2.0/src/source_hole.c:316 (discriminator 2)
    41d8:	48 83 45 e8 01       	addq   $0x1,-0x18(%rbp)
/home/tenebris/Documents/RootCauseAnalysis/evaluation/test_bin/libzip/libzip-1.2.0/src/source_hole.c:316 (discriminator 1)
    41dd:	48 8b 45 d8          	mov    -0x28(%rbp),%rax
    41e1:	48 8b 00             	mov    (%rax),%rax
    41e4:	48 0f af 45 e8       	imul   -0x18(%rbp),%rax
    41e9:	48 89 c2             	mov    %rax,%rdx
    41ec:	48 8b 45 d8          	mov    -0x28(%rbp),%rax
    41f0:	48 8b 40 18          	mov    0x18(%rax),%rax
    41f4:	48 39 c2             	cmp    %rax,%rdx
    41f7:	0f 82 1d ff ff ff    	jb     411a <buffer_to_file+0xbd>
/home/tenebris/Documents/RootCauseAnalysis/evaluation/test_bin/libzip/libzip-1.2.0/src/source_hole.c:331
    41fd:	48 83 7d f0 00       	cmpq   $0x0,-0x10(%rbp)
    4202:	74 13                	je     4217 <buffer_to_file+0x1ba>
/home/tenebris/Documents/RootCauseAnalysis/evaluation/test_bin/libzip/libzip-1.2.0/src/source_hole.c:332
    4204:	48 8b 55 f8          	mov    -0x8(%rbp),%rdx
    4208:	48 8b 45 f0          	mov    -0x10(%rbp),%rax
    420c:	48 89 d6             	mov    %rdx,%rsi
    420f:	48 89 c7             	mov    %rax,%rdi
    4212:	e8 2d 04 00 00       	call   4644 <write_nuls>
/home/tenebris/Documents/RootCauseAnalysis/evaluation/test_bin/libzip/libzip-1.2.0/src/source_hole.c:335
    4217:	48 8b 45 f8          	mov    -0x8(%rbp),%rax
    421b:	48 89 c7             	mov    %rax,%rdi
    421e:	e8 9d f2 ff ff       	call   34c0 <fclose@plt>
    4223:	85 c0                	test   %eax,%eax
    4225:	74 1f                	je     4246 <buffer_to_file+0x1e9>
/home/tenebris/Documents/RootCauseAnalysis/evaluation/test_bin/libzip/libzip-1.2.0/src/source_hole.c:336
    4227:	e8 f4 f1 ff ff       	call   3420 <__errno_location@plt>
    422c:	8b 10                	mov    (%rax),%edx
    422e:	48 8b 45 c8          	mov    -0x38(%rbp),%rax
    4232:	be 06 00 00 00       	mov    $0x6,%esi
    4237:	48 89 c7             	mov    %rax,%rdi
    423a:	e8 25 88 00 00       	call   ca64 <zip_error_set>
/home/tenebris/Documents/RootCauseAnalysis/evaluation/test_bin/libzip/libzip-1.2.0/src/source_hole.c:337
    423f:	b8 ff ff ff ff       	mov    $0xffffffff,%eax
    4244:	eb 05                	jmp    424b <buffer_to_file+0x1ee>
/home/tenebris/Documents/RootCauseAnalysis/evaluation/test_bin/libzip/libzip-1.2.0/src/source_hole.c:340
    4246:	b8 00 00 00 00       	mov    $0x0,%eax
/home/tenebris/Documents/RootCauseAnalysis/evaluation/test_bin/libzip/libzip-1.2.0/src/source_hole.c:341
    424b:	c9                   	leave  
    424c:	c3                   	ret    

000000000000424d <buffer_write>:
buffer_write():
/home/tenebris/Documents/RootCauseAnalysis/evaluation/test_bin/libzip/libzip-1.2.0/src/source_hole.c:346
    424d:	f3 0f 1e fa          	endbr64 
    4251:	55                   	push   %rbp
    4252:	48 89 e5             	mov    %rsp,%rbp
    4255:	53                   	push   %rbx
    4256:	48 83 ec 68          	sub    $0x68,%rsp
    425a:	48 89 7d a8          	mov    %rdi,-0x58(%rbp)
    425e:	48 89 75 a0          	mov    %rsi,-0x60(%rbp)
    4262:	48 89 55 98          	mov    %rdx,-0x68(%rbp)
    4266:	48 89 4d 90          	mov    %rcx,-0x70(%rbp)
/home/tenebris/Documents/RootCauseAnalysis/evaluation/test_bin/libzip/libzip-1.2.0/src/source_hole.c:348
    426a:	48 8b 45 a8          	mov    -0x58(%rbp),%rax
    426e:	48 8b 50 20          	mov    0x20(%rax),%rdx
    4272:	48 8b 45 98          	mov    -0x68(%rbp),%rax
    4276:	48 8d 0c 02          	lea    (%rdx,%rax,1),%rcx
    427a:	48 8b 45 a8          	mov    -0x58(%rbp),%rax
    427e:	48 8b 50 10          	mov    0x10(%rax),%rdx
    4282:	48 8b 45 a8          	mov    -0x58(%rbp),%rax
    4286:	48 8b 00             	mov    (%rax),%rax
    4289:	48 0f af c2          	imul   %rdx,%rax
    428d:	48 39 c1             	cmp    %rax,%rcx
    4290:	0f 86 f9 00 00 00    	jbe    438f <buffer_write+0x142>
/home/tenebris/Documents/RootCauseAnalysis/evaluation/test_bin/libzip/libzip-1.2.0/src/source_hole.c:349
    4296:	48 8b 45 a8          	mov    -0x58(%rbp),%rax
    429a:	48 8b 50 20          	mov    0x20(%rax),%rdx
    429e:	48 8b 45 98          	mov    -0x68(%rbp),%rax
    42a2:	48 01 c2             	add    %rax,%rdx
    42a5:	48 8b 45 a8          	mov    -0x58(%rbp),%rax
    42a9:	48 8b 00             	mov    (%rax),%rax
    42ac:	48 01 d0             	add    %rdx,%rax
    42af:	48 8d 48 ff          	lea    -0x1(%rax),%rcx
    42b3:	48 8b 45 a8          	mov    -0x58(%rbp),%rax
    42b7:	48 8b 18             	mov    (%rax),%rbx
    42ba:	48 89 c8             	mov    %rcx,%rax
    42bd:	ba 00 00 00 00       	mov    $0x0,%edx
    42c2:	48 f7 f3             	div    %rbx
    42c5:	48 89 45 d8          	mov    %rax,-0x28(%rbp)
/home/tenebris/Documents/RootCauseAnalysis/evaluation/test_bin/libzip/libzip-1.2.0/src/source_hole.c:350
    42c9:	48 8b 45 a8          	mov    -0x58(%rbp),%rax
    42cd:	48 8b 40 10          	mov    0x10(%rax),%rax
    42d1:	48 89 45 b0          	mov    %rax,-0x50(%rbp)
/home/tenebris/Documents/RootCauseAnalysis/evaluation/test_bin/libzip/libzip-1.2.0/src/source_hole.c:353
    42d5:	48 83 7d b0 00       	cmpq   $0x0,-0x50(%rbp)
    42da:	75 0e                	jne    42ea <buffer_write+0x9d>
/home/tenebris/Documents/RootCauseAnalysis/evaluation/test_bin/libzip/libzip-1.2.0/src/source_hole.c:354
    42dc:	48 c7 45 b0 04 00 00 	movq   $0x4,-0x50(%rbp)
    42e3:	00 
/home/tenebris/Documents/RootCauseAnalysis/evaluation/test_bin/libzip/libzip-1.2.0/src/source_hole.c:356
    42e4:	eb 04                	jmp    42ea <buffer_write+0x9d>
/home/tenebris/Documents/RootCauseAnalysis/evaluation/test_bin/libzip/libzip-1.2.0/src/source_hole.c:357
    42e6:	48 d1 65 b0          	shlq   -0x50(%rbp)
/home/tenebris/Documents/RootCauseAnalysis/evaluation/test_bin/libzip/libzip-1.2.0/src/source_hole.c:356
    42ea:	48 8b 45 b0          	mov    -0x50(%rbp),%rax
    42ee:	48 3b 45 d8          	cmp    -0x28(%rbp),%rax
    42f2:	72 f2                	jb     42e6 <buffer_write+0x99>
/home/tenebris/Documents/RootCauseAnalysis/evaluation/test_bin/libzip/libzip-1.2.0/src/source_hole.c:360
    42f4:	48 8b 45 b0          	mov    -0x50(%rbp),%rax
    42f8:	48 8d 14 c5 00 00 00 	lea    0x0(,%rax,8),%rdx
    42ff:	00 
    4300:	48 8b 45 a8          	mov    -0x58(%rbp),%rax
    4304:	48 8b 40 08          	mov    0x8(%rax),%rax
    4308:	48 89 d6             	mov    %rdx,%rsi
    430b:	48 89 c7             	mov    %rax,%rdi
    430e:	e8 7d f3 ff ff       	call   3690 <realloc@plt>
    4313:	48 89 45 e0          	mov    %rax,-0x20(%rbp)
/home/tenebris/Documents/RootCauseAnalysis/evaluation/test_bin/libzip/libzip-1.2.0/src/source_hole.c:362
    4317:	48 83 7d e0 00       	cmpq   $0x0,-0x20(%rbp)
    431c:	75 22                	jne    4340 <buffer_write+0xf3>
/home/tenebris/Documents/RootCauseAnalysis/evaluation/test_bin/libzip/libzip-1.2.0/src/source_hole.c:363
    431e:	48 8b 45 90          	mov    -0x70(%rbp),%rax
    4322:	ba 00 00 00 00       	mov    $0x0,%edx
    4327:	be 0e 00 00 00       	mov    $0xe,%esi
    432c:	48 89 c7             	mov    %rax,%rdi
    432f:	e8 30 87 00 00       	call   ca64 <zip_error_set>
/home/tenebris/Documents/RootCauseAnalysis/evaluation/test_bin/libzip/libzip-1.2.0/src/source_hole.c:364
    4334:	48 c7 c0 ff ff ff ff 	mov    $0xffffffffffffffff,%rax
    433b:	e9 ff 01 00 00       	jmp    453f <buffer_write+0x2f2>
/home/tenebris/Documents/RootCauseAnalysis/evaluation/test_bin/libzip/libzip-1.2.0/src/source_hole.c:367
    4340:	48 8b 45 a8          	mov    -0x58(%rbp),%rax
    4344:	48 8b 40 10          	mov    0x10(%rax),%rax
    4348:	48 89 45 b8          	mov    %rax,-0x48(%rbp)
    434c:	eb 1f                	jmp    436d <buffer_write+0x120>
/home/tenebris/Documents/RootCauseAnalysis/evaluation/test_bin/libzip/libzip-1.2.0/src/source_hole.c:368 (discriminator 3)
    434e:	48 8b 45 b8          	mov    -0x48(%rbp),%rax
    4352:	48 8d 14 c5 00 00 00 	lea    0x0(,%rax,8),%rdx
    4359:	00 
    435a:	48 8b 45 e0          	mov    -0x20(%rbp),%rax
    435e:	48 01 d0             	add    %rdx,%rax
    4361:	48 c7 00 00 00 00 00 	movq   $0x0,(%rax)
/home/tenebris/Documents/RootCauseAnalysis/evaluation/test_bin/libzip/libzip-1.2.0/src/source_hole.c:367 (discriminator 3)
    4368:	48 83 45 b8 01       	addq   $0x1,-0x48(%rbp)
/home/tenebris/Documents/RootCauseAnalysis/evaluation/test_bin/libzip/libzip-1.2.0/src/source_hole.c:367 (discriminator 1)
    436d:	48 8b 45 b8          	mov    -0x48(%rbp),%rax
    4371:	48 3b 45 b0          	cmp    -0x50(%rbp),%rax
    4375:	72 d7                	jb     434e <buffer_write+0x101>
/home/tenebris/Documents/RootCauseAnalysis/evaluation/test_bin/libzip/libzip-1.2.0/src/source_hole.c:371
    4377:	48 8b 45 a8          	mov    -0x58(%rbp),%rax
    437b:	48 8b 55 e0          	mov    -0x20(%rbp),%rdx
    437f:	48 89 50 08          	mov    %rdx,0x8(%rax)
/home/tenebris/Documents/RootCauseAnalysis/evaluation/test_bin/libzip/libzip-1.2.0/src/source_hole.c:372
    4383:	48 8b 45 a8          	mov    -0x58(%rbp),%rax
    4387:	48 8b 55 b0          	mov    -0x50(%rbp),%rdx
    438b:	48 89 50 10          	mov    %rdx,0x10(%rax)
/home/tenebris/Documents/RootCauseAnalysis/evaluation/test_bin/libzip/libzip-1.2.0/src/source_hole.c:375
    438f:	48 8b 55 98          	mov    -0x68(%rbp),%rdx
    4393:	48 8b 45 a0          	mov    -0x60(%rbp),%rax
    4397:	48 89 d6             	mov    %rdx,%rsi
    439a:	48 89 c7             	mov    %rax,%rdi
    439d:	e8 59 02 00 00       	call   45fb <only_nul>
    43a2:	85 c0                	test   %eax,%eax
    43a4:	0f 85 55 01 00 00    	jne    44ff <buffer_write+0x2b2>
/home/tenebris/Documents/RootCauseAnalysis/evaluation/test_bin/libzip/libzip-1.2.0/src/source_hole.c:378
    43aa:	48 8b 45 a8          	mov    -0x58(%rbp),%rax
    43ae:	48 8b 40 20          	mov    0x20(%rax),%rax
    43b2:	48 8b 55 a8          	mov    -0x58(%rbp),%rdx
    43b6:	48 8b 1a             	mov    (%rdx),%rbx
    43b9:	ba 00 00 00 00       	mov    $0x0,%edx
    43be:	48 f7 f3             	div    %rbx
    43c1:	48 89 45 c0          	mov    %rax,-0x40(%rbp)
/home/tenebris/Documents/RootCauseAnalysis/evaluation/test_bin/libzip/libzip-1.2.0/src/source_hole.c:379
    43c5:	48 8b 45 a8          	mov    -0x58(%rbp),%rax
    43c9:	48 8b 40 20          	mov    0x20(%rax),%rax
    43cd:	48 8b 55 a8          	mov    -0x58(%rbp),%rdx
    43d1:	48 8b 0a             	mov    (%rdx),%rcx
    43d4:	ba 00 00 00 00       	mov    $0x0,%edx
    43d9:	48 f7 f1             	div    %rcx
    43dc:	48 89 55 d0          	mov    %rdx,-0x30(%rbp)
/home/tenebris/Documents/RootCauseAnalysis/evaluation/test_bin/libzip/libzip-1.2.0/src/source_hole.c:380
    43e0:	48 c7 45 c8 00 00 00 	movq   $0x0,-0x38(%rbp)
    43e7:	00 
/home/tenebris/Documents/RootCauseAnalysis/evaluation/test_bin/libzip/libzip-1.2.0/src/source_hole.c:382
    43e8:	e9 04 01 00 00       	jmp    44f1 <buffer_write+0x2a4>
/home/tenebris/Documents/RootCauseAnalysis/evaluation/test_bin/libzip/libzip-1.2.0/src/source_hole.c:383
    43ed:	48 8b 45 a8          	mov    -0x58(%rbp),%rax
    43f1:	48 8b 00             	mov    (%rax),%rax
    43f4:	48 2b 45 d0          	sub    -0x30(%rbp),%rax
    43f8:	48 89 c2             	mov    %rax,%rdx
    43fb:	48 8b 45 98          	mov    -0x68(%rbp),%rax
    43ff:	48 2b 45 c8          	sub    -0x38(%rbp),%rax
    4403:	48 39 c2             	cmp    %rax,%rdx
    4406:	48 0f 46 c2          	cmovbe %rdx,%rax
    440a:	48 89 45 e8          	mov    %rax,-0x18(%rbp)
/home/tenebris/Documents/RootCauseAnalysis/evaluation/test_bin/libzip/libzip-1.2.0/src/source_hole.c:385
    440e:	48 8b 45 a8          	mov    -0x58(%rbp),%rax
    4412:	48 8b 50 08          	mov    0x8(%rax),%rdx
    4416:	48 8b 45 c0          	mov    -0x40(%rbp),%rax
    441a:	48 c1 e0 03          	shl    $0x3,%rax
    441e:	48 01 d0             	add    %rdx,%rax
    4421:	48 8b 00             	mov    (%rax),%rax
    4424:	48 85 c0             	test   %rax,%rax
    4427:	75 7a                	jne    44a3 <buffer_write+0x256>
/home/tenebris/Documents/RootCauseAnalysis/evaluation/test_bin/libzip/libzip-1.2.0/src/source_hole.c:386
    4429:	48 8b 45 a8          	mov    -0x58(%rbp),%rax
    442d:	48 8b 00             	mov    (%rax),%rax
    4430:	48 8b 55 a8          	mov    -0x58(%rbp),%rdx
    4434:	48 8b 4a 08          	mov    0x8(%rdx),%rcx
    4438:	48 8b 55 c0          	mov    -0x40(%rbp),%rdx
    443c:	48 c1 e2 03          	shl    $0x3,%rdx
    4440:	48 8d 1c 11          	lea    (%rcx,%rdx,1),%rbx
    4444:	48 89 c7             	mov    %rax,%rdi
    4447:	e8 04 f2 ff ff       	call   3650 <malloc@plt>
    444c:	48 89 03             	mov    %rax,(%rbx)
    444f:	48 8b 03             	mov    (%rbx),%rax
    4452:	48 85 c0             	test   %rax,%rax
    4455:	75 22                	jne    4479 <buffer_write+0x22c>
/home/tenebris/Documents/RootCauseAnalysis/evaluation/test_bin/libzip/libzip-1.2.0/src/source_hole.c:387
    4457:	48 8b 45 90          	mov    -0x70(%rbp),%rax
    445b:	ba 00 00 00 00       	mov    $0x0,%edx
    4460:	be 0e 00 00 00       	mov    $0xe,%esi
    4465:	48 89 c7             	mov    %rax,%rdi
    4468:	e8 f7 85 00 00       	call   ca64 <zip_error_set>
/home/tenebris/Documents/RootCauseAnalysis/evaluation/test_bin/libzip/libzip-1.2.0/src/source_hole.c:388
    446d:	48 c7 c0 ff ff ff ff 	mov    $0xffffffffffffffff,%rax
    4474:	e9 c6 00 00 00       	jmp    453f <buffer_write+0x2f2>
/home/tenebris/Documents/RootCauseAnalysis/evaluation/test_bin/libzip/libzip-1.2.0/src/source_hole.c:390
    4479:	48 8b 45 a8          	mov    -0x58(%rbp),%rax
    447d:	48 8b 10             	mov    (%rax),%rdx
    4480:	48 8b 45 a8          	mov    -0x58(%rbp),%rax
    4484:	48 8b 48 08          	mov    0x8(%rax),%rcx
    4488:	48 8b 45 c0          	mov    -0x40(%rbp),%rax
    448c:	48 c1 e0 03          	shl    $0x3,%rax
    4490:	48 01 c8             	add    %rcx,%rax
    4493:	48 8b 00             	mov    (%rax),%rax
    4496:	be 00 00 00 00       	mov    $0x0,%esi
    449b:	48 89 c7             	mov    %rax,%rdi
    449e:	e8 ad f0 ff ff       	call   3550 <memset@plt>
/home/tenebris/Documents/RootCauseAnalysis/evaluation/test_bin/libzip/libzip-1.2.0/src/source_hole.c:392
    44a3:	48 8b 55 a0          	mov    -0x60(%rbp),%rdx
    44a7:	48 8b 45 c8          	mov    -0x38(%rbp),%rax
    44ab:	48 8d 34 02          	lea    (%rdx,%rax,1),%rsi
    44af:	48 8b 45 a8          	mov    -0x58(%rbp),%rax
    44b3:	48 8b 50 08          	mov    0x8(%rax),%rdx
    44b7:	48 8b 45 c0          	mov    -0x40(%rbp),%rax
    44bb:	48 c1 e0 03          	shl    $0x3,%rax
    44bf:	48 01 d0             	add    %rdx,%rax
    44c2:	48 8b 10             	mov    (%rax),%rdx
    44c5:	48 8b 45 d0          	mov    -0x30(%rbp),%rax
    44c9:	48 8d 0c 02          	lea    (%rdx,%rax,1),%rcx
    44cd:	48 8b 45 e8          	mov    -0x18(%rbp),%rax
    44d1:	48 89 c2             	mov    %rax,%rdx
    44d4:	48 89 cf             	mov    %rcx,%rdi
    44d7:	e8 44 f1 ff ff       	call   3620 <memcpy@plt>
/home/tenebris/Documents/RootCauseAnalysis/evaluation/test_bin/libzip/libzip-1.2.0/src/source_hole.c:394
    44dc:	48 8b 45 e8          	mov    -0x18(%rbp),%rax
    44e0:	48 01 45 c8          	add    %rax,-0x38(%rbp)
/home/tenebris/Documents/RootCauseAnalysis/evaluation/test_bin/libzip/libzip-1.2.0/src/source_hole.c:395
    44e4:	48 83 45 c0 01       	addq   $0x1,-0x40(%rbp)
/home/tenebris/Documents/RootCauseAnalysis/evaluation/test_bin/libzip/libzip-1.2.0/src/source_hole.c:396
    44e9:	48 c7 45 d0 00 00 00 	movq   $0x0,-0x30(%rbp)
    44f0:	00 
/home/tenebris/Documents/RootCauseAnalysis/evaluation/test_bin/libzip/libzip-1.2.0/src/source_hole.c:382
    44f1:	48 8b 45 c8          	mov    -0x38(%rbp),%rax
    44f5:	48 3b 45 98          	cmp    -0x68(%rbp),%rax
    44f9:	0f 82 ee fe ff ff    	jb     43ed <buffer_write+0x1a0>
/home/tenebris/Documents/RootCauseAnalysis/evaluation/test_bin/libzip/libzip-1.2.0/src/source_hole.c:400
    44ff:	48 8b 45 a8          	mov    -0x58(%rbp),%rax
    4503:	48 8b 50 20          	mov    0x20(%rax),%rdx
    4507:	48 8b 45 98          	mov    -0x68(%rbp),%rax
    450b:	48 01 c2             	add    %rax,%rdx
    450e:	48 8b 45 a8          	mov    -0x58(%rbp),%rax
    4512:	48 89 50 20          	mov    %rdx,0x20(%rax)
/home/tenebris/Documents/RootCauseAnalysis/evaluation/test_bin/libzip/libzip-1.2.0/src/source_hole.c:401
    4516:	48 8b 45 a8          	mov    -0x58(%rbp),%rax
    451a:	48 8b 50 20          	mov    0x20(%rax),%rdx
    451e:	48 8b 45 a8          	mov    -0x58(%rbp),%rax
    4522:	48 8b 40 18          	mov    0x18(%rax),%rax
    4526:	48 39 c2             	cmp    %rax,%rdx
    4529:	76 10                	jbe    453b <buffer_write+0x2ee>
/home/tenebris/Documents/RootCauseAnalysis/evaluation/test_bin/libzip/libzip-1.2.0/src/source_hole.c:402
    452b:	48 8b 45 a8          	mov    -0x58(%rbp),%rax
    452f:	48 8b 50 20          	mov    0x20(%rax),%rdx
    4533:	48 8b 45 a8          	mov    -0x58(%rbp),%rax
    4537:	48 89 50 18          	mov    %rdx,0x18(%rax)
/home/tenebris/Documents/RootCauseAnalysis/evaluation/test_bin/libzip/libzip-1.2.0/src/source_hole.c:405
    453b:	48 8b 45 98          	mov    -0x68(%rbp),%rax
/home/tenebris/Documents/RootCauseAnalysis/evaluation/test_bin/libzip/libzip-1.2.0/src/source_hole.c:406
    453f:	48 8b 5d f8          	mov    -0x8(%rbp),%rbx
    4543:	c9                   	leave  
    4544:	c3                   	ret    

0000000000004545 <get_u64>:
get_u64():
/home/tenebris/Documents/RootCauseAnalysis/evaluation/test_bin/libzip/libzip-1.2.0/src/source_hole.c:411
    4545:	f3 0f 1e fa          	endbr64 
    4549:	55                   	push   %rbp
    454a:	48 89 e5             	mov    %rsp,%rbp
    454d:	48 89 7d e8          	mov    %rdi,-0x18(%rbp)
/home/tenebris/Documents/RootCauseAnalysis/evaluation/test_bin/libzip/libzip-1.2.0/src/source_hole.c:414
    4551:	48 8b 45 e8          	mov    -0x18(%rbp),%rax
    4555:	0f b6 00             	movzbl (%rax),%eax
    4558:	0f b6 c0             	movzbl %al,%eax
    455b:	48 c1 e0 38          	shl    $0x38,%rax
    455f:	48 89 c2             	mov    %rax,%rdx
    4562:	48 8b 45 e8          	mov    -0x18(%rbp),%rax
    4566:	48 83 c0 01          	add    $0x1,%rax
    456a:	0f b6 00             	movzbl (%rax),%eax
    456d:	0f b6 c0             	movzbl %al,%eax
    4570:	48 c1 e0 30          	shl    $0x30,%rax
    4574:	48 09 c2             	or     %rax,%rdx
    4577:	48 8b 45 e8          	mov    -0x18(%rbp),%rax
    457b:	48 83 c0 02          	add    $0x2,%rax
    457f:	0f b6 00             	movzbl (%rax),%eax
    4582:	0f b6 c0             	movzbl %al,%eax
    4585:	48 c1 e0 28          	shl    $0x28,%rax
    4589:	48 09 c2             	or     %rax,%rdx
    458c:	48 8b 45 e8          	mov    -0x18(%rbp),%rax
    4590:	48 83 c0 03          	add    $0x3,%rax
    4594:	0f b6 00             	movzbl (%rax),%eax
    4597:	0f b6 c0             	movzbl %al,%eax
    459a:	48 c1 e0 20          	shl    $0x20,%rax
    459e:	48 09 c2             	or     %rax,%rdx
    45a1:	48 8b 45 e8          	mov    -0x18(%rbp),%rax
    45a5:	48 83 c0 04          	add    $0x4,%rax
    45a9:	0f b6 00             	movzbl (%rax),%eax
    45ac:	0f b6 c0             	movzbl %al,%eax
    45af:	48 c1 e0 18          	shl    $0x18,%rax
    45b3:	48 09 c2             	or     %rax,%rdx
    45b6:	48 8b 45 e8          	mov    -0x18(%rbp),%rax
    45ba:	48 83 c0 05          	add    $0x5,%rax
    45be:	0f b6 00             	movzbl (%rax),%eax
    45c1:	0f b6 c0             	movzbl %al,%eax
    45c4:	48 c1 e0 10          	shl    $0x10,%rax
    45c8:	48 09 c2             	or     %rax,%rdx
    45cb:	48 8b 45 e8          	mov    -0x18(%rbp),%rax
    45cf:	48 83 c0 06          	add    $0x6,%rax
    45d3:	0f b6 00             	movzbl (%rax),%eax
    45d6:	0f b6 c0             	movzbl %al,%eax
    45d9:	48 c1 e0 08          	shl    $0x8,%rax
    45dd:	48 09 c2             	or     %rax,%rdx
    45e0:	48 8b 45 e8          	mov    -0x18(%rbp),%rax
    45e4:	48 83 c0 07          	add    $0x7,%rax
    45e8:	0f b6 00             	movzbl (%rax),%eax
    45eb:	0f b6 c0             	movzbl %al,%eax
    45ee:	48 09 d0             	or     %rdx,%rax
    45f1:	48 89 45 f8          	mov    %rax,-0x8(%rbp)
/home/tenebris/Documents/RootCauseAnalysis/evaluation/test_bin/libzip/libzip-1.2.0/src/source_hole.c:416
    45f5:	48 8b 45 f8          	mov    -0x8(%rbp),%rax
/home/tenebris/Documents/RootCauseAnalysis/evaluation/test_bin/libzip/libzip-1.2.0/src/source_hole.c:417
    45f9:	5d                   	pop    %rbp
    45fa:	c3                   	ret    

00000000000045fb <only_nul>:
only_nul():
/home/tenebris/Documents/RootCauseAnalysis/evaluation/test_bin/libzip/libzip-1.2.0/src/source_hole.c:422
    45fb:	f3 0f 1e fa          	endbr64 
    45ff:	55                   	push   %rbp
    4600:	48 89 e5             	mov    %rsp,%rbp
    4603:	48 89 7d e8          	mov    %rdi,-0x18(%rbp)
    4607:	48 89 75 e0          	mov    %rsi,-0x20(%rbp)
/home/tenebris/Documents/RootCauseAnalysis/evaluation/test_bin/libzip/libzip-1.2.0/src/source_hole.c:425
    460b:	48 c7 45 f8 00 00 00 	movq   $0x0,-0x8(%rbp)
    4612:	00 
    4613:	eb 1e                	jmp    4633 <only_nul+0x38>
/home/tenebris/Documents/RootCauseAnalysis/evaluation/test_bin/libzip/libzip-1.2.0/src/source_hole.c:426
    4615:	48 8b 55 e8          	mov    -0x18(%rbp),%rdx
    4619:	48 8b 45 f8          	mov    -0x8(%rbp),%rax
    461d:	48 01 d0             	add    %rdx,%rax
    4620:	0f b6 00             	movzbl (%rax),%eax
    4623:	84 c0                	test   %al,%al
    4625:	74 07                	je     462e <only_nul+0x33>
/home/tenebris/Documents/RootCauseAnalysis/evaluation/test_bin/libzip/libzip-1.2.0/src/source_hole.c:427
    4627:	b8 00 00 00 00       	mov    $0x0,%eax
    462c:	eb 14                	jmp    4642 <only_nul+0x47>
/home/tenebris/Documents/RootCauseAnalysis/evaluation/test_bin/libzip/libzip-1.2.0/src/source_hole.c:425 (discriminator 2)
    462e:	48 83 45 f8 01       	addq   $0x1,-0x8(%rbp)
/home/tenebris/Documents/RootCauseAnalysis/evaluation/test_bin/libzip/libzip-1.2.0/src/source_hole.c:425 (discriminator 1)
    4633:	48 8b 45 f8          	mov    -0x8(%rbp),%rax
    4637:	48 3b 45 e0          	cmp    -0x20(%rbp),%rax
    463b:	72 d8                	jb     4615 <only_nul+0x1a>
/home/tenebris/Documents/RootCauseAnalysis/evaluation/test_bin/libzip/libzip-1.2.0/src/source_hole.c:431
    463d:	b8 01 00 00 00       	mov    $0x1,%eax
/home/tenebris/Documents/RootCauseAnalysis/evaluation/test_bin/libzip/libzip-1.2.0/src/source_hole.c:432
    4642:	5d                   	pop    %rbp
    4643:	c3                   	ret    

0000000000004644 <write_nuls>:
write_nuls():
/home/tenebris/Documents/RootCauseAnalysis/evaluation/test_bin/libzip/libzip-1.2.0/src/source_hole.c:437
    4644:	f3 0f 1e fa          	endbr64 
    4648:	55                   	push   %rbp
    4649:	48 89 e5             	mov    %rsp,%rbp
    464c:	48 83 ec 10          	sub    $0x10,%rsp
    4650:	48 89 7d f8          	mov    %rdi,-0x8(%rbp)
    4654:	48 89 75 f0          	mov    %rsi,-0x10(%rbp)
/home/tenebris/Documents/RootCauseAnalysis/evaluation/test_bin/libzip/libzip-1.2.0/src/source_hole.c:438
    4658:	48 8b 45 f0          	mov    -0x10(%rbp),%rax
    465c:	48 89 c1             	mov    %rax,%rcx
    465f:	ba 01 00 00 00       	mov    $0x1,%edx
    4664:	be 04 00 00 00       	mov    $0x4,%esi
    4669:	48 8d 05 a1 c9 01 00 	lea    0x1c9a1(%rip),%rax        # 21011 <_IO_stdin_used+0x11>
    4670:	48 89 c7             	mov    %rax,%rdi
    4673:	e8 e8 f0 ff ff       	call   3760 <fwrite@plt>
    4678:	48 83 f8 01          	cmp    $0x1,%rax
    467c:	74 07                	je     4685 <write_nuls+0x41>
/home/tenebris/Documents/RootCauseAnalysis/evaluation/test_bin/libzip/libzip-1.2.0/src/source_hole.c:439
    467e:	b8 ff ff ff ff       	mov    $0xffffffff,%eax
    4683:	eb 13                	jmp    4698 <write_nuls+0x54>
/home/tenebris/Documents/RootCauseAnalysis/evaluation/test_bin/libzip/libzip-1.2.0/src/source_hole.c:441
    4685:	48 8b 55 f0          	mov    -0x10(%rbp),%rdx
    4689:	48 8b 45 f8          	mov    -0x8(%rbp),%rax
    468d:	48 89 d6             	mov    %rdx,%rsi
    4690:	48 89 c7             	mov    %rax,%rdi
    4693:	e8 02 00 00 00       	call   469a <write_u64>
/home/tenebris/Documents/RootCauseAnalysis/evaluation/test_bin/libzip/libzip-1.2.0/src/source_hole.c:442
    4698:	c9                   	leave  
    4699:	c3                   	ret    

000000000000469a <write_u64>:
write_u64():
/home/tenebris/Documents/RootCauseAnalysis/evaluation/test_bin/libzip/libzip-1.2.0/src/source_hole.c:447
    469a:	f3 0f 1e fa          	endbr64 
    469e:	55                   	push   %rbp
    469f:	48 89 e5             	mov    %rsp,%rbp
    46a2:	48 83 ec 20          	sub    $0x20,%rsp
    46a6:	48 89 7d e8          	mov    %rdi,-0x18(%rbp)
    46aa:	48 89 75 e0          	mov    %rsi,-0x20(%rbp)
    46ae:	64 48 8b 04 25 28 00 	mov    %fs:0x28,%rax
    46b5:	00 00 
    46b7:	48 89 45 f8          	mov    %rax,-0x8(%rbp)
    46bb:	31 c0                	xor    %eax,%eax
/home/tenebris/Documents/RootCauseAnalysis/evaluation/test_bin/libzip/libzip-1.2.0/src/source_hole.c:450
    46bd:	48 8b 45 e8          	mov    -0x18(%rbp),%rax
    46c1:	48 c1 e8 38          	shr    $0x38,%rax
    46c5:	88 45 f0             	mov    %al,-0x10(%rbp)
/home/tenebris/Documents/RootCauseAnalysis/evaluation/test_bin/libzip/libzip-1.2.0/src/source_hole.c:451
    46c8:	48 8b 45 e8          	mov    -0x18(%rbp),%rax
    46cc:	48 c1 e8 30          	shr    $0x30,%rax
    46d0:	88 45 f1             	mov    %al,-0xf(%rbp)
/home/tenebris/Documents/RootCauseAnalysis/evaluation/test_bin/libzip/libzip-1.2.0/src/source_hole.c:452
    46d3:	48 8b 45 e8          	mov    -0x18(%rbp),%rax
    46d7:	48 c1 e8 28          	shr    $0x28,%rax
    46db:	88 45 f2             	mov    %al,-0xe(%rbp)
/home/tenebris/Documents/RootCauseAnalysis/evaluation/test_bin/libzip/libzip-1.2.0/src/source_hole.c:453
    46de:	48 8b 45 e8          	mov    -0x18(%rbp),%rax
    46e2:	48 c1 e8 20          	shr    $0x20,%rax
    46e6:	88 45 f3             	mov    %al,-0xd(%rbp)
/home/tenebris/Documents/RootCauseAnalysis/evaluation/test_bin/libzip/libzip-1.2.0/src/source_hole.c:454
    46e9:	48 8b 45 e8          	mov    -0x18(%rbp),%rax
    46ed:	48 c1 e8 18          	shr    $0x18,%rax
    46f1:	88 45 f4             	mov    %al,-0xc(%rbp)
/home/tenebris/Documents/RootCauseAnalysis/evaluation/test_bin/libzip/libzip-1.2.0/src/source_hole.c:455
    46f4:	48 8b 45 e8          	mov    -0x18(%rbp),%rax
    46f8:	48 c1 e8 10          	shr    $0x10,%rax
    46fc:	88 45 f5             	mov    %al,-0xb(%rbp)
/home/tenebris/Documents/RootCauseAnalysis/evaluation/test_bin/libzip/libzip-1.2.0/src/source_hole.c:456
    46ff:	48 8b 45 e8          	mov    -0x18(%rbp),%rax
    4703:	48 c1 e8 08          	shr    $0x8,%rax
    4707:	88 45 f6             	mov    %al,-0xa(%rbp)
/home/tenebris/Documents/RootCauseAnalysis/evaluation/test_bin/libzip/libzip-1.2.0/src/source_hole.c:457
    470a:	48 8b 45 e8          	mov    -0x18(%rbp),%rax
    470e:	88 45 f7             	mov    %al,-0x9(%rbp)
/home/tenebris/Documents/RootCauseAnalysis/evaluation/test_bin/libzip/libzip-1.2.0/src/source_hole.c:459
    4711:	48 8b 55 e0          	mov    -0x20(%rbp),%rdx
    4715:	48 8d 45 f0          	lea    -0x10(%rbp),%rax
    4719:	48 89 d1             	mov    %rdx,%rcx
    471c:	ba 01 00 00 00       	mov    $0x1,%edx
    4721:	be 08 00 00 00       	mov    $0x8,%esi
    4726:	48 89 c7             	mov    %rax,%rdi
    4729:	e8 32 f0 ff ff       	call   3760 <fwrite@plt>
    472e:	48 83 f8 01          	cmp    $0x1,%rax
    4732:	75 07                	jne    473b <write_u64+0xa1>
/home/tenebris/Documents/RootCauseAnalysis/evaluation/test_bin/libzip/libzip-1.2.0/src/source_hole.c:459 (discriminator 1)
    4734:	b8 00 00 00 00       	mov    $0x0,%eax
    4739:	eb 05                	jmp    4740 <write_u64+0xa6>
/home/tenebris/Documents/RootCauseAnalysis/evaluation/test_bin/libzip/libzip-1.2.0/src/source_hole.c:459 (discriminator 2)
    473b:	b8 ff ff ff ff       	mov    $0xffffffff,%eax
/home/tenebris/Documents/RootCauseAnalysis/evaluation/test_bin/libzip/libzip-1.2.0/src/source_hole.c:460
    4740:	48 8b 55 f8          	mov    -0x8(%rbp),%rdx
    4744:	64 48 2b 14 25 28 00 	sub    %fs:0x28,%rdx
    474b:	00 00 
    474d:	74 05                	je     4754 <write_u64+0xba>
    474f:	e8 8c ed ff ff       	call   34e0 <__stack_chk_fail@plt>
    4754:	c9                   	leave  
    4755:	c3                   	ret    

0000000000004756 <hole_free>:
hole_free():
/home/tenebris/Documents/RootCauseAnalysis/evaluation/test_bin/libzip/libzip-1.2.0/src/source_hole.c:464
    4756:	f3 0f 1e fa          	endbr64 
    475a:	55                   	push   %rbp
    475b:	48 89 e5             	mov    %rsp,%rbp
    475e:	48 83 ec 10          	sub    $0x10,%rsp
    4762:	48 89 7d f8          	mov    %rdi,-0x8(%rbp)
/home/tenebris/Documents/RootCauseAnalysis/evaluation/test_bin/libzip/libzip-1.2.0/src/source_hole.c:465
    4766:	48 83 7d f8 00       	cmpq   $0x0,-0x8(%rbp)
    476b:	74 4a                	je     47b7 <hole_free+0x61>
/home/tenebris/Documents/RootCauseAnalysis/evaluation/test_bin/libzip/libzip-1.2.0/src/source_hole.c:468
    476d:	48 8b 45 f8          	mov    -0x8(%rbp),%rax
    4771:	48 89 c7             	mov    %rax,%rdi
    4774:	e8 33 81 00 00       	call   c8ac <zip_error_fini>
/home/tenebris/Documents/RootCauseAnalysis/evaluation/test_bin/libzip/libzip-1.2.0/src/source_hole.c:469
    4779:	48 8b 45 f8          	mov    -0x8(%rbp),%rax
    477d:	48 8b 40 18          	mov    0x18(%rax),%rax
    4781:	48 89 c7             	mov    %rax,%rdi
    4784:	e8 4a f1 ff ff       	call   38d3 <buffer_free>
/home/tenebris/Documents/RootCauseAnalysis/evaluation/test_bin/libzip/libzip-1.2.0/src/source_hole.c:470
    4789:	48 8b 45 f8          	mov    -0x8(%rbp),%rax
    478d:	48 8b 40 20          	mov    0x20(%rax),%rax
    4791:	48 89 c7             	mov    %rax,%rdi
    4794:	e8 3a f1 ff ff       	call   38d3 <buffer_free>
/home/tenebris/Documents/RootCauseAnalysis/evaluation/test_bin/libzip/libzip-1.2.0/src/source_hole.c:471
    4799:	48 8b 45 f8          	mov    -0x8(%rbp),%rax
    479d:	48 8b 40 10          	mov    0x10(%rax),%rax
    47a1:	48 89 c7             	mov    %rax,%rdi
    47a4:	e8 47 ec ff ff       	call   33f0 <free@plt>
/home/tenebris/Documents/RootCauseAnalysis/evaluation/test_bin/libzip/libzip-1.2.0/src/source_hole.c:472
    47a9:	48 8b 45 f8          	mov    -0x8(%rbp),%rax
    47ad:	48 89 c7             	mov    %rax,%rdi
    47b0:	e8 3b ec ff ff       	call   33f0 <free@plt>
    47b5:	eb 01                	jmp    47b8 <hole_free+0x62>
/home/tenebris/Documents/RootCauseAnalysis/evaluation/test_bin/libzip/libzip-1.2.0/src/source_hole.c:466
    47b7:	90                   	nop
/home/tenebris/Documents/RootCauseAnalysis/evaluation/test_bin/libzip/libzip-1.2.0/src/source_hole.c:473
    47b8:	c9                   	leave  
    47b9:	c3                   	ret    

00000000000047ba <hole_new>:
hole_new():
/home/tenebris/Documents/RootCauseAnalysis/evaluation/test_bin/libzip/libzip-1.2.0/src/source_hole.c:478
    47ba:	f3 0f 1e fa          	endbr64 
    47be:	55                   	push   %rbp
    47bf:	48 89 e5             	mov    %rsp,%rbp
    47c2:	48 83 ec 30          	sub    $0x30,%rsp
    47c6:	48 89 7d e8          	mov    %rdi,-0x18(%rbp)
    47ca:	89 75 e4             	mov    %esi,-0x1c(%rbp)
    47cd:	48 89 55 d8          	mov    %rdx,-0x28(%rbp)
/home/tenebris/Documents/RootCauseAnalysis/evaluation/test_bin/libzip/libzip-1.2.0/src/source_hole.c:479
    47d1:	bf 28 00 00 00       	mov    $0x28,%edi
    47d6:	e8 75 ee ff ff       	call   3650 <malloc@plt>
    47db:	48 89 45 f8          	mov    %rax,-0x8(%rbp)
/home/tenebris/Documents/RootCauseAnalysis/evaluation/test_bin/libzip/libzip-1.2.0/src/source_hole.c:481
    47df:	48 83 7d f8 00       	cmpq   $0x0,-0x8(%rbp)
    47e4:	75 20                	jne    4806 <hole_new+0x4c>
/home/tenebris/Documents/RootCauseAnalysis/evaluation/test_bin/libzip/libzip-1.2.0/src/source_hole.c:482
    47e6:	48 8b 45 d8          	mov    -0x28(%rbp),%rax
    47ea:	ba 00 00 00 00       	mov    $0x0,%edx
    47ef:	be 0e 00 00 00       	mov    $0xe,%esi
    47f4:	48 89 c7             	mov    %rax,%rdi
    47f7:	e8 68 82 00 00       	call   ca64 <zip_error_set>
/home/tenebris/Documents/RootCauseAnalysis/evaluation/test_bin/libzip/libzip-1.2.0/src/source_hole.c:483
    47fc:	b8 00 00 00 00       	mov    $0x0,%eax
    4801:	e9 a6 00 00 00       	jmp    48ac <hole_new+0xf2>
/home/tenebris/Documents/RootCauseAnalysis/evaluation/test_bin/libzip/libzip-1.2.0/src/source_hole.c:486
    4806:	48 8b 45 e8          	mov    -0x18(%rbp),%rax
    480a:	48 89 c7             	mov    %rax,%rdi
    480d:	e8 5e ef ff ff       	call   3770 <strdup@plt>
    4812:	48 89 c2             	mov    %rax,%rdx
    4815:	48 8b 45 f8          	mov    -0x8(%rbp),%rax
    4819:	48 89 50 10          	mov    %rdx,0x10(%rax)
    481d:	48 8b 45 f8          	mov    -0x8(%rbp),%rax
    4821:	48 8b 40 10          	mov    0x10(%rax),%rax
    4825:	48 85 c0             	test   %rax,%rax
    4828:	75 29                	jne    4853 <hole_new+0x99>
/home/tenebris/Documents/RootCauseAnalysis/evaluation/test_bin/libzip/libzip-1.2.0/src/source_hole.c:487
    482a:	48 8b 45 f8          	mov    -0x8(%rbp),%rax
    482e:	48 89 c7             	mov    %rax,%rdi
    4831:	e8 ba eb ff ff       	call   33f0 <free@plt>
/home/tenebris/Documents/RootCauseAnalysis/evaluation/test_bin/libzip/libzip-1.2.0/src/source_hole.c:488
    4836:	48 8b 45 d8          	mov    -0x28(%rbp),%rax
    483a:	ba 00 00 00 00       	mov    $0x0,%edx
    483f:	be 0e 00 00 00       	mov    $0xe,%esi
    4844:	48 89 c7             	mov    %rax,%rdi
    4847:	e8 18 82 00 00       	call   ca64 <zip_error_set>
/home/tenebris/Documents/RootCauseAnalysis/evaluation/test_bin/libzip/libzip-1.2.0/src/source_hole.c:489
    484c:	b8 00 00 00 00       	mov    $0x0,%eax
    4851:	eb 59                	jmp    48ac <hole_new+0xf2>
/home/tenebris/Documents/RootCauseAnalysis/evaluation/test_bin/libzip/libzip-1.2.0/src/source_hole.c:492
    4853:	48 8b 55 d8          	mov    -0x28(%rbp),%rdx
    4857:	8b 4d e4             	mov    -0x1c(%rbp),%ecx
    485a:	48 8b 45 e8          	mov    -0x18(%rbp),%rax
    485e:	89 ce                	mov    %ecx,%esi
    4860:	48 89 c7             	mov    %rax,%rdi
    4863:	e8 eb f0 ff ff       	call   3953 <buffer_from_file>
    4868:	48 8b 55 f8          	mov    -0x8(%rbp),%rdx
    486c:	48 89 42 18          	mov    %rax,0x18(%rdx)
    4870:	48 8b 45 f8          	mov    -0x8(%rbp),%rax
    4874:	48 8b 40 18          	mov    0x18(%rax),%rax
    4878:	48 85 c0             	test   %rax,%rax
    487b:	75 13                	jne    4890 <hole_new+0xd6>
/home/tenebris/Documents/RootCauseAnalysis/evaluation/test_bin/libzip/libzip-1.2.0/src/source_hole.c:493
    487d:	48 8b 45 f8          	mov    -0x8(%rbp),%rax
    4881:	48 89 c7             	mov    %rax,%rdi
    4884:	e8 67 eb ff ff       	call   33f0 <free@plt>
/home/tenebris/Documents/RootCauseAnalysis/evaluation/test_bin/libzip/libzip-1.2.0/src/source_hole.c:494
    4889:	b8 00 00 00 00       	mov    $0x0,%eax
    488e:	eb 1c                	jmp    48ac <hole_new+0xf2>
/home/tenebris/Documents/RootCauseAnalysis/evaluation/test_bin/libzip/libzip-1.2.0/src/source_hole.c:497
    4890:	48 8b 45 f8          	mov    -0x8(%rbp),%rax
    4894:	48 89 c7             	mov    %rax,%rdi
    4897:	e8 3f 80 00 00       	call   c8db <zip_error_init>
/home/tenebris/Documents/RootCauseAnalysis/evaluation/test_bin/libzip/libzip-1.2.0/src/source_hole.c:498
    489c:	48 8b 45 f8          	mov    -0x8(%rbp),%rax
    48a0:	48 c7 40 20 00 00 00 	movq   $0x0,0x20(%rax)
    48a7:	00 
/home/tenebris/Documents/RootCauseAnalysis/evaluation/test_bin/libzip/libzip-1.2.0/src/source_hole.c:500
    48a8:	48 8b 45 f8          	mov    -0x8(%rbp),%rax
/home/tenebris/Documents/RootCauseAnalysis/evaluation/test_bin/libzip/libzip-1.2.0/src/source_hole.c:501
    48ac:	c9                   	leave  
    48ad:	c3                   	ret    

00000000000048ae <source_hole_cb>:
source_hole_cb():
/home/tenebris/Documents/RootCauseAnalysis/evaluation/test_bin/libzip/libzip-1.2.0/src/source_hole.c:506
    48ae:	f3 0f 1e fa          	endbr64 
    48b2:	55                   	push   %rbp
    48b3:	48 89 e5             	mov    %rsp,%rbp
    48b6:	48 83 ec 30          	sub    $0x30,%rsp
    48ba:	48 89 7d e8          	mov    %rdi,-0x18(%rbp)
    48be:	48 89 75 e0          	mov    %rsi,-0x20(%rbp)
    48c2:	48 89 55 d8          	mov    %rdx,-0x28(%rbp)
    48c6:	89 4d d4             	mov    %ecx,-0x2c(%rbp)
/home/tenebris/Documents/RootCauseAnalysis/evaluation/test_bin/libzip/libzip-1.2.0/src/source_hole.c:507
    48c9:	48 8b 45 e8          	mov    -0x18(%rbp),%rax
    48cd:	48 89 45 f0          	mov    %rax,-0x10(%rbp)
/home/tenebris/Documents/RootCauseAnalysis/evaluation/test_bin/libzip/libzip-1.2.0/src/source_hole.c:509
    48d1:	83 7d d4 0f          	cmpl   $0xf,-0x2c(%rbp)
    48d5:	0f 87 c5 02 00 00    	ja     4ba0 <source_hole_cb+0x2f2>
    48db:	8b 45 d4             	mov    -0x2c(%rbp),%eax
    48de:	48 8d 14 85 00 00 00 	lea    0x0(,%rax,4),%rdx
    48e5:	00 
    48e6:	48 8d 05 2f c7 01 00 	lea    0x1c72f(%rip),%rax        # 2101c <_IO_stdin_used+0x1c>
    48ed:	8b 04 02             	mov    (%rdx,%rax,1),%eax
    48f0:	48 98                	cltq   
    48f2:	48 8d 15 23 c7 01 00 	lea    0x1c723(%rip),%rdx        # 2101c <_IO_stdin_used+0x1c>
    48f9:	48 01 d0             	add    %rdx,%rax
    48fc:	3e ff e0             	notrack jmp *%rax
/home/tenebris/Documents/RootCauseAnalysis/evaluation/test_bin/libzip/libzip-1.2.0/src/source_hole.c:511
    48ff:	e8 3a f1 ff ff       	call   3a3e <buffer_new>
    4904:	48 8b 55 f0          	mov    -0x10(%rbp),%rdx
    4908:	48 89 42 20          	mov    %rax,0x20(%rdx)
/home/tenebris/Documents/RootCauseAnalysis/evaluation/test_bin/libzip/libzip-1.2.0/src/source_hole.c:512
    490c:	b8 00 00 00 00       	mov    $0x0,%eax
    4911:	e9 a7 02 00 00       	jmp    4bbd <source_hole_cb+0x30f>
/home/tenebris/Documents/RootCauseAnalysis/evaluation/test_bin/libzip/libzip-1.2.0/src/source_hole.c:515
    4916:	b8 00 00 00 00       	mov    $0x0,%eax
    491b:	e9 9d 02 00 00       	jmp    4bbd <source_hole_cb+0x30f>
/home/tenebris/Documents/RootCauseAnalysis/evaluation/test_bin/libzip/libzip-1.2.0/src/source_hole.c:518
    4920:	48 8b 55 f0          	mov    -0x10(%rbp),%rdx
    4924:	48 8b 45 f0          	mov    -0x10(%rbp),%rax
    4928:	48 8b 48 10          	mov    0x10(%rax),%rcx
    492c:	48 8b 45 f0          	mov    -0x10(%rbp),%rax
    4930:	48 8b 40 20          	mov    0x20(%rax),%rax
    4934:	48 89 ce             	mov    %rcx,%rsi
    4937:	48 89 c7             	mov    %rax,%rdi
    493a:	e8 1e f7 ff ff       	call   405d <buffer_to_file>
    493f:	85 c0                	test   %eax,%eax
    4941:	79 0c                	jns    494f <source_hole_cb+0xa1>
/home/tenebris/Documents/RootCauseAnalysis/evaluation/test_bin/libzip/libzip-1.2.0/src/source_hole.c:519
    4943:	48 c7 c0 ff ff ff ff 	mov    $0xffffffffffffffff,%rax
    494a:	e9 6e 02 00 00       	jmp    4bbd <source_hole_cb+0x30f>
/home/tenebris/Documents/RootCauseAnalysis/evaluation/test_bin/libzip/libzip-1.2.0/src/source_hole.c:521
    494f:	48 8b 45 f0          	mov    -0x10(%rbp),%rax
    4953:	48 8b 40 18          	mov    0x18(%rax),%rax
    4957:	48 89 c7             	mov    %rax,%rdi
    495a:	e8 74 ef ff ff       	call   38d3 <buffer_free>
/home/tenebris/Documents/RootCauseAnalysis/evaluation/test_bin/libzip/libzip-1.2.0/src/source_hole.c:522
    495f:	48 8b 45 f0          	mov    -0x10(%rbp),%rax
    4963:	48 8b 50 20          	mov    0x20(%rax),%rdx
    4967:	48 8b 45 f0          	mov    -0x10(%rbp),%rax
    496b:	48 89 50 18          	mov    %rdx,0x18(%rax)
/home/tenebris/Documents/RootCauseAnalysis/evaluation/test_bin/libzip/libzip-1.2.0/src/source_hole.c:523
    496f:	48 8b 45 f0          	mov    -0x10(%rbp),%rax
    4973:	48 c7 40 20 00 00 00 	movq   $0x0,0x20(%rax)
    497a:	00 
/home/tenebris/Documents/RootCauseAnalysis/evaluation/test_bin/libzip/libzip-1.2.0/src/source_hole.c:524
    497b:	b8 00 00 00 00       	mov    $0x0,%eax
    4980:	e9 38 02 00 00       	jmp    4bbd <source_hole_cb+0x30f>
/home/tenebris/Documents/RootCauseAnalysis/evaluation/test_bin/libzip/libzip-1.2.0/src/source_hole.c:527
    4985:	48 8b 45 f0          	mov    -0x10(%rbp),%rax
    4989:	48 8b 55 d8          	mov    -0x28(%rbp),%rdx
    498d:	48 8b 4d e0          	mov    -0x20(%rbp),%rcx
    4991:	48 89 ce             	mov    %rcx,%rsi
    4994:	48 89 c7             	mov    %rax,%rdi
    4997:	e8 2c 81 00 00       	call   cac8 <zip_error_to_data>
    499c:	e9 1c 02 00 00       	jmp    4bbd <source_hole_cb+0x30f>
/home/tenebris/Documents/RootCauseAnalysis/evaluation/test_bin/libzip/libzip-1.2.0/src/source_hole.c:530
    49a1:	48 8b 45 f0          	mov    -0x10(%rbp),%rax
    49a5:	48 89 c7             	mov    %rax,%rdi
    49a8:	e8 a9 fd ff ff       	call   4756 <hole_free>
/home/tenebris/Documents/RootCauseAnalysis/evaluation/test_bin/libzip/libzip-1.2.0/src/source_hole.c:531
    49ad:	b8 00 00 00 00       	mov    $0x0,%eax
    49b2:	e9 06 02 00 00       	jmp    4bbd <source_hole_cb+0x30f>
/home/tenebris/Documents/RootCauseAnalysis/evaluation/test_bin/libzip/libzip-1.2.0/src/source_hole.c:534
    49b7:	48 8b 45 f0          	mov    -0x10(%rbp),%rax
    49bb:	48 8b 40 18          	mov    0x18(%rax),%rax
    49bf:	48 c7 40 20 00 00 00 	movq   $0x0,0x20(%rax)
    49c6:	00 
/home/tenebris/Documents/RootCauseAnalysis/evaluation/test_bin/libzip/libzip-1.2.0/src/source_hole.c:535
    49c7:	b8 00 00 00 00       	mov    $0x0,%eax
    49cc:	e9 ec 01 00 00       	jmp    4bbd <source_hole_cb+0x30f>
/home/tenebris/Documents/RootCauseAnalysis/evaluation/test_bin/libzip/libzip-1.2.0/src/source_hole.c:538
    49d1:	48 8b 4d f0          	mov    -0x10(%rbp),%rcx
    49d5:	48 8b 45 f0          	mov    -0x10(%rbp),%rax
    49d9:	48 8b 40 18          	mov    0x18(%rax),%rax
    49dd:	48 8b 55 d8          	mov    -0x28(%rbp),%rdx
    49e1:	48 8b 75 e0          	mov    -0x20(%rbp),%rsi
    49e5:	48 89 c7             	mov    %rax,%rdi
    49e8:	e8 ba f0 ff ff       	call   3aa7 <buffer_read>
    49ed:	e9 cb 01 00 00       	jmp    4bbd <source_hole_cb+0x30f>
/home/tenebris/Documents/RootCauseAnalysis/evaluation/test_bin/libzip/libzip-1.2.0/src/source_hole.c:541
    49f2:	48 8b 45 f0          	mov    -0x10(%rbp),%rax
    49f6:	48 8b 40 18          	mov    0x18(%rax),%rax
    49fa:	48 89 c7             	mov    %rax,%rdi
    49fd:	e8 d1 ee ff ff       	call   38d3 <buffer_free>
/home/tenebris/Documents/RootCauseAnalysis/evaluation/test_bin/libzip/libzip-1.2.0/src/source_hole.c:542
    4a02:	e8 37 f0 ff ff       	call   3a3e <buffer_new>
    4a07:	48 8b 55 f0          	mov    -0x10(%rbp),%rdx
    4a0b:	48 89 42 18          	mov    %rax,0x18(%rdx)
/home/tenebris/Documents/RootCauseAnalysis/evaluation/test_bin/libzip/libzip-1.2.0/src/source_hole.c:543
    4a0f:	48 8b 45 f0          	mov    -0x10(%rbp),%rax
    4a13:	48 8b 40 20          	mov    0x20(%rax),%rax
    4a17:	48 89 c7             	mov    %rax,%rdi
    4a1a:	e8 b4 ee ff ff       	call   38d3 <buffer_free>
/home/tenebris/Documents/RootCauseAnalysis/evaluation/test_bin/libzip/libzip-1.2.0/src/source_hole.c:544
    4a1f:	48 8b 45 f0          	mov    -0x10(%rbp),%rax
    4a23:	48 c7 40 20 00 00 00 	movq   $0x0,0x20(%rax)
    4a2a:	00 
/home/tenebris/Documents/RootCauseAnalysis/evaluation/test_bin/libzip/libzip-1.2.0/src/source_hole.c:545
    4a2b:	48 8b 45 f0          	mov    -0x10(%rbp),%rax
    4a2f:	48 8b 40 10          	mov    0x10(%rax),%rax
    4a33:	48 89 c7             	mov    %rax,%rdi
    4a36:	e8 05 ea ff ff       	call   3440 <remove@plt>
/home/tenebris/Documents/RootCauseAnalysis/evaluation/test_bin/libzip/libzip-1.2.0/src/source_hole.c:546
    4a3b:	b8 00 00 00 00       	mov    $0x0,%eax
    4a40:	e9 78 01 00 00       	jmp    4bbd <source_hole_cb+0x30f>
/home/tenebris/Documents/RootCauseAnalysis/evaluation/test_bin/libzip/libzip-1.2.0/src/source_hole.c:549
    4a45:	48 8b 45 f0          	mov    -0x10(%rbp),%rax
    4a49:	48 8b 40 20          	mov    0x20(%rax),%rax
    4a4d:	48 89 c7             	mov    %rax,%rdi
    4a50:	e8 7e ee ff ff       	call   38d3 <buffer_free>
/home/tenebris/Documents/RootCauseAnalysis/evaluation/test_bin/libzip/libzip-1.2.0/src/source_hole.c:550
    4a55:	48 8b 45 f0          	mov    -0x10(%rbp),%rax
    4a59:	48 c7 40 20 00 00 00 	movq   $0x0,0x20(%rax)
    4a60:	00 
/home/tenebris/Documents/RootCauseAnalysis/evaluation/test_bin/libzip/libzip-1.2.0/src/source_hole.c:551
    4a61:	b8 00 00 00 00       	mov    $0x0,%eax
    4a66:	e9 52 01 00 00       	jmp    4bbd <source_hole_cb+0x30f>
/home/tenebris/Documents/RootCauseAnalysis/evaluation/test_bin/libzip/libzip-1.2.0/src/source_hole.c:554
    4a6b:	48 8b 4d f0          	mov    -0x10(%rbp),%rcx
    4a6f:	48 8b 45 f0          	mov    -0x10(%rbp),%rax
    4a73:	48 8b 40 18          	mov    0x18(%rax),%rax
    4a77:	48 8b 55 d8          	mov    -0x28(%rbp),%rdx
    4a7b:	48 8b 75 e0          	mov    -0x20(%rbp),%rsi
    4a7f:	48 89 c7             	mov    %rax,%rdi
    4a82:	e8 6c f5 ff ff       	call   3ff3 <buffer_seek>
    4a87:	e9 31 01 00 00       	jmp    4bbd <source_hole_cb+0x30f>
/home/tenebris/Documents/RootCauseAnalysis/evaluation/test_bin/libzip/libzip-1.2.0/src/source_hole.c:557
    4a8c:	48 8b 4d f0          	mov    -0x10(%rbp),%rcx
    4a90:	48 8b 45 f0          	mov    -0x10(%rbp),%rax
    4a94:	48 8b 40 20          	mov    0x20(%rax),%rax
    4a98:	48 8b 55 d8          	mov    -0x28(%rbp),%rdx
    4a9c:	48 8b 75 e0          	mov    -0x20(%rbp),%rsi
    4aa0:	48 89 c7             	mov    %rax,%rdi
    4aa3:	e8 4b f5 ff ff       	call   3ff3 <buffer_seek>
    4aa8:	e9 10 01 00 00       	jmp    4bbd <source_hole_cb+0x30f>
/home/tenebris/Documents/RootCauseAnalysis/evaluation/test_bin/libzip/libzip-1.2.0/src/source_hole.c:560
    4aad:	48 83 7d d8 3f       	cmpq   $0x3f,-0x28(%rbp)
    4ab2:	77 1d                	ja     4ad1 <source_hole_cb+0x223>
/home/tenebris/Documents/RootCauseAnalysis/evaluation/test_bin/libzip/libzip-1.2.0/src/source_hole.c:560 (discriminator 1)
    4ab4:	48 8b 45 f0          	mov    -0x10(%rbp),%rax
    4ab8:	ba 00 00 00 00       	mov    $0x0,%edx
    4abd:	be 12 00 00 00       	mov    $0x12,%esi
    4ac2:	48 89 c7             	mov    %rax,%rdi
    4ac5:	e8 9a 7f 00 00       	call   ca64 <zip_error_set>
    4aca:	b8 00 00 00 00       	mov    $0x0,%eax
    4acf:	eb 04                	jmp    4ad5 <source_hole_cb+0x227>
/home/tenebris/Documents/RootCauseAnalysis/evaluation/test_bin/libzip/libzip-1.2.0/src/source_hole.c:560 (discriminator 2)
    4ad1:	48 8b 45 e0          	mov    -0x20(%rbp),%rax
/home/tenebris/Documents/RootCauseAnalysis/evaluation/test_bin/libzip/libzip-1.2.0/src/source_hole.c:560 (discriminator 4)
    4ad5:	48 89 45 f8          	mov    %rax,-0x8(%rbp)
/home/tenebris/Documents/RootCauseAnalysis/evaluation/test_bin/libzip/libzip-1.2.0/src/source_hole.c:562 (discriminator 4)
    4ad9:	48 83 7d f8 00       	cmpq   $0x0,-0x8(%rbp)
    4ade:	75 0c                	jne    4aec <source_hole_cb+0x23e>
/home/tenebris/Documents/RootCauseAnalysis/evaluation/test_bin/libzip/libzip-1.2.0/src/source_hole.c:563
    4ae0:	48 c7 c0 ff ff ff ff 	mov    $0xffffffffffffffff,%rax
    4ae7:	e9 d1 00 00 00       	jmp    4bbd <source_hole_cb+0x30f>
/home/tenebris/Documents/RootCauseAnalysis/evaluation/test_bin/libzip/libzip-1.2.0/src/source_hole.c:568
    4aec:	48 8b 45 f8          	mov    -0x8(%rbp),%rax
    4af0:	48 8b 00             	mov    (%rax),%rax
    4af3:	48 83 c8 04          	or     $0x4,%rax
    4af7:	48 89 c2             	mov    %rax,%rdx
    4afa:	48 8b 45 f8          	mov    -0x8(%rbp),%rax
    4afe:	48 89 10             	mov    %rdx,(%rax)
/home/tenebris/Documents/RootCauseAnalysis/evaluation/test_bin/libzip/libzip-1.2.0/src/source_hole.c:569
    4b01:	48 8b 45 f0          	mov    -0x10(%rbp),%rax
    4b05:	48 8b 40 18          	mov    0x18(%rax),%rax
    4b09:	48 8b 50 18          	mov    0x18(%rax),%rdx
    4b0d:	48 8b 45 f8          	mov    -0x8(%rbp),%rax
    4b11:	48 89 50 18          	mov    %rdx,0x18(%rax)
/home/tenebris/Documents/RootCauseAnalysis/evaluation/test_bin/libzip/libzip-1.2.0/src/source_hole.c:570
    4b15:	b8 00 00 00 00       	mov    $0x0,%eax
    4b1a:	e9 9e 00 00 00       	jmp    4bbd <source_hole_cb+0x30f>
/home/tenebris/Documents/RootCauseAnalysis/evaluation/test_bin/libzip/libzip-1.2.0/src/source_hole.c:574
    4b1f:	48 8b 45 f0          	mov    -0x10(%rbp),%rax
    4b23:	48 8b 40 18          	mov    0x18(%rax),%rax
    4b27:	48 8b 40 20          	mov    0x20(%rax),%rax
    4b2b:	e9 8d 00 00 00       	jmp    4bbd <source_hole_cb+0x30f>
/home/tenebris/Documents/RootCauseAnalysis/evaluation/test_bin/libzip/libzip-1.2.0/src/source_hole.c:577
    4b30:	48 8b 45 f0          	mov    -0x10(%rbp),%rax
    4b34:	48 8b 40 20          	mov    0x20(%rax),%rax
    4b38:	48 8b 40 20          	mov    0x20(%rax),%rax
    4b3c:	eb 7f                	jmp    4bbd <source_hole_cb+0x30f>
/home/tenebris/Documents/RootCauseAnalysis/evaluation/test_bin/libzip/libzip-1.2.0/src/source_hole.c:580
    4b3e:	48 8b 4d f0          	mov    -0x10(%rbp),%rcx
    4b42:	48 8b 45 f0          	mov    -0x10(%rbp),%rax
    4b46:	48 8b 40 20          	mov    0x20(%rax),%rax
    4b4a:	48 8b 55 d8          	mov    -0x28(%rbp),%rdx
    4b4e:	48 8b 75 e0          	mov    -0x20(%rbp),%rsi
    4b52:	48 89 c7             	mov    %rax,%rdi
    4b55:	e8 f3 f6 ff ff       	call   424d <buffer_write>
    4b5a:	eb 61                	jmp    4bbd <source_hole_cb+0x30f>
/home/tenebris/Documents/RootCauseAnalysis/evaluation/test_bin/libzip/libzip-1.2.0/src/source_hole.c:583
    4b5c:	6a ff                	push   $0xffffffffffffffff
    4b5e:	6a 0b                	push   $0xb
    4b60:	6a 0d                	push   $0xd
    4b62:	6a 07                	push   $0x7
    4b64:	6a 03                	push   $0x3
    4b66:	6a 0c                	push   $0xc
    4b68:	6a 06                	push   $0x6
    4b6a:	6a 0a                	push   $0xa
    4b6c:	6a 0f                	push   $0xf
    4b6e:	6a 01                	push   $0x1
    4b70:	41 b9 00 00 00 00    	mov    $0x0,%r9d
    4b76:	41 b8 05 00 00 00    	mov    $0x5,%r8d
    4b7c:	b9 04 00 00 00       	mov    $0x4,%ecx
    4b81:	ba 02 00 00 00       	mov    $0x2,%edx
    4b86:	be 09 00 00 00       	mov    $0x9,%esi
    4b8b:	bf 08 00 00 00       	mov    $0x8,%edi
    4b90:	b8 00 00 00 00       	mov    $0x0,%eax
    4b95:	e8 97 28 01 00       	call   17431 <zip_source_make_command_bitmap>
    4b9a:	48 83 c4 50          	add    $0x50,%rsp
    4b9e:	eb 1d                	jmp    4bbd <source_hole_cb+0x30f>
/home/tenebris/Documents/RootCauseAnalysis/evaluation/test_bin/libzip/libzip-1.2.0/src/source_hole.c:586
    4ba0:	48 8b 45 f0          	mov    -0x10(%rbp),%rax
    4ba4:	ba 00 00 00 00       	mov    $0x0,%edx
    4ba9:	be 1c 00 00 00       	mov    $0x1c,%esi
    4bae:	48 89 c7             	mov    %rax,%rdi
    4bb1:	e8 ae 7e 00 00       	call   ca64 <zip_error_set>
/home/tenebris/Documents/RootCauseAnalysis/evaluation/test_bin/libzip/libzip-1.2.0/src/source_hole.c:587
    4bb6:	48 c7 c0 ff ff ff ff 	mov    $0xffffffffffffffff,%rax
/home/tenebris/Documents/RootCauseAnalysis/evaluation/test_bin/libzip/libzip-1.2.0/src/source_hole.c:589
    4bbd:	c9                   	leave  
    4bbe:	c3                   	ret    

0000000000004bbf <add>:
add():
/home/tenebris/Documents/RootCauseAnalysis/evaluation/test_bin/libzip/libzip-1.2.0/src/ziptool.c:84
    4bbf:	f3 0f 1e fa          	endbr64 
    4bc3:	55                   	push   %rbp
    4bc4:	48 89 e5             	mov    %rsp,%rbp
    4bc7:	48 83 ec 20          	sub    $0x20,%rsp
    4bcb:	89 7d ec             	mov    %edi,-0x14(%rbp)
    4bce:	48 89 75 e0          	mov    %rsi,-0x20(%rbp)
/home/tenebris/Documents/RootCauseAnalysis/evaluation/test_bin/libzip/libzip-1.2.0/src/ziptool.c:87
    4bd2:	48 8b 45 e0          	mov    -0x20(%rbp),%rax
    4bd6:	48 83 c0 08          	add    $0x8,%rax
    4bda:	48 8b 00             	mov    (%rax),%rax
    4bdd:	48 89 c7             	mov    %rax,%rdi
    4be0:	e8 eb e8 ff ff       	call   34d0 <strlen@plt>
    4be5:	48 89 c2             	mov    %rax,%rdx
    4be8:	48 8b 45 e0          	mov    -0x20(%rbp),%rax
    4bec:	48 83 c0 08          	add    $0x8,%rax
    4bf0:	48 8b 30             	mov    (%rax),%rsi
    4bf3:	48 8b 05 c6 69 02 00 	mov    0x269c6(%rip),%rax        # 2b5c0 <za>
    4bfa:	b9 00 00 00 00       	mov    $0x0,%ecx
    4bff:	48 89 c7             	mov    %rax,%rdi
    4c02:	e8 1a e5 00 00       	call   13121 <zip_source_buffer>
    4c07:	48 89 45 f8          	mov    %rax,-0x8(%rbp)
    4c0b:	48 83 7d f8 00       	cmpq   $0x0,-0x8(%rbp)
    4c10:	75 37                	jne    4c49 <add+0x8a>
/home/tenebris/Documents/RootCauseAnalysis/evaluation/test_bin/libzip/libzip-1.2.0/src/ziptool.c:88
    4c12:	48 8b 05 a7 69 02 00 	mov    0x269a7(%rip),%rax        # 2b5c0 <za>
    4c19:	48 89 c7             	mov    %rax,%rdi
    4c1c:	e8 8c 4e 01 00       	call   19aad <zip_strerror>
    4c21:	48 89 c2             	mov    %rax,%rdx
    4c24:	48 8b 05 75 69 02 00 	mov    0x26975(%rip),%rax        # 2b5a0 <stderr@GLIBC_2.2.5>
    4c2b:	48 8d 0d 2e c4 01 00 	lea    0x1c42e(%rip),%rcx        # 21060 <_IO_stdin_used+0x60>
    4c32:	48 89 ce             	mov    %rcx,%rsi
    4c35:	48 89 c7             	mov    %rax,%rdi
    4c38:	b8 00 00 00 00       	mov    $0x0,%eax
    4c3d:	e8 9e e9 ff ff       	call   35e0 <fprintf@plt>
/home/tenebris/Documents/RootCauseAnalysis/evaluation/test_bin/libzip/libzip-1.2.0/src/ziptool.c:89
    4c42:	b8 ff ff ff ff       	mov    $0xffffffff,%eax
    4c47:	eb 6f                	jmp    4cb8 <add+0xf9>
/home/tenebris/Documents/RootCauseAnalysis/evaluation/test_bin/libzip/libzip-1.2.0/src/ziptool.c:92
    4c49:	48 8b 45 e0          	mov    -0x20(%rbp),%rax
    4c4d:	48 8b 08             	mov    (%rax),%rcx
    4c50:	48 8b 05 69 69 02 00 	mov    0x26969(%rip),%rax        # 2b5c0 <za>
    4c57:	48 8b 55 f8          	mov    -0x8(%rbp),%rdx
    4c5b:	48 89 ce             	mov    %rcx,%rsi
    4c5e:	48 89 c7             	mov    %rax,%rdi
    4c61:	e8 95 34 00 00       	call   80fb <zip_add>
    4c66:	48 83 f8 ff          	cmp    $0xffffffffffffffff,%rax
    4c6a:	75 47                	jne    4cb3 <add+0xf4>
/home/tenebris/Documents/RootCauseAnalysis/evaluation/test_bin/libzip/libzip-1.2.0/src/ziptool.c:93
    4c6c:	48 8b 45 f8          	mov    -0x8(%rbp),%rax
    4c70:	48 89 c7             	mov    %rax,%rdi
    4c73:	e8 75 17 01 00       	call   163ed <zip_source_free>
/home/tenebris/Documents/RootCauseAnalysis/evaluation/test_bin/libzip/libzip-1.2.0/src/ziptool.c:94
    4c78:	48 8b 05 41 69 02 00 	mov    0x26941(%rip),%rax        # 2b5c0 <za>
    4c7f:	48 89 c7             	mov    %rax,%rdi
    4c82:	e8 26 4e 01 00       	call   19aad <zip_strerror>
    4c87:	48 89 c1             	mov    %rax,%rcx
    4c8a:	48 8b 45 e0          	mov    -0x20(%rbp),%rax
    4c8e:	48 8b 10             	mov    (%rax),%rdx
    4c91:	48 8b 05 08 69 02 00 	mov    0x26908(%rip),%rax        # 2b5a0 <stderr@GLIBC_2.2.5>
    4c98:	48 8d 35 ea c3 01 00 	lea    0x1c3ea(%rip),%rsi        # 21089 <_IO_stdin_used+0x89>
    4c9f:	48 89 c7             	mov    %rax,%rdi
    4ca2:	b8 00 00 00 00       	mov    $0x0,%eax
    4ca7:	e8 34 e9 ff ff       	call   35e0 <fprintf@plt>
/home/tenebris/Documents/RootCauseAnalysis/evaluation/test_bin/libzip/libzip-1.2.0/src/ziptool.c:95
    4cac:	b8 ff ff ff ff       	mov    $0xffffffff,%eax
    4cb1:	eb 05                	jmp    4cb8 <add+0xf9>
/home/tenebris/Documents/RootCauseAnalysis/evaluation/test_bin/libzip/libzip-1.2.0/src/ziptool.c:97
    4cb3:	b8 00 00 00 00       	mov    $0x0,%eax
/home/tenebris/Documents/RootCauseAnalysis/evaluation/test_bin/libzip/libzip-1.2.0/src/ziptool.c:98
    4cb8:	c9                   	leave  
    4cb9:	c3                   	ret    

0000000000004cba <add_dir>:
add_dir():
/home/tenebris/Documents/RootCauseAnalysis/evaluation/test_bin/libzip/libzip-1.2.0/src/ziptool.c:101
    4cba:	f3 0f 1e fa          	endbr64 
    4cbe:	55                   	push   %rbp
    4cbf:	48 89 e5             	mov    %rsp,%rbp
    4cc2:	48 83 ec 10          	sub    $0x10,%rsp
    4cc6:	89 7d fc             	mov    %edi,-0x4(%rbp)
    4cc9:	48 89 75 f0          	mov    %rsi,-0x10(%rbp)
/home/tenebris/Documents/RootCauseAnalysis/evaluation/test_bin/libzip/libzip-1.2.0/src/ziptool.c:103
    4ccd:	48 8b 45 f0          	mov    -0x10(%rbp),%rax
    4cd1:	48 8b 10             	mov    (%rax),%rdx
    4cd4:	48 8b 05 e5 68 02 00 	mov    0x268e5(%rip),%rax        # 2b5c0 <za>
    4cdb:	48 89 d6             	mov    %rdx,%rsi
    4cde:	48 89 c7             	mov    %rax,%rdi
    4ce1:	e8 48 34 00 00       	call   812e <zip_add_dir>
    4ce6:	48 85 c0             	test   %rax,%rax
    4ce9:	79 3b                	jns    4d26 <add_dir+0x6c>
/home/tenebris/Documents/RootCauseAnalysis/evaluation/test_bin/libzip/libzip-1.2.0/src/ziptool.c:104
    4ceb:	48 8b 05 ce 68 02 00 	mov    0x268ce(%rip),%rax        # 2b5c0 <za>
    4cf2:	48 89 c7             	mov    %rax,%rdi
    4cf5:	e8 b3 4d 01 00       	call   19aad <zip_strerror>
    4cfa:	48 89 c1             	mov    %rax,%rcx
    4cfd:	48 8b 45 f0          	mov    -0x10(%rbp),%rax
    4d01:	48 8b 10             	mov    (%rax),%rdx
    4d04:	48 8b 05 95 68 02 00 	mov    0x26895(%rip),%rax        # 2b5a0 <stderr@GLIBC_2.2.5>
    4d0b:	48 8d 35 90 c3 01 00 	lea    0x1c390(%rip),%rsi        # 210a2 <_IO_stdin_used+0xa2>
    4d12:	48 89 c7             	mov    %rax,%rdi
    4d15:	b8 00 00 00 00       	mov    $0x0,%eax
    4d1a:	e8 c1 e8 ff ff       	call   35e0 <fprintf@plt>
/home/tenebris/Documents/RootCauseAnalysis/evaluation/test_bin/libzip/libzip-1.2.0/src/ziptool.c:105
    4d1f:	b8 ff ff ff ff       	mov    $0xffffffff,%eax
    4d24:	eb 05                	jmp    4d2b <add_dir+0x71>
/home/tenebris/Documents/RootCauseAnalysis/evaluation/test_bin/libzip/libzip-1.2.0/src/ziptool.c:107
    4d26:	b8 00 00 00 00       	mov    $0x0,%eax
/home/tenebris/Documents/RootCauseAnalysis/evaluation/test_bin/libzip/libzip-1.2.0/src/ziptool.c:108
    4d2b:	c9                   	leave  
    4d2c:	c3                   	ret    

0000000000004d2d <add_file>:
add_file():
/home/tenebris/Documents/RootCauseAnalysis/evaluation/test_bin/libzip/libzip-1.2.0/src/ziptool.c:111
    4d2d:	f3 0f 1e fa          	endbr64 
    4d31:	55                   	push   %rbp
    4d32:	48 89 e5             	mov    %rsp,%rbp
    4d35:	48 83 ec 30          	sub    $0x30,%rsp
    4d39:	89 7d dc             	mov    %edi,-0x24(%rbp)
    4d3c:	48 89 75 d0          	mov    %rsi,-0x30(%rbp)
/home/tenebris/Documents/RootCauseAnalysis/evaluation/test_bin/libzip/libzip-1.2.0/src/ziptool.c:113
    4d40:	48 8b 45 d0          	mov    -0x30(%rbp),%rax
    4d44:	48 83 c0 10          	add    $0x10,%rax
    4d48:	48 8b 00             	mov    (%rax),%rax
    4d4b:	ba 0a 00 00 00       	mov    $0xa,%edx
    4d50:	be 00 00 00 00       	mov    $0x0,%esi
    4d55:	48 89 c7             	mov    %rax,%rdi
    4d58:	e8 53 e8 ff ff       	call   35b0 <strtoull@plt>
    4d5d:	48 89 45 f0          	mov    %rax,-0x10(%rbp)
/home/tenebris/Documents/RootCauseAnalysis/evaluation/test_bin/libzip/libzip-1.2.0/src/ziptool.c:114
    4d61:	48 8b 45 d0          	mov    -0x30(%rbp),%rax
    4d65:	48 83 c0 18          	add    $0x18,%rax
    4d69:	48 8b 00             	mov    (%rax),%rax
    4d6c:	ba 0a 00 00 00       	mov    $0xa,%edx
    4d71:	be 00 00 00 00       	mov    $0x0,%esi
    4d76:	48 89 c7             	mov    %rax,%rdi
    4d79:	e8 52 e8 ff ff       	call   35d0 <strtoll@plt>
    4d7e:	48 89 45 f8          	mov    %rax,-0x8(%rbp)
/home/tenebris/Documents/RootCauseAnalysis/evaluation/test_bin/libzip/libzip-1.2.0/src/ziptool.c:116
    4d82:	48 8b 45 d0          	mov    -0x30(%rbp),%rax
    4d86:	48 83 c0 08          	add    $0x8,%rax
    4d8a:	48 8b 00             	mov    (%rax),%rax
    4d8d:	48 8d 15 2c c3 01 00 	lea    0x1c32c(%rip),%rdx        # 210c0 <_IO_stdin_used+0xc0>
    4d94:	48 89 d6             	mov    %rdx,%rsi
    4d97:	48 89 c7             	mov    %rax,%rdi
    4d9a:	e8 31 e6 ff ff       	call   33d0 <strcmp@plt>
    4d9f:	85 c0                	test   %eax,%eax
    4da1:	75 67                	jne    4e0a <add_file+0xdd>
/home/tenebris/Documents/RootCauseAnalysis/evaluation/test_bin/libzip/libzip-1.2.0/src/ziptool.c:117
    4da3:	48 8b 35 c6 67 02 00 	mov    0x267c6(%rip),%rsi        # 2b570 <stdin@GLIBC_2.2.5>
    4daa:	48 8b 05 0f 68 02 00 	mov    0x2680f(%rip),%rax        # 2b5c0 <za>
    4db1:	48 8b 4d f8          	mov    -0x8(%rbp),%rcx
    4db5:	48 8b 55 f0          	mov    -0x10(%rbp),%rdx
    4db9:	48 89 c7             	mov    %rax,%rdi
    4dbc:	e8 25 05 01 00       	call   152e6 <zip_source_filep>
    4dc1:	48 89 45 e8          	mov    %rax,-0x18(%rbp)
    4dc5:	48 83 7d e8 00       	cmpq   $0x0,-0x18(%rbp)
    4dca:	0f 85 9e 00 00 00    	jne    4e6e <add_file+0x141>
/home/tenebris/Documents/RootCauseAnalysis/evaluation/test_bin/libzip/libzip-1.2.0/src/ziptool.c:118
    4dd0:	48 8b 05 e9 67 02 00 	mov    0x267e9(%rip),%rax        # 2b5c0 <za>
    4dd7:	48 89 c7             	mov    %rax,%rdi
    4dda:	e8 ce 4c 01 00       	call   19aad <zip_strerror>
    4ddf:	48 89 c2             	mov    %rax,%rdx
    4de2:	48 8b 05 b7 67 02 00 	mov    0x267b7(%rip),%rax        # 2b5a0 <stderr@GLIBC_2.2.5>
    4de9:	48 8d 0d e0 c2 01 00 	lea    0x1c2e0(%rip),%rcx        # 210d0 <_IO_stdin_used+0xd0>
    4df0:	48 89 ce             	mov    %rcx,%rsi
    4df3:	48 89 c7             	mov    %rax,%rdi
    4df6:	b8 00 00 00 00       	mov    $0x0,%eax
    4dfb:	e8 e0 e7 ff ff       	call   35e0 <fprintf@plt>
/home/tenebris/Documents/RootCauseAnalysis/evaluation/test_bin/libzip/libzip-1.2.0/src/ziptool.c:119
    4e00:	b8 ff ff ff ff       	mov    $0xffffffff,%eax
    4e05:	e9 d3 00 00 00       	jmp    4edd <add_file+0x1b0>
/home/tenebris/Documents/RootCauseAnalysis/evaluation/test_bin/libzip/libzip-1.2.0/src/ziptool.c:122
    4e0a:	48 8b 45 d0          	mov    -0x30(%rbp),%rax
    4e0e:	48 83 c0 08          	add    $0x8,%rax
    4e12:	48 8b 30             	mov    (%rax),%rsi
    4e15:	48 8b 05 a4 67 02 00 	mov    0x267a4(%rip),%rax        # 2b5c0 <za>
    4e1c:	48 8b 4d f8          	mov    -0x8(%rbp),%rcx
    4e20:	48 8b 55 f0          	mov    -0x10(%rbp),%rdx
    4e24:	48 89 c7             	mov    %rax,%rdi
    4e27:	e8 18 32 00 00       	call   8044 <zip_source_file>
    4e2c:	48 89 45 e8          	mov    %rax,-0x18(%rbp)
    4e30:	48 83 7d e8 00       	cmpq   $0x0,-0x18(%rbp)
    4e35:	75 37                	jne    4e6e <add_file+0x141>
/home/tenebris/Documents/RootCauseAnalysis/evaluation/test_bin/libzip/libzip-1.2.0/src/ziptool.c:123
    4e37:	48 8b 05 82 67 02 00 	mov    0x26782(%rip),%rax        # 2b5c0 <za>
    4e3e:	48 89 c7             	mov    %rax,%rdi
    4e41:	e8 67 4c 01 00       	call   19aad <zip_strerror>
    4e46:	48 89 c2             	mov    %rax,%rdx
    4e49:	48 8b 05 50 67 02 00 	mov    0x26750(%rip),%rax        # 2b5a0 <stderr@GLIBC_2.2.5>
    4e50:	48 8d 0d a1 c2 01 00 	lea    0x1c2a1(%rip),%rcx        # 210f8 <_IO_stdin_used+0xf8>
    4e57:	48 89 ce             	mov    %rcx,%rsi
    4e5a:	48 89 c7             	mov    %rax,%rdi
    4e5d:	b8 00 00 00 00       	mov    $0x0,%eax
    4e62:	e8 79 e7 ff ff       	call   35e0 <fprintf@plt>
/home/tenebris/Documents/RootCauseAnalysis/evaluation/test_bin/libzip/libzip-1.2.0/src/ziptool.c:124
    4e67:	b8 ff ff ff ff       	mov    $0xffffffff,%eax
    4e6c:	eb 6f                	jmp    4edd <add_file+0x1b0>
/home/tenebris/Documents/RootCauseAnalysis/evaluation/test_bin/libzip/libzip-1.2.0/src/ziptool.c:128
    4e6e:	48 8b 45 d0          	mov    -0x30(%rbp),%rax
    4e72:	48 8b 08             	mov    (%rax),%rcx
    4e75:	48 8b 05 44 67 02 00 	mov    0x26744(%rip),%rax        # 2b5c0 <za>
    4e7c:	48 8b 55 e8          	mov    -0x18(%rbp),%rdx
    4e80:	48 89 ce             	mov    %rcx,%rsi
    4e83:	48 89 c7             	mov    %rax,%rdi
    4e86:	e8 70 32 00 00       	call   80fb <zip_add>
    4e8b:	48 83 f8 ff          	cmp    $0xffffffffffffffff,%rax
    4e8f:	75 47                	jne    4ed8 <add_file+0x1ab>
/home/tenebris/Documents/RootCauseAnalysis/evaluation/test_bin/libzip/libzip-1.2.0/src/ziptool.c:129
    4e91:	48 8b 45 e8          	mov    -0x18(%rbp),%rax
    4e95:	48 89 c7             	mov    %rax,%rdi
    4e98:	e8 50 15 01 00       	call   163ed <zip_source_free>
/home/tenebris/Documents/RootCauseAnalysis/evaluation/test_bin/libzip/libzip-1.2.0/src/ziptool.c:130
    4e9d:	48 8b 05 1c 67 02 00 	mov    0x2671c(%rip),%rax        # 2b5c0 <za>
    4ea4:	48 89 c7             	mov    %rax,%rdi
    4ea7:	e8 01 4c 01 00       	call   19aad <zip_strerror>
    4eac:	48 89 c1             	mov    %rax,%rcx
    4eaf:	48 8b 45 d0          	mov    -0x30(%rbp),%rax
    4eb3:	48 8b 10             	mov    (%rax),%rdx
    4eb6:	48 8b 05 e3 66 02 00 	mov    0x266e3(%rip),%rax        # 2b5a0 <stderr@GLIBC_2.2.5>
    4ebd:	48 8d 35 c5 c1 01 00 	lea    0x1c1c5(%rip),%rsi        # 21089 <_IO_stdin_used+0x89>
    4ec4:	48 89 c7             	mov    %rax,%rdi
    4ec7:	b8 00 00 00 00       	mov    $0x0,%eax
    4ecc:	e8 0f e7 ff ff       	call   35e0 <fprintf@plt>
/home/tenebris/Documents/RootCauseAnalysis/evaluation/test_bin/libzip/libzip-1.2.0/src/ziptool.c:131
    4ed1:	b8 ff ff ff ff       	mov    $0xffffffff,%eax
    4ed6:	eb 05                	jmp    4edd <add_file+0x1b0>
/home/tenebris/Documents/RootCauseAnalysis/evaluation/test_bin/libzip/libzip-1.2.0/src/ziptool.c:133
    4ed8:	b8 00 00 00 00       	mov    $0x0,%eax
/home/tenebris/Documents/RootCauseAnalysis/evaluation/test_bin/libzip/libzip-1.2.0/src/ziptool.c:134
    4edd:	c9                   	leave  
    4ede:	c3                   	ret    

0000000000004edf <add_from_zip>:
add_from_zip():
/home/tenebris/Documents/RootCauseAnalysis/evaluation/test_bin/libzip/libzip-1.2.0/src/ziptool.c:137
    4edf:	f3 0f 1e fa          	endbr64 
    4ee3:	55                   	push   %rbp
    4ee4:	48 89 e5             	mov    %rsp,%rbp
    4ee7:	53                   	push   %rbx
    4ee8:	48 83 ec 68          	sub    $0x68,%rsp
    4eec:	89 7d 9c             	mov    %edi,-0x64(%rbp)
    4eef:	48 89 75 90          	mov    %rsi,-0x70(%rbp)
    4ef3:	64 48 8b 04 25 28 00 	mov    %fs:0x28,%rax
    4efa:	00 00 
    4efc:	48 89 45 e8          	mov    %rax,-0x18(%rbp)
    4f00:	31 c0                	xor    %eax,%eax
/home/tenebris/Documents/RootCauseAnalysis/evaluation/test_bin/libzip/libzip-1.2.0/src/ziptool.c:143
    4f02:	48 8b 45 90          	mov    -0x70(%rbp),%rax
    4f06:	48 83 c0 10          	add    $0x10,%rax
    4f0a:	48 8b 00             	mov    (%rax),%rax
    4f0d:	ba 0a 00 00 00       	mov    $0xa,%edx
    4f12:	be 00 00 00 00       	mov    $0x0,%esi
    4f17:	48 89 c7             	mov    %rax,%rdi
    4f1a:	e8 91 e6 ff ff       	call   35b0 <strtoull@plt>
    4f1f:	48 89 45 b0          	mov    %rax,-0x50(%rbp)
/home/tenebris/Documents/RootCauseAnalysis/evaluation/test_bin/libzip/libzip-1.2.0/src/ziptool.c:144
    4f23:	48 8b 45 90          	mov    -0x70(%rbp),%rax
    4f27:	48 83 c0 18          	add    $0x18,%rax
    4f2b:	48 8b 00             	mov    (%rax),%rax
    4f2e:	ba 0a 00 00 00       	mov    $0xa,%edx
    4f33:	be 00 00 00 00       	mov    $0x0,%esi
    4f38:	48 89 c7             	mov    %rax,%rdi
    4f3b:	e8 70 e6 ff ff       	call   35b0 <strtoull@plt>
    4f40:	48 89 45 b8          	mov    %rax,-0x48(%rbp)
/home/tenebris/Documents/RootCauseAnalysis/evaluation/test_bin/libzip/libzip-1.2.0/src/ziptool.c:145
    4f44:	48 8b 45 90          	mov    -0x70(%rbp),%rax
    4f48:	48 83 c0 20          	add    $0x20,%rax
    4f4c:	48 8b 00             	mov    (%rax),%rax
    4f4f:	ba 0a 00 00 00       	mov    $0xa,%edx
    4f54:	be 00 00 00 00       	mov    $0x0,%esi
    4f59:	48 89 c7             	mov    %rax,%rdi
    4f5c:	e8 6f e6 ff ff       	call   35d0 <strtoll@plt>
    4f61:	48 89 45 c0          	mov    %rax,-0x40(%rbp)
/home/tenebris/Documents/RootCauseAnalysis/evaluation/test_bin/libzip/libzip-1.2.0/src/ziptool.c:146
    4f65:	48 8b 45 90          	mov    -0x70(%rbp),%rax
    4f69:	48 83 c0 08          	add    $0x8,%rax
    4f6d:	48 8b 00             	mov    (%rax),%rax
    4f70:	8b 1d ea 66 02 00    	mov    0x266ea(%rip),%ebx        # 2b660 <z_in_count>
    4f76:	48 8d 55 ac          	lea    -0x54(%rbp),%rdx
    4f7a:	be 04 00 00 00       	mov    $0x4,%esi
    4f7f:	48 89 c7             	mov    %rax,%rdi
    4f82:	e8 21 b8 00 00       	call   107a8 <zip_open>
    4f87:	89 da                	mov    %ebx,%edx
    4f89:	48 8d 0c d5 00 00 00 	lea    0x0(,%rdx,8),%rcx
    4f90:	00 
    4f91:	48 8d 15 48 66 02 00 	lea    0x26648(%rip),%rdx        # 2b5e0 <z_in>
    4f98:	48 89 04 11          	mov    %rax,(%rcx,%rdx,1)
    4f9c:	89 d8                	mov    %ebx,%eax
    4f9e:	48 8d 14 c5 00 00 00 	lea    0x0(,%rax,8),%rdx
    4fa5:	00 
    4fa6:	48 8d 05 33 66 02 00 	lea    0x26633(%rip),%rax        # 2b5e0 <z_in>
    4fad:	48 8b 04 02          	mov    (%rdx,%rax,1),%rax
    4fb1:	48 85 c0             	test   %rax,%rax
    4fb4:	75 5c                	jne    5012 <add_from_zip+0x133>
/home/tenebris/Documents/RootCauseAnalysis/evaluation/test_bin/libzip/libzip-1.2.0/src/ziptool.c:148
    4fb6:	8b 55 ac             	mov    -0x54(%rbp),%edx
    4fb9:	48 8d 45 d0          	lea    -0x30(%rbp),%rax
    4fbd:	89 d6                	mov    %edx,%esi
    4fbf:	48 89 c7             	mov    %rax,%rdi
    4fc2:	e8 44 79 00 00       	call   c90b <zip_error_init_with_code>
/home/tenebris/Documents/RootCauseAnalysis/evaluation/test_bin/libzip/libzip-1.2.0/src/ziptool.c:149
    4fc7:	48 8d 45 d0          	lea    -0x30(%rbp),%rax
    4fcb:	48 89 c7             	mov    %rax,%rdi
    4fce:	e8 bb 7b 00 00       	call   cb8e <zip_error_strerror>
    4fd3:	48 89 c1             	mov    %rax,%rcx
    4fd6:	48 8b 45 90          	mov    -0x70(%rbp),%rax
    4fda:	48 83 c0 08          	add    $0x8,%rax
    4fde:	48 8b 10             	mov    (%rax),%rdx
    4fe1:	48 8b 05 b8 65 02 00 	mov    0x265b8(%rip),%rax        # 2b5a0 <stderr@GLIBC_2.2.5>
    4fe8:	48 8d 35 31 c1 01 00 	lea    0x1c131(%rip),%rsi        # 21120 <_IO_stdin_used+0x120>
    4fef:	48 89 c7             	mov    %rax,%rdi
    4ff2:	b8 00 00 00 00       	mov    $0x0,%eax
    4ff7:	e8 e4 e5 ff ff       	call   35e0 <fprintf@plt>
/home/tenebris/Documents/RootCauseAnalysis/evaluation/test_bin/libzip/libzip-1.2.0/src/ziptool.c:150
    4ffc:	48 8d 45 d0          	lea    -0x30(%rbp),%rax
    5000:	48 89 c7             	mov    %rax,%rdi
    5003:	e8 a4 78 00 00       	call   c8ac <zip_error_fini>
/home/tenebris/Documents/RootCauseAnalysis/evaluation/test_bin/libzip/libzip-1.2.0/src/ziptool.c:151
    5008:	b8 ff ff ff ff       	mov    $0xffffffff,%eax
    500d:	e9 59 01 00 00       	jmp    516b <add_from_zip+0x28c>
/home/tenebris/Documents/RootCauseAnalysis/evaluation/test_bin/libzip/libzip-1.2.0/src/ziptool.c:153
    5012:	8b 05 48 66 02 00    	mov    0x26648(%rip),%eax        # 2b660 <z_in_count>
    5018:	89 c0                	mov    %eax,%eax
    501a:	48 8d 14 c5 00 00 00 	lea    0x0(,%rax,8),%rdx
    5021:	00 
    5022:	48 8d 05 b7 65 02 00 	lea    0x265b7(%rip),%rax        # 2b5e0 <z_in>
    5029:	48 8b 34 02          	mov    (%rdx,%rax,1),%rsi
    502d:	48 8b 05 8c 65 02 00 	mov    0x2658c(%rip),%rax        # 2b5c0 <za>
    5034:	48 8b 7d c0          	mov    -0x40(%rbp),%rdi
    5038:	48 8b 4d b8          	mov    -0x48(%rbp),%rcx
    503c:	48 8b 55 b0          	mov    -0x50(%rbp),%rdx
    5040:	49 89 f9             	mov    %rdi,%r9
    5043:	49 89 c8             	mov    %rcx,%r8
    5046:	b9 00 00 00 00       	mov    $0x0,%ecx
    504b:	48 89 c7             	mov    %rax,%rdi
    504e:	e8 28 3f 01 00       	call   18f7b <zip_source_zip>
    5053:	48 89 45 c8          	mov    %rax,-0x38(%rbp)
    5057:	48 83 7d c8 00       	cmpq   $0x0,-0x38(%rbp)
    505c:	75 6c                	jne    50ca <add_from_zip+0x1eb>
/home/tenebris/Documents/RootCauseAnalysis/evaluation/test_bin/libzip/libzip-1.2.0/src/ziptool.c:154
    505e:	48 8b 05 5b 65 02 00 	mov    0x2655b(%rip),%rax        # 2b5c0 <za>
    5065:	48 89 c7             	mov    %rax,%rdi
    5068:	e8 40 4a 01 00       	call   19aad <zip_strerror>
    506d:	48 89 c6             	mov    %rax,%rsi
    5070:	48 8b 45 90          	mov    -0x70(%rbp),%rax
    5074:	48 83 c0 08          	add    $0x8,%rax
    5078:	48 8b 10             	mov    (%rax),%rdx
    507b:	48 8b 05 1e 65 02 00 	mov    0x2651e(%rip),%rax        # 2b5a0 <stderr@GLIBC_2.2.5>
    5082:	48 8b 4d b0          	mov    -0x50(%rbp),%rcx
    5086:	49 89 f0             	mov    %rsi,%r8
    5089:	48 8d 35 b8 c0 01 00 	lea    0x1c0b8(%rip),%rsi        # 21148 <_IO_stdin_used+0x148>
    5090:	48 89 c7             	mov    %rax,%rdi
    5093:	b8 00 00 00 00       	mov    $0x0,%eax
    5098:	e8 43 e5 ff ff       	call   35e0 <fprintf@plt>
/home/tenebris/Documents/RootCauseAnalysis/evaluation/test_bin/libzip/libzip-1.2.0/src/ziptool.c:155
    509d:	8b 05 bd 65 02 00    	mov    0x265bd(%rip),%eax        # 2b660 <z_in_count>
    50a3:	89 c0                	mov    %eax,%eax
    50a5:	48 8d 14 c5 00 00 00 	lea    0x0(,%rax,8),%rdx
    50ac:	00 
    50ad:	48 8d 05 2c 65 02 00 	lea    0x2652c(%rip),%rax        # 2b5e0 <z_in>
    50b4:	48 8b 04 02          	mov    (%rdx,%rax,1),%rax
    50b8:	48 89 c7             	mov    %rax,%rdi
    50bb:	e8 9c 30 00 00       	call   815c <zip_close>
/home/tenebris/Documents/RootCauseAnalysis/evaluation/test_bin/libzip/libzip-1.2.0/src/ziptool.c:156
    50c0:	b8 ff ff ff ff       	mov    $0xffffffff,%eax
    50c5:	e9 a1 00 00 00       	jmp    516b <add_from_zip+0x28c>
/home/tenebris/Documents/RootCauseAnalysis/evaluation/test_bin/libzip/libzip-1.2.0/src/ziptool.c:158
    50ca:	48 8b 45 90          	mov    -0x70(%rbp),%rax
    50ce:	48 8b 08             	mov    (%rax),%rcx
    50d1:	48 8b 05 e8 64 02 00 	mov    0x264e8(%rip),%rax        # 2b5c0 <za>
    50d8:	48 8b 55 c8          	mov    -0x38(%rbp),%rdx
    50dc:	48 89 ce             	mov    %rcx,%rsi
    50df:	48 89 c7             	mov    %rax,%rdi
    50e2:	e8 14 30 00 00       	call   80fb <zip_add>
    50e7:	48 83 f8 ff          	cmp    $0xffffffffffffffff,%rax
    50eb:	75 6a                	jne    5157 <add_from_zip+0x278>
/home/tenebris/Documents/RootCauseAnalysis/evaluation/test_bin/libzip/libzip-1.2.0/src/ziptool.c:159
    50ed:	48 8b 05 cc 64 02 00 	mov    0x264cc(%rip),%rax        # 2b5c0 <za>
    50f4:	48 89 c7             	mov    %rax,%rdi
    50f7:	e8 b1 49 01 00       	call   19aad <zip_strerror>
    50fc:	48 89 c1             	mov    %rax,%rcx
    50ff:	48 8b 45 90          	mov    -0x70(%rbp),%rax
    5103:	48 8b 10             	mov    (%rax),%rdx
    5106:	48 8b 05 93 64 02 00 	mov    0x26493(%rip),%rax        # 2b5a0 <stderr@GLIBC_2.2.5>
    510d:	48 8d 35 75 bf 01 00 	lea    0x1bf75(%rip),%rsi        # 21089 <_IO_stdin_used+0x89>
    5114:	48 89 c7             	mov    %rax,%rdi
    5117:	b8 00 00 00 00       	mov    $0x0,%eax
    511c:	e8 bf e4 ff ff       	call   35e0 <fprintf@plt>
/home/tenebris/Documents/RootCauseAnalysis/evaluation/test_bin/libzip/libzip-1.2.0/src/ziptool.c:160
    5121:	48 8b 45 c8          	mov    -0x38(%rbp),%rax
    5125:	48 89 c7             	mov    %rax,%rdi
    5128:	e8 c0 12 01 00       	call   163ed <zip_source_free>
/home/tenebris/Documents/RootCauseAnalysis/evaluation/test_bin/libzip/libzip-1.2.0/src/ziptool.c:161
    512d:	8b 05 2d 65 02 00    	mov    0x2652d(%rip),%eax        # 2b660 <z_in_count>
    5133:	89 c0                	mov    %eax,%eax
    5135:	48 8d 14 c5 00 00 00 	lea    0x0(,%rax,8),%rdx
    513c:	00 
    513d:	48 8d 05 9c 64 02 00 	lea    0x2649c(%rip),%rax        # 2b5e0 <z_in>
    5144:	48 8b 04 02          	mov    (%rdx,%rax,1),%rax
    5148:	48 89 c7             	mov    %rax,%rdi
    514b:	e8 0c 30 00 00       	call   815c <zip_close>
/home/tenebris/Documents/RootCauseAnalysis/evaluation/test_bin/libzip/libzip-1.2.0/src/ziptool.c:162
    5150:	b8 ff ff ff ff       	mov    $0xffffffff,%eax
    5155:	eb 14                	jmp    516b <add_from_zip+0x28c>
/home/tenebris/Documents/RootCauseAnalysis/evaluation/test_bin/libzip/libzip-1.2.0/src/ziptool.c:164
    5157:	8b 05 03 65 02 00    	mov    0x26503(%rip),%eax        # 2b660 <z_in_count>
    515d:	83 c0 01             	add    $0x1,%eax
    5160:	89 05 fa 64 02 00    	mov    %eax,0x264fa(%rip)        # 2b660 <z_in_count>
/home/tenebris/Documents/RootCauseAnalysis/evaluation/test_bin/libzip/libzip-1.2.0/src/ziptool.c:165
    5166:	b8 00 00 00 00       	mov    $0x0,%eax
/home/tenebris/Documents/RootCauseAnalysis/evaluation/test_bin/libzip/libzip-1.2.0/src/ziptool.c:166 (discriminator 2)
    516b:	48 8b 55 e8          	mov    -0x18(%rbp),%rdx
    516f:	64 48 2b 14 25 28 00 	sub    %fs:0x28,%rdx
    5176:	00 00 
    5178:	74 05                	je     517f <add_from_zip+0x2a0>
/home/tenebris/Documents/RootCauseAnalysis/evaluation/test_bin/libzip/libzip-1.2.0/src/ziptool.c:166
    517a:	e8 61 e3 ff ff       	call   34e0 <__stack_chk_fail@plt>
    517f:	48 8b 5d f8          	mov    -0x8(%rbp),%rbx
    5183:	c9                   	leave  
    5184:	c3                   	ret    

0000000000005185 <add_nul>:
add_nul():
/home/tenebris/Documents/RootCauseAnalysis/evaluation/test_bin/libzip/libzip-1.2.0/src/ziptool.c:169
    5185:	f3 0f 1e fa          	endbr64 
    5189:	55                   	push   %rbp
    518a:	48 89 e5             	mov    %rsp,%rbp
    518d:	48 83 ec 20          	sub    $0x20,%rsp
    5191:	89 7d ec             	mov    %edi,-0x14(%rbp)
    5194:	48 89 75 e0          	mov    %rsi,-0x20(%rbp)
/home/tenebris/Documents/RootCauseAnalysis/evaluation/test_bin/libzip/libzip-1.2.0/src/ziptool.c:171
    5198:	48 8b 45 e0          	mov    -0x20(%rbp),%rax
    519c:	48 83 c0 08          	add    $0x8,%rax
    51a0:	48 8b 00             	mov    (%rax),%rax
    51a3:	ba 0a 00 00 00       	mov    $0xa,%edx
    51a8:	be 00 00 00 00       	mov    $0x0,%esi
    51ad:	48 89 c7             	mov    %rax,%rdi
    51b0:	e8 fb e3 ff ff       	call   35b0 <strtoull@plt>
    51b5:	48 89 45 f0          	mov    %rax,-0x10(%rbp)
/home/tenebris/Documents/RootCauseAnalysis/evaluation/test_bin/libzip/libzip-1.2.0/src/ziptool.c:173
    51b9:	48 8b 05 00 64 02 00 	mov    0x26400(%rip),%rax        # 2b5c0 <za>
    51c0:	48 8b 55 f0          	mov    -0x10(%rbp),%rdx
    51c4:	48 89 d6             	mov    %rdx,%rsi
    51c7:	48 89 c7             	mov    %rax,%rdi
    51ca:	e8 08 22 00 00       	call   73d7 <source_nul>
    51cf:	48 89 45 f8          	mov    %rax,-0x8(%rbp)
    51d3:	48 83 7d f8 00       	cmpq   $0x0,-0x8(%rbp)
    51d8:	75 37                	jne    5211 <add_nul+0x8c>
/home/tenebris/Documents/RootCauseAnalysis/evaluation/test_bin/libzip/libzip-1.2.0/src/ziptool.c:174
    51da:	48 8b 05 df 63 02 00 	mov    0x263df(%rip),%rax        # 2b5c0 <za>
    51e1:	48 89 c7             	mov    %rax,%rdi
    51e4:	e8 c4 48 01 00       	call   19aad <zip_strerror>
    51e9:	48 89 c2             	mov    %rax,%rdx
    51ec:	48 8b 05 ad 63 02 00 	mov    0x263ad(%rip),%rax        # 2b5a0 <stderr@GLIBC_2.2.5>
    51f3:	48 8d 0d 86 bf 01 00 	lea    0x1bf86(%rip),%rcx        # 21180 <_IO_stdin_used+0x180>
    51fa:	48 89 ce             	mov    %rcx,%rsi
    51fd:	48 89 c7             	mov    %rax,%rdi
    5200:	b8 00 00 00 00       	mov    $0x0,%eax
    5205:	e8 d6 e3 ff ff       	call   35e0 <fprintf@plt>
/home/tenebris/Documents/RootCauseAnalysis/evaluation/test_bin/libzip/libzip-1.2.0/src/ziptool.c:175
    520a:	b8 ff ff ff ff       	mov    $0xffffffff,%eax
    520f:	eb 6f                	jmp    5280 <add_nul+0xfb>
/home/tenebris/Documents/RootCauseAnalysis/evaluation/test_bin/libzip/libzip-1.2.0/src/ziptool.c:178
    5211:	48 8b 45 e0          	mov    -0x20(%rbp),%rax
    5215:	48 8b 08             	mov    (%rax),%rcx
    5218:	48 8b 05 a1 63 02 00 	mov    0x263a1(%rip),%rax        # 2b5c0 <za>
    521f:	48 8b 55 f8          	mov    -0x8(%rbp),%rdx
    5223:	48 89 ce             	mov    %rcx,%rsi
    5226:	48 89 c7             	mov    %rax,%rdi
    5229:	e8 cd 2e 00 00       	call   80fb <zip_add>
    522e:	48 83 f8 ff          	cmp    $0xffffffffffffffff,%rax
    5232:	75 47                	jne    527b <add_nul+0xf6>
/home/tenebris/Documents/RootCauseAnalysis/evaluation/test_bin/libzip/libzip-1.2.0/src/ziptool.c:179
    5234:	48 8b 45 f8          	mov    -0x8(%rbp),%rax
    5238:	48 89 c7             	mov    %rax,%rdi
    523b:	e8 ad 11 01 00       	call   163ed <zip_source_free>
/home/tenebris/Documents/RootCauseAnalysis/evaluation/test_bin/libzip/libzip-1.2.0/src/ziptool.c:180
    5240:	48 8b 05 79 63 02 00 	mov    0x26379(%rip),%rax        # 2b5c0 <za>
    5247:	48 89 c7             	mov    %rax,%rdi
    524a:	e8 5e 48 01 00       	call   19aad <zip_strerror>
    524f:	48 89 c1             	mov    %rax,%rcx
    5252:	48 8b 45 e0          	mov    -0x20(%rbp),%rax
    5256:	48 8b 10             	mov    (%rax),%rdx
    5259:	48 8b 05 40 63 02 00 	mov    0x26340(%rip),%rax        # 2b5a0 <stderr@GLIBC_2.2.5>
    5260:	48 8d 35 22 be 01 00 	lea    0x1be22(%rip),%rsi        # 21089 <_IO_stdin_used+0x89>
    5267:	48 89 c7             	mov    %rax,%rdi
    526a:	b8 00 00 00 00       	mov    $0x0,%eax
    526f:	e8 6c e3 ff ff       	call   35e0 <fprintf@plt>
/home/tenebris/Documents/RootCauseAnalysis/evaluation/test_bin/libzip/libzip-1.2.0/src/ziptool.c:181
    5274:	b8 ff ff ff ff       	mov    $0xffffffff,%eax
    5279:	eb 05                	jmp    5280 <add_nul+0xfb>
/home/tenebris/Documents/RootCauseAnalysis/evaluation/test_bin/libzip/libzip-1.2.0/src/ziptool.c:183
    527b:	b8 00 00 00 00       	mov    $0x0,%eax
/home/tenebris/Documents/RootCauseAnalysis/evaluation/test_bin/libzip/libzip-1.2.0/src/ziptool.c:184
    5280:	c9                   	leave  
    5281:	c3                   	ret    

0000000000005282 <cat>:
cat():
/home/tenebris/Documents/RootCauseAnalysis/evaluation/test_bin/libzip/libzip-1.2.0/src/ziptool.c:187
    5282:	f3 0f 1e fa          	endbr64 
    5286:	55                   	push   %rbp
    5287:	48 89 e5             	mov    %rsp,%rbp
    528a:	48 81 ec 00 10 00 00 	sub    $0x1000,%rsp
    5291:	48 83 0c 24 00       	orq    $0x0,(%rsp)
    5296:	48 81 ec 00 10 00 00 	sub    $0x1000,%rsp
    529d:	48 83 0c 24 00       	orq    $0x0,(%rsp)
    52a2:	48 83 ec 50          	sub    $0x50,%rsp
    52a6:	89 bd bc df ff ff    	mov    %edi,-0x2044(%rbp)
    52ac:	48 89 b5 b0 df ff ff 	mov    %rsi,-0x2050(%rbp)
    52b3:	64 48 8b 04 25 28 00 	mov    %fs:0x28,%rax
    52ba:	00 00 
    52bc:	48 89 45 f8          	mov    %rax,-0x8(%rbp)
    52c0:	31 c0                	xor    %eax,%eax
/home/tenebris/Documents/RootCauseAnalysis/evaluation/test_bin/libzip/libzip-1.2.0/src/ziptool.c:194
    52c2:	48 8b 85 b0 df ff ff 	mov    -0x2050(%rbp),%rax
    52c9:	48 8b 00             	mov    (%rax),%rax
    52cc:	ba 0a 00 00 00       	mov    $0xa,%edx
    52d1:	be 00 00 00 00       	mov    $0x0,%esi
    52d6:	48 89 c7             	mov    %rax,%rdi
    52d9:	e8 d2 e2 ff ff       	call   35b0 <strtoull@plt>
    52de:	48 89 85 c8 df ff ff 	mov    %rax,-0x2038(%rbp)
/home/tenebris/Documents/RootCauseAnalysis/evaluation/test_bin/libzip/libzip-1.2.0/src/ziptool.c:200
    52e5:	48 8b 05 d4 62 02 00 	mov    0x262d4(%rip),%rax        # 2b5c0 <za>
    52ec:	48 8b 8d c8 df ff ff 	mov    -0x2038(%rbp),%rcx
    52f3:	ba 00 00 00 00       	mov    $0x0,%edx
    52f8:	48 89 ce             	mov    %rcx,%rsi
    52fb:	48 89 c7             	mov    %rax,%rdi
    52fe:	e8 3a a3 00 00       	call   f63d <zip_fopen_index>
    5303:	48 89 85 d0 df ff ff 	mov    %rax,-0x2030(%rbp)
    530a:	48 83 bd d0 df ff ff 	cmpq   $0x0,-0x2030(%rbp)
    5311:	00 
    5312:	0f 85 b1 00 00 00    	jne    53c9 <cat+0x147>
/home/tenebris/Documents/RootCauseAnalysis/evaluation/test_bin/libzip/libzip-1.2.0/src/ziptool.c:201
    5318:	48 8b 05 a1 62 02 00 	mov    0x262a1(%rip),%rax        # 2b5c0 <za>
    531f:	48 89 c7             	mov    %rax,%rdi
    5322:	e8 86 47 01 00       	call   19aad <zip_strerror>
    5327:	48 89 c1             	mov    %rax,%rcx
    532a:	48 8b 05 6f 62 02 00 	mov    0x2626f(%rip),%rax        # 2b5a0 <stderr@GLIBC_2.2.5>
    5331:	48 8b 95 c8 df ff ff 	mov    -0x2038(%rbp),%rdx
    5338:	48 8d 35 69 be 01 00 	lea    0x1be69(%rip),%rsi        # 211a8 <_IO_stdin_used+0x1a8>
    533f:	48 89 c7             	mov    %rax,%rdi
    5342:	b8 00 00 00 00       	mov    $0x0,%eax
    5347:	e8 94 e2 ff ff       	call   35e0 <fprintf@plt>
/home/tenebris/Documents/RootCauseAnalysis/evaluation/test_bin/libzip/libzip-1.2.0/src/ziptool.c:202
    534c:	b8 ff ff ff ff       	mov    $0xffffffff,%eax
    5351:	e9 6f 01 00 00       	jmp    54c5 <cat+0x243>
/home/tenebris/Documents/RootCauseAnalysis/evaluation/test_bin/libzip/libzip-1.2.0/src/ziptool.c:205
    5356:	48 8b 15 03 62 02 00 	mov    0x26203(%rip),%rdx        # 2b560 <stdout@GLIBC_2.2.5>
    535d:	48 8b b5 d8 df ff ff 	mov    -0x2028(%rbp),%rsi
    5364:	48 8d 85 f0 df ff ff 	lea    -0x2010(%rbp),%rax
    536b:	48 89 d1             	mov    %rdx,%rcx
    536e:	ba 01 00 00 00       	mov    $0x1,%edx
    5373:	48 89 c7             	mov    %rax,%rdi
    5376:	e8 e5 e3 ff ff       	call   3760 <fwrite@plt>
    537b:	48 83 f8 01          	cmp    $0x1,%rax
    537f:	74 48                	je     53c9 <cat+0x147>
/home/tenebris/Documents/RootCauseAnalysis/evaluation/test_bin/libzip/libzip-1.2.0/src/ziptool.c:206
    5381:	48 8b 85 d0 df ff ff 	mov    -0x2030(%rbp),%rax
    5388:	48 89 c7             	mov    %rax,%rdi
    538b:	e8 94 93 00 00       	call   e724 <zip_fclose>
/home/tenebris/Documents/RootCauseAnalysis/evaluation/test_bin/libzip/libzip-1.2.0/src/ziptool.c:207
    5390:	e8 8b e0 ff ff       	call   3420 <__errno_location@plt>
    5395:	8b 00                	mov    (%rax),%eax
    5397:	89 c7                	mov    %eax,%edi
    5399:	e8 e2 e3 ff ff       	call   3780 <strerror@plt>
    539e:	48 89 c2             	mov    %rax,%rdx
    53a1:	48 8b 05 f8 61 02 00 	mov    0x261f8(%rip),%rax        # 2b5a0 <stderr@GLIBC_2.2.5>
    53a8:	48 8d 0d 21 be 01 00 	lea    0x1be21(%rip),%rcx        # 211d0 <_IO_stdin_used+0x1d0>
    53af:	48 89 ce             	mov    %rcx,%rsi
    53b2:	48 89 c7             	mov    %rax,%rdi
    53b5:	b8 00 00 00 00       	mov    $0x0,%eax
    53ba:	e8 21 e2 ff ff       	call   35e0 <fprintf@plt>
/home/tenebris/Documents/RootCauseAnalysis/evaluation/test_bin/libzip/libzip-1.2.0/src/ziptool.c:208
    53bf:	b8 ff ff ff ff       	mov    $0xffffffff,%eax
    53c4:	e9 fc 00 00 00       	jmp    54c5 <cat+0x243>
/home/tenebris/Documents/RootCauseAnalysis/evaluation/test_bin/libzip/libzip-1.2.0/src/ziptool.c:204
    53c9:	48 8d 8d f0 df ff ff 	lea    -0x2010(%rbp),%rcx
    53d0:	48 8b 85 d0 df ff ff 	mov    -0x2030(%rbp),%rax
    53d7:	ba 00 20 00 00       	mov    $0x2000,%edx
    53dc:	48 89 ce             	mov    %rcx,%rsi
    53df:	48 89 c7             	mov    %rax,%rdi
    53e2:	e8 d6 a3 00 00       	call   f7bd <zip_fread>
    53e7:	48 89 85 d8 df ff ff 	mov    %rax,-0x2028(%rbp)
    53ee:	48 83 bd d8 df ff ff 	cmpq   $0x0,-0x2028(%rbp)
    53f5:	00 
    53f6:	0f 8f 5a ff ff ff    	jg     5356 <cat+0xd4>
/home/tenebris/Documents/RootCauseAnalysis/evaluation/test_bin/libzip/libzip-1.2.0/src/ziptool.c:211
    53fc:	48 83 bd d8 df ff ff 	cmpq   $0xffffffffffffffff,-0x2028(%rbp)
    5403:	ff 
    5404:	75 4a                	jne    5450 <cat+0x1ce>
/home/tenebris/Documents/RootCauseAnalysis/evaluation/test_bin/libzip/libzip-1.2.0/src/ziptool.c:212
    5406:	48 8b 85 d0 df ff ff 	mov    -0x2030(%rbp),%rax
    540d:	48 89 c7             	mov    %rax,%rdi
    5410:	e8 06 a2 00 00       	call   f61b <zip_file_strerror>
    5415:	48 89 c1             	mov    %rax,%rcx
    5418:	48 8b 05 81 61 02 00 	mov    0x26181(%rip),%rax        # 2b5a0 <stderr@GLIBC_2.2.5>
    541f:	48 8b 95 c8 df ff ff 	mov    -0x2038(%rbp),%rdx
    5426:	48 8d 35 d3 bd 01 00 	lea    0x1bdd3(%rip),%rsi        # 21200 <_IO_stdin_used+0x200>
    542d:	48 89 c7             	mov    %rax,%rdi
    5430:	b8 00 00 00 00       	mov    $0x0,%eax
    5435:	e8 a6 e1 ff ff       	call   35e0 <fprintf@plt>
/home/tenebris/Documents/RootCauseAnalysis/evaluation/test_bin/libzip/libzip-1.2.0/src/ziptool.c:213
    543a:	48 8b 85 d0 df ff ff 	mov    -0x2030(%rbp),%rax
    5441:	48 89 c7             	mov    %rax,%rdi
    5444:	e8 db 92 00 00       	call   e724 <zip_fclose>
/home/tenebris/Documents/RootCauseAnalysis/evaluation/test_bin/libzip/libzip-1.2.0/src/ziptool.c:214
    5449:	b8 ff ff ff ff       	mov    $0xffffffff,%eax
    544e:	eb 75                	jmp    54c5 <cat+0x243>
/home/tenebris/Documents/RootCauseAnalysis/evaluation/test_bin/libzip/libzip-1.2.0/src/ziptool.c:216
    5450:	48 8b 85 d0 df ff ff 	mov    -0x2030(%rbp),%rax
    5457:	48 89 c7             	mov    %rax,%rdi
    545a:	e8 c5 92 00 00       	call   e724 <zip_fclose>
    545f:	89 85 c4 df ff ff    	mov    %eax,-0x203c(%rbp)
    5465:	83 bd c4 df ff ff 00 	cmpl   $0x0,-0x203c(%rbp)
    546c:	74 52                	je     54c0 <cat+0x23e>
/home/tenebris/Documents/RootCauseAnalysis/evaluation/test_bin/libzip/libzip-1.2.0/src/ziptool.c:219
    546e:	8b 95 c4 df ff ff    	mov    -0x203c(%rbp),%edx
    5474:	48 8d 85 e0 df ff ff 	lea    -0x2020(%rbp),%rax
    547b:	89 d6                	mov    %edx,%esi
    547d:	48 89 c7             	mov    %rax,%rdi
    5480:	e8 86 74 00 00       	call   c90b <zip_error_init_with_code>
/home/tenebris/Documents/RootCauseAnalysis/evaluation/test_bin/libzip/libzip-1.2.0/src/ziptool.c:220
    5485:	48 8d 85 e0 df ff ff 	lea    -0x2020(%rbp),%rax
    548c:	48 89 c7             	mov    %rax,%rdi
    548f:	e8 fa 76 00 00       	call   cb8e <zip_error_strerror>
    5494:	48 89 c1             	mov    %rax,%rcx
    5497:	48 8b 05 02 61 02 00 	mov    0x26102(%rip),%rax        # 2b5a0 <stderr@GLIBC_2.2.5>
    549e:	48 8b 95 c8 df ff ff 	mov    -0x2038(%rbp),%rdx
    54a5:	48 8d 35 7c bd 01 00 	lea    0x1bd7c(%rip),%rsi        # 21228 <_IO_stdin_used+0x228>
    54ac:	48 89 c7             	mov    %rax,%rdi
    54af:	b8 00 00 00 00       	mov    $0x0,%eax
    54b4:	e8 27 e1 ff ff       	call   35e0 <fprintf@plt>
/home/tenebris/Documents/RootCauseAnalysis/evaluation/test_bin/libzip/libzip-1.2.0/src/ziptool.c:221
    54b9:	b8 ff ff ff ff       	mov    $0xffffffff,%eax
    54be:	eb 05                	jmp    54c5 <cat+0x243>
/home/tenebris/Documents/RootCauseAnalysis/evaluation/test_bin/libzip/libzip-1.2.0/src/ziptool.c:224
    54c0:	b8 00 00 00 00       	mov    $0x0,%eax
/home/tenebris/Documents/RootCauseAnalysis/evaluation/test_bin/libzip/libzip-1.2.0/src/ziptool.c:225 (discriminator 2)
    54c5:	48 8b 55 f8          	mov    -0x8(%rbp),%rdx
    54c9:	64 48 2b 14 25 28 00 	sub    %fs:0x28,%rdx
    54d0:	00 00 
    54d2:	74 05                	je     54d9 <cat+0x257>
/home/tenebris/Documents/RootCauseAnalysis/evaluation/test_bin/libzip/libzip-1.2.0/src/ziptool.c:225
    54d4:	e8 07 e0 ff ff       	call   34e0 <__stack_chk_fail@plt>
    54d9:	c9                   	leave  
    54da:	c3                   	ret    

00000000000054db <count_extra>:
count_extra():
/home/tenebris/Documents/RootCauseAnalysis/evaluation/test_bin/libzip/libzip-1.2.0/src/ziptool.c:228
    54db:	f3 0f 1e fa          	endbr64 
    54df:	55                   	push   %rbp
    54e0:	48 89 e5             	mov    %rsp,%rbp
    54e3:	48 83 ec 20          	sub    $0x20,%rsp
    54e7:	89 7d ec             	mov    %edi,-0x14(%rbp)
    54ea:	48 89 75 e0          	mov    %rsi,-0x20(%rbp)
/home/tenebris/Documents/RootCauseAnalysis/evaluation/test_bin/libzip/libzip-1.2.0/src/ziptool.c:231
    54ee:	c7 45 f4 00 00 00 00 	movl   $0x0,-0xc(%rbp)
/home/tenebris/Documents/RootCauseAnalysis/evaluation/test_bin/libzip/libzip-1.2.0/src/ziptool.c:232
    54f5:	48 8b 45 e0          	mov    -0x20(%rbp),%rax
    54f9:	48 8b 00             	mov    (%rax),%rax
    54fc:	ba 0a 00 00 00       	mov    $0xa,%edx
    5501:	be 00 00 00 00       	mov    $0x0,%esi
    5506:	48 89 c7             	mov    %rax,%rdi
    5509:	e8 a2 e0 ff ff       	call   35b0 <strtoull@plt>
    550e:	48 89 45 f8          	mov    %rax,-0x8(%rbp)
/home/tenebris/Documents/RootCauseAnalysis/evaluation/test_bin/libzip/libzip-1.2.0/src/ziptool.c:233
    5512:	48 8b 45 e0          	mov    -0x20(%rbp),%rax
    5516:	48 83 c0 08          	add    $0x8,%rax
    551a:	48 8b 00             	mov    (%rax),%rax
    551d:	48 89 c7             	mov    %rax,%rdi
    5520:	e8 10 16 00 00       	call   6b35 <get_flags>
    5525:	89 45 f4             	mov    %eax,-0xc(%rbp)
/home/tenebris/Documents/RootCauseAnalysis/evaluation/test_bin/libzip/libzip-1.2.0/src/ziptool.c:234
    5528:	48 8b 05 91 60 02 00 	mov    0x26091(%rip),%rax        # 2b5c0 <za>
    552f:	8b 55 f4             	mov    -0xc(%rbp),%edx
    5532:	48 8b 4d f8          	mov    -0x8(%rbp),%rcx
    5536:	48 89 ce             	mov    %rcx,%rsi
    5539:	48 89 c7             	mov    %rax,%rdi
    553c:	e8 d2 8a 00 00       	call   e013 <zip_file_extra_fields_count>
    5541:	66 89 45 f2          	mov    %ax,-0xe(%rbp)
    5545:	66 83 7d f2 00       	cmpw   $0x0,-0xe(%rbp)
    554a:	79 38                	jns    5584 <count_extra+0xa9>
/home/tenebris/Documents/RootCauseAnalysis/evaluation/test_bin/libzip/libzip-1.2.0/src/ziptool.c:235
    554c:	48 8b 05 6d 60 02 00 	mov    0x2606d(%rip),%rax        # 2b5c0 <za>
    5553:	48 89 c7             	mov    %rax,%rdi
    5556:	e8 52 45 01 00       	call   19aad <zip_strerror>
    555b:	48 89 c1             	mov    %rax,%rcx
    555e:	48 8b 05 3b 60 02 00 	mov    0x2603b(%rip),%rax        # 2b5a0 <stderr@GLIBC_2.2.5>
    5565:	48 8b 55 f8          	mov    -0x8(%rbp),%rdx
    5569:	48 8d 35 e0 bc 01 00 	lea    0x1bce0(%rip),%rsi        # 21250 <_IO_stdin_used+0x250>
    5570:	48 89 c7             	mov    %rax,%rdi
    5573:	b8 00 00 00 00       	mov    $0x0,%eax
    5578:	e8 63 e0 ff ff       	call   35e0 <fprintf@plt>
/home/tenebris/Documents/RootCauseAnalysis/evaluation/test_bin/libzip/libzip-1.2.0/src/ziptool.c:236
    557d:	b8 ff ff ff ff       	mov    $0xffffffff,%eax
    5582:	eb 1f                	jmp    55a3 <count_extra+0xc8>
/home/tenebris/Documents/RootCauseAnalysis/evaluation/test_bin/libzip/libzip-1.2.0/src/ziptool.c:238
    5584:	0f bf 45 f2          	movswl -0xe(%rbp),%eax
    5588:	89 c6                	mov    %eax,%esi
    558a:	48 8d 05 f8 bc 01 00 	lea    0x1bcf8(%rip),%rax        # 21289 <_IO_stdin_used+0x289>
    5591:	48 89 c7             	mov    %rax,%rdi
    5594:	b8 00 00 00 00       	mov    $0x0,%eax
    5599:	e8 62 df ff ff       	call   3500 <printf@plt>
/home/tenebris/Documents/RootCauseAnalysis/evaluation/test_bin/libzip/libzip-1.2.0/src/ziptool.c:240
    559e:	b8 00 00 00 00       	mov    $0x0,%eax
/home/tenebris/Documents/RootCauseAnalysis/evaluation/test_bin/libzip/libzip-1.2.0/src/ziptool.c:241
    55a3:	c9                   	leave  
    55a4:	c3                   	ret    

00000000000055a5 <count_extra_by_id>:
count_extra_by_id():
/home/tenebris/Documents/RootCauseAnalysis/evaluation/test_bin/libzip/libzip-1.2.0/src/ziptool.c:244
    55a5:	f3 0f 1e fa          	endbr64 
    55a9:	55                   	push   %rbp
    55aa:	48 89 e5             	mov    %rsp,%rbp
    55ad:	48 83 ec 20          	sub    $0x20,%rsp
    55b1:	89 7d ec             	mov    %edi,-0x14(%rbp)
    55b4:	48 89 75 e0          	mov    %rsi,-0x20(%rbp)
/home/tenebris/Documents/RootCauseAnalysis/evaluation/test_bin/libzip/libzip-1.2.0/src/ziptool.c:247
    55b8:	c7 45 f4 00 00 00 00 	movl   $0x0,-0xc(%rbp)
/home/tenebris/Documents/RootCauseAnalysis/evaluation/test_bin/libzip/libzip-1.2.0/src/ziptool.c:249
    55bf:	48 8b 45 e0          	mov    -0x20(%rbp),%rax
    55c3:	48 8b 00             	mov    (%rax),%rax
    55c6:	ba 0a 00 00 00       	mov    $0xa,%edx
    55cb:	be 00 00 00 00       	mov    $0x0,%esi
    55d0:	48 89 c7             	mov    %rax,%rdi
    55d3:	e8 d8 df ff ff       	call   35b0 <strtoull@plt>
    55d8:	48 89 45 f8          	mov    %rax,-0x8(%rbp)
/home/tenebris/Documents/RootCauseAnalysis/evaluation/test_bin/libzip/libzip-1.2.0/src/ziptool.c:250
    55dc:	48 8b 45 e0          	mov    -0x20(%rbp),%rax
    55e0:	48 83 c0 08          	add    $0x8,%rax
    55e4:	48 8b 00             	mov    (%rax),%rax
    55e7:	ba 0a 00 00 00       	mov    $0xa,%edx
    55ec:	be 00 00 00 00       	mov    $0x0,%esi
    55f1:	48 89 c7             	mov    %rax,%rdi
    55f4:	e8 b7 df ff ff       	call   35b0 <strtoull@plt>
    55f9:	66 89 45 f0          	mov    %ax,-0x10(%rbp)
/home/tenebris/Documents/RootCauseAnalysis/evaluation/test_bin/libzip/libzip-1.2.0/src/ziptool.c:251
    55fd:	48 8b 45 e0          	mov    -0x20(%rbp),%rax
    5601:	48 83 c0 10          	add    $0x10,%rax
    5605:	48 8b 00             	mov    (%rax),%rax
    5608:	48 89 c7             	mov    %rax,%rdi
    560b:	e8 25 15 00 00       	call   6b35 <get_flags>
    5610:	89 45 f4             	mov    %eax,-0xc(%rbp)
/home/tenebris/Documents/RootCauseAnalysis/evaluation/test_bin/libzip/libzip-1.2.0/src/ziptool.c:252
    5613:	0f b7 55 f0          	movzwl -0x10(%rbp),%edx
    5617:	48 8b 05 a2 5f 02 00 	mov    0x25fa2(%rip),%rax        # 2b5c0 <za>
    561e:	8b 4d f4             	mov    -0xc(%rbp),%ecx
    5621:	48 8b 75 f8          	mov    -0x8(%rbp),%rsi
    5625:	48 89 c7             	mov    %rax,%rdi
    5628:	e8 ce 8a 00 00       	call   e0fb <zip_file_extra_fields_count_by_id>
    562d:	66 89 45 f2          	mov    %ax,-0xe(%rbp)
    5631:	66 83 7d f2 00       	cmpw   $0x0,-0xe(%rbp)
    5636:	79 3f                	jns    5677 <count_extra_by_id+0xd2>
/home/tenebris/Documents/RootCauseAnalysis/evaluation/test_bin/libzip/libzip-1.2.0/src/ziptool.c:253
    5638:	48 8b 05 81 5f 02 00 	mov    0x25f81(%rip),%rax        # 2b5c0 <za>
    563f:	48 89 c7             	mov    %rax,%rdi
    5642:	e8 66 44 01 00       	call   19aad <zip_strerror>
    5647:	48 89 c6             	mov    %rax,%rsi
    564a:	0f b7 4d f0          	movzwl -0x10(%rbp),%ecx
    564e:	48 8b 05 4b 5f 02 00 	mov    0x25f4b(%rip),%rax        # 2b5a0 <stderr@GLIBC_2.2.5>
    5655:	48 8b 55 f8          	mov    -0x8(%rbp),%rdx
    5659:	49 89 f0             	mov    %rsi,%r8
    565c:	48 8d 35 3d bc 01 00 	lea    0x1bc3d(%rip),%rsi        # 212a0 <_IO_stdin_used+0x2a0>
    5663:	48 89 c7             	mov    %rax,%rdi
    5666:	b8 00 00 00 00       	mov    $0x0,%eax
    566b:	e8 70 df ff ff       	call   35e0 <fprintf@plt>
/home/tenebris/Documents/RootCauseAnalysis/evaluation/test_bin/libzip/libzip-1.2.0/src/ziptool.c:254
    5670:	b8 ff ff ff ff       	mov    $0xffffffff,%eax
    5675:	eb 1f                	jmp    5696 <count_extra_by_id+0xf1>
/home/tenebris/Documents/RootCauseAnalysis/evaluation/test_bin/libzip/libzip-1.2.0/src/ziptool.c:256
    5677:	0f bf 45 f2          	movswl -0xe(%rbp),%eax
    567b:	89 c6                	mov    %eax,%esi
    567d:	48 8d 05 05 bc 01 00 	lea    0x1bc05(%rip),%rax        # 21289 <_IO_stdin_used+0x289>
    5684:	48 89 c7             	mov    %rax,%rdi
    5687:	b8 00 00 00 00       	mov    $0x0,%eax
    568c:	e8 6f de ff ff       	call   3500 <printf@plt>
/home/tenebris/Documents/RootCauseAnalysis/evaluation/test_bin/libzip/libzip-1.2.0/src/ziptool.c:258
    5691:	b8 00 00 00 00       	mov    $0x0,%eax
/home/tenebris/Documents/RootCauseAnalysis/evaluation/test_bin/libzip/libzip-1.2.0/src/ziptool.c:259
    5696:	c9                   	leave  
    5697:	c3                   	ret    

0000000000005698 <delete>:
delete():
/home/tenebris/Documents/RootCauseAnalysis/evaluation/test_bin/libzip/libzip-1.2.0/src/ziptool.c:262
    5698:	f3 0f 1e fa          	endbr64 
    569c:	55                   	push   %rbp
    569d:	48 89 e5             	mov    %rsp,%rbp
    56a0:	48 83 ec 20          	sub    $0x20,%rsp
    56a4:	89 7d ec             	mov    %edi,-0x14(%rbp)
    56a7:	48 89 75 e0          	mov    %rsi,-0x20(%rbp)
/home/tenebris/Documents/RootCauseAnalysis/evaluation/test_bin/libzip/libzip-1.2.0/src/ziptool.c:264
    56ab:	48 8b 45 e0          	mov    -0x20(%rbp),%rax
    56af:	48 8b 00             	mov    (%rax),%rax
    56b2:	ba 0a 00 00 00       	mov    $0xa,%edx
    56b7:	be 00 00 00 00       	mov    $0x0,%esi
    56bc:	48 89 c7             	mov    %rax,%rdi
    56bf:	e8 ec de ff ff       	call   35b0 <strtoull@plt>
    56c4:	48 89 45 f8          	mov    %rax,-0x8(%rbp)
/home/tenebris/Documents/RootCauseAnalysis/evaluation/test_bin/libzip/libzip-1.2.0/src/ziptool.c:265
    56c8:	48 8b 05 f1 5e 02 00 	mov    0x25ef1(%rip),%rax        # 2b5c0 <za>
    56cf:	48 8b 55 f8          	mov    -0x8(%rbp),%rdx
    56d3:	48 89 d6             	mov    %rdx,%rsi
    56d6:	48 89 c7             	mov    %rax,%rdi
    56d9:	e8 94 3f 00 00       	call   9672 <zip_delete>
    56de:	85 c0                	test   %eax,%eax
    56e0:	79 38                	jns    571a <delete+0x82>
/home/tenebris/Documents/RootCauseAnalysis/evaluation/test_bin/libzip/libzip-1.2.0/src/ziptool.c:266
    56e2:	48 8b 05 d7 5e 02 00 	mov    0x25ed7(%rip),%rax        # 2b5c0 <za>
    56e9:	48 89 c7             	mov    %rax,%rdi
    56ec:	e8 bc 43 01 00       	call   19aad <zip_strerror>
    56f1:	48 89 c1             	mov    %rax,%rcx
    56f4:	48 8b 05 a5 5e 02 00 	mov    0x25ea5(%rip),%rax        # 2b5a0 <stderr@GLIBC_2.2.5>
    56fb:	48 8b 55 f8          	mov    -0x8(%rbp),%rdx
    56ff:	48 8d 35 ea bb 01 00 	lea    0x1bbea(%rip),%rsi        # 212f0 <_IO_stdin_used+0x2f0>
    5706:	48 89 c7             	mov    %rax,%rdi
    5709:	b8 00 00 00 00       	mov    $0x0,%eax
    570e:	e8 cd de ff ff       	call   35e0 <fprintf@plt>
/home/tenebris/Documents/RootCauseAnalysis/evaluation/test_bin/libzip/libzip-1.2.0/src/ziptool.c:267
    5713:	b8 ff ff ff ff       	mov    $0xffffffff,%eax
    5718:	eb 05                	jmp    571f <delete+0x87>
/home/tenebris/Documents/RootCauseAnalysis/evaluation/test_bin/libzip/libzip-1.2.0/src/ziptool.c:269
    571a:	b8 00 00 00 00       	mov    $0x0,%eax
/home/tenebris/Documents/RootCauseAnalysis/evaluation/test_bin/libzip/libzip-1.2.0/src/ziptool.c:270
    571f:	c9                   	leave  
    5720:	c3                   	ret    

0000000000005721 <delete_extra>:
delete_extra():
/home/tenebris/Documents/RootCauseAnalysis/evaluation/test_bin/libzip/libzip-1.2.0/src/ziptool.c:273
    5721:	f3 0f 1e fa          	endbr64 
    5725:	55                   	push   %rbp
    5726:	48 89 e5             	mov    %rsp,%rbp
    5729:	48 83 ec 20          	sub    $0x20,%rsp
    572d:	89 7d ec             	mov    %edi,-0x14(%rbp)
    5730:	48 89 75 e0          	mov    %rsi,-0x20(%rbp)
/home/tenebris/Documents/RootCauseAnalysis/evaluation/test_bin/libzip/libzip-1.2.0/src/ziptool.c:277
    5734:	48 8b 45 e0          	mov    -0x20(%rbp),%rax
    5738:	48 8b 00             	mov    (%rax),%rax
    573b:	ba 0a 00 00 00       	mov    $0xa,%edx
    5740:	be 00 00 00 00       	mov    $0x0,%esi
    5745:	48 89 c7             	mov    %rax,%rdi
    5748:	e8 63 de ff ff       	call   35b0 <strtoull@plt>
    574d:	48 89 45 f8          	mov    %rax,-0x8(%rbp)
/home/tenebris/Documents/RootCauseAnalysis/evaluation/test_bin/libzip/libzip-1.2.0/src/ziptool.c:278
    5751:	48 8b 45 e0          	mov    -0x20(%rbp),%rax
    5755:	48 83 c0 08          	add    $0x8,%rax
    5759:	48 8b 00             	mov    (%rax),%rax
    575c:	ba 0a 00 00 00       	mov    $0xa,%edx
    5761:	be 00 00 00 00       	mov    $0x0,%esi
    5766:	48 89 c7             	mov    %rax,%rdi
    5769:	e8 42 de ff ff       	call   35b0 <strtoull@plt>
    576e:	66 89 45 f2          	mov    %ax,-0xe(%rbp)
/home/tenebris/Documents/RootCauseAnalysis/evaluation/test_bin/libzip/libzip-1.2.0/src/ziptool.c:279
    5772:	48 8b 45 e0          	mov    -0x20(%rbp),%rax
    5776:	48 83 c0 10          	add    $0x10,%rax
    577a:	48 8b 00             	mov    (%rax),%rax
    577d:	48 89 c7             	mov    %rax,%rdi
    5780:	e8 b0 13 00 00       	call   6b35 <get_flags>
    5785:	89 45 f4             	mov    %eax,-0xc(%rbp)
/home/tenebris/Documents/RootCauseAnalysis/evaluation/test_bin/libzip/libzip-1.2.0/src/ziptool.c:280
    5788:	0f b7 55 f2          	movzwl -0xe(%rbp),%edx
    578c:	48 8b 05 2d 5e 02 00 	mov    0x25e2d(%rip),%rax        # 2b5c0 <za>
    5793:	8b 4d f4             	mov    -0xc(%rbp),%ecx
    5796:	48 8b 75 f8          	mov    -0x8(%rbp),%rsi
    579a:	48 89 c7             	mov    %rax,%rdi
    579d:	e8 a2 83 00 00       	call   db44 <zip_file_extra_field_delete>
    57a2:	85 c0                	test   %eax,%eax
    57a4:	79 3f                	jns    57e5 <delete_extra+0xc4>
/home/tenebris/Documents/RootCauseAnalysis/evaluation/test_bin/libzip/libzip-1.2.0/src/ziptool.c:281
    57a6:	48 8b 05 13 5e 02 00 	mov    0x25e13(%rip),%rax        # 2b5c0 <za>
    57ad:	48 89 c7             	mov    %rax,%rdi
    57b0:	e8 f8 42 01 00       	call   19aad <zip_strerror>
    57b5:	48 89 c6             	mov    %rax,%rsi
    57b8:	0f b7 4d f2          	movzwl -0xe(%rbp),%ecx
    57bc:	48 8b 05 dd 5d 02 00 	mov    0x25ddd(%rip),%rax        # 2b5a0 <stderr@GLIBC_2.2.5>
    57c3:	48 8b 55 f8          	mov    -0x8(%rbp),%rdx
    57c7:	49 89 f0             	mov    %rsi,%r8
    57ca:	48 8d 35 47 bb 01 00 	lea    0x1bb47(%rip),%rsi        # 21318 <_IO_stdin_used+0x318>
    57d1:	48 89 c7             	mov    %rax,%rdi
    57d4:	b8 00 00 00 00       	mov    $0x0,%eax
    57d9:	e8 02 de ff ff       	call   35e0 <fprintf@plt>
/home/tenebris/Documents/RootCauseAnalysis/evaluation/test_bin/libzip/libzip-1.2.0/src/ziptool.c:282
    57de:	b8 ff ff ff ff       	mov    $0xffffffff,%eax
    57e3:	eb 05                	jmp    57ea <delete_extra+0xc9>
/home/tenebris/Documents/RootCauseAnalysis/evaluation/test_bin/libzip/libzip-1.2.0/src/ziptool.c:284
    57e5:	b8 00 00 00 00       	mov    $0x0,%eax
/home/tenebris/Documents/RootCauseAnalysis/evaluation/test_bin/libzip/libzip-1.2.0/src/ziptool.c:285
    57ea:	c9                   	leave  
    57eb:	c3                   	ret    

00000000000057ec <delete_extra_by_id>:
delete_extra_by_id():
/home/tenebris/Documents/RootCauseAnalysis/evaluation/test_bin/libzip/libzip-1.2.0/src/ziptool.c:288
    57ec:	f3 0f 1e fa          	endbr64 
    57f0:	55                   	push   %rbp
    57f1:	48 89 e5             	mov    %rsp,%rbp
    57f4:	48 83 ec 20          	sub    $0x20,%rsp
    57f8:	89 7d ec             	mov    %edi,-0x14(%rbp)
    57fb:	48 89 75 e0          	mov    %rsi,-0x20(%rbp)
/home/tenebris/Documents/RootCauseAnalysis/evaluation/test_bin/libzip/libzip-1.2.0/src/ziptool.c:292
    57ff:	48 8b 45 e0          	mov    -0x20(%rbp),%rax
    5803:	48 8b 00             	mov    (%rax),%rax
    5806:	ba 0a 00 00 00       	mov    $0xa,%edx
    580b:	be 00 00 00 00       	mov    $0x0,%esi
    5810:	48 89 c7             	mov    %rax,%rdi
    5813:	e8 98 dd ff ff       	call   35b0 <strtoull@plt>
    5818:	48 89 45 f8          	mov    %rax,-0x8(%rbp)
/home/tenebris/Documents/RootCauseAnalysis/evaluation/test_bin/libzip/libzip-1.2.0/src/ziptool.c:293
    581c:	48 8b 45 e0          	mov    -0x20(%rbp),%rax
    5820:	48 83 c0 08          	add    $0x8,%rax
    5824:	48 8b 00             	mov    (%rax),%rax
    5827:	ba 0a 00 00 00       	mov    $0xa,%edx
    582c:	be 00 00 00 00       	mov    $0x0,%esi
    5831:	48 89 c7             	mov    %rax,%rdi
    5834:	e8 77 dd ff ff       	call   35b0 <strtoull@plt>
    5839:	66 89 45 f0          	mov    %ax,-0x10(%rbp)
/home/tenebris/Documents/RootCauseAnalysis/evaluation/test_bin/libzip/libzip-1.2.0/src/ziptool.c:294
    583d:	48 8b 45 e0          	mov    -0x20(%rbp),%rax
    5841:	48 83 c0 10          	add    $0x10,%rax
    5845:	48 8b 00             	mov    (%rax),%rax
    5848:	ba 0a 00 00 00       	mov    $0xa,%edx
    584d:	be 00 00 00 00       	mov    $0x0,%esi
    5852:	48 89 c7             	mov    %rax,%rdi
    5855:	e8 56 dd ff ff       	call   35b0 <strtoull@plt>
    585a:	66 89 45 f2          	mov    %ax,-0xe(%rbp)
/home/tenebris/Documents/RootCauseAnalysis/evaluation/test_bin/libzip/libzip-1.2.0/src/ziptool.c:295
    585e:	48 8b 45 e0          	mov    -0x20(%rbp),%rax
    5862:	48 83 c0 18          	add    $0x18,%rax
    5866:	48 8b 00             	mov    (%rax),%rax
    5869:	48 89 c7             	mov    %rax,%rdi
    586c:	e8 c4 12 00 00       	call   6b35 <get_flags>
    5871:	89 45 f4             	mov    %eax,-0xc(%rbp)
/home/tenebris/Documents/RootCauseAnalysis/evaluation/test_bin/libzip/libzip-1.2.0/src/ziptool.c:296
    5874:	0f b7 4d f2          	movzwl -0xe(%rbp),%ecx
    5878:	0f b7 55 f0          	movzwl -0x10(%rbp),%edx
    587c:	48 8b 05 3d 5d 02 00 	mov    0x25d3d(%rip),%rax        # 2b5c0 <za>
    5883:	8b 7d f4             	mov    -0xc(%rbp),%edi
    5886:	48 8b 75 f8          	mov    -0x8(%rbp),%rsi
    588a:	41 89 f8             	mov    %edi,%r8d
    588d:	48 89 c7             	mov    %rax,%rdi
    5890:	e8 f2 83 00 00       	call   dc87 <zip_file_extra_field_delete_by_id>
    5895:	85 c0                	test   %eax,%eax
    5897:	79 46                	jns    58df <delete_extra_by_id+0xf3>
/home/tenebris/Documents/RootCauseAnalysis/evaluation/test_bin/libzip/libzip-1.2.0/src/ziptool.c:297
    5899:	48 8b 05 20 5d 02 00 	mov    0x25d20(%rip),%rax        # 2b5c0 <za>
    58a0:	48 89 c7             	mov    %rax,%rdi
    58a3:	e8 05 42 01 00       	call   19aad <zip_strerror>
    58a8:	48 89 c6             	mov    %rax,%rsi
    58ab:	0f b7 7d f2          	movzwl -0xe(%rbp),%edi
    58af:	0f b7 4d f0          	movzwl -0x10(%rbp),%ecx
    58b3:	48 8b 05 e6 5c 02 00 	mov    0x25ce6(%rip),%rax        # 2b5a0 <stderr@GLIBC_2.2.5>
    58ba:	48 8b 55 f8          	mov    -0x8(%rbp),%rdx
    58be:	49 89 f1             	mov    %rsi,%r9
    58c1:	41 89 f8             	mov    %edi,%r8d
    58c4:	48 8d 35 9d ba 01 00 	lea    0x1ba9d(%rip),%rsi        # 21368 <_IO_stdin_used+0x368>
    58cb:	48 89 c7             	mov    %rax,%rdi
    58ce:	b8 00 00 00 00       	mov    $0x0,%eax
    58d3:	e8 08 dd ff ff       	call   35e0 <fprintf@plt>
/home/tenebris/Documents/RootCauseAnalysis/evaluation/test_bin/libzip/libzip-1.2.0/src/ziptool.c:298
    58d8:	b8 ff ff ff ff       	mov    $0xffffffff,%eax
    58dd:	eb 05                	jmp    58e4 <delete_extra_by_id+0xf8>
/home/tenebris/Documents/RootCauseAnalysis/evaluation/test_bin/libzip/libzip-1.2.0/src/ziptool.c:300
    58df:	b8 00 00 00 00       	mov    $0x0,%eax
/home/tenebris/Documents/RootCauseAnalysis/evaluation/test_bin/libzip/libzip-1.2.0/src/ziptool.c:301
    58e4:	c9                   	leave  
    58e5:	c3                   	ret    

00000000000058e6 <get_archive_comment>:
get_archive_comment():
/home/tenebris/Documents/RootCauseAnalysis/evaluation/test_bin/libzip/libzip-1.2.0/src/ziptool.c:304
    58e6:	f3 0f 1e fa          	endbr64 
    58ea:	55                   	push   %rbp
    58eb:	48 89 e5             	mov    %rsp,%rbp
    58ee:	48 83 ec 30          	sub    $0x30,%rsp
    58f2:	89 7d dc             	mov    %edi,-0x24(%rbp)
    58f5:	48 89 75 d0          	mov    %rsi,-0x30(%rbp)
    58f9:	64 48 8b 04 25 28 00 	mov    %fs:0x28,%rax
    5900:	00 00 
    5902:	48 89 45 f8          	mov    %rax,-0x8(%rbp)
    5906:	31 c0                	xor    %eax,%eax
/home/tenebris/Documents/RootCauseAnalysis/evaluation/test_bin/libzip/libzip-1.2.0/src/ziptool.c:308
    5908:	48 8b 05 b1 5c 02 00 	mov    0x25cb1(%rip),%rax        # 2b5c0 <za>
    590f:	48 8d 4d ec          	lea    -0x14(%rbp),%rcx
    5913:	ba 00 00 00 00       	mov    $0x0,%edx
    5918:	48 89 ce             	mov    %rcx,%rsi
    591b:	48 89 c7             	mov    %rax,%rdi
    591e:	e8 72 9f 00 00       	call   f895 <zip_get_archive_comment>
    5923:	48 89 45 f0          	mov    %rax,-0x10(%rbp)
    5927:	48 83 7d f0 00       	cmpq   $0x0,-0x10(%rbp)
    592c:	75 11                	jne    593f <get_archive_comment+0x59>
/home/tenebris/Documents/RootCauseAnalysis/evaluation/test_bin/libzip/libzip-1.2.0/src/ziptool.c:309
    592e:	48 8d 05 99 ba 01 00 	lea    0x1ba99(%rip),%rax        # 213ce <_IO_stdin_used+0x3ce>
    5935:	48 89 c7             	mov    %rax,%rdi
    5938:	e8 43 db ff ff       	call   3480 <puts@plt>
    593d:	eb 1d                	jmp    595c <get_archive_comment+0x76>
/home/tenebris/Documents/RootCauseAnalysis/evaluation/test_bin/libzip/libzip-1.2.0/src/ziptool.c:311
    593f:	8b 45 ec             	mov    -0x14(%rbp),%eax
    5942:	48 8b 55 f0          	mov    -0x10(%rbp),%rdx
    5946:	89 c6                	mov    %eax,%esi
    5948:	48 8d 05 92 ba 01 00 	lea    0x1ba92(%rip),%rax        # 213e1 <_IO_stdin_used+0x3e1>
    594f:	48 89 c7             	mov    %rax,%rdi
    5952:	b8 00 00 00 00       	mov    $0x0,%eax
    5957:	e8 a4 db ff ff       	call   3500 <printf@plt>
/home/tenebris/Documents/RootCauseAnalysis/evaluation/test_bin/libzip/libzip-1.2.0/src/ziptool.c:312
    595c:	b8 00 00 00 00       	mov    $0x0,%eax
/home/tenebris/Documents/RootCauseAnalysis/evaluation/test_bin/libzip/libzip-1.2.0/src/ziptool.c:313
    5961:	48 8b 55 f8          	mov    -0x8(%rbp),%rdx
    5965:	64 48 2b 14 25 28 00 	sub    %fs:0x28,%rdx
    596c:	00 00 
    596e:	74 05                	je     5975 <get_archive_comment+0x8f>
    5970:	e8 6b db ff ff       	call   34e0 <__stack_chk_fail@plt>
    5975:	c9                   	leave  
    5976:	c3                   	ret    

0000000000005977 <get_extra>:
get_extra():
/home/tenebris/Documents/RootCauseAnalysis/evaluation/test_bin/libzip/libzip-1.2.0/src/ziptool.c:316
    5977:	f3 0f 1e fa          	endbr64 
    597b:	55                   	push   %rbp
    597c:	48 89 e5             	mov    %rsp,%rbp
    597f:	48 83 ec 40          	sub    $0x40,%rsp
    5983:	89 7d cc             	mov    %edi,-0x34(%rbp)
    5986:	48 89 75 c0          	mov    %rsi,-0x40(%rbp)
    598a:	64 48 8b 04 25 28 00 	mov    %fs:0x28,%rax
    5991:	00 00 
    5993:	48 89 45 f8          	mov    %rax,-0x8(%rbp)
    5997:	31 c0                	xor    %eax,%eax
/home/tenebris/Documents/RootCauseAnalysis/evaluation/test_bin/libzip/libzip-1.2.0/src/ziptool.c:322
    5999:	48 8b 45 c0          	mov    -0x40(%rbp),%rax
    599d:	48 8b 00             	mov    (%rax),%rax
    59a0:	ba 0a 00 00 00       	mov    $0xa,%edx
    59a5:	be 00 00 00 00       	mov    $0x0,%esi
    59aa:	48 89 c7             	mov    %rax,%rdi
    59ad:	e8 fe db ff ff       	call   35b0 <strtoull@plt>
    59b2:	48 89 45 e8          	mov    %rax,-0x18(%rbp)
/home/tenebris/Documents/RootCauseAnalysis/evaluation/test_bin/libzip/libzip-1.2.0/src/ziptool.c:323
    59b6:	48 8b 45 c0          	mov    -0x40(%rbp),%rax
    59ba:	48 83 c0 08          	add    $0x8,%rax
    59be:	48 8b 00             	mov    (%rax),%rax
    59c1:	ba 0a 00 00 00       	mov    $0xa,%edx
    59c6:	be 00 00 00 00       	mov    $0x0,%esi
    59cb:	48 89 c7             	mov    %rax,%rdi
    59ce:	e8 dd db ff ff       	call   35b0 <strtoull@plt>
    59d3:	66 89 45 e2          	mov    %ax,-0x1e(%rbp)
/home/tenebris/Documents/RootCauseAnalysis/evaluation/test_bin/libzip/libzip-1.2.0/src/ziptool.c:324
    59d7:	48 8b 45 c0          	mov    -0x40(%rbp),%rax
    59db:	48 83 c0 10          	add    $0x10,%rax
    59df:	48 8b 00             	mov    (%rax),%rax
    59e2:	48 89 c7             	mov    %rax,%rdi
    59e5:	e8 4b 11 00 00       	call   6b35 <get_flags>
    59ea:	89 45 e4             	mov    %eax,-0x1c(%rbp)
/home/tenebris/Documents/RootCauseAnalysis/evaluation/test_bin/libzip/libzip-1.2.0/src/ziptool.c:325
    59ed:	0f b7 55 e2          	movzwl -0x1e(%rbp),%edx
    59f1:	48 8b 05 c8 5b 02 00 	mov    0x25bc8(%rip),%rax        # 2b5c0 <za>
    59f8:	44 8b 45 e4          	mov    -0x1c(%rbp),%r8d
    59fc:	48 8d 7d e0          	lea    -0x20(%rbp),%rdi
    5a00:	48 8d 4d de          	lea    -0x22(%rbp),%rcx
    5a04:	48 8b 75 e8          	mov    -0x18(%rbp),%rsi
    5a08:	45 89 c1             	mov    %r8d,%r9d
    5a0b:	49 89 f8             	mov    %rdi,%r8
    5a0e:	48 89 c7             	mov    %rax,%rdi
    5a11:	e8 b8 83 00 00       	call   ddce <zip_file_extra_field_get>
    5a16:	48 89 45 f0          	mov    %rax,-0x10(%rbp)
    5a1a:	48 83 7d f0 00       	cmpq   $0x0,-0x10(%rbp)
    5a1f:	75 45                	jne    5a66 <get_extra+0xef>
/home/tenebris/Documents/RootCauseAnalysis/evaluation/test_bin/libzip/libzip-1.2.0/src/ziptool.c:326
    5a21:	48 8b 05 98 5b 02 00 	mov    0x25b98(%rip),%rax        # 2b5c0 <za>
    5a28:	48 89 c7             	mov    %rax,%rdi
    5a2b:	e8 7d 40 01 00       	call   19aad <zip_strerror>
    5a30:	48 89 c6             	mov    %rax,%rsi
    5a33:	0f b7 4d e2          	movzwl -0x1e(%rbp),%ecx
    5a37:	48 8b 05 62 5b 02 00 	mov    0x25b62(%rip),%rax        # 2b5a0 <stderr@GLIBC_2.2.5>
    5a3e:	8b 7d e4             	mov    -0x1c(%rbp),%edi
    5a41:	48 8b 55 e8          	mov    -0x18(%rbp),%rdx
    5a45:	49 89 f1             	mov    %rsi,%r9
    5a48:	41 89 f8             	mov    %edi,%r8d
    5a4b:	48 8d 35 a6 b9 01 00 	lea    0x1b9a6(%rip),%rsi        # 213f8 <_IO_stdin_used+0x3f8>
    5a52:	48 89 c7             	mov    %rax,%rdi
    5a55:	b8 00 00 00 00       	mov    $0x0,%eax
    5a5a:	e8 81 db ff ff       	call   35e0 <fprintf@plt>
/home/tenebris/Documents/RootCauseAnalysis/evaluation/test_bin/libzip/libzip-1.2.0/src/ziptool.c:327
    5a5f:	b8 ff ff ff ff       	mov    $0xffffffff,%eax
    5a64:	eb 65                	jmp    5acb <get_extra+0x154>
/home/tenebris/Documents/RootCauseAnalysis/evaluation/test_bin/libzip/libzip-1.2.0/src/ziptool.c:329
    5a66:	0f b7 45 e0          	movzwl -0x20(%rbp),%eax
    5a6a:	0f b7 d0             	movzwl %ax,%edx
    5a6d:	0f b7 45 de          	movzwl -0x22(%rbp),%eax
    5a71:	0f b7 c0             	movzwl %ax,%eax
    5a74:	89 c6                	mov    %eax,%esi
    5a76:	48 8d 05 cb b9 01 00 	lea    0x1b9cb(%rip),%rax        # 21448 <_IO_stdin_used+0x448>
    5a7d:	48 89 c7             	mov    %rax,%rdi
    5a80:	b8 00 00 00 00       	mov    $0x0,%eax
    5a85:	e8 76 da ff ff       	call   3500 <printf@plt>
/home/tenebris/Documents/RootCauseAnalysis/evaluation/test_bin/libzip/libzip-1.2.0/src/ziptool.c:330
    5a8a:	0f b7 45 e0          	movzwl -0x20(%rbp),%eax
    5a8e:	66 85 c0             	test   %ax,%ax
    5a91:	74 29                	je     5abc <get_extra+0x145>
/home/tenebris/Documents/RootCauseAnalysis/evaluation/test_bin/libzip/libzip-1.2.0/src/ziptool.c:331
    5a93:	48 8d 05 c9 b9 01 00 	lea    0x1b9c9(%rip),%rax        # 21463 <_IO_stdin_used+0x463>
    5a9a:	48 89 c7             	mov    %rax,%rdi
    5a9d:	b8 00 00 00 00       	mov    $0x0,%eax
    5aa2:	e8 59 da ff ff       	call   3500 <printf@plt>
/home/tenebris/Documents/RootCauseAnalysis/evaluation/test_bin/libzip/libzip-1.2.0/src/ziptool.c:332
    5aa7:	0f b7 45 e0          	movzwl -0x20(%rbp),%eax
    5aab:	0f b7 d0             	movzwl %ax,%edx
    5aae:	48 8b 45 f0          	mov    -0x10(%rbp),%rax
    5ab2:	89 d6                	mov    %edx,%esi
    5ab4:	48 89 c7             	mov    %rax,%rdi
    5ab7:	e8 77 12 00 00       	call   6d33 <hexdump>
/home/tenebris/Documents/RootCauseAnalysis/evaluation/test_bin/libzip/libzip-1.2.0/src/ziptool.c:334
    5abc:	bf 0a 00 00 00       	mov    $0xa,%edi
    5ac1:	e8 3a d9 ff ff       	call   3400 <putchar@plt>
/home/tenebris/Documents/RootCauseAnalysis/evaluation/test_bin/libzip/libzip-1.2.0/src/ziptool.c:335
    5ac6:	b8 00 00 00 00       	mov    $0x0,%eax
/home/tenebris/Documents/RootCauseAnalysis/evaluation/test_bin/libzip/libzip-1.2.0/src/ziptool.c:336 (discriminator 1)
    5acb:	48 8b 55 f8          	mov    -0x8(%rbp),%rdx
    5acf:	64 48 2b 14 25 28 00 	sub    %fs:0x28,%rdx
    5ad6:	00 00 
    5ad8:	74 05                	je     5adf <get_extra+0x168>
/home/tenebris/Documents/RootCauseAnalysis/evaluation/test_bin/libzip/libzip-1.2.0/src/ziptool.c:336
    5ada:	e8 01 da ff ff       	call   34e0 <__stack_chk_fail@plt>
    5adf:	c9                   	leave  
    5ae0:	c3                   	ret    

0000000000005ae1 <get_extra_by_id>:
get_extra_by_id():
/home/tenebris/Documents/RootCauseAnalysis/evaluation/test_bin/libzip/libzip-1.2.0/src/ziptool.c:339
    5ae1:	f3 0f 1e fa          	endbr64 
    5ae5:	55                   	push   %rbp
    5ae6:	48 89 e5             	mov    %rsp,%rbp
    5ae9:	48 83 ec 40          	sub    $0x40,%rsp
    5aed:	89 7d cc             	mov    %edi,-0x34(%rbp)
    5af0:	48 89 75 c0          	mov    %rsi,-0x40(%rbp)
    5af4:	64 48 8b 04 25 28 00 	mov    %fs:0x28,%rax
    5afb:	00 00 
    5afd:	48 89 45 f8          	mov    %rax,-0x8(%rbp)
    5b01:	31 c0                	xor    %eax,%eax
/home/tenebris/Documents/RootCauseAnalysis/evaluation/test_bin/libzip/libzip-1.2.0/src/ziptool.c:344
    5b03:	48 8b 45 c0          	mov    -0x40(%rbp),%rax
    5b07:	48 8b 00             	mov    (%rax),%rax
    5b0a:	ba 0a 00 00 00       	mov    $0xa,%edx
    5b0f:	be 00 00 00 00       	mov    $0x0,%esi
    5b14:	48 89 c7             	mov    %rax,%rdi
    5b17:	e8 94 da ff ff       	call   35b0 <strtoull@plt>
    5b1c:	48 89 45 e8          	mov    %rax,-0x18(%rbp)
/home/tenebris/Documents/RootCauseAnalysis/evaluation/test_bin/libzip/libzip-1.2.0/src/ziptool.c:345
    5b20:	48 8b 45 c0          	mov    -0x40(%rbp),%rax
    5b24:	48 83 c0 08          	add    $0x8,%rax
    5b28:	48 8b 00             	mov    (%rax),%rax
    5b2b:	ba 0a 00 00 00       	mov    $0xa,%edx
    5b30:	be 00 00 00 00       	mov    $0x0,%esi
    5b35:	48 89 c7             	mov    %rax,%rdi
    5b38:	e8 73 da ff ff       	call   35b0 <strtoull@plt>
    5b3d:	66 89 45 e0          	mov    %ax,-0x20(%rbp)
/home/tenebris/Documents/RootCauseAnalysis/evaluation/test_bin/libzip/libzip-1.2.0/src/ziptool.c:346
    5b41:	48 8b 45 c0          	mov    -0x40(%rbp),%rax
    5b45:	48 83 c0 10          	add    $0x10,%rax
    5b49:	48 8b 00             	mov    (%rax),%rax
    5b4c:	ba 0a 00 00 00       	mov    $0xa,%edx
    5b51:	be 00 00 00 00       	mov    $0x0,%esi
    5b56:	48 89 c7             	mov    %rax,%rdi
    5b59:	e8 52 da ff ff       	call   35b0 <strtoull@plt>
    5b5e:	66 89 45 e2          	mov    %ax,-0x1e(%rbp)
/home/tenebris/Documents/RootCauseAnalysis/evaluation/test_bin/libzip/libzip-1.2.0/src/ziptool.c:347
    5b62:	48 8b 45 c0          	mov    -0x40(%rbp),%rax
    5b66:	48 83 c0 18          	add    $0x18,%rax
    5b6a:	48 8b 00             	mov    (%rax),%rax
    5b6d:	48 89 c7             	mov    %rax,%rdi
    5b70:	e8 c0 0f 00 00       	call   6b35 <get_flags>
    5b75:	89 45 e4             	mov    %eax,-0x1c(%rbp)
/home/tenebris/Documents/RootCauseAnalysis/evaluation/test_bin/libzip/libzip-1.2.0/src/ziptool.c:348
    5b78:	0f b7 4d e2          	movzwl -0x1e(%rbp),%ecx
    5b7c:	0f b7 55 e0          	movzwl -0x20(%rbp),%edx
    5b80:	48 8b 05 39 5a 02 00 	mov    0x25a39(%rip),%rax        # 2b5c0 <za>
    5b87:	44 8b 45 e4          	mov    -0x1c(%rbp),%r8d
    5b8b:	48 8d 7d de          	lea    -0x22(%rbp),%rdi
    5b8f:	48 8b 75 e8          	mov    -0x18(%rbp),%rsi
    5b93:	45 89 c1             	mov    %r8d,%r9d
    5b96:	49 89 f8             	mov    %rdi,%r8
    5b99:	48 89 c7             	mov    %rax,%rdi
    5b9c:	e8 96 83 00 00       	call   df37 <zip_file_extra_field_get_by_id>
    5ba1:	48 89 45 f0          	mov    %rax,-0x10(%rbp)
    5ba5:	48 83 7d f0 00       	cmpq   $0x0,-0x10(%rbp)
    5baa:	75 53                	jne    5bff <get_extra_by_id+0x11e>
/home/tenebris/Documents/RootCauseAnalysis/evaluation/test_bin/libzip/libzip-1.2.0/src/ziptool.c:349
    5bac:	48 8b 05 0d 5a 02 00 	mov    0x25a0d(%rip),%rax        # 2b5c0 <za>
    5bb3:	48 89 c7             	mov    %rax,%rdi
    5bb6:	e8 f2 3e 01 00       	call   19aad <zip_strerror>
    5bbb:	48 89 c6             	mov    %rax,%rsi
    5bbe:	0f b7 7d e2          	movzwl -0x1e(%rbp),%edi
    5bc2:	0f b7 4d e0          	movzwl -0x20(%rbp),%ecx
    5bc6:	48 8b 05 d3 59 02 00 	mov    0x259d3(%rip),%rax        # 2b5a0 <stderr@GLIBC_2.2.5>
    5bcd:	44 8b 45 e4          	mov    -0x1c(%rbp),%r8d
    5bd1:	48 8b 55 e8          	mov    -0x18(%rbp),%rdx
    5bd5:	48 83 ec 08          	sub    $0x8,%rsp
    5bd9:	56                   	push   %rsi
    5bda:	45 89 c1             	mov    %r8d,%r9d
    5bdd:	41 89 f8             	mov    %edi,%r8d
    5be0:	48 8d 35 89 b8 01 00 	lea    0x1b889(%rip),%rsi        # 21470 <_IO_stdin_used+0x470>
    5be7:	48 89 c7             	mov    %rax,%rdi
    5bea:	b8 00 00 00 00       	mov    $0x0,%eax
    5bef:	e8 ec d9 ff ff       	call   35e0 <fprintf@plt>
    5bf4:	48 83 c4 10          	add    $0x10,%rsp
/home/tenebris/Documents/RootCauseAnalysis/evaluation/test_bin/libzip/libzip-1.2.0/src/ziptool.c:350
    5bf8:	b8 ff ff ff ff       	mov    $0xffffffff,%eax
    5bfd:	eb 62                	jmp    5c61 <get_extra_by_id+0x180>
/home/tenebris/Documents/RootCauseAnalysis/evaluation/test_bin/libzip/libzip-1.2.0/src/ziptool.c:352
    5bff:	0f b7 45 de          	movzwl -0x22(%rbp),%eax
    5c03:	0f b7 d0             	movzwl %ax,%edx
    5c06:	0f b7 45 e0          	movzwl -0x20(%rbp),%eax
    5c0a:	89 c6                	mov    %eax,%esi
    5c0c:	48 8d 05 35 b8 01 00 	lea    0x1b835(%rip),%rax        # 21448 <_IO_stdin_used+0x448>
    5c13:	48 89 c7             	mov    %rax,%rdi
    5c16:	b8 00 00 00 00       	mov    $0x0,%eax
    5c1b:	e8 e0 d8 ff ff       	call   3500 <printf@plt>
/home/tenebris/Documents/RootCauseAnalysis/evaluation/test_bin/libzip/libzip-1.2.0/src/ziptool.c:353
    5c20:	0f b7 45 de          	movzwl -0x22(%rbp),%eax
    5c24:	66 85 c0             	test   %ax,%ax
    5c27:	74 29                	je     5c52 <get_extra_by_id+0x171>
/home/tenebris/Documents/RootCauseAnalysis/evaluation/test_bin/libzip/libzip-1.2.0/src/ziptool.c:354
    5c29:	48 8d 05 33 b8 01 00 	lea    0x1b833(%rip),%rax        # 21463 <_IO_stdin_used+0x463>
    5c30:	48 89 c7             	mov    %rax,%rdi
    5c33:	b8 00 00 00 00       	mov    $0x0,%eax
    5c38:	e8 c3 d8 ff ff       	call   3500 <printf@plt>
/home/tenebris/Documents/RootCauseAnalysis/evaluation/test_bin/libzip/libzip-1.2.0/src/ziptool.c:355
    5c3d:	0f b7 45 de          	movzwl -0x22(%rbp),%eax
    5c41:	0f b7 d0             	movzwl %ax,%edx
    5c44:	48 8b 45 f0          	mov    -0x10(%rbp),%rax
    5c48:	89 d6                	mov    %edx,%esi
    5c4a:	48 89 c7             	mov    %rax,%rdi
    5c4d:	e8 e1 10 00 00       	call   6d33 <hexdump>
/home/tenebris/Documents/RootCauseAnalysis/evaluation/test_bin/libzip/libzip-1.2.0/src/ziptool.c:357
    5c52:	bf 0a 00 00 00       	mov    $0xa,%edi
    5c57:	e8 a4 d7 ff ff       	call   3400 <putchar@plt>
/home/tenebris/Documents/RootCauseAnalysis/evaluation/test_bin/libzip/libzip-1.2.0/src/ziptool.c:358
    5c5c:	b8 00 00 00 00       	mov    $0x0,%eax
/home/tenebris/Documents/RootCauseAnalysis/evaluation/test_bin/libzip/libzip-1.2.0/src/ziptool.c:359 (discriminator 1)
    5c61:	48 8b 55 f8          	mov    -0x8(%rbp),%rdx
    5c65:	64 48 2b 14 25 28 00 	sub    %fs:0x28,%rdx
    5c6c:	00 00 
    5c6e:	74 05                	je     5c75 <get_extra_by_id+0x194>
/home/tenebris/Documents/RootCauseAnalysis/evaluation/test_bin/libzip/libzip-1.2.0/src/ziptool.c:359
    5c70:	e8 6b d8 ff ff       	call   34e0 <__stack_chk_fail@plt>
    5c75:	c9                   	leave  
    5c76:	c3                   	ret    

0000000000005c77 <get_file_comment>:
get_file_comment():
/home/tenebris/Documents/RootCauseAnalysis/evaluation/test_bin/libzip/libzip-1.2.0/src/ziptool.c:362
    5c77:	f3 0f 1e fa          	endbr64 
    5c7b:	55                   	push   %rbp
    5c7c:	48 89 e5             	mov    %rsp,%rbp
    5c7f:	53                   	push   %rbx
    5c80:	48 83 ec 38          	sub    $0x38,%rsp
    5c84:	89 7d cc             	mov    %edi,-0x34(%rbp)
    5c87:	48 89 75 c0          	mov    %rsi,-0x40(%rbp)
    5c8b:	64 48 8b 04 25 28 00 	mov    %fs:0x28,%rax
    5c92:	00 00 
    5c94:	48 89 45 e8          	mov    %rax,-0x18(%rbp)
    5c98:	31 c0                	xor    %eax,%eax
/home/tenebris/Documents/RootCauseAnalysis/evaluation/test_bin/libzip/libzip-1.2.0/src/ziptool.c:367
    5c9a:	48 8b 45 c0          	mov    -0x40(%rbp),%rax
    5c9e:	48 8b 00             	mov    (%rax),%rax
    5ca1:	ba 0a 00 00 00       	mov    $0xa,%edx
    5ca6:	be 00 00 00 00       	mov    $0x0,%esi
    5cab:	48 89 c7             	mov    %rax,%rdi
    5cae:	e8 fd d8 ff ff       	call   35b0 <strtoull@plt>
    5cb3:	48 89 45 d8          	mov    %rax,-0x28(%rbp)
/home/tenebris/Documents/RootCauseAnalysis/evaluation/test_bin/libzip/libzip-1.2.0/src/ziptool.c:368
    5cb7:	48 8b 05 02 59 02 00 	mov    0x25902(%rip),%rax        # 2b5c0 <za>
    5cbe:	48 8d 55 d4          	lea    -0x2c(%rbp),%rdx
    5cc2:	48 8b 75 d8          	mov    -0x28(%rbp),%rsi
    5cc6:	b9 00 00 00 00       	mov    $0x0,%ecx
    5ccb:	48 89 c7             	mov    %rax,%rdi
    5cce:	e8 01 9d 00 00       	call   f9d4 <zip_get_file_comment>
    5cd3:	48 89 45 e0          	mov    %rax,-0x20(%rbp)
    5cd7:	48 83 7d e0 00       	cmpq   $0x0,-0x20(%rbp)
    5cdc:	75 55                	jne    5d33 <get_file_comment+0xbc>
/home/tenebris/Documents/RootCauseAnalysis/evaluation/test_bin/libzip/libzip-1.2.0/src/ziptool.c:369
    5cde:	48 8b 05 db 58 02 00 	mov    0x258db(%rip),%rax        # 2b5c0 <za>
    5ce5:	48 89 c7             	mov    %rax,%rdi
    5ce8:	e8 c0 3d 01 00       	call   19aad <zip_strerror>
    5ced:	48 89 c3             	mov    %rax,%rbx
    5cf0:	48 8b 05 c9 58 02 00 	mov    0x258c9(%rip),%rax        # 2b5c0 <za>
    5cf7:	48 8b 4d d8          	mov    -0x28(%rbp),%rcx
    5cfb:	ba 00 00 00 00       	mov    $0x0,%edx
    5d00:	48 89 ce             	mov    %rcx,%rsi
    5d03:	48 89 c7             	mov    %rax,%rdi
    5d06:	e8 b3 9d 00 00       	call   fabe <zip_get_name>
    5d0b:	48 89 c2             	mov    %rax,%rdx
    5d0e:	48 8b 05 8b 58 02 00 	mov    0x2588b(%rip),%rax        # 2b5a0 <stderr@GLIBC_2.2.5>
    5d15:	48 89 d9             	mov    %rbx,%rcx
    5d18:	48 8d 35 b1 b7 01 00 	lea    0x1b7b1(%rip),%rsi        # 214d0 <_IO_stdin_used+0x4d0>
    5d1f:	48 89 c7             	mov    %rax,%rdi
    5d22:	b8 00 00 00 00       	mov    $0x0,%eax
    5d27:	e8 b4 d8 ff ff       	call   35e0 <fprintf@plt>
/home/tenebris/Documents/RootCauseAnalysis/evaluation/test_bin/libzip/libzip-1.2.0/src/ziptool.c:370
    5d2c:	b8 ff ff ff ff       	mov    $0xffffffff,%eax
    5d31:	eb 7e                	jmp    5db1 <get_file_comment+0x13a>
/home/tenebris/Documents/RootCauseAnalysis/evaluation/test_bin/libzip/libzip-1.2.0/src/ziptool.c:371
    5d33:	8b 45 d4             	mov    -0x2c(%rbp),%eax
    5d36:	85 c0                	test   %eax,%eax
    5d38:	75 34                	jne    5d6e <get_file_comment+0xf7>
/home/tenebris/Documents/RootCauseAnalysis/evaluation/test_bin/libzip/libzip-1.2.0/src/ziptool.c:372
    5d3a:	48 8b 05 7f 58 02 00 	mov    0x2587f(%rip),%rax        # 2b5c0 <za>
    5d41:	48 8b 4d d8          	mov    -0x28(%rbp),%rcx
    5d45:	ba 00 00 00 00       	mov    $0x0,%edx
    5d4a:	48 89 ce             	mov    %rcx,%rsi
    5d4d:	48 89 c7             	mov    %rax,%rdi
    5d50:	e8 69 9d 00 00       	call   fabe <zip_get_name>
    5d55:	48 89 c6             	mov    %rax,%rsi
    5d58:	48 8d 05 91 b7 01 00 	lea    0x1b791(%rip),%rax        # 214f0 <_IO_stdin_used+0x4f0>
    5d5f:	48 89 c7             	mov    %rax,%rdi
    5d62:	b8 00 00 00 00       	mov    $0x0,%eax
    5d67:	e8 94 d7 ff ff       	call   3500 <printf@plt>
    5d6c:	eb 3e                	jmp    5dac <get_file_comment+0x135>
/home/tenebris/Documents/RootCauseAnalysis/evaluation/test_bin/libzip/libzip-1.2.0/src/ziptool.c:374
    5d6e:	8b 5d d4             	mov    -0x2c(%rbp),%ebx
    5d71:	48 8b 05 48 58 02 00 	mov    0x25848(%rip),%rax        # 2b5c0 <za>
    5d78:	48 8b 4d d8          	mov    -0x28(%rbp),%rcx
    5d7c:	ba 00 00 00 00       	mov    $0x0,%edx
    5d81:	48 89 ce             	mov    %rcx,%rsi
    5d84:	48 89 c7             	mov    %rax,%rdi
    5d87:	e8 32 9d 00 00       	call   fabe <zip_get_name>
    5d8c:	48 89 c6             	mov    %rax,%rsi
    5d8f:	48 8b 45 e0          	mov    -0x20(%rbp),%rax
    5d93:	48 89 c1             	mov    %rax,%rcx
    5d96:	89 da                	mov    %ebx,%edx
    5d98:	48 8d 05 66 b7 01 00 	lea    0x1b766(%rip),%rax        # 21505 <_IO_stdin_used+0x505>
    5d9f:	48 89 c7             	mov    %rax,%rdi
    5da2:	b8 00 00 00 00       	mov    $0x0,%eax
    5da7:	e8 54 d7 ff ff       	call   3500 <printf@plt>
/home/tenebris/Documents/RootCauseAnalysis/evaluation/test_bin/libzip/libzip-1.2.0/src/ziptool.c:375
    5dac:	b8 00 00 00 00       	mov    $0x0,%eax
/home/tenebris/Documents/RootCauseAnalysis/evaluation/test_bin/libzip/libzip-1.2.0/src/ziptool.c:376 (discriminator 1)
    5db1:	48 8b 55 e8          	mov    -0x18(%rbp),%rdx
    5db5:	64 48 2b 14 25 28 00 	sub    %fs:0x28,%rdx
    5dbc:	00 00 
    5dbe:	74 05                	je     5dc5 <get_file_comment+0x14e>
/home/tenebris/Documents/RootCauseAnalysis/evaluation/test_bin/libzip/libzip-1.2.0/src/ziptool.c:376
    5dc0:	e8 1b d7 ff ff       	call   34e0 <__stack_chk_fail@plt>
    5dc5:	48 8b 5d f8          	mov    -0x8(%rbp),%rbx
    5dc9:	c9                   	leave  
    5dca:	c3                   	ret    

0000000000005dcb <get_num_entries>:
get_num_entries():
/home/tenebris/Documents/RootCauseAnalysis/evaluation/test_bin/libzip/libzip-1.2.0/src/ziptool.c:379
    5dcb:	f3 0f 1e fa          	endbr64 
    5dcf:	55                   	push   %rbp
    5dd0:	48 89 e5             	mov    %rsp,%rbp
    5dd3:	48 83 ec 20          	sub    $0x20,%rsp
    5dd7:	89 7d ec             	mov    %edi,-0x14(%rbp)
    5dda:	48 89 75 e0          	mov    %rsi,-0x20(%rbp)
/home/tenebris/Documents/RootCauseAnalysis/evaluation/test_bin/libzip/libzip-1.2.0/src/ziptool.c:383
    5dde:	48 8b 45 e0          	mov    -0x20(%rbp),%rax
    5de2:	48 8b 00             	mov    (%rax),%rax
    5de5:	48 89 c7             	mov    %rax,%rdi
    5de8:	e8 48 0d 00 00       	call   6b35 <get_flags>
    5ded:	89 45 f4             	mov    %eax,-0xc(%rbp)
/home/tenebris/Documents/RootCauseAnalysis/evaluation/test_bin/libzip/libzip-1.2.0/src/ziptool.c:384
    5df0:	48 8b 05 c9 57 02 00 	mov    0x257c9(%rip),%rax        # 2b5c0 <za>
    5df7:	8b 55 f4             	mov    -0xc(%rbp),%edx
    5dfa:	89 d6                	mov    %edx,%esi
    5dfc:	48 89 c7             	mov    %rax,%rdi
    5dff:	e8 48 9c 00 00       	call   fa4c <zip_get_num_entries>
    5e04:	48 89 45 f8          	mov    %rax,-0x8(%rbp)
/home/tenebris/Documents/RootCauseAnalysis/evaluation/test_bin/libzip/libzip-1.2.0/src/ziptool.c:385
    5e08:	48 83 7d f8 01       	cmpq   $0x1,-0x8(%rbp)
    5e0d:	75 09                	jne    5e18 <get_num_entries+0x4d>
/home/tenebris/Documents/RootCauseAnalysis/evaluation/test_bin/libzip/libzip-1.2.0/src/ziptool.c:385 (discriminator 1)
    5e0f:	48 8d 05 0c b7 01 00 	lea    0x1b70c(%rip),%rax        # 21522 <_IO_stdin_used+0x522>
    5e16:	eb 07                	jmp    5e1f <get_num_entries+0x54>
/home/tenebris/Documents/RootCauseAnalysis/evaluation/test_bin/libzip/libzip-1.2.0/src/ziptool.c:385 (discriminator 2)
    5e18:	48 8d 05 05 b7 01 00 	lea    0x1b705(%rip),%rax        # 21524 <_IO_stdin_used+0x524>
/home/tenebris/Documents/RootCauseAnalysis/evaluation/test_bin/libzip/libzip-1.2.0/src/ziptool.c:385 (discriminator 4)
    5e1f:	48 8b 4d f8          	mov    -0x8(%rbp),%rcx
    5e23:	48 89 c2             	mov    %rax,%rdx
    5e26:	48 89 ce             	mov    %rcx,%rsi
    5e29:	48 8d 05 f8 b6 01 00 	lea    0x1b6f8(%rip),%rax        # 21528 <_IO_stdin_used+0x528>
    5e30:	48 89 c7             	mov    %rax,%rdi
    5e33:	b8 00 00 00 00       	mov    $0x0,%eax
    5e38:	e8 c3 d6 ff ff       	call   3500 <printf@plt>
/home/tenebris/Documents/RootCauseAnalysis/evaluation/test_bin/libzip/libzip-1.2.0/src/ziptool.c:386 (discriminator 4)
    5e3d:	b8 00 00 00 00       	mov    $0x0,%eax
/home/tenebris/Documents/RootCauseAnalysis/evaluation/test_bin/libzip/libzip-1.2.0/src/ziptool.c:387 (discriminator 4)
    5e42:	c9                   	leave  
    5e43:	c3                   	ret    

0000000000005e44 <name_locate>:
name_locate():
/home/tenebris/Documents/RootCauseAnalysis/evaluation/test_bin/libzip/libzip-1.2.0/src/ziptool.c:390
    5e44:	f3 0f 1e fa          	endbr64 
    5e48:	55                   	push   %rbp
    5e49:	48 89 e5             	mov    %rsp,%rbp
    5e4c:	48 83 ec 20          	sub    $0x20,%rsp
    5e50:	89 7d ec             	mov    %edi,-0x14(%rbp)
    5e53:	48 89 75 e0          	mov    %rsi,-0x20(%rbp)
/home/tenebris/Documents/RootCauseAnalysis/evaluation/test_bin/libzip/libzip-1.2.0/src/ziptool.c:393
    5e57:	48 8b 45 e0          	mov    -0x20(%rbp),%rax
    5e5b:	48 83 c0 08          	add    $0x8,%rax
    5e5f:	48 8b 00             	mov    (%rax),%rax
    5e62:	48 89 c7             	mov    %rax,%rdi
    5e65:	e8 cb 0c 00 00       	call   6b35 <get_flags>
    5e6a:	89 45 f4             	mov    %eax,-0xc(%rbp)
/home/tenebris/Documents/RootCauseAnalysis/evaluation/test_bin/libzip/libzip-1.2.0/src/ziptool.c:395
    5e6d:	48 8b 45 e0          	mov    -0x20(%rbp),%rax
    5e71:	48 8b 08             	mov    (%rax),%rcx
    5e74:	48 8b 05 45 57 02 00 	mov    0x25745(%rip),%rax        # 2b5c0 <za>
    5e7b:	8b 55 f4             	mov    -0xc(%rbp),%edx
    5e7e:	48 89 ce             	mov    %rcx,%rsi
    5e81:	48 89 c7             	mov    %rax,%rdi
    5e84:	e8 87 a7 00 00       	call   10610 <zip_name_locate>
    5e89:	48 89 45 f8          	mov    %rax,-0x8(%rbp)
    5e8d:	48 83 7d f8 00       	cmpq   $0x0,-0x8(%rbp)
    5e92:	79 2f                	jns    5ec3 <name_locate+0x7f>
/home/tenebris/Documents/RootCauseAnalysis/evaluation/test_bin/libzip/libzip-1.2.0/src/ziptool.c:396
    5e94:	48 8b 45 e0          	mov    -0x20(%rbp),%rax
    5e98:	48 83 c0 08          	add    $0x8,%rax
    5e9c:	48 8b 08             	mov    (%rax),%rcx
    5e9f:	48 8b 45 e0          	mov    -0x20(%rbp),%rax
    5ea3:	48 8b 10             	mov    (%rax),%rdx
    5ea6:	48 8b 05 f3 56 02 00 	mov    0x256f3(%rip),%rax        # 2b5a0 <stderr@GLIBC_2.2.5>
    5ead:	48 8d 35 8c b6 01 00 	lea    0x1b68c(%rip),%rsi        # 21540 <_IO_stdin_used+0x540>
    5eb4:	48 89 c7             	mov    %rax,%rdi
    5eb7:	b8 00 00 00 00       	mov    $0x0,%eax
    5ebc:	e8 1f d7 ff ff       	call   35e0 <fprintf@plt>
    5ec1:	eb 2d                	jmp    5ef0 <name_locate+0xac>
/home/tenebris/Documents/RootCauseAnalysis/evaluation/test_bin/libzip/libzip-1.2.0/src/ziptool.c:398
    5ec3:	48 8b 45 e0          	mov    -0x20(%rbp),%rax
    5ec7:	48 83 c0 08          	add    $0x8,%rax
    5ecb:	48 8b 10             	mov    (%rax),%rdx
    5ece:	48 8b 45 e0          	mov    -0x20(%rbp),%rax
    5ed2:	48 8b 00             	mov    (%rax),%rax
    5ed5:	48 8b 4d f8          	mov    -0x8(%rbp),%rcx
    5ed9:	48 89 c6             	mov    %rax,%rsi
    5edc:	48 8d 05 95 b6 01 00 	lea    0x1b695(%rip),%rax        # 21578 <_IO_stdin_used+0x578>
    5ee3:	48 89 c7             	mov    %rax,%rdi
    5ee6:	b8 00 00 00 00       	mov    $0x0,%eax
    5eeb:	e8 10 d6 ff ff       	call   3500 <printf@plt>
/home/tenebris/Documents/RootCauseAnalysis/evaluation/test_bin/libzip/libzip-1.2.0/src/ziptool.c:401
    5ef0:	b8 00 00 00 00       	mov    $0x0,%eax
/home/tenebris/Documents/RootCauseAnalysis/evaluation/test_bin/libzip/libzip-1.2.0/src/ziptool.c:402
    5ef5:	c9                   	leave  
    5ef6:	c3                   	ret    

0000000000005ef7 <progress_callback>:
progress_callback():
/home/tenebris/Documents/RootCauseAnalysis/evaluation/test_bin/libzip/libzip-1.2.0/src/ziptool.c:405
    5ef7:	f3 0f 1e fa          	endbr64 
    5efb:	55                   	push   %rbp
    5efc:	48 89 e5             	mov    %rsp,%rbp
    5eff:	48 83 ec 10          	sub    $0x10,%rsp
    5f03:	f2 0f 11 45 f8       	movsd  %xmm0,-0x8(%rbp)
/home/tenebris/Documents/RootCauseAnalysis/evaluation/test_bin/libzip/libzip-1.2.0/src/ziptool.c:406
    5f08:	f2 0f 10 4d f8       	movsd  -0x8(%rbp),%xmm1
    5f0d:	f2 0f 10 05 f3 c7 01 	movsd  0x1c7f3(%rip),%xmm0        # 22708 <_IO_stdin_used+0x1708>
    5f14:	00 
    5f15:	f2 0f 59 c8          	mulsd  %xmm0,%xmm1
    5f19:	66 48 0f 7e c8       	movq   %xmm1,%rax
    5f1e:	66 48 0f 6e c0       	movq   %rax,%xmm0
    5f23:	48 8d 05 7d b6 01 00 	lea    0x1b67d(%rip),%rax        # 215a7 <_IO_stdin_used+0x5a7>
    5f2a:	48 89 c7             	mov    %rax,%rdi
    5f2d:	b8 01 00 00 00       	mov    $0x1,%eax
    5f32:	e8 c9 d5 ff ff       	call   3500 <printf@plt>
/home/tenebris/Documents/RootCauseAnalysis/evaluation/test_bin/libzip/libzip-1.2.0/src/ziptool.c:407
    5f37:	90                   	nop
    5f38:	c9                   	leave  
    5f39:	c3                   	ret    

0000000000005f3a <print_progress>:
print_progress():
/home/tenebris/Documents/RootCauseAnalysis/evaluation/test_bin/libzip/libzip-1.2.0/src/ziptool.c:410
    5f3a:	f3 0f 1e fa          	endbr64 
    5f3e:	55                   	push   %rbp
    5f3f:	48 89 e5             	mov    %rsp,%rbp
    5f42:	48 83 ec 10          	sub    $0x10,%rsp
    5f46:	89 7d fc             	mov    %edi,-0x4(%rbp)
    5f49:	48 89 75 f0          	mov    %rsi,-0x10(%rbp)
/home/tenebris/Documents/RootCauseAnalysis/evaluation/test_bin/libzip/libzip-1.2.0/src/ziptool.c:411
    5f4d:	48 8b 05 6c 56 02 00 	mov    0x2566c(%rip),%rax        # 2b5c0 <za>
    5f54:	48 8d 15 9c ff ff ff 	lea    -0x64(%rip),%rdx        # 5ef7 <progress_callback>
    5f5b:	48 89 d6             	mov    %rdx,%rsi
    5f5e:	48 89 c7             	mov    %rax,%rdi
    5f61:	e8 ca ab 00 00       	call   10b30 <zip_register_progress_callback>
/home/tenebris/Documents/RootCauseAnalysis/evaluation/test_bin/libzip/libzip-1.2.0/src/ziptool.c:412
    5f66:	b8 00 00 00 00       	mov    $0x0,%eax
/home/tenebris/Documents/RootCauseAnalysis/evaluation/test_bin/libzip/libzip-1.2.0/src/ziptool.c:413
    5f6b:	c9                   	leave  
    5f6c:	c3                   	ret    

0000000000005f6d <zrename>:
zrename():
/home/tenebris/Documents/RootCauseAnalysis/evaluation/test_bin/libzip/libzip-1.2.0/src/ziptool.c:416
    5f6d:	f3 0f 1e fa          	endbr64 
    5f71:	55                   	push   %rbp
    5f72:	48 89 e5             	mov    %rsp,%rbp
    5f75:	48 83 ec 20          	sub    $0x20,%rsp
    5f79:	89 7d ec             	mov    %edi,-0x14(%rbp)
    5f7c:	48 89 75 e0          	mov    %rsi,-0x20(%rbp)
/home/tenebris/Documents/RootCauseAnalysis/evaluation/test_bin/libzip/libzip-1.2.0/src/ziptool.c:418
    5f80:	48 8b 45 e0          	mov    -0x20(%rbp),%rax
    5f84:	48 8b 00             	mov    (%rax),%rax
    5f87:	ba 0a 00 00 00       	mov    $0xa,%edx
    5f8c:	be 00 00 00 00       	mov    $0x0,%esi
    5f91:	48 89 c7             	mov    %rax,%rdi
    5f94:	e8 17 d6 ff ff       	call   35b0 <strtoull@plt>
    5f99:	48 89 45 f8          	mov    %rax,-0x8(%rbp)
/home/tenebris/Documents/RootCauseAnalysis/evaluation/test_bin/libzip/libzip-1.2.0/src/ziptool.c:419
    5f9d:	48 8b 45 e0          	mov    -0x20(%rbp),%rax
    5fa1:	48 83 c0 08          	add    $0x8,%rax
    5fa5:	48 8b 10             	mov    (%rax),%rdx
    5fa8:	48 8b 05 11 56 02 00 	mov    0x25611(%rip),%rax        # 2b5c0 <za>
    5faf:	48 8b 4d f8          	mov    -0x8(%rbp),%rcx
    5fb3:	48 89 ce             	mov    %rcx,%rsi
    5fb6:	48 89 c7             	mov    %rax,%rdi
    5fb9:	e8 3b c8 00 00       	call   127f9 <zip_rename>
    5fbe:	85 c0                	test   %eax,%eax
    5fc0:	79 46                	jns    6008 <zrename+0x9b>
/home/tenebris/Documents/RootCauseAnalysis/evaluation/test_bin/libzip/libzip-1.2.0/src/ziptool.c:420
    5fc2:	48 8b 05 f7 55 02 00 	mov    0x255f7(%rip),%rax        # 2b5c0 <za>
    5fc9:	48 89 c7             	mov    %rax,%rdi
    5fcc:	e8 dc 3a 01 00       	call   19aad <zip_strerror>
    5fd1:	48 89 c6             	mov    %rax,%rsi
    5fd4:	48 8b 45 e0          	mov    -0x20(%rbp),%rax
    5fd8:	48 83 c0 08          	add    $0x8,%rax
    5fdc:	48 8b 08             	mov    (%rax),%rcx
    5fdf:	48 8b 05 ba 55 02 00 	mov    0x255ba(%rip),%rax        # 2b5a0 <stderr@GLIBC_2.2.5>
    5fe6:	48 8b 55 f8          	mov    -0x8(%rbp),%rdx
    5fea:	49 89 f0             	mov    %rsi,%r8
    5fed:	48 8d 35 c4 b5 01 00 	lea    0x1b5c4(%rip),%rsi        # 215b8 <_IO_stdin_used+0x5b8>
    5ff4:	48 89 c7             	mov    %rax,%rdi
    5ff7:	b8 00 00 00 00       	mov    $0x0,%eax
    5ffc:	e8 df d5 ff ff       	call   35e0 <fprintf@plt>
/home/tenebris/Documents/RootCauseAnalysis/evaluation/test_bin/libzip/libzip-1.2.0/src/ziptool.c:421
    6001:	b8 ff ff ff ff       	mov    $0xffffffff,%eax
    6006:	eb 05                	jmp    600d <zrename+0xa0>
/home/tenebris/Documents/RootCauseAnalysis/evaluation/test_bin/libzip/libzip-1.2.0/src/ziptool.c:423
    6008:	b8 00 00 00 00       	mov    $0x0,%eax
/home/tenebris/Documents/RootCauseAnalysis/evaluation/test_bin/libzip/libzip-1.2.0/src/ziptool.c:424
    600d:	c9                   	leave  
    600e:	c3                   	ret    

000000000000600f <replace_file_contents>:
replace_file_contents():
/home/tenebris/Documents/RootCauseAnalysis/evaluation/test_bin/libzip/libzip-1.2.0/src/ziptool.c:427
    600f:	f3 0f 1e fa          	endbr64 
    6013:	55                   	push   %rbp
    6014:	48 89 e5             	mov    %rsp,%rbp
    6017:	48 83 ec 30          	sub    $0x30,%rsp
    601b:	89 7d dc             	mov    %edi,-0x24(%rbp)
    601e:	48 89 75 d0          	mov    %rsi,-0x30(%rbp)
/home/tenebris/Documents/RootCauseAnalysis/evaluation/test_bin/libzip/libzip-1.2.0/src/ziptool.c:432
    6022:	48 8b 45 d0          	mov    -0x30(%rbp),%rax
    6026:	48 8b 00             	mov    (%rax),%rax
    6029:	ba 0a 00 00 00       	mov    $0xa,%edx
    602e:	be 00 00 00 00       	mov    $0x0,%esi
    6033:	48 89 c7             	mov    %rax,%rdi
    6036:	e8 75 d5 ff ff       	call   35b0 <strtoull@plt>
    603b:	48 89 45 e8          	mov    %rax,-0x18(%rbp)
/home/tenebris/Documents/RootCauseAnalysis/evaluation/test_bin/libzip/libzip-1.2.0/src/ziptool.c:433
    603f:	48 8b 45 d0          	mov    -0x30(%rbp),%rax
    6043:	48 8b 40 08          	mov    0x8(%rax),%rax
    6047:	48 89 45 f0          	mov    %rax,-0x10(%rbp)
/home/tenebris/Documents/RootCauseAnalysis/evaluation/test_bin/libzip/libzip-1.2.0/src/ziptool.c:434
    604b:	48 8b 45 f0          	mov    -0x10(%rbp),%rax
    604f:	48 89 c7             	mov    %rax,%rdi
    6052:	e8 79 d4 ff ff       	call   34d0 <strlen@plt>
    6057:	48 89 c2             	mov    %rax,%rdx
    605a:	48 8b 05 5f 55 02 00 	mov    0x2555f(%rip),%rax        # 2b5c0 <za>
    6061:	48 8b 75 f0          	mov    -0x10(%rbp),%rsi
    6065:	b9 00 00 00 00       	mov    $0x0,%ecx
    606a:	48 89 c7             	mov    %rax,%rdi
    606d:	e8 af d0 00 00       	call   13121 <zip_source_buffer>
    6072:	48 89 45 f8          	mov    %rax,-0x8(%rbp)
    6076:	48 83 7d f8 00       	cmpq   $0x0,-0x8(%rbp)
    607b:	74 20                	je     609d <replace_file_contents+0x8e>
/home/tenebris/Documents/RootCauseAnalysis/evaluation/test_bin/libzip/libzip-1.2.0/src/ziptool.c:435 (discriminator 1)
    607d:	48 8b 05 3c 55 02 00 	mov    0x2553c(%rip),%rax        # 2b5c0 <za>
    6084:	48 8b 55 f8          	mov    -0x8(%rbp),%rdx
    6088:	48 8b 75 e8          	mov    -0x18(%rbp),%rsi
    608c:	b9 00 00 00 00       	mov    $0x0,%ecx
    6091:	48 89 c7             	mov    %rax,%rdi
    6094:	e8 3a 88 00 00       	call   e8d3 <zip_file_replace>
/home/tenebris/Documents/RootCauseAnalysis/evaluation/test_bin/libzip/libzip-1.2.0/src/ziptool.c:434 (discriminator 1)
    6099:	85 c0                	test   %eax,%eax
    609b:	79 43                	jns    60e0 <replace_file_contents+0xd1>
/home/tenebris/Documents/RootCauseAnalysis/evaluation/test_bin/libzip/libzip-1.2.0/src/ziptool.c:436
    609d:	48 8b 45 f8          	mov    -0x8(%rbp),%rax
    60a1:	48 89 c7             	mov    %rax,%rdi
    60a4:	e8 44 03 01 00       	call   163ed <zip_source_free>
/home/tenebris/Documents/RootCauseAnalysis/evaluation/test_bin/libzip/libzip-1.2.0/src/ziptool.c:437
    60a9:	48 8b 05 10 55 02 00 	mov    0x25510(%rip),%rax        # 2b5c0 <za>
    60b0:	48 89 c7             	mov    %rax,%rdi
    60b3:	e8 f5 39 01 00       	call   19aad <zip_strerror>
    60b8:	48 89 c2             	mov    %rax,%rdx
    60bb:	48 8b 05 de 54 02 00 	mov    0x254de(%rip),%rax        # 2b5a0 <stderr@GLIBC_2.2.5>
    60c2:	48 8d 0d 1f b5 01 00 	lea    0x1b51f(%rip),%rcx        # 215e8 <_IO_stdin_used+0x5e8>
    60c9:	48 89 ce             	mov    %rcx,%rsi
    60cc:	48 89 c7             	mov    %rax,%rdi
    60cf:	b8 00 00 00 00       	mov    $0x0,%eax
    60d4:	e8 07 d5 ff ff       	call   35e0 <fprintf@plt>
/home/tenebris/Documents/RootCauseAnalysis/evaluation/test_bin/libzip/libzip-1.2.0/src/ziptool.c:438
    60d9:	b8 ff ff ff ff       	mov    $0xffffffff,%eax
    60de:	eb 05                	jmp    60e5 <replace_file_contents+0xd6>
/home/tenebris/Documents/RootCauseAnalysis/evaluation/test_bin/libzip/libzip-1.2.0/src/ziptool.c:440
    60e0:	b8 00 00 00 00       	mov    $0x0,%eax
/home/tenebris/Documents/RootCauseAnalysis/evaluation/test_bin/libzip/libzip-1.2.0/src/ziptool.c:441
    60e5:	c9                   	leave  
    60e6:	c3                   	ret    

00000000000060e7 <set_extra>:
set_extra():
/home/tenebris/Documents/RootCauseAnalysis/evaluation/test_bin/libzip/libzip-1.2.0/src/ziptool.c:444
    60e7:	f3 0f 1e fa          	endbr64 
    60eb:	55                   	push   %rbp
    60ec:	48 89 e5             	mov    %rsp,%rbp
    60ef:	48 83 ec 30          	sub    $0x30,%rsp
    60f3:	89 7d dc             	mov    %edi,-0x24(%rbp)
    60f6:	48 89 75 d0          	mov    %rsi,-0x30(%rbp)
/home/tenebris/Documents/RootCauseAnalysis/evaluation/test_bin/libzip/libzip-1.2.0/src/ziptool.c:449
    60fa:	48 8b 45 d0          	mov    -0x30(%rbp),%rax
    60fe:	48 8b 00             	mov    (%rax),%rax
    6101:	ba 0a 00 00 00       	mov    $0xa,%edx
    6106:	be 00 00 00 00       	mov    $0x0,%esi
    610b:	48 89 c7             	mov    %rax,%rdi
    610e:	e8 9d d4 ff ff       	call   35b0 <strtoull@plt>
    6113:	48 89 45 f0          	mov    %rax,-0x10(%rbp)
/home/tenebris/Documents/RootCauseAnalysis/evaluation/test_bin/libzip/libzip-1.2.0/src/ziptool.c:450
    6117:	48 8b 45 d0          	mov    -0x30(%rbp),%rax
    611b:	48 83 c0 08          	add    $0x8,%rax
    611f:	48 8b 00             	mov    (%rax),%rax
    6122:	ba 0a 00 00 00       	mov    $0xa,%edx
    6127:	be 00 00 00 00       	mov    $0x0,%esi
    612c:	48 89 c7             	mov    %rax,%rdi
    612f:	e8 7c d4 ff ff       	call   35b0 <strtoull@plt>
    6134:	66 89 45 e8          	mov    %ax,-0x18(%rbp)
/home/tenebris/Documents/RootCauseAnalysis/evaluation/test_bin/libzip/libzip-1.2.0/src/ziptool.c:451
    6138:	48 8b 45 d0          	mov    -0x30(%rbp),%rax
    613c:	48 83 c0 10          	add    $0x10,%rax
    6140:	48 8b 00             	mov    (%rax),%rax
    6143:	ba 0a 00 00 00       	mov    $0xa,%edx
    6148:	be 00 00 00 00       	mov    $0x0,%esi
    614d:	48 89 c7             	mov    %rax,%rdi
    6150:	e8 5b d4 ff ff       	call   35b0 <strtoull@plt>
    6155:	66 89 45 ea          	mov    %ax,-0x16(%rbp)
/home/tenebris/Documents/RootCauseAnalysis/evaluation/test_bin/libzip/libzip-1.2.0/src/ziptool.c:452
    6159:	48 8b 45 d0          	mov    -0x30(%rbp),%rax
    615d:	48 83 c0 18          	add    $0x18,%rax
    6161:	48 8b 00             	mov    (%rax),%rax
    6164:	48 89 c7             	mov    %rax,%rdi
    6167:	e8 c9 09 00 00       	call   6b35 <get_flags>
    616c:	89 45 ec             	mov    %eax,-0x14(%rbp)
/home/tenebris/Documents/RootCauseAnalysis/evaluation/test_bin/libzip/libzip-1.2.0/src/ziptool.c:453
    616f:	48 8b 45 d0          	mov    -0x30(%rbp),%rax
    6173:	48 8b 40 20          	mov    0x20(%rax),%rax
    6177:	48 89 45 f8          	mov    %rax,-0x8(%rbp)
/home/tenebris/Documents/RootCauseAnalysis/evaluation/test_bin/libzip/libzip-1.2.0/src/ziptool.c:454
    617b:	48 8b 45 f8          	mov    -0x8(%rbp),%rax
    617f:	48 89 c7             	mov    %rax,%rdi
    6182:	e8 49 d3 ff ff       	call   34d0 <strlen@plt>
    6187:	44 0f b7 c8          	movzwl %ax,%r9d
    618b:	0f b7 4d ea          	movzwl -0x16(%rbp),%ecx
    618f:	0f b7 55 e8          	movzwl -0x18(%rbp),%edx
    6193:	48 8b 05 26 54 02 00 	mov    0x25426(%rip),%rax        # 2b5c0 <za>
    619a:	4c 8b 45 f8          	mov    -0x8(%rbp),%r8
    619e:	48 8b 75 f0          	mov    -0x10(%rbp),%rsi
    61a2:	48 83 ec 08          	sub    $0x8,%rsp
    61a6:	8b 7d ec             	mov    -0x14(%rbp),%edi
    61a9:	57                   	push   %rdi
    61aa:	48 89 c7             	mov    %rax,%rdi
    61ad:	e8 48 80 00 00       	call   e1fa <zip_file_extra_field_set>
    61b2:	48 83 c4 10          	add    $0x10,%rsp
    61b6:	85 c0                	test   %eax,%eax
    61b8:	79 46                	jns    6200 <set_extra+0x119>
/home/tenebris/Documents/RootCauseAnalysis/evaluation/test_bin/libzip/libzip-1.2.0/src/ziptool.c:455
    61ba:	48 8b 05 ff 53 02 00 	mov    0x253ff(%rip),%rax        # 2b5c0 <za>
    61c1:	48 89 c7             	mov    %rax,%rdi
    61c4:	e8 e4 38 01 00       	call   19aad <zip_strerror>
    61c9:	48 89 c6             	mov    %rax,%rsi
    61cc:	0f b7 7d ea          	movzwl -0x16(%rbp),%edi
    61d0:	0f b7 4d e8          	movzwl -0x18(%rbp),%ecx
    61d4:	48 8b 05 c5 53 02 00 	mov    0x253c5(%rip),%rax        # 2b5a0 <stderr@GLIBC_2.2.5>
    61db:	48 8b 55 f0          	mov    -0x10(%rbp),%rdx
    61df:	49 89 f1             	mov    %rsi,%r9
    61e2:	41 89 f8             	mov    %edi,%r8d
    61e5:	48 8d 35 1c b4 01 00 	lea    0x1b41c(%rip),%rsi        # 21608 <_IO_stdin_used+0x608>
    61ec:	48 89 c7             	mov    %rax,%rdi
    61ef:	b8 00 00 00 00       	mov    $0x0,%eax
    61f4:	e8 e7 d3 ff ff       	call   35e0 <fprintf@plt>
/home/tenebris/Documents/RootCauseAnalysis/evaluation/test_bin/libzip/libzip-1.2.0/src/ziptool.c:456
    61f9:	b8 ff ff ff ff       	mov    $0xffffffff,%eax
    61fe:	eb 05                	jmp    6205 <set_extra+0x11e>
/home/tenebris/Documents/RootCauseAnalysis/evaluation/test_bin/libzip/libzip-1.2.0/src/ziptool.c:458
    6200:	b8 00 00 00 00       	mov    $0x0,%eax
/home/tenebris/Documents/RootCauseAnalysis/evaluation/test_bin/libzip/libzip-1.2.0/src/ziptool.c:459
    6205:	c9                   	leave  
    6206:	c3                   	ret    

0000000000006207 <set_archive_comment>:
set_archive_comment():
/home/tenebris/Documents/RootCauseAnalysis/evaluation/test_bin/libzip/libzip-1.2.0/src/ziptool.c:462
    6207:	f3 0f 1e fa          	endbr64 
    620b:	55                   	push   %rbp
    620c:	48 89 e5             	mov    %rsp,%rbp
    620f:	48 83 ec 10          	sub    $0x10,%rsp
    6213:	89 7d fc             	mov    %edi,-0x4(%rbp)
    6216:	48 89 75 f0          	mov    %rsi,-0x10(%rbp)
/home/tenebris/Documents/RootCauseAnalysis/evaluation/test_bin/libzip/libzip-1.2.0/src/ziptool.c:463
    621a:	48 8b 45 f0          	mov    -0x10(%rbp),%rax
    621e:	48 8b 00             	mov    (%rax),%rax
    6221:	48 89 c7             	mov    %rax,%rdi
    6224:	e8 a7 d2 ff ff       	call   34d0 <strlen@plt>
    6229:	0f b7 d0             	movzwl %ax,%edx
    622c:	48 8b 45 f0          	mov    -0x10(%rbp),%rax
    6230:	48 8b 08             	mov    (%rax),%rcx
    6233:	48 8b 05 86 53 02 00 	mov    0x25386(%rip),%rax        # 2b5c0 <za>
    623a:	48 89 ce             	mov    %rcx,%rsi
    623d:	48 89 c7             	mov    %rax,%rdi
    6240:	e8 e7 c5 00 00       	call   1282c <zip_set_archive_comment>
    6245:	85 c0                	test   %eax,%eax
    6247:	79 3b                	jns    6284 <set_archive_comment+0x7d>
/home/tenebris/Documents/RootCauseAnalysis/evaluation/test_bin/libzip/libzip-1.2.0/src/ziptool.c:464
    6249:	48 8b 05 70 53 02 00 	mov    0x25370(%rip),%rax        # 2b5c0 <za>
    6250:	48 89 c7             	mov    %rax,%rdi
    6253:	e8 55 38 01 00       	call   19aad <zip_strerror>
    6258:	48 89 c1             	mov    %rax,%rcx
    625b:	48 8b 45 f0          	mov    -0x10(%rbp),%rax
    625f:	48 8b 10             	mov    (%rax),%rdx
    6262:	48 8b 05 37 53 02 00 	mov    0x25337(%rip),%rax        # 2b5a0 <stderr@GLIBC_2.2.5>
    6269:	48 8d 35 f8 b3 01 00 	lea    0x1b3f8(%rip),%rsi        # 21668 <_IO_stdin_used+0x668>
    6270:	48 89 c7             	mov    %rax,%rdi
    6273:	b8 00 00 00 00       	mov    $0x0,%eax
    6278:	e8 63 d3 ff ff       	call   35e0 <fprintf@plt>
/home/tenebris/Documents/RootCauseAnalysis/evaluation/test_bin/libzip/libzip-1.2.0/src/ziptool.c:465
    627d:	b8 ff ff ff ff       	mov    $0xffffffff,%eax
    6282:	eb 05                	jmp    6289 <set_archive_comment+0x82>
/home/tenebris/Documents/RootCauseAnalysis/evaluation/test_bin/libzip/libzip-1.2.0/src/ziptool.c:467
    6284:	b8 00 00 00 00       	mov    $0x0,%eax
/home/tenebris/Documents/RootCauseAnalysis/evaluation/test_bin/libzip/libzip-1.2.0/src/ziptool.c:468
    6289:	c9                   	leave  
    628a:	c3                   	ret    

000000000000628b <set_file_comment>:
set_file_comment():
/home/tenebris/Documents/RootCauseAnalysis/evaluation/test_bin/libzip/libzip-1.2.0/src/ziptool.c:471
    628b:	f3 0f 1e fa          	endbr64 
    628f:	55                   	push   %rbp
    6290:	48 89 e5             	mov    %rsp,%rbp
    6293:	48 83 ec 20          	sub    $0x20,%rsp
    6297:	89 7d ec             	mov    %edi,-0x14(%rbp)
    629a:	48 89 75 e0          	mov    %rsi,-0x20(%rbp)
/home/tenebris/Documents/RootCauseAnalysis/evaluation/test_bin/libzip/libzip-1.2.0/src/ziptool.c:473
    629e:	48 8b 45 e0          	mov    -0x20(%rbp),%rax
    62a2:	48 8b 00             	mov    (%rax),%rax
    62a5:	ba 0a 00 00 00       	mov    $0xa,%edx
    62aa:	be 00 00 00 00       	mov    $0x0,%esi
    62af:	48 89 c7             	mov    %rax,%rdi
    62b2:	e8 f9 d2 ff ff       	call   35b0 <strtoull@plt>
    62b7:	48 89 45 f8          	mov    %rax,-0x8(%rbp)
/home/tenebris/Documents/RootCauseAnalysis/evaluation/test_bin/libzip/libzip-1.2.0/src/ziptool.c:474
    62bb:	48 8b 45 e0          	mov    -0x20(%rbp),%rax
    62bf:	48 83 c0 08          	add    $0x8,%rax
    62c3:	48 8b 00             	mov    (%rax),%rax
    62c6:	48 89 c7             	mov    %rax,%rdi
    62c9:	e8 02 d2 ff ff       	call   34d0 <strlen@plt>
    62ce:	0f b7 c8             	movzwl %ax,%ecx
    62d1:	48 8b 45 e0          	mov    -0x20(%rbp),%rax
    62d5:	48 83 c0 08          	add    $0x8,%rax
    62d9:	48 8b 10             	mov    (%rax),%rdx
    62dc:	48 8b 05 dd 52 02 00 	mov    0x252dd(%rip),%rax        # 2b5c0 <za>
    62e3:	48 8b 75 f8          	mov    -0x8(%rbp),%rsi
    62e7:	41 b8 00 00 00 00    	mov    $0x0,%r8d
    62ed:	48 89 c7             	mov    %rax,%rdi
    62f0:	e8 02 89 00 00       	call   ebf7 <zip_file_set_comment>
    62f5:	85 c0                	test   %eax,%eax
    62f7:	79 46                	jns    633f <set_file_comment+0xb4>
/home/tenebris/Documents/RootCauseAnalysis/evaluation/test_bin/libzip/libzip-1.2.0/src/ziptool.c:475
    62f9:	48 8b 05 c0 52 02 00 	mov    0x252c0(%rip),%rax        # 2b5c0 <za>
    6300:	48 89 c7             	mov    %rax,%rdi
    6303:	e8 a5 37 01 00       	call   19aad <zip_strerror>
    6308:	48 89 c6             	mov    %rax,%rsi
    630b:	48 8b 45 e0          	mov    -0x20(%rbp),%rax
    630f:	48 83 c0 08          	add    $0x8,%rax
    6313:	48 8b 08             	mov    (%rax),%rcx
    6316:	48 8b 05 83 52 02 00 	mov    0x25283(%rip),%rax        # 2b5a0 <stderr@GLIBC_2.2.5>
    631d:	48 8b 55 f8          	mov    -0x8(%rbp),%rdx
    6321:	49 89 f0             	mov    %rsi,%r8
    6324:	48 8d 35 65 b3 01 00 	lea    0x1b365(%rip),%rsi        # 21690 <_IO_stdin_used+0x690>
    632b:	48 89 c7             	mov    %rax,%rdi
    632e:	b8 00 00 00 00       	mov    $0x0,%eax
    6333:	e8 a8 d2 ff ff       	call   35e0 <fprintf@plt>
/home/tenebris/Documents/RootCauseAnalysis/evaluation/test_bin/libzip/libzip-1.2.0/src/ziptool.c:476
    6338:	b8 ff ff ff ff       	mov    $0xffffffff,%eax
    633d:	eb 05                	jmp    6344 <set_file_comment+0xb9>
/home/tenebris/Documents/RootCauseAnalysis/evaluation/test_bin/libzip/libzip-1.2.0/src/ziptool.c:478
    633f:	b8 00 00 00 00       	mov    $0x0,%eax
/home/tenebris/Documents/RootCauseAnalysis/evaluation/test_bin/libzip/libzip-1.2.0/src/ziptool.c:479
    6344:	c9                   	leave  
    6345:	c3                   	ret    

0000000000006346 <set_file_compression>:
set_file_compression():
/home/tenebris/Documents/RootCauseAnalysis/evaluation/test_bin/libzip/libzip-1.2.0/src/ziptool.c:482
    6346:	f3 0f 1e fa          	endbr64 
    634a:	55                   	push   %rbp
    634b:	48 89 e5             	mov    %rsp,%rbp
    634e:	48 83 ec 20          	sub    $0x20,%rsp
    6352:	89 7d ec             	mov    %edi,-0x14(%rbp)
    6355:	48 89 75 e0          	mov    %rsi,-0x20(%rbp)
/home/tenebris/Documents/RootCauseAnalysis/evaluation/test_bin/libzip/libzip-1.2.0/src/ziptool.c:486
    6359:	48 8b 45 e0          	mov    -0x20(%rbp),%rax
    635d:	48 8b 00             	mov    (%rax),%rax
    6360:	ba 0a 00 00 00       	mov    $0xa,%edx
    6365:	be 00 00 00 00       	mov    $0x0,%esi
    636a:	48 89 c7             	mov    %rax,%rdi
    636d:	e8 3e d2 ff ff       	call   35b0 <strtoull@plt>
    6372:	48 89 45 f8          	mov    %rax,-0x8(%rbp)
/home/tenebris/Documents/RootCauseAnalysis/evaluation/test_bin/libzip/libzip-1.2.0/src/ziptool.c:487
    6376:	48 8b 45 e0          	mov    -0x20(%rbp),%rax
    637a:	48 83 c0 08          	add    $0x8,%rax
    637e:	48 8b 00             	mov    (%rax),%rax
    6381:	48 89 c7             	mov    %rax,%rdi
    6384:	e8 50 08 00 00       	call   6bd9 <get_compression_method>
    6389:	89 45 f0             	mov    %eax,-0x10(%rbp)
/home/tenebris/Documents/RootCauseAnalysis/evaluation/test_bin/libzip/libzip-1.2.0/src/ziptool.c:488
    638c:	48 8b 45 e0          	mov    -0x20(%rbp),%rax
    6390:	48 83 c0 10          	add    $0x10,%rax
    6394:	48 8b 00             	mov    (%rax),%rax
    6397:	ba 0a 00 00 00       	mov    $0xa,%edx
    639c:	be 00 00 00 00       	mov    $0x0,%esi
    63a1:	48 89 c7             	mov    %rax,%rdi
    63a4:	e8 07 d2 ff ff       	call   35b0 <strtoull@plt>
    63a9:	89 45 f4             	mov    %eax,-0xc(%rbp)
/home/tenebris/Documents/RootCauseAnalysis/evaluation/test_bin/libzip/libzip-1.2.0/src/ziptool.c:489
    63ac:	48 8b 05 0d 52 02 00 	mov    0x2520d(%rip),%rax        # 2b5c0 <za>
    63b3:	8b 4d f4             	mov    -0xc(%rbp),%ecx
    63b6:	8b 55 f0             	mov    -0x10(%rbp),%edx
    63b9:	48 8b 75 f8          	mov    -0x8(%rbp),%rsi
    63bd:	48 89 c7             	mov    %rax,%rdi
    63c0:	e8 89 c6 00 00       	call   12a4e <zip_set_file_compression>
    63c5:	85 c0                	test   %eax,%eax
    63c7:	79 4c                	jns    6415 <set_file_compression+0xcf>
/home/tenebris/Documents/RootCauseAnalysis/evaluation/test_bin/libzip/libzip-1.2.0/src/ziptool.c:490
    63c9:	48 8b 05 f0 51 02 00 	mov    0x251f0(%rip),%rax        # 2b5c0 <za>
    63d0:	48 89 c7             	mov    %rax,%rdi
    63d3:	e8 d5 36 01 00       	call   19aad <zip_strerror>
    63d8:	48 89 c6             	mov    %rax,%rsi
    63db:	48 8b 45 e0          	mov    -0x20(%rbp),%rax
    63df:	48 83 c0 08          	add    $0x8,%rax
    63e3:	48 8b 08             	mov    (%rax),%rcx
    63e6:	48 8b 05 b3 51 02 00 	mov    0x251b3(%rip),%rax        # 2b5a0 <stderr@GLIBC_2.2.5>
    63ed:	8b 7d f4             	mov    -0xc(%rbp),%edi
    63f0:	48 8b 55 f8          	mov    -0x8(%rbp),%rdx
    63f4:	49 89 f1             	mov    %rsi,%r9
    63f7:	41 89 f8             	mov    %edi,%r8d
    63fa:	48 8d 35 c7 b2 01 00 	lea    0x1b2c7(%rip),%rsi        # 216c8 <_IO_stdin_used+0x6c8>
    6401:	48 89 c7             	mov    %rax,%rdi
    6404:	b8 00 00 00 00       	mov    $0x0,%eax
    6409:	e8 d2 d1 ff ff       	call   35e0 <fprintf@plt>
/home/tenebris/Documents/RootCauseAnalysis/evaluation/test_bin/libzip/libzip-1.2.0/src/ziptool.c:491
    640e:	b8 ff ff ff ff       	mov    $0xffffffff,%eax
    6413:	eb 05                	jmp    641a <set_file_compression+0xd4>
/home/tenebris/Documents/RootCauseAnalysis/evaluation/test_bin/libzip/libzip-1.2.0/src/ziptool.c:493
    6415:	b8 00 00 00 00       	mov    $0x0,%eax
/home/tenebris/Documents/RootCauseAnalysis/evaluation/test_bin/libzip/libzip-1.2.0/src/ziptool.c:494
    641a:	c9                   	leave  
    641b:	c3                   	ret    

000000000000641c <set_file_encryption>:
set_file_encryption():
/home/tenebris/Documents/RootCauseAnalysis/evaluation/test_bin/libzip/libzip-1.2.0/src/ziptool.c:497
    641c:	f3 0f 1e fa          	endbr64 
    6420:	55                   	push   %rbp
    6421:	48 89 e5             	mov    %rsp,%rbp
    6424:	48 83 ec 30          	sub    $0x30,%rsp
    6428:	89 7d dc             	mov    %edi,-0x24(%rbp)
    642b:	48 89 75 d0          	mov    %rsi,-0x30(%rbp)
/home/tenebris/Documents/RootCauseAnalysis/evaluation/test_bin/libzip/libzip-1.2.0/src/ziptool.c:501
    642f:	48 8b 45 d0          	mov    -0x30(%rbp),%rax
    6433:	48 8b 00             	mov    (%rax),%rax
    6436:	ba 0a 00 00 00       	mov    $0xa,%edx
    643b:	be 00 00 00 00       	mov    $0x0,%esi
    6440:	48 89 c7             	mov    %rax,%rdi
    6443:	e8 68 d1 ff ff       	call   35b0 <strtoull@plt>
    6448:	48 89 45 f8          	mov    %rax,-0x8(%rbp)
/home/tenebris/Documents/RootCauseAnalysis/evaluation/test_bin/libzip/libzip-1.2.0/src/ziptool.c:502
    644c:	48 8b 45 d0          	mov    -0x30(%rbp),%rax
    6450:	48 83 c0 08          	add    $0x8,%rax
    6454:	48 8b 00             	mov    (%rax),%rax
    6457:	48 89 c7             	mov    %rax,%rdi
    645a:	e8 15 08 00 00       	call   6c74 <get_encryption_method>
    645f:	0f b7 c0             	movzwl %ax,%eax
    6462:	89 45 ec             	mov    %eax,-0x14(%rbp)
/home/tenebris/Documents/RootCauseAnalysis/evaluation/test_bin/libzip/libzip-1.2.0/src/ziptool.c:503
    6465:	48 8b 45 d0          	mov    -0x30(%rbp),%rax
    6469:	48 8b 40 10          	mov    0x10(%rax),%rax
    646d:	48 89 45 f0          	mov    %rax,-0x10(%rbp)
/home/tenebris/Documents/RootCauseAnalysis/evaluation/test_bin/libzip/libzip-1.2.0/src/ziptool.c:504
    6471:	48 8b 45 f0          	mov    -0x10(%rbp),%rax
    6475:	0f b6 00             	movzbl (%rax),%eax
    6478:	84 c0                	test   %al,%al
    647a:	75 08                	jne    6484 <set_file_encryption+0x68>
/home/tenebris/Documents/RootCauseAnalysis/evaluation/test_bin/libzip/libzip-1.2.0/src/ziptool.c:505
    647c:	48 c7 45 f0 00 00 00 	movq   $0x0,-0x10(%rbp)
    6483:	00 
/home/tenebris/Documents/RootCauseAnalysis/evaluation/test_bin/libzip/libzip-1.2.0/src/ziptool.c:507
    6484:	8b 45 ec             	mov    -0x14(%rbp),%eax
    6487:	0f b7 d0             	movzwl %ax,%edx
    648a:	48 8b 05 2f 51 02 00 	mov    0x2512f(%rip),%rax        # 2b5c0 <za>
    6491:	48 8b 4d f0          	mov    -0x10(%rbp),%rcx
    6495:	48 8b 75 f8          	mov    -0x8(%rbp),%rsi
    6499:	48 89 c7             	mov    %rax,%rdi
    649c:	e8 fe 89 00 00       	call   ee9f <zip_file_set_encryption>
    64a1:	85 c0                	test   %eax,%eax
    64a3:	79 46                	jns    64eb <set_file_encryption+0xcf>
/home/tenebris/Documents/RootCauseAnalysis/evaluation/test_bin/libzip/libzip-1.2.0/src/ziptool.c:508
    64a5:	48 8b 05 14 51 02 00 	mov    0x25114(%rip),%rax        # 2b5c0 <za>
    64ac:	48 89 c7             	mov    %rax,%rdi
    64af:	e8 f9 35 01 00       	call   19aad <zip_strerror>
    64b4:	48 89 c6             	mov    %rax,%rsi
    64b7:	48 8b 45 d0          	mov    -0x30(%rbp),%rax
    64bb:	48 83 c0 08          	add    $0x8,%rax
    64bf:	48 8b 08             	mov    (%rax),%rcx
    64c2:	48 8b 05 d7 50 02 00 	mov    0x250d7(%rip),%rax        # 2b5a0 <stderr@GLIBC_2.2.5>
    64c9:	48 8b 55 f8          	mov    -0x8(%rbp),%rdx
    64cd:	49 89 f0             	mov    %rsi,%r8
    64d0:	48 8d 35 41 b2 01 00 	lea    0x1b241(%rip),%rsi        # 21718 <_IO_stdin_used+0x718>
    64d7:	48 89 c7             	mov    %rax,%rdi
    64da:	b8 00 00 00 00       	mov    $0x0,%eax
    64df:	e8 fc d0 ff ff       	call   35e0 <fprintf@plt>
/home/tenebris/Documents/RootCauseAnalysis/evaluation/test_bin/libzip/libzip-1.2.0/src/ziptool.c:509
    64e4:	b8 ff ff ff ff       	mov    $0xffffffff,%eax
    64e9:	eb 05                	jmp    64f0 <set_file_encryption+0xd4>
/home/tenebris/Documents/RootCauseAnalysis/evaluation/test_bin/libzip/libzip-1.2.0/src/ziptool.c:511
    64eb:	b8 00 00 00 00       	mov    $0x0,%eax
/home/tenebris/Documents/RootCauseAnalysis/evaluation/test_bin/libzip/libzip-1.2.0/src/ziptool.c:512
    64f0:	c9                   	leave  
    64f1:	c3                   	ret    

00000000000064f2 <set_file_mtime>:
set_file_mtime():
/home/tenebris/Documents/RootCauseAnalysis/evaluation/test_bin/libzip/libzip-1.2.0/src/ziptool.c:515
    64f2:	f3 0f 1e fa          	endbr64 
    64f6:	55                   	push   %rbp
    64f7:	48 89 e5             	mov    %rsp,%rbp
    64fa:	48 83 ec 20          	sub    $0x20,%rsp
    64fe:	89 7d ec             	mov    %edi,-0x14(%rbp)
    6501:	48 89 75 e0          	mov    %rsi,-0x20(%rbp)
/home/tenebris/Documents/RootCauseAnalysis/evaluation/test_bin/libzip/libzip-1.2.0/src/ziptool.c:519
    6505:	48 8b 45 e0          	mov    -0x20(%rbp),%rax
    6509:	48 8b 00             	mov    (%rax),%rax
    650c:	ba 0a 00 00 00       	mov    $0xa,%edx
    6511:	be 00 00 00 00       	mov    $0x0,%esi
    6516:	48 89 c7             	mov    %rax,%rdi
    6519:	e8 92 d0 ff ff       	call   35b0 <strtoull@plt>
    651e:	48 89 45 f0          	mov    %rax,-0x10(%rbp)
/home/tenebris/Documents/RootCauseAnalysis/evaluation/test_bin/libzip/libzip-1.2.0/src/ziptool.c:520
    6522:	48 8b 45 e0          	mov    -0x20(%rbp),%rax
    6526:	48 83 c0 08          	add    $0x8,%rax
    652a:	48 8b 00             	mov    (%rax),%rax
    652d:	ba 0a 00 00 00       	mov    $0xa,%edx
    6532:	be 00 00 00 00       	mov    $0x0,%esi
    6537:	48 89 c7             	mov    %rax,%rdi
    653a:	e8 71 d0 ff ff       	call   35b0 <strtoull@plt>
    653f:	48 89 45 f8          	mov    %rax,-0x8(%rbp)
/home/tenebris/Documents/RootCauseAnalysis/evaluation/test_bin/libzip/libzip-1.2.0/src/ziptool.c:521
    6543:	48 8b 05 76 50 02 00 	mov    0x25076(%rip),%rax        # 2b5c0 <za>
    654a:	48 8b 55 f8          	mov    -0x8(%rbp),%rdx
    654e:	48 8b 75 f0          	mov    -0x10(%rbp),%rsi
    6552:	b9 00 00 00 00       	mov    $0x0,%ecx
    6557:	48 89 c7             	mov    %rax,%rdi
    655a:	e8 2d 8f 00 00       	call   f48c <zip_file_set_mtime>
    655f:	85 c0                	test   %eax,%eax
    6561:	79 3f                	jns    65a2 <set_file_mtime+0xb0>
/home/tenebris/Documents/RootCauseAnalysis/evaluation/test_bin/libzip/libzip-1.2.0/src/ziptool.c:522
    6563:	48 8b 05 56 50 02 00 	mov    0x25056(%rip),%rax        # 2b5c0 <za>
    656a:	48 89 c7             	mov    %rax,%rdi
    656d:	e8 3b 35 01 00       	call   19aad <zip_strerror>
    6572:	48 89 c6             	mov    %rax,%rsi
    6575:	48 8b 05 24 50 02 00 	mov    0x25024(%rip),%rax        # 2b5a0 <stderr@GLIBC_2.2.5>
    657c:	48 8b 4d f8          	mov    -0x8(%rbp),%rcx
    6580:	48 8b 55 f0          	mov    -0x10(%rbp),%rdx
    6584:	49 89 f0             	mov    %rsi,%r8
    6587:	48 8d 35 ca b1 01 00 	lea    0x1b1ca(%rip),%rsi        # 21758 <_IO_stdin_used+0x758>
    658e:	48 89 c7             	mov    %rax,%rdi
    6591:	b8 00 00 00 00       	mov    $0x0,%eax
    6596:	e8 45 d0 ff ff       	call   35e0 <fprintf@plt>
/home/tenebris/Documents/RootCauseAnalysis/evaluation/test_bin/libzip/libzip-1.2.0/src/ziptool.c:523
    659b:	b8 ff ff ff ff       	mov    $0xffffffff,%eax
    65a0:	eb 05                	jmp    65a7 <set_file_mtime+0xb5>
